ARM GAS  /tmp/cc4dDpyD.s 			page 1


   1              		.cpu cortex-m7
   2              		.eabi_attribute 28, 1
   3              		.eabi_attribute 20, 1
   4              		.eabi_attribute 21, 1
   5              		.eabi_attribute 23, 3
   6              		.eabi_attribute 24, 1
   7              		.eabi_attribute 25, 1
   8              		.eabi_attribute 26, 1
   9              		.eabi_attribute 30, 2
  10              		.eabi_attribute 34, 1
  11              		.eabi_attribute 18, 4
  12              		.file	"dwc2_common.c"
  13              		.text
  14              	.Ltext0:
  15              		.cfi_sections	.debug_frame
  16              		.section	.text.reset_core,"ax",%progbits
  17              		.align	1
  18              		.p2align 2,,3
  19              		.arch armv7e-m
  20              		.syntax unified
  21              		.thumb
  22              		.thumb_func
  23              		.fpu fpv5-d16
  25              	reset_core:
  26              	.LFB412:
  27              		.file 1 "/home/pi/Developer/tinyusb/src/portable/synopsys/dwc2/dwc2_common.c"
   1:/home/pi/Developer/tinyusb/src/portable/synopsys/dwc2/dwc2_common.c **** /*
   2:/home/pi/Developer/tinyusb/src/portable/synopsys/dwc2/dwc2_common.c ****  * The MIT License (MIT)
   3:/home/pi/Developer/tinyusb/src/portable/synopsys/dwc2/dwc2_common.c ****  *
   4:/home/pi/Developer/tinyusb/src/portable/synopsys/dwc2/dwc2_common.c ****  * Copyright (c) 2024-2025 Ha Thach (tinyusb.org)
   5:/home/pi/Developer/tinyusb/src/portable/synopsys/dwc2/dwc2_common.c ****  *
   6:/home/pi/Developer/tinyusb/src/portable/synopsys/dwc2/dwc2_common.c ****  * Permission is hereby granted, free of charge, to any person obtaining a copy
   7:/home/pi/Developer/tinyusb/src/portable/synopsys/dwc2/dwc2_common.c ****  * of this software and associated documentation files (the "Software"), to deal
   8:/home/pi/Developer/tinyusb/src/portable/synopsys/dwc2/dwc2_common.c ****  * in the Software without restriction, including without limitation the rights
   9:/home/pi/Developer/tinyusb/src/portable/synopsys/dwc2/dwc2_common.c ****  * to use, copy, modify, merge, publish, distribute, sublicense, and/or sell
  10:/home/pi/Developer/tinyusb/src/portable/synopsys/dwc2/dwc2_common.c ****  * copies of the Software, and to permit persons to whom the Software is
  11:/home/pi/Developer/tinyusb/src/portable/synopsys/dwc2/dwc2_common.c ****  * furnished to do so, subject to the following conditions:
  12:/home/pi/Developer/tinyusb/src/portable/synopsys/dwc2/dwc2_common.c ****  *
  13:/home/pi/Developer/tinyusb/src/portable/synopsys/dwc2/dwc2_common.c ****  * The above copyright notice and this permission notice shall be included in
  14:/home/pi/Developer/tinyusb/src/portable/synopsys/dwc2/dwc2_common.c ****  * all copies or substantial portions of the Software.
  15:/home/pi/Developer/tinyusb/src/portable/synopsys/dwc2/dwc2_common.c ****  *
  16:/home/pi/Developer/tinyusb/src/portable/synopsys/dwc2/dwc2_common.c ****  * THE SOFTWARE IS PROVIDED "AS IS", WITHOUT WARRANTY OF ANY KIND, EXPRESS OR
  17:/home/pi/Developer/tinyusb/src/portable/synopsys/dwc2/dwc2_common.c ****  * IMPLIED, INCLUDING BUT NOT LIMITED TO THE WARRANTIES OF MERCHANTABILITY,
  18:/home/pi/Developer/tinyusb/src/portable/synopsys/dwc2/dwc2_common.c ****  * FITNESS FOR A PARTICULAR PURPOSE AND NONINFRINGEMENT. IN NO EVENT SHALL THE
  19:/home/pi/Developer/tinyusb/src/portable/synopsys/dwc2/dwc2_common.c ****  * AUTHORS OR COPYRIGHT HOLDERS BE LIABLE FOR ANY CLAIM, DAMAGES OR OTHER
  20:/home/pi/Developer/tinyusb/src/portable/synopsys/dwc2/dwc2_common.c ****  * LIABILITY, WHETHER IN AN ACTION OF CONTRACT, TORT OR OTHERWISE, ARISING FROM,
  21:/home/pi/Developer/tinyusb/src/portable/synopsys/dwc2/dwc2_common.c ****  * OUT OF OR IN CONNECTION WITH THE SOFTWARE OR THE USE OR OTHER DEALINGS IN
  22:/home/pi/Developer/tinyusb/src/portable/synopsys/dwc2/dwc2_common.c ****  * THE SOFTWARE.
  23:/home/pi/Developer/tinyusb/src/portable/synopsys/dwc2/dwc2_common.c ****  *
  24:/home/pi/Developer/tinyusb/src/portable/synopsys/dwc2/dwc2_common.c ****  * This file is part of the TinyUSB stack.
  25:/home/pi/Developer/tinyusb/src/portable/synopsys/dwc2/dwc2_common.c ****  */
  26:/home/pi/Developer/tinyusb/src/portable/synopsys/dwc2/dwc2_common.c **** 
  27:/home/pi/Developer/tinyusb/src/portable/synopsys/dwc2/dwc2_common.c **** #include "tusb_option.h"
  28:/home/pi/Developer/tinyusb/src/portable/synopsys/dwc2/dwc2_common.c **** 
  29:/home/pi/Developer/tinyusb/src/portable/synopsys/dwc2/dwc2_common.c **** #define DWC2_COMMON_DEBUG   2
  30:/home/pi/Developer/tinyusb/src/portable/synopsys/dwc2/dwc2_common.c **** 
  31:/home/pi/Developer/tinyusb/src/portable/synopsys/dwc2/dwc2_common.c **** #if defined(TUP_USBIP_DWC2) && (CFG_TUH_ENABLED || CFG_TUD_ENABLED)
ARM GAS  /tmp/cc4dDpyD.s 			page 2


  32:/home/pi/Developer/tinyusb/src/portable/synopsys/dwc2/dwc2_common.c **** #include "dwc2_common.h"
  33:/home/pi/Developer/tinyusb/src/portable/synopsys/dwc2/dwc2_common.c **** 
  34:/home/pi/Developer/tinyusb/src/portable/synopsys/dwc2/dwc2_common.c **** //--------------------------------------------------------------------
  35:/home/pi/Developer/tinyusb/src/portable/synopsys/dwc2/dwc2_common.c **** //
  36:/home/pi/Developer/tinyusb/src/portable/synopsys/dwc2/dwc2_common.c **** //--------------------------------------------------------------------
  37:/home/pi/Developer/tinyusb/src/portable/synopsys/dwc2/dwc2_common.c **** static void reset_core(dwc2_regs_t* dwc2) {
  28              		.loc 1 37 43 view -0
  29              		.cfi_startproc
  30              		@ args = 0, pretend = 0, frame = 0
  31              		@ frame_needed = 0, uses_anonymous_args = 0
  32              		@ link register save eliminated.
  33              	.LVL0:
  34              	.L2:
  38:/home/pi/Developer/tinyusb/src/portable/synopsys/dwc2/dwc2_common.c ****   // The software must check that bit 31 in this register is set to 1 (AHB Master is Idle) before s
  39:/home/pi/Developer/tinyusb/src/portable/synopsys/dwc2/dwc2_common.c ****   while (!(dwc2->grstctl & GRSTCTL_AHBIDL)) {
  40:/home/pi/Developer/tinyusb/src/portable/synopsys/dwc2/dwc2_common.c ****   }
  35              		.loc 1 40 3 discriminator 1 view .LVU1
  39:/home/pi/Developer/tinyusb/src/portable/synopsys/dwc2/dwc2_common.c ****   }
  36              		.loc 1 39 9 discriminator 1 view .LVU2
  39:/home/pi/Developer/tinyusb/src/portable/synopsys/dwc2/dwc2_common.c ****   }
  37              		.loc 1 39 16 is_stmt 0 discriminator 1 view .LVU3
  38 0000 0369     		ldr	r3, [r0, #16]
  39:/home/pi/Developer/tinyusb/src/portable/synopsys/dwc2/dwc2_common.c ****   }
  39              		.loc 1 39 9 discriminator 1 view .LVU4
  40 0002 002B     		cmp	r3, #0
  41 0004 FCDA     		bge	.L2
  41:/home/pi/Developer/tinyusb/src/portable/synopsys/dwc2/dwc2_common.c **** 
  42:/home/pi/Developer/tinyusb/src/portable/synopsys/dwc2/dwc2_common.c ****   const uint32_t gsnpsid = dwc2->gsnpsid; // preload gsnpsid which is not readable while resetting
  42              		.loc 1 42 3 is_stmt 1 view .LVU5
  43              		.loc 1 42 18 is_stmt 0 view .LVU6
  44 0006 036C     		ldr	r3, [r0, #64]
  45              	.LVL1:
  43:/home/pi/Developer/tinyusb/src/portable/synopsys/dwc2/dwc2_common.c ****   dwc2->grstctl |= GRSTCTL_CSRST; // reset core
  46              		.loc 1 43 3 is_stmt 1 view .LVU7
  44:/home/pi/Developer/tinyusb/src/portable/synopsys/dwc2/dwc2_common.c **** 
  45:/home/pi/Developer/tinyusb/src/portable/synopsys/dwc2/dwc2_common.c ****   if ((gsnpsid & DWC2_CORE_REV_MASK) < (DWC2_CORE_REV_4_20a & DWC2_CORE_REV_MASK)) {
  47              		.loc 1 45 6 is_stmt 0 view .LVU8
  48 0008 44F20921 		movw	r1, #16905
  43:/home/pi/Developer/tinyusb/src/portable/synopsys/dwc2/dwc2_common.c ****   dwc2->grstctl |= GRSTCTL_CSRST; // reset core
  49              		.loc 1 43 17 view .LVU9
  50 000c 0269     		ldr	r2, [r0, #16]
  51              		.loc 1 45 16 view .LVU10
  52 000e 9BB2     		uxth	r3, r3
  53              	.LVL2:
  43:/home/pi/Developer/tinyusb/src/portable/synopsys/dwc2/dwc2_common.c ****   dwc2->grstctl |= GRSTCTL_CSRST; // reset core
  54              		.loc 1 43 17 view .LVU11
  55 0010 42F00102 		orr	r2, r2, #1
  56              		.loc 1 45 6 view .LVU12
  57 0014 8B42     		cmp	r3, r1
  43:/home/pi/Developer/tinyusb/src/portable/synopsys/dwc2/dwc2_common.c ****   dwc2->grstctl |= GRSTCTL_CSRST; // reset core
  58              		.loc 1 43 17 view .LVU13
  59 0016 0261     		str	r2, [r0, #16]
  60              		.loc 1 45 3 is_stmt 1 view .LVU14
  61              		.loc 1 45 6 is_stmt 0 view .LVU15
  62 0018 06D8     		bhi	.L3
  63              	.L4:
  46:/home/pi/Developer/tinyusb/src/portable/synopsys/dwc2/dwc2_common.c ****     // prior v4.20a: CSRST is self-clearing, and the core clears this bit after all the necessary l
ARM GAS  /tmp/cc4dDpyD.s 			page 3


  47:/home/pi/Developer/tinyusb/src/portable/synopsys/dwc2/dwc2_common.c ****     // the core, which can take several clocks, depending on the current state of the core. Once th
  48:/home/pi/Developer/tinyusb/src/portable/synopsys/dwc2/dwc2_common.c ****     // cleared, the software must wait at least 3 PHY clocks before accessing the PHY domain (synch
  49:/home/pi/Developer/tinyusb/src/portable/synopsys/dwc2/dwc2_common.c ****     while (dwc2->grstctl & GRSTCTL_CSRST) {}
  64              		.loc 1 49 44 is_stmt 1 discriminator 1 view .LVU16
  65              		.loc 1 49 11 discriminator 1 view .LVU17
  66              		.loc 1 49 16 is_stmt 0 discriminator 1 view .LVU18
  67 001a 0369     		ldr	r3, [r0, #16]
  68              		.loc 1 49 11 discriminator 1 view .LVU19
  69 001c DA07     		lsls	r2, r3, #31
  70 001e FCD4     		bmi	.L4
  71              	.L6:
  50:/home/pi/Developer/tinyusb/src/portable/synopsys/dwc2/dwc2_common.c ****   } else {
  51:/home/pi/Developer/tinyusb/src/portable/synopsys/dwc2/dwc2_common.c ****     // From v4.20a: CSRST bit is write only. The application must clear this bit after checking the
  52:/home/pi/Developer/tinyusb/src/portable/synopsys/dwc2/dwc2_common.c ****     // register i.e Core Soft Reset Done CSRT_DONE (w1c)
  53:/home/pi/Developer/tinyusb/src/portable/synopsys/dwc2/dwc2_common.c ****     while (!(dwc2->grstctl & GRSTCTL_CSRST_DONE)) {}
  54:/home/pi/Developer/tinyusb/src/portable/synopsys/dwc2/dwc2_common.c ****     dwc2->grstctl = (dwc2->grstctl & ~GRSTCTL_CSRST) | GRSTCTL_CSRST_DONE;
  55:/home/pi/Developer/tinyusb/src/portable/synopsys/dwc2/dwc2_common.c ****   }
  56:/home/pi/Developer/tinyusb/src/portable/synopsys/dwc2/dwc2_common.c **** 
  57:/home/pi/Developer/tinyusb/src/portable/synopsys/dwc2/dwc2_common.c ****   while (!(dwc2->grstctl & GRSTCTL_AHBIDL)) {} // wait for AHB master IDLE
  72              		.loc 1 57 46 is_stmt 1 discriminator 1 view .LVU20
  73              		.loc 1 57 9 discriminator 1 view .LVU21
  74              		.loc 1 57 16 is_stmt 0 discriminator 1 view .LVU22
  75 0020 0369     		ldr	r3, [r0, #16]
  76              		.loc 1 57 9 discriminator 1 view .LVU23
  77 0022 002B     		cmp	r3, #0
  78 0024 FCDA     		bge	.L6
  58:/home/pi/Developer/tinyusb/src/portable/synopsys/dwc2/dwc2_common.c **** }
  79              		.loc 1 58 1 view .LVU24
  80 0026 7047     		bx	lr
  81              	.L3:
  53:/home/pi/Developer/tinyusb/src/portable/synopsys/dwc2/dwc2_common.c ****     dwc2->grstctl = (dwc2->grstctl & ~GRSTCTL_CSRST) | GRSTCTL_CSRST_DONE;
  82              		.loc 1 53 52 is_stmt 1 discriminator 1 view .LVU25
  53:/home/pi/Developer/tinyusb/src/portable/synopsys/dwc2/dwc2_common.c ****     dwc2->grstctl = (dwc2->grstctl & ~GRSTCTL_CSRST) | GRSTCTL_CSRST_DONE;
  83              		.loc 1 53 11 discriminator 1 view .LVU26
  53:/home/pi/Developer/tinyusb/src/portable/synopsys/dwc2/dwc2_common.c ****     dwc2->grstctl = (dwc2->grstctl & ~GRSTCTL_CSRST) | GRSTCTL_CSRST_DONE;
  84              		.loc 1 53 18 is_stmt 0 discriminator 1 view .LVU27
  85 0028 0369     		ldr	r3, [r0, #16]
  53:/home/pi/Developer/tinyusb/src/portable/synopsys/dwc2/dwc2_common.c ****     dwc2->grstctl = (dwc2->grstctl & ~GRSTCTL_CSRST) | GRSTCTL_CSRST_DONE;
  86              		.loc 1 53 11 discriminator 1 view .LVU28
  87 002a 9B00     		lsls	r3, r3, #2
  88 002c FCD5     		bpl	.L3
  54:/home/pi/Developer/tinyusb/src/portable/synopsys/dwc2/dwc2_common.c ****   }
  89              		.loc 1 54 5 is_stmt 1 view .LVU29
  54:/home/pi/Developer/tinyusb/src/portable/synopsys/dwc2/dwc2_common.c ****   }
  90              		.loc 1 54 26 is_stmt 0 view .LVU30
  91 002e 0269     		ldr	r2, [r0, #16]
  54:/home/pi/Developer/tinyusb/src/portable/synopsys/dwc2/dwc2_common.c ****   }
  92              		.loc 1 54 54 view .LVU31
  93 0030 024B     		ldr	r3, .L14
  94 0032 1340     		ands	r3, r3, r2
  95 0034 43F00053 		orr	r3, r3, #536870912
  54:/home/pi/Developer/tinyusb/src/portable/synopsys/dwc2/dwc2_common.c ****   }
  96              		.loc 1 54 19 view .LVU32
  97 0038 0361     		str	r3, [r0, #16]
  98 003a F1E7     		b	.L6
  99              	.L15:
 100              		.align	2
ARM GAS  /tmp/cc4dDpyD.s 			page 4


 101              	.L14:
 102 003c FEFFFFDF 		.word	-536870914
 103              		.cfi_endproc
 104              	.LFE412:
 106              		.section	.text.dwc2_core_is_highspeed_phy,"ax",%progbits
 107              		.align	1
 108              		.p2align 2,,3
 109              		.global	dwc2_core_is_highspeed_phy
 110              		.syntax unified
 111              		.thumb
 112              		.thumb_func
 113              		.fpu fpv5-d16
 115              	dwc2_core_is_highspeed_phy:
 116              	.LVL3:
 117              	.LFB416:
  59:/home/pi/Developer/tinyusb/src/portable/synopsys/dwc2/dwc2_common.c **** 
  60:/home/pi/Developer/tinyusb/src/portable/synopsys/dwc2/dwc2_common.c **** // Dedicated FS PHY is internal with a clock 48Mhz.
  61:/home/pi/Developer/tinyusb/src/portable/synopsys/dwc2/dwc2_common.c **** static void phy_fs_init(dwc2_regs_t* dwc2) {
  62:/home/pi/Developer/tinyusb/src/portable/synopsys/dwc2/dwc2_common.c ****   TU_LOG(DWC2_COMMON_DEBUG, "Fullspeed PHY init\r\n");
  63:/home/pi/Developer/tinyusb/src/portable/synopsys/dwc2/dwc2_common.c **** 
  64:/home/pi/Developer/tinyusb/src/portable/synopsys/dwc2/dwc2_common.c ****   uint32_t gusbcfg = dwc2->gusbcfg;
  65:/home/pi/Developer/tinyusb/src/portable/synopsys/dwc2/dwc2_common.c **** 
  66:/home/pi/Developer/tinyusb/src/portable/synopsys/dwc2/dwc2_common.c ****   // Select FS PHY
  67:/home/pi/Developer/tinyusb/src/portable/synopsys/dwc2/dwc2_common.c ****   gusbcfg |= GUSBCFG_PHYSEL;
  68:/home/pi/Developer/tinyusb/src/portable/synopsys/dwc2/dwc2_common.c ****   dwc2->gusbcfg = gusbcfg;
  69:/home/pi/Developer/tinyusb/src/portable/synopsys/dwc2/dwc2_common.c **** 
  70:/home/pi/Developer/tinyusb/src/portable/synopsys/dwc2/dwc2_common.c ****   // MCU specific PHY init before reset
  71:/home/pi/Developer/tinyusb/src/portable/synopsys/dwc2/dwc2_common.c ****   dwc2_phy_init(dwc2, GHWCFG2_HSPHY_NOT_SUPPORTED);
  72:/home/pi/Developer/tinyusb/src/portable/synopsys/dwc2/dwc2_common.c **** 
  73:/home/pi/Developer/tinyusb/src/portable/synopsys/dwc2/dwc2_common.c ****   // Reset core after selecting PHY
  74:/home/pi/Developer/tinyusb/src/portable/synopsys/dwc2/dwc2_common.c ****   reset_core(dwc2);
  75:/home/pi/Developer/tinyusb/src/portable/synopsys/dwc2/dwc2_common.c **** 
  76:/home/pi/Developer/tinyusb/src/portable/synopsys/dwc2/dwc2_common.c ****   // USB turnaround time is critical for certification where long cables and 5-Hubs are used.
  77:/home/pi/Developer/tinyusb/src/portable/synopsys/dwc2/dwc2_common.c ****   // So if you need the AHB to run at less than 30 MHz, and if USB turnaround time is not critical,
  78:/home/pi/Developer/tinyusb/src/portable/synopsys/dwc2/dwc2_common.c ****   // these bits can be programmed to a larger value. Default is 5
  79:/home/pi/Developer/tinyusb/src/portable/synopsys/dwc2/dwc2_common.c ****   gusbcfg &= ~GUSBCFG_TRDT_Msk;
  80:/home/pi/Developer/tinyusb/src/portable/synopsys/dwc2/dwc2_common.c ****   gusbcfg |= 5u << GUSBCFG_TRDT_Pos;
  81:/home/pi/Developer/tinyusb/src/portable/synopsys/dwc2/dwc2_common.c ****   dwc2->gusbcfg = gusbcfg;
  82:/home/pi/Developer/tinyusb/src/portable/synopsys/dwc2/dwc2_common.c **** 
  83:/home/pi/Developer/tinyusb/src/portable/synopsys/dwc2/dwc2_common.c ****   // MCU specific PHY update post reset
  84:/home/pi/Developer/tinyusb/src/portable/synopsys/dwc2/dwc2_common.c ****   dwc2_phy_update(dwc2, GHWCFG2_HSPHY_NOT_SUPPORTED);
  85:/home/pi/Developer/tinyusb/src/portable/synopsys/dwc2/dwc2_common.c **** }
  86:/home/pi/Developer/tinyusb/src/portable/synopsys/dwc2/dwc2_common.c **** 
  87:/home/pi/Developer/tinyusb/src/portable/synopsys/dwc2/dwc2_common.c **** /* dwc2 has 2 highspeed PHYs options
  88:/home/pi/Developer/tinyusb/src/portable/synopsys/dwc2/dwc2_common.c ****  * - UTMI+ is internal highspeed PHY, can be clocked at 30 Mhz (8-bit) or 60 Mhz (16-bit).
  89:/home/pi/Developer/tinyusb/src/portable/synopsys/dwc2/dwc2_common.c ****  * - ULPI is external highspeed PHY, clocked at 60Mhz with 8-bit interface.
  90:/home/pi/Developer/tinyusb/src/portable/synopsys/dwc2/dwc2_common.c ****  *
  91:/home/pi/Developer/tinyusb/src/portable/synopsys/dwc2/dwc2_common.c ****  * In addition, UTMI+/ULPI can be shared to run at fullspeed mode with 48Mhz
  92:/home/pi/Developer/tinyusb/src/portable/synopsys/dwc2/dwc2_common.c ****  */
  93:/home/pi/Developer/tinyusb/src/portable/synopsys/dwc2/dwc2_common.c **** static void phy_hs_init(dwc2_regs_t* dwc2) {
  94:/home/pi/Developer/tinyusb/src/portable/synopsys/dwc2/dwc2_common.c ****   uint32_t gusbcfg = dwc2->gusbcfg;
  95:/home/pi/Developer/tinyusb/src/portable/synopsys/dwc2/dwc2_common.c ****   const dwc2_ghwcfg2_t ghwcfg2 = {.value = dwc2->ghwcfg2};
  96:/home/pi/Developer/tinyusb/src/portable/synopsys/dwc2/dwc2_common.c ****   const dwc2_ghwcfg4_t ghwcfg4 = {.value = dwc2->ghwcfg4};
  97:/home/pi/Developer/tinyusb/src/portable/synopsys/dwc2/dwc2_common.c **** 
  98:/home/pi/Developer/tinyusb/src/portable/synopsys/dwc2/dwc2_common.c ****   uint8_t phy_width;
  99:/home/pi/Developer/tinyusb/src/portable/synopsys/dwc2/dwc2_common.c ****   if (CFG_TUSB_MCU != OPT_MCU_AT32F402_405 && // at32f402_405 does not support 16-bit
 100:/home/pi/Developer/tinyusb/src/portable/synopsys/dwc2/dwc2_common.c ****       ghwcfg4.phy_data_width) {
ARM GAS  /tmp/cc4dDpyD.s 			page 5


 101:/home/pi/Developer/tinyusb/src/portable/synopsys/dwc2/dwc2_common.c ****     phy_width = 16; // 16-bit PHY interface if supported
 102:/home/pi/Developer/tinyusb/src/portable/synopsys/dwc2/dwc2_common.c ****   } else {
 103:/home/pi/Developer/tinyusb/src/portable/synopsys/dwc2/dwc2_common.c ****     phy_width = 8; // 8-bit PHY interface
 104:/home/pi/Developer/tinyusb/src/portable/synopsys/dwc2/dwc2_common.c ****   }
 105:/home/pi/Developer/tinyusb/src/portable/synopsys/dwc2/dwc2_common.c **** 
 106:/home/pi/Developer/tinyusb/src/portable/synopsys/dwc2/dwc2_common.c ****   // De-select FS PHY
 107:/home/pi/Developer/tinyusb/src/portable/synopsys/dwc2/dwc2_common.c ****   gusbcfg &= ~GUSBCFG_PHYSEL;
 108:/home/pi/Developer/tinyusb/src/portable/synopsys/dwc2/dwc2_common.c **** 
 109:/home/pi/Developer/tinyusb/src/portable/synopsys/dwc2/dwc2_common.c ****   if (ghwcfg2.hs_phy_type == GHWCFG2_HSPHY_ULPI) {
 110:/home/pi/Developer/tinyusb/src/portable/synopsys/dwc2/dwc2_common.c ****     TU_LOG(DWC2_COMMON_DEBUG, "Highspeed ULPI PHY init\r\n");
 111:/home/pi/Developer/tinyusb/src/portable/synopsys/dwc2/dwc2_common.c **** 
 112:/home/pi/Developer/tinyusb/src/portable/synopsys/dwc2/dwc2_common.c ****     // Select ULPI PHY (external)
 113:/home/pi/Developer/tinyusb/src/portable/synopsys/dwc2/dwc2_common.c ****     gusbcfg |= GUSBCFG_ULPI_UTMI_SEL;
 114:/home/pi/Developer/tinyusb/src/portable/synopsys/dwc2/dwc2_common.c **** 
 115:/home/pi/Developer/tinyusb/src/portable/synopsys/dwc2/dwc2_common.c ****     // ULPI is always 8-bit interface
 116:/home/pi/Developer/tinyusb/src/portable/synopsys/dwc2/dwc2_common.c ****     gusbcfg &= ~GUSBCFG_PHYIF16;
 117:/home/pi/Developer/tinyusb/src/portable/synopsys/dwc2/dwc2_common.c **** 
 118:/home/pi/Developer/tinyusb/src/portable/synopsys/dwc2/dwc2_common.c ****     // ULPI select single data rate
 119:/home/pi/Developer/tinyusb/src/portable/synopsys/dwc2/dwc2_common.c ****     gusbcfg &= ~GUSBCFG_DDRSEL;
 120:/home/pi/Developer/tinyusb/src/portable/synopsys/dwc2/dwc2_common.c **** 
 121:/home/pi/Developer/tinyusb/src/portable/synopsys/dwc2/dwc2_common.c ****     // default internal VBUS Indicator and Drive
 122:/home/pi/Developer/tinyusb/src/portable/synopsys/dwc2/dwc2_common.c ****     gusbcfg &= ~(GUSBCFG_ULPIEVBUSD | GUSBCFG_ULPIEVBUSI);
 123:/home/pi/Developer/tinyusb/src/portable/synopsys/dwc2/dwc2_common.c **** 
 124:/home/pi/Developer/tinyusb/src/portable/synopsys/dwc2/dwc2_common.c ****     // Disable FS/LS ULPI
 125:/home/pi/Developer/tinyusb/src/portable/synopsys/dwc2/dwc2_common.c ****     gusbcfg &= ~(GUSBCFG_ULPIFSLS | GUSBCFG_ULPICSM);
 126:/home/pi/Developer/tinyusb/src/portable/synopsys/dwc2/dwc2_common.c ****   } else {
 127:/home/pi/Developer/tinyusb/src/portable/synopsys/dwc2/dwc2_common.c ****     TU_LOG(DWC2_COMMON_DEBUG, "Highspeed UTMI+ PHY init\r\n");
 128:/home/pi/Developer/tinyusb/src/portable/synopsys/dwc2/dwc2_common.c **** 
 129:/home/pi/Developer/tinyusb/src/portable/synopsys/dwc2/dwc2_common.c ****     // Select UTMI+ PHY (internal)
 130:/home/pi/Developer/tinyusb/src/portable/synopsys/dwc2/dwc2_common.c ****     gusbcfg &= ~GUSBCFG_ULPI_UTMI_SEL;
 131:/home/pi/Developer/tinyusb/src/portable/synopsys/dwc2/dwc2_common.c **** 
 132:/home/pi/Developer/tinyusb/src/portable/synopsys/dwc2/dwc2_common.c ****     // Set 16-bit interface if supported
 133:/home/pi/Developer/tinyusb/src/portable/synopsys/dwc2/dwc2_common.c ****     if (phy_width == 16) {
 134:/home/pi/Developer/tinyusb/src/portable/synopsys/dwc2/dwc2_common.c ****       gusbcfg |= GUSBCFG_PHYIF16;
 135:/home/pi/Developer/tinyusb/src/portable/synopsys/dwc2/dwc2_common.c ****     } else {
 136:/home/pi/Developer/tinyusb/src/portable/synopsys/dwc2/dwc2_common.c ****       gusbcfg &= ~GUSBCFG_PHYIF16;
 137:/home/pi/Developer/tinyusb/src/portable/synopsys/dwc2/dwc2_common.c ****     }
 138:/home/pi/Developer/tinyusb/src/portable/synopsys/dwc2/dwc2_common.c ****   }
 139:/home/pi/Developer/tinyusb/src/portable/synopsys/dwc2/dwc2_common.c **** 
 140:/home/pi/Developer/tinyusb/src/portable/synopsys/dwc2/dwc2_common.c ****   // Apply config
 141:/home/pi/Developer/tinyusb/src/portable/synopsys/dwc2/dwc2_common.c ****   dwc2->gusbcfg = gusbcfg;
 142:/home/pi/Developer/tinyusb/src/portable/synopsys/dwc2/dwc2_common.c **** 
 143:/home/pi/Developer/tinyusb/src/portable/synopsys/dwc2/dwc2_common.c ****   // mcu specific phy init
 144:/home/pi/Developer/tinyusb/src/portable/synopsys/dwc2/dwc2_common.c ****   dwc2_phy_init(dwc2, ghwcfg2.hs_phy_type);
 145:/home/pi/Developer/tinyusb/src/portable/synopsys/dwc2/dwc2_common.c **** 
 146:/home/pi/Developer/tinyusb/src/portable/synopsys/dwc2/dwc2_common.c ****   // Reset core after selecting PHY
 147:/home/pi/Developer/tinyusb/src/portable/synopsys/dwc2/dwc2_common.c ****   reset_core(dwc2);
 148:/home/pi/Developer/tinyusb/src/portable/synopsys/dwc2/dwc2_common.c **** 
 149:/home/pi/Developer/tinyusb/src/portable/synopsys/dwc2/dwc2_common.c ****   // Set turn-around, must after core reset otherwise it will be clear
 150:/home/pi/Developer/tinyusb/src/portable/synopsys/dwc2/dwc2_common.c ****   // - 9 if using 8-bit PHY interface
 151:/home/pi/Developer/tinyusb/src/portable/synopsys/dwc2/dwc2_common.c ****   // - 5 if using 16-bit PHY interface
 152:/home/pi/Developer/tinyusb/src/portable/synopsys/dwc2/dwc2_common.c ****   gusbcfg &= ~GUSBCFG_TRDT_Msk;
 153:/home/pi/Developer/tinyusb/src/portable/synopsys/dwc2/dwc2_common.c ****   gusbcfg |= (phy_width == 16 ? 5u : 9u) << GUSBCFG_TRDT_Pos;
 154:/home/pi/Developer/tinyusb/src/portable/synopsys/dwc2/dwc2_common.c ****   dwc2->gusbcfg = gusbcfg;
 155:/home/pi/Developer/tinyusb/src/portable/synopsys/dwc2/dwc2_common.c **** 
 156:/home/pi/Developer/tinyusb/src/portable/synopsys/dwc2/dwc2_common.c ****   // MCU specific PHY update post reset
 157:/home/pi/Developer/tinyusb/src/portable/synopsys/dwc2/dwc2_common.c ****   dwc2_phy_update(dwc2, ghwcfg2.hs_phy_type);
ARM GAS  /tmp/cc4dDpyD.s 			page 6


 158:/home/pi/Developer/tinyusb/src/portable/synopsys/dwc2/dwc2_common.c **** }
 159:/home/pi/Developer/tinyusb/src/portable/synopsys/dwc2/dwc2_common.c **** 
 160:/home/pi/Developer/tinyusb/src/portable/synopsys/dwc2/dwc2_common.c **** static bool check_dwc2(dwc2_regs_t* dwc2) {
 161:/home/pi/Developer/tinyusb/src/portable/synopsys/dwc2/dwc2_common.c **** #if CFG_TUSB_DEBUG >= DWC2_COMMON_DEBUG
 162:/home/pi/Developer/tinyusb/src/portable/synopsys/dwc2/dwc2_common.c ****   // print guid, gsnpsid, ghwcfg1, ghwcfg2, ghwcfg3, ghwcfg4
 163:/home/pi/Developer/tinyusb/src/portable/synopsys/dwc2/dwc2_common.c ****   // Run 'python dwc2_info.py' and check dwc2_info.md for bit-field value and comparison with other
 164:/home/pi/Developer/tinyusb/src/portable/synopsys/dwc2/dwc2_common.c ****   volatile uint32_t const* p = (volatile uint32_t const*) &dwc2->guid;
 165:/home/pi/Developer/tinyusb/src/portable/synopsys/dwc2/dwc2_common.c ****   TU_LOG1("guid, gsnpsid, ghwcfg1, ghwcfg2, ghwcfg3, ghwcfg4\r\n");
 166:/home/pi/Developer/tinyusb/src/portable/synopsys/dwc2/dwc2_common.c ****   for (size_t i = 0; i < 5; i++) {
 167:/home/pi/Developer/tinyusb/src/portable/synopsys/dwc2/dwc2_common.c ****     TU_LOG1("0x%08" PRIX32 ", ", p[i]);
 168:/home/pi/Developer/tinyusb/src/portable/synopsys/dwc2/dwc2_common.c ****   }
 169:/home/pi/Developer/tinyusb/src/portable/synopsys/dwc2/dwc2_common.c ****   TU_LOG1("0x%08" PRIX32 "\r\n", p[5]);
 170:/home/pi/Developer/tinyusb/src/portable/synopsys/dwc2/dwc2_common.c **** #endif
 171:/home/pi/Developer/tinyusb/src/portable/synopsys/dwc2/dwc2_common.c **** 
 172:/home/pi/Developer/tinyusb/src/portable/synopsys/dwc2/dwc2_common.c ****   // For some reason: GD32VF103 gsnpsid and all hwcfg register are always zero (skip it)
 173:/home/pi/Developer/tinyusb/src/portable/synopsys/dwc2/dwc2_common.c ****   (void)dwc2;
 174:/home/pi/Developer/tinyusb/src/portable/synopsys/dwc2/dwc2_common.c **** #if !TU_CHECK_MCU(OPT_MCU_GD32VF103)
 175:/home/pi/Developer/tinyusb/src/portable/synopsys/dwc2/dwc2_common.c ****   enum { GSNPSID_ID_MASK = TU_GENMASK(31, 16) };
 176:/home/pi/Developer/tinyusb/src/portable/synopsys/dwc2/dwc2_common.c ****   const uint32_t gsnpsid = dwc2->gsnpsid & GSNPSID_ID_MASK;
 177:/home/pi/Developer/tinyusb/src/portable/synopsys/dwc2/dwc2_common.c ****   TU_ASSERT(gsnpsid == DWC2_OTG_ID || gsnpsid == DWC2_FS_IOT_ID || gsnpsid == DWC2_HS_IOT_ID);
 178:/home/pi/Developer/tinyusb/src/portable/synopsys/dwc2/dwc2_common.c **** #endif
 179:/home/pi/Developer/tinyusb/src/portable/synopsys/dwc2/dwc2_common.c **** 
 180:/home/pi/Developer/tinyusb/src/portable/synopsys/dwc2/dwc2_common.c ****   return true;
 181:/home/pi/Developer/tinyusb/src/portable/synopsys/dwc2/dwc2_common.c **** }
 182:/home/pi/Developer/tinyusb/src/portable/synopsys/dwc2/dwc2_common.c **** 
 183:/home/pi/Developer/tinyusb/src/portable/synopsys/dwc2/dwc2_common.c **** //--------------------------------------------------------------------
 184:/home/pi/Developer/tinyusb/src/portable/synopsys/dwc2/dwc2_common.c **** //
 185:/home/pi/Developer/tinyusb/src/portable/synopsys/dwc2/dwc2_common.c **** //--------------------------------------------------------------------
 186:/home/pi/Developer/tinyusb/src/portable/synopsys/dwc2/dwc2_common.c **** bool dwc2_core_is_highspeed_phy(dwc2_regs_t* dwc2, bool prefer_hs_phy) {
 118              		.loc 1 186 72 is_stmt 1 view -0
 119              		.cfi_startproc
 120              		@ args = 0, pretend = 0, frame = 0
 121              		@ frame_needed = 0, uses_anonymous_args = 0
 122              		@ link register save eliminated.
 187:/home/pi/Developer/tinyusb/src/portable/synopsys/dwc2/dwc2_common.c ****   const dwc2_ghwcfg2_t ghwcfg2    = {.value = dwc2->ghwcfg2};
 123              		.loc 1 187 3 view .LVU34
 124              		.loc 1 187 51 is_stmt 0 view .LVU35
 125 0000 836C     		ldr	r3, [r0, #72]
 126              	.LVL4:
 188:/home/pi/Developer/tinyusb/src/portable/synopsys/dwc2/dwc2_common.c ****   const bool           has_hs_phy = (ghwcfg2.hs_phy_type != GHWCFG2_HSPHY_NOT_SUPPORTED);
 127              		.loc 1 188 3 is_stmt 1 view .LVU36
 128              		.loc 1 188 24 is_stmt 0 view .LVU37
 129 0002 13F0C00F 		tst	r3, #192
 130 0006 14BF     		ite	ne
 131 0008 0120     		movne	r0, #1
 132              	.LVL5:
 133              		.loc 1 188 24 view .LVU38
 134 000a 0020     		moveq	r0, #0
 135              	.LVL6:
 189:/home/pi/Developer/tinyusb/src/portable/synopsys/dwc2/dwc2_common.c **** 
 190:/home/pi/Developer/tinyusb/src/portable/synopsys/dwc2/dwc2_common.c ****   if (prefer_hs_phy) {
 136              		.loc 1 190 3 is_stmt 1 view .LVU39
 137              		.loc 1 190 6 is_stmt 0 view .LVU40
 138 000c 29B9     		cbnz	r1, .L17
 139              	.LBB20:
 191:/home/pi/Developer/tinyusb/src/portable/synopsys/dwc2/dwc2_common.c ****     return has_hs_phy;
 192:/home/pi/Developer/tinyusb/src/portable/synopsys/dwc2/dwc2_common.c ****   } else {
ARM GAS  /tmp/cc4dDpyD.s 			page 7


 193:/home/pi/Developer/tinyusb/src/portable/synopsys/dwc2/dwc2_common.c ****     const bool has_fs_phy = (ghwcfg2.fs_phy_type != GHWCFG2_FSPHY_NOT_SUPPORTED);
 140              		.loc 1 193 5 is_stmt 1 view .LVU41
 141              	.LVL7:
 194:/home/pi/Developer/tinyusb/src/portable/synopsys/dwc2/dwc2_common.c ****     // false if has fs phy, otherwise true since hs phy is the only available phy
 195:/home/pi/Developer/tinyusb/src/portable/synopsys/dwc2/dwc2_common.c ****     return !has_fs_phy && has_hs_phy;
 142              		.loc 1 195 5 view .LVU42
 143              		.loc 1 195 12 is_stmt 0 view .LVU43
 144 000e 13F4407F 		tst	r3, #768
 145              		.loc 1 195 24 view .LVU44
 146 0012 00F00100 		and	r0, r0, #1
 147              	.LVL8:
 148              		.loc 1 195 24 view .LVU45
 149 0016 18BF     		it	ne
 150 0018 0020     		movne	r0, #0
 151              	.LVL9:
 152              	.L17:
 153              		.loc 1 195 24 view .LVU46
 154              	.LBE20:
 196:/home/pi/Developer/tinyusb/src/portable/synopsys/dwc2/dwc2_common.c ****   }
 197:/home/pi/Developer/tinyusb/src/portable/synopsys/dwc2/dwc2_common.c **** }
 155              		.loc 1 197 1 view .LVU47
 156 001a 7047     		bx	lr
 157              		.cfi_endproc
 158              	.LFE416:
 160              		.section	.text.dwc2_core_init,"ax",%progbits
 161              		.align	1
 162              		.p2align 2,,3
 163              		.global	dwc2_core_init
 164              		.syntax unified
 165              		.thumb
 166              		.thumb_func
 167              		.fpu fpv5-d16
 169              	dwc2_core_init:
 170              	.LVL10:
 171              	.LFB417:
 198:/home/pi/Developer/tinyusb/src/portable/synopsys/dwc2/dwc2_common.c **** 
 199:/home/pi/Developer/tinyusb/src/portable/synopsys/dwc2/dwc2_common.c **** bool dwc2_core_init(uint8_t rhport, bool is_hs_phy, bool is_dma) {
 172              		.loc 1 199 66 is_stmt 1 view -0
 173              		.cfi_startproc
 174              		@ args = 0, pretend = 0, frame = 0
 175              		@ frame_needed = 0, uses_anonymous_args = 0
 200:/home/pi/Developer/tinyusb/src/portable/synopsys/dwc2/dwc2_common.c ****   dwc2_regs_t* dwc2 = DWC2_REG(rhport);
 176              		.loc 1 200 3 view .LVU49
 177              	.LBB53:
 178              	.LBI53:
 179              		.file 2 "/home/pi/Developer/tinyusb/src/portable/synopsys/dwc2/dwc2_common.h"
   1:/home/pi/Developer/tinyusb/src/portable/synopsys/dwc2/dwc2_common.h **** /*
   2:/home/pi/Developer/tinyusb/src/portable/synopsys/dwc2/dwc2_common.h **** * The MIT License (MIT)
   3:/home/pi/Developer/tinyusb/src/portable/synopsys/dwc2/dwc2_common.h ****  *
   4:/home/pi/Developer/tinyusb/src/portable/synopsys/dwc2/dwc2_common.h ****  * Copyright (c) 2024 Ha Thach (tinyusb.org)
   5:/home/pi/Developer/tinyusb/src/portable/synopsys/dwc2/dwc2_common.h ****  *
   6:/home/pi/Developer/tinyusb/src/portable/synopsys/dwc2/dwc2_common.h ****  * Permission is hereby granted, free of charge, to any person obtaining a copy
   7:/home/pi/Developer/tinyusb/src/portable/synopsys/dwc2/dwc2_common.h ****  * of this software and associated documentation files (the "Software"), to deal
   8:/home/pi/Developer/tinyusb/src/portable/synopsys/dwc2/dwc2_common.h ****  * in the Software without restriction, including without limitation the rights
   9:/home/pi/Developer/tinyusb/src/portable/synopsys/dwc2/dwc2_common.h ****  * to use, copy, modify, merge, publish, distribute, sublicense, and/or sell
  10:/home/pi/Developer/tinyusb/src/portable/synopsys/dwc2/dwc2_common.h ****  * copies of the Software, and to permit persons to whom the Software is
  11:/home/pi/Developer/tinyusb/src/portable/synopsys/dwc2/dwc2_common.h ****  * furnished to do so, subject to the following conditions:
ARM GAS  /tmp/cc4dDpyD.s 			page 8


  12:/home/pi/Developer/tinyusb/src/portable/synopsys/dwc2/dwc2_common.h ****  *
  13:/home/pi/Developer/tinyusb/src/portable/synopsys/dwc2/dwc2_common.h ****  * The above copyright notice and this permission notice shall be included in
  14:/home/pi/Developer/tinyusb/src/portable/synopsys/dwc2/dwc2_common.h ****  * all copies or substantial portions of the Software.
  15:/home/pi/Developer/tinyusb/src/portable/synopsys/dwc2/dwc2_common.h ****  *
  16:/home/pi/Developer/tinyusb/src/portable/synopsys/dwc2/dwc2_common.h ****  * THE SOFTWARE IS PROVIDED "AS IS", WITHOUT WARRANTY OF ANY KIND, EXPRESS OR
  17:/home/pi/Developer/tinyusb/src/portable/synopsys/dwc2/dwc2_common.h ****  * IMPLIED, INCLUDING BUT NOT LIMITED TO THE WARRANTIES OF MERCHANTABILITY,
  18:/home/pi/Developer/tinyusb/src/portable/synopsys/dwc2/dwc2_common.h ****  * FITNESS FOR A PARTICULAR PURPOSE AND NONINFRINGEMENT. IN NO EVENT SHALL THE
  19:/home/pi/Developer/tinyusb/src/portable/synopsys/dwc2/dwc2_common.h ****  * AUTHORS OR COPYRIGHT HOLDERS BE LIABLE FOR ANY CLAIM, DAMAGES OR OTHER
  20:/home/pi/Developer/tinyusb/src/portable/synopsys/dwc2/dwc2_common.h ****  * LIABILITY, WHETHER IN AN ACTION OF CONTRACT, TORT OR OTHERWISE, ARISING FROM,
  21:/home/pi/Developer/tinyusb/src/portable/synopsys/dwc2/dwc2_common.h ****  * OUT OF OR IN CONNECTION WITH THE SOFTWARE OR THE USE OR OTHER DEALINGS IN
  22:/home/pi/Developer/tinyusb/src/portable/synopsys/dwc2/dwc2_common.h ****  * THE SOFTWARE.
  23:/home/pi/Developer/tinyusb/src/portable/synopsys/dwc2/dwc2_common.h ****  *
  24:/home/pi/Developer/tinyusb/src/portable/synopsys/dwc2/dwc2_common.h ****  * This file is part of the TinyUSB stack.
  25:/home/pi/Developer/tinyusb/src/portable/synopsys/dwc2/dwc2_common.h ****  */
  26:/home/pi/Developer/tinyusb/src/portable/synopsys/dwc2/dwc2_common.h **** 
  27:/home/pi/Developer/tinyusb/src/portable/synopsys/dwc2/dwc2_common.h **** #ifndef TUSB_DWC2_COMMON_H
  28:/home/pi/Developer/tinyusb/src/portable/synopsys/dwc2/dwc2_common.h **** #define TUSB_DWC2_COMMON_H
  29:/home/pi/Developer/tinyusb/src/portable/synopsys/dwc2/dwc2_common.h **** 
  30:/home/pi/Developer/tinyusb/src/portable/synopsys/dwc2/dwc2_common.h **** #include "common/tusb_common.h"
  31:/home/pi/Developer/tinyusb/src/portable/synopsys/dwc2/dwc2_common.h **** #include "dwc2_type.h"
  32:/home/pi/Developer/tinyusb/src/portable/synopsys/dwc2/dwc2_common.h **** 
  33:/home/pi/Developer/tinyusb/src/portable/synopsys/dwc2/dwc2_common.h **** #if CFG_TUD_ENABLED
  34:/home/pi/Developer/tinyusb/src/portable/synopsys/dwc2/dwc2_common.h **** #include "device/dcd.h"
  35:/home/pi/Developer/tinyusb/src/portable/synopsys/dwc2/dwc2_common.h **** #endif
  36:/home/pi/Developer/tinyusb/src/portable/synopsys/dwc2/dwc2_common.h **** 
  37:/home/pi/Developer/tinyusb/src/portable/synopsys/dwc2/dwc2_common.h **** #if CFG_TUH_ENABLED
  38:/home/pi/Developer/tinyusb/src/portable/synopsys/dwc2/dwc2_common.h **** #include "host/hcd.h"
  39:/home/pi/Developer/tinyusb/src/portable/synopsys/dwc2/dwc2_common.h **** #endif
  40:/home/pi/Developer/tinyusb/src/portable/synopsys/dwc2/dwc2_common.h **** 
  41:/home/pi/Developer/tinyusb/src/portable/synopsys/dwc2/dwc2_common.h **** /* Following symbols must be defined by port header
  42:/home/pi/Developer/tinyusb/src/portable/synopsys/dwc2/dwc2_common.h ****   - _dwc2_controller[]: array of controllers
  43:/home/pi/Developer/tinyusb/src/portable/synopsys/dwc2/dwc2_common.h ****   - DWC2_EP_MAX: largest EP counts of all controllers
  44:/home/pi/Developer/tinyusb/src/portable/synopsys/dwc2/dwc2_common.h ****   - dwc2_clock_init(): clock init call before
  45:/home/pi/Developer/tinyusb/src/portable/synopsys/dwc2/dwc2_common.h ****   - dwc2_phy_init/dwc2_phy_update: phy init called before and after core reset
  46:/home/pi/Developer/tinyusb/src/portable/synopsys/dwc2/dwc2_common.h ****   - dwc2_phy_deinit(dwc2, hs_phy_type): phy deinit to disable PHY power, only deinit the phy used b
  47:/home/pi/Developer/tinyusb/src/portable/synopsys/dwc2/dwc2_common.h ****   - dwc2_dcd_int_enable/dwc2_dcd_int_disable
  48:/home/pi/Developer/tinyusb/src/portable/synopsys/dwc2/dwc2_common.h ****   - dwc2_remote_wakeup_delay
  49:/home/pi/Developer/tinyusb/src/portable/synopsys/dwc2/dwc2_common.h **** */
  50:/home/pi/Developer/tinyusb/src/portable/synopsys/dwc2/dwc2_common.h **** 
  51:/home/pi/Developer/tinyusb/src/portable/synopsys/dwc2/dwc2_common.h **** #if defined(TUP_USBIP_DWC2_STM32)
  52:/home/pi/Developer/tinyusb/src/portable/synopsys/dwc2/dwc2_common.h ****   #include "dwc2_stm32.h"
  53:/home/pi/Developer/tinyusb/src/portable/synopsys/dwc2/dwc2_common.h **** #elif defined(TUP_USBIP_DWC2_ESP32)
  54:/home/pi/Developer/tinyusb/src/portable/synopsys/dwc2/dwc2_common.h ****   #include "dwc2_esp32.h"
  55:/home/pi/Developer/tinyusb/src/portable/synopsys/dwc2/dwc2_common.h **** #elif TU_CHECK_MCU(OPT_MCU_GD32VF103)
  56:/home/pi/Developer/tinyusb/src/portable/synopsys/dwc2/dwc2_common.h ****   #include "dwc2_gd32.h"
  57:/home/pi/Developer/tinyusb/src/portable/synopsys/dwc2/dwc2_common.h **** #elif TU_CHECK_MCU(OPT_MCU_BCM2711, OPT_MCU_BCM2835, OPT_MCU_BCM2837)
  58:/home/pi/Developer/tinyusb/src/portable/synopsys/dwc2/dwc2_common.h ****   #include "dwc2_bcm.h"
  59:/home/pi/Developer/tinyusb/src/portable/synopsys/dwc2/dwc2_common.h **** #elif TU_CHECK_MCU(OPT_MCU_EFM32GG)
  60:/home/pi/Developer/tinyusb/src/portable/synopsys/dwc2/dwc2_common.h ****   #include "dwc2_efm32.h"
  61:/home/pi/Developer/tinyusb/src/portable/synopsys/dwc2/dwc2_common.h **** #elif TU_CHECK_MCU(OPT_MCU_XMC4000)
  62:/home/pi/Developer/tinyusb/src/portable/synopsys/dwc2/dwc2_common.h ****   #include "dwc2_xmc.h"
  63:/home/pi/Developer/tinyusb/src/portable/synopsys/dwc2/dwc2_common.h **** #elif defined(TUP_USBIP_DWC2_AT32)
  64:/home/pi/Developer/tinyusb/src/portable/synopsys/dwc2/dwc2_common.h ****   #include "dwc2_at32.h"
  65:/home/pi/Developer/tinyusb/src/portable/synopsys/dwc2/dwc2_common.h **** #elif defined(TUP_USBIP_DWC2_NRF)
  66:/home/pi/Developer/tinyusb/src/portable/synopsys/dwc2/dwc2_common.h ****   #include "dwc2_nrf.h"
  67:/home/pi/Developer/tinyusb/src/portable/synopsys/dwc2/dwc2_common.h **** #else
  68:/home/pi/Developer/tinyusb/src/portable/synopsys/dwc2/dwc2_common.h ****   #error "Unsupported MCUs"
ARM GAS  /tmp/cc4dDpyD.s 			page 9


  69:/home/pi/Developer/tinyusb/src/portable/synopsys/dwc2/dwc2_common.h **** #endif
  70:/home/pi/Developer/tinyusb/src/portable/synopsys/dwc2/dwc2_common.h **** 
  71:/home/pi/Developer/tinyusb/src/portable/synopsys/dwc2/dwc2_common.h **** enum {
  72:/home/pi/Developer/tinyusb/src/portable/synopsys/dwc2/dwc2_common.h ****   DWC2_CONTROLLER_COUNT = TU_ARRAY_SIZE(_dwc2_controller)
  73:/home/pi/Developer/tinyusb/src/portable/synopsys/dwc2/dwc2_common.h **** };
  74:/home/pi/Developer/tinyusb/src/portable/synopsys/dwc2/dwc2_common.h **** 
  75:/home/pi/Developer/tinyusb/src/portable/synopsys/dwc2/dwc2_common.h **** enum {
  76:/home/pi/Developer/tinyusb/src/portable/synopsys/dwc2/dwc2_common.h ****   OTG_INT_COMMON = 0 // GINTSTS_DISCINT | GINTSTS_CONIDSTSCHNG
  77:/home/pi/Developer/tinyusb/src/portable/synopsys/dwc2/dwc2_common.h **** };
  78:/home/pi/Developer/tinyusb/src/portable/synopsys/dwc2/dwc2_common.h **** 
  79:/home/pi/Developer/tinyusb/src/portable/synopsys/dwc2/dwc2_common.h **** //--------------------------------------------------------------------+
  80:/home/pi/Developer/tinyusb/src/portable/synopsys/dwc2/dwc2_common.h **** // Core/Controller
  81:/home/pi/Developer/tinyusb/src/portable/synopsys/dwc2/dwc2_common.h **** //--------------------------------------------------------------------+
  82:/home/pi/Developer/tinyusb/src/portable/synopsys/dwc2/dwc2_common.h **** TU_ATTR_ALWAYS_INLINE static inline dwc2_regs_t* DWC2_REG(uint8_t rhport) {
 180              		.loc 2 82 50 view .LVU50
 181              	.LBB54:
  83:/home/pi/Developer/tinyusb/src/portable/synopsys/dwc2/dwc2_common.h ****   if (rhport >= DWC2_CONTROLLER_COUNT) {
 182              		.loc 2 83 3 view .LVU51
 183              		.loc 2 83 6 is_stmt 0 view .LVU52
 184 0000 0128     		cmp	r0, #1
 185              	.LBE54:
 186              	.LBE53:
 199:/home/pi/Developer/tinyusb/src/portable/synopsys/dwc2/dwc2_common.c ****   dwc2_regs_t* dwc2 = DWC2_REG(rhport);
 187              		.loc 1 199 66 view .LVU53
 188 0002 2DE9F041 		push	{r4, r5, r6, r7, r8, lr}
 189              		.cfi_def_cfa_offset 24
 190              		.cfi_offset 4, -24
 191              		.cfi_offset 5, -20
 192              		.cfi_offset 6, -16
 193              		.cfi_offset 7, -12
 194              		.cfi_offset 8, -8
 195              		.cfi_offset 14, -4
 199:/home/pi/Developer/tinyusb/src/portable/synopsys/dwc2/dwc2_common.c ****   dwc2_regs_t* dwc2 = DWC2_REG(rhport);
 196              		.loc 1 199 66 view .LVU54
 197 0006 1546     		mov	r5, r2
 198              	.LBB57:
 199              	.LBB55:
 200              		.loc 2 83 6 view .LVU55
 201 0008 40F2D380 		bls	.L91
 202 000c B64C     		ldr	r4, .L101
 203 000e 2046     		mov	r0, r4
 204              	.LVL11:
 205              	.L19:
  84:/home/pi/Developer/tinyusb/src/portable/synopsys/dwc2/dwc2_common.h ****     // user mis-configured, ignore and use first controller
  85:/home/pi/Developer/tinyusb/src/portable/synopsys/dwc2/dwc2_common.h ****     rhport = 0;
  86:/home/pi/Developer/tinyusb/src/portable/synopsys/dwc2/dwc2_common.h ****   }
  87:/home/pi/Developer/tinyusb/src/portable/synopsys/dwc2/dwc2_common.h ****   return (dwc2_regs_t*)_dwc2_controller[rhport].reg_base;
 206              		.loc 2 87 3 is_stmt 1 view .LVU56
 207              		.loc 2 87 3 is_stmt 0 view .LVU57
 208              	.LBE55:
 209              	.LBE57:
 201:/home/pi/Developer/tinyusb/src/portable/synopsys/dwc2/dwc2_common.c **** 
 202:/home/pi/Developer/tinyusb/src/portable/synopsys/dwc2/dwc2_common.c ****   // Check Synopsys ID register, failed if controller clock/power is not enabled
 203:/home/pi/Developer/tinyusb/src/portable/synopsys/dwc2/dwc2_common.c ****   TU_ASSERT(check_dwc2(dwc2));
 210              		.loc 1 203 3 is_stmt 1 view .LVU58
 211              		.loc 1 203 3 view .LVU59
 212              	.LBB58:
ARM GAS  /tmp/cc4dDpyD.s 			page 10


 213              	.LBI58:
 160:/home/pi/Developer/tinyusb/src/portable/synopsys/dwc2/dwc2_common.c **** #if CFG_TUSB_DEBUG >= DWC2_COMMON_DEBUG
 214              		.loc 1 160 13 view .LVU60
 215              	.LBB59:
 173:/home/pi/Developer/tinyusb/src/portable/synopsys/dwc2/dwc2_common.c **** #if !TU_CHECK_MCU(OPT_MCU_GD32VF103)
 216              		.loc 1 173 3 view .LVU61
 175:/home/pi/Developer/tinyusb/src/portable/synopsys/dwc2/dwc2_common.c ****   const uint32_t gsnpsid = dwc2->gsnpsid & GSNPSID_ID_MASK;
 217              		.loc 1 175 3 view .LVU62
 176:/home/pi/Developer/tinyusb/src/portable/synopsys/dwc2/dwc2_common.c ****   TU_ASSERT(gsnpsid == DWC2_OTG_ID || gsnpsid == DWC2_FS_IOT_ID || gsnpsid == DWC2_HS_IOT_ID);
 218              		.loc 1 176 3 view .LVU63
 176:/home/pi/Developer/tinyusb/src/portable/synopsys/dwc2/dwc2_common.c ****   TU_ASSERT(gsnpsid == DWC2_OTG_ID || gsnpsid == DWC2_FS_IOT_ID || gsnpsid == DWC2_HS_IOT_ID);
 219              		.loc 1 176 32 is_stmt 0 view .LVU64
 220 0010 226C     		ldr	r2, [r4, #64]
 176:/home/pi/Developer/tinyusb/src/portable/synopsys/dwc2/dwc2_common.c ****   TU_ASSERT(gsnpsid == DWC2_OTG_ID || gsnpsid == DWC2_FS_IOT_ID || gsnpsid == DWC2_HS_IOT_ID);
 221              		.loc 1 176 18 view .LVU65
 222 0012 B64B     		ldr	r3, .L101+4
 177:/home/pi/Developer/tinyusb/src/portable/synopsys/dwc2/dwc2_common.c **** #endif
 223              		.loc 1 177 3 view .LVU66
 224 0014 B64E     		ldr	r6, .L101+8
 176:/home/pi/Developer/tinyusb/src/portable/synopsys/dwc2/dwc2_common.c ****   TU_ASSERT(gsnpsid == DWC2_OTG_ID || gsnpsid == DWC2_FS_IOT_ID || gsnpsid == DWC2_HS_IOT_ID);
 225              		.loc 1 176 18 view .LVU67
 226 0016 1340     		ands	r3, r3, r2
 227              	.LVL12:
 177:/home/pi/Developer/tinyusb/src/portable/synopsys/dwc2/dwc2_common.c **** #endif
 228              		.loc 1 177 3 is_stmt 1 view .LVU68
 177:/home/pi/Developer/tinyusb/src/portable/synopsys/dwc2/dwc2_common.c **** #endif
 229              		.loc 1 177 3 view .LVU69
 230 0018 B64A     		ldr	r2, .L101+12
 231 001a B342     		cmp	r3, r6
 232 001c 18BF     		it	ne
 233 001e 9342     		cmpne	r3, r2
 234 0020 04D0     		beq	.L20
 235 0022 02F58032 		add	r2, r2, #65536
 236 0026 9342     		cmp	r3, r2
 237 0028 40F0B180 		bne	.L92
 238              	.L20:
 239              	.LVL13:
 177:/home/pi/Developer/tinyusb/src/portable/synopsys/dwc2/dwc2_common.c **** #endif
 240              		.loc 1 177 3 is_stmt 0 view .LVU70
 241              	.LBE59:
 242              	.LBE58:
 243              		.loc 1 203 3 is_stmt 1 discriminator 2 view .LVU71
 204:/home/pi/Developer/tinyusb/src/portable/synopsys/dwc2/dwc2_common.c **** 
 205:/home/pi/Developer/tinyusb/src/portable/synopsys/dwc2/dwc2_common.c ****   // disable global interrupt
 206:/home/pi/Developer/tinyusb/src/portable/synopsys/dwc2/dwc2_common.c ****   dwc2->gahbcfg &= ~GAHBCFG_GINT;
 244              		.loc 1 206 3 discriminator 2 view .LVU72
 245              		.loc 1 206 17 is_stmt 0 discriminator 2 view .LVU73
 246 002c A368     		ldr	r3, [r4, #8]
 247 002e 23F00103 		bic	r3, r3, #1
 248 0032 A360     		str	r3, [r4, #8]
 207:/home/pi/Developer/tinyusb/src/portable/synopsys/dwc2/dwc2_common.c **** 
 208:/home/pi/Developer/tinyusb/src/portable/synopsys/dwc2/dwc2_common.c ****   if (is_hs_phy) {
 249              		.loc 1 208 3 is_stmt 1 discriminator 2 view .LVU74
 250              		.loc 1 208 6 is_stmt 0 discriminator 2 view .LVU75
 251 0034 0029     		cmp	r1, #0
 252 0036 49D1     		bne	.L93
 209:/home/pi/Developer/tinyusb/src/portable/synopsys/dwc2/dwc2_common.c ****     phy_hs_init(dwc2);
ARM GAS  /tmp/cc4dDpyD.s 			page 11


 210:/home/pi/Developer/tinyusb/src/portable/synopsys/dwc2/dwc2_common.c ****   } else {
 211:/home/pi/Developer/tinyusb/src/portable/synopsys/dwc2/dwc2_common.c ****     phy_fs_init(dwc2);
 253              		.loc 1 211 5 is_stmt 1 view .LVU76
 254              	.LVL14:
 255              	.LBB62:
 256              	.LBI62:
  61:/home/pi/Developer/tinyusb/src/portable/synopsys/dwc2/dwc2_common.c ****   TU_LOG(DWC2_COMMON_DEBUG, "Fullspeed PHY init\r\n");
 257              		.loc 1 61 13 view .LVU77
 258              	.LBB63:
  62:/home/pi/Developer/tinyusb/src/portable/synopsys/dwc2/dwc2_common.c **** 
 259              		.loc 1 62 54 view .LVU78
  64:/home/pi/Developer/tinyusb/src/portable/synopsys/dwc2/dwc2_common.c **** 
 260              		.loc 1 64 3 view .LVU79
  64:/home/pi/Developer/tinyusb/src/portable/synopsys/dwc2/dwc2_common.c **** 
 261              		.loc 1 64 12 is_stmt 0 view .LVU80
 262 0038 E668     		ldr	r6, [r4, #12]
 263              	.LVL15:
  67:/home/pi/Developer/tinyusb/src/portable/synopsys/dwc2/dwc2_common.c ****   dwc2->gusbcfg = gusbcfg;
 264              		.loc 1 67 3 is_stmt 1 view .LVU81
  67:/home/pi/Developer/tinyusb/src/portable/synopsys/dwc2/dwc2_common.c ****   dwc2->gusbcfg = gusbcfg;
 265              		.loc 1 67 11 is_stmt 0 view .LVU82
 266 003a 46F04002 		orr	r2, r6, #64
 267              	.LVL16:
  68:/home/pi/Developer/tinyusb/src/portable/synopsys/dwc2/dwc2_common.c **** 
 268              		.loc 1 68 3 is_stmt 1 view .LVU83
  68:/home/pi/Developer/tinyusb/src/portable/synopsys/dwc2/dwc2_common.c **** 
 269              		.loc 1 68 17 is_stmt 0 view .LVU84
 270 003e E260     		str	r2, [r4, #12]
  71:/home/pi/Developer/tinyusb/src/portable/synopsys/dwc2/dwc2_common.c **** 
 271              		.loc 1 71 3 is_stmt 1 view .LVU85
 272              	.LVL17:
 273              	.LBB64:
 274              	.LBI64:
 275              		.file 3 "/home/pi/Developer/tinyusb/src/portable/synopsys/dwc2/dwc2_stm32.h"
   1:/home/pi/Developer/tinyusb/src/portable/synopsys/dwc2/dwc2_stm32.h **** /*
   2:/home/pi/Developer/tinyusb/src/portable/synopsys/dwc2/dwc2_stm32.h ****  * The MIT License (MIT)
   3:/home/pi/Developer/tinyusb/src/portable/synopsys/dwc2/dwc2_stm32.h ****  *
   4:/home/pi/Developer/tinyusb/src/portable/synopsys/dwc2/dwc2_stm32.h ****  * Copyright (c) 2021, Ha Thach (tinyusb.org)
   5:/home/pi/Developer/tinyusb/src/portable/synopsys/dwc2/dwc2_stm32.h ****  *
   6:/home/pi/Developer/tinyusb/src/portable/synopsys/dwc2/dwc2_stm32.h ****  * Permission is hereby granted, free of charge, to any person obtaining a copy
   7:/home/pi/Developer/tinyusb/src/portable/synopsys/dwc2/dwc2_stm32.h ****  * of this software and associated documentation files (the "Software"), to deal
   8:/home/pi/Developer/tinyusb/src/portable/synopsys/dwc2/dwc2_stm32.h ****  * in the Software without restriction, including without limitation the rights
   9:/home/pi/Developer/tinyusb/src/portable/synopsys/dwc2/dwc2_stm32.h ****  * to use, copy, modify, merge, publish, distribute, sublicense, and/or sell
  10:/home/pi/Developer/tinyusb/src/portable/synopsys/dwc2/dwc2_stm32.h ****  * copies of the Software, and to permit persons to whom the Software is
  11:/home/pi/Developer/tinyusb/src/portable/synopsys/dwc2/dwc2_stm32.h ****  * furnished to do so, subject to the following conditions:
  12:/home/pi/Developer/tinyusb/src/portable/synopsys/dwc2/dwc2_stm32.h ****  *
  13:/home/pi/Developer/tinyusb/src/portable/synopsys/dwc2/dwc2_stm32.h ****  * The above copyright notice and this permission notice shall be included in
  14:/home/pi/Developer/tinyusb/src/portable/synopsys/dwc2/dwc2_stm32.h ****  * all copies or substantial portions of the Software.
  15:/home/pi/Developer/tinyusb/src/portable/synopsys/dwc2/dwc2_stm32.h ****  *
  16:/home/pi/Developer/tinyusb/src/portable/synopsys/dwc2/dwc2_stm32.h ****  * THE SOFTWARE IS PROVIDED "AS IS", WITHOUT WARRANTY OF ANY KIND, EXPRESS OR
  17:/home/pi/Developer/tinyusb/src/portable/synopsys/dwc2/dwc2_stm32.h ****  * IMPLIED, INCLUDING BUT NOT LIMITED TO THE WARRANTIES OF MERCHANTABILITY,
  18:/home/pi/Developer/tinyusb/src/portable/synopsys/dwc2/dwc2_stm32.h ****  * FITNESS FOR A PARTICULAR PURPOSE AND NONINFRINGEMENT. IN NO EVENT SHALL THE
  19:/home/pi/Developer/tinyusb/src/portable/synopsys/dwc2/dwc2_stm32.h ****  * AUTHORS OR COPYRIGHT HOLDERS BE LIABLE FOR ANY CLAIM, DAMAGES OR OTHER
  20:/home/pi/Developer/tinyusb/src/portable/synopsys/dwc2/dwc2_stm32.h ****  * LIABILITY, WHETHER IN AN ACTION OF CONTRACT, TORT OR OTHERWISE, ARISING FROM,
  21:/home/pi/Developer/tinyusb/src/portable/synopsys/dwc2/dwc2_stm32.h ****  * OUT OF OR IN CONNECTION WITH THE SOFTWARE OR THE USE OR OTHER DEALINGS IN
  22:/home/pi/Developer/tinyusb/src/portable/synopsys/dwc2/dwc2_stm32.h ****  * THE SOFTWARE.
  23:/home/pi/Developer/tinyusb/src/portable/synopsys/dwc2/dwc2_stm32.h ****  *
ARM GAS  /tmp/cc4dDpyD.s 			page 12


  24:/home/pi/Developer/tinyusb/src/portable/synopsys/dwc2/dwc2_stm32.h ****  * This file is part of the TinyUSB stack.
  25:/home/pi/Developer/tinyusb/src/portable/synopsys/dwc2/dwc2_stm32.h ****  */
  26:/home/pi/Developer/tinyusb/src/portable/synopsys/dwc2/dwc2_stm32.h **** 
  27:/home/pi/Developer/tinyusb/src/portable/synopsys/dwc2/dwc2_stm32.h **** #ifndef DWC2_STM32_H_
  28:/home/pi/Developer/tinyusb/src/portable/synopsys/dwc2/dwc2_stm32.h **** #define DWC2_STM32_H_
  29:/home/pi/Developer/tinyusb/src/portable/synopsys/dwc2/dwc2_stm32.h **** 
  30:/home/pi/Developer/tinyusb/src/portable/synopsys/dwc2/dwc2_stm32.h **** #ifdef __cplusplus
  31:/home/pi/Developer/tinyusb/src/portable/synopsys/dwc2/dwc2_stm32.h **** extern "C" {
  32:/home/pi/Developer/tinyusb/src/portable/synopsys/dwc2/dwc2_stm32.h **** #endif
  33:/home/pi/Developer/tinyusb/src/portable/synopsys/dwc2/dwc2_stm32.h **** 
  34:/home/pi/Developer/tinyusb/src/portable/synopsys/dwc2/dwc2_stm32.h **** // EP_MAX          : Max number of bi-directional endpoints including EP0
  35:/home/pi/Developer/tinyusb/src/portable/synopsys/dwc2/dwc2_stm32.h **** // DFIFO_DEPTH_FS/HS : DFIFO depth in 32-bit words (OTG_DFIFO_DEPTH)
  36:/home/pi/Developer/tinyusb/src/portable/synopsys/dwc2/dwc2_stm32.h **** #if CFG_TUSB_MCU == OPT_MCU_STM32F1
  37:/home/pi/Developer/tinyusb/src/portable/synopsys/dwc2/dwc2_stm32.h ****   #include "stm32f1xx.h"
  38:/home/pi/Developer/tinyusb/src/portable/synopsys/dwc2/dwc2_stm32.h ****   #define EP_MAX_FS       4
  39:/home/pi/Developer/tinyusb/src/portable/synopsys/dwc2/dwc2_stm32.h ****   #define DFIFO_DEPTH_FS 320
  40:/home/pi/Developer/tinyusb/src/portable/synopsys/dwc2/dwc2_stm32.h **** 
  41:/home/pi/Developer/tinyusb/src/portable/synopsys/dwc2/dwc2_stm32.h **** #elif CFG_TUSB_MCU == OPT_MCU_STM32F2
  42:/home/pi/Developer/tinyusb/src/portable/synopsys/dwc2/dwc2_stm32.h ****   #include "stm32f2xx.h"
  43:/home/pi/Developer/tinyusb/src/portable/synopsys/dwc2/dwc2_stm32.h ****   #define EP_MAX_FS       USB_OTG_FS_MAX_IN_ENDPOINTS
  44:/home/pi/Developer/tinyusb/src/portable/synopsys/dwc2/dwc2_stm32.h ****   #define DFIFO_DEPTH_FS  320
  45:/home/pi/Developer/tinyusb/src/portable/synopsys/dwc2/dwc2_stm32.h **** 
  46:/home/pi/Developer/tinyusb/src/portable/synopsys/dwc2/dwc2_stm32.h ****   #define EP_MAX_HS       USB_OTG_HS_MAX_IN_ENDPOINTS
  47:/home/pi/Developer/tinyusb/src/portable/synopsys/dwc2/dwc2_stm32.h ****   #define DFIFO_DEPTH_HS  1024
  48:/home/pi/Developer/tinyusb/src/portable/synopsys/dwc2/dwc2_stm32.h **** 
  49:/home/pi/Developer/tinyusb/src/portable/synopsys/dwc2/dwc2_stm32.h **** #elif CFG_TUSB_MCU == OPT_MCU_STM32F4
  50:/home/pi/Developer/tinyusb/src/portable/synopsys/dwc2/dwc2_stm32.h ****   #include "stm32f4xx.h"
  51:/home/pi/Developer/tinyusb/src/portable/synopsys/dwc2/dwc2_stm32.h ****   #define EP_MAX_FS       USB_OTG_FS_MAX_IN_ENDPOINTS
  52:/home/pi/Developer/tinyusb/src/portable/synopsys/dwc2/dwc2_stm32.h ****   #define DFIFO_DEPTH_FS  320
  53:/home/pi/Developer/tinyusb/src/portable/synopsys/dwc2/dwc2_stm32.h **** 
  54:/home/pi/Developer/tinyusb/src/portable/synopsys/dwc2/dwc2_stm32.h ****   #define EP_MAX_HS       USB_OTG_HS_MAX_IN_ENDPOINTS
  55:/home/pi/Developer/tinyusb/src/portable/synopsys/dwc2/dwc2_stm32.h ****   #define DFIFO_DEPTH_HS  1024
  56:/home/pi/Developer/tinyusb/src/portable/synopsys/dwc2/dwc2_stm32.h **** 
  57:/home/pi/Developer/tinyusb/src/portable/synopsys/dwc2/dwc2_stm32.h **** #elif CFG_TUSB_MCU == OPT_MCU_STM32H7
  58:/home/pi/Developer/tinyusb/src/portable/synopsys/dwc2/dwc2_stm32.h ****   #include "stm32h7xx.h"
  59:/home/pi/Developer/tinyusb/src/portable/synopsys/dwc2/dwc2_stm32.h ****   #define EP_MAX_FS       9
  60:/home/pi/Developer/tinyusb/src/portable/synopsys/dwc2/dwc2_stm32.h ****   #define DFIFO_DEPTH_FS 1024
  61:/home/pi/Developer/tinyusb/src/portable/synopsys/dwc2/dwc2_stm32.h **** 
  62:/home/pi/Developer/tinyusb/src/portable/synopsys/dwc2/dwc2_stm32.h ****   #define EP_MAX_HS       9
  63:/home/pi/Developer/tinyusb/src/portable/synopsys/dwc2/dwc2_stm32.h ****   #define DFIFO_DEPTH_HS 1024
  64:/home/pi/Developer/tinyusb/src/portable/synopsys/dwc2/dwc2_stm32.h **** 
  65:/home/pi/Developer/tinyusb/src/portable/synopsys/dwc2/dwc2_stm32.h ****   // NOTE: H7 with only 1 USB port: H72x / H73x / H7Ax / H7Bx
  66:/home/pi/Developer/tinyusb/src/portable/synopsys/dwc2/dwc2_stm32.h ****   // USB_OTG_FS_PERIPH_BASE and OTG_FS_IRQn not defined
  67:/home/pi/Developer/tinyusb/src/portable/synopsys/dwc2/dwc2_stm32.h ****   #if (! defined USB2_OTG_FS)
  68:/home/pi/Developer/tinyusb/src/portable/synopsys/dwc2/dwc2_stm32.h ****     #define USB_OTG_FS_PERIPH_BASE  USB1_OTG_HS_PERIPH_BASE
  69:/home/pi/Developer/tinyusb/src/portable/synopsys/dwc2/dwc2_stm32.h ****     #define OTG_FS_IRQn             OTG_HS_IRQn
  70:/home/pi/Developer/tinyusb/src/portable/synopsys/dwc2/dwc2_stm32.h ****   #endif
  71:/home/pi/Developer/tinyusb/src/portable/synopsys/dwc2/dwc2_stm32.h **** 
  72:/home/pi/Developer/tinyusb/src/portable/synopsys/dwc2/dwc2_stm32.h **** #elif CFG_TUSB_MCU == OPT_MCU_STM32H7RS
  73:/home/pi/Developer/tinyusb/src/portable/synopsys/dwc2/dwc2_stm32.h ****   #include "stm32h7rsxx.h"
  74:/home/pi/Developer/tinyusb/src/portable/synopsys/dwc2/dwc2_stm32.h ****   #define EP_MAX_FS       6
  75:/home/pi/Developer/tinyusb/src/portable/synopsys/dwc2/dwc2_stm32.h ****   #define DFIFO_DEPTH_FS 320
  76:/home/pi/Developer/tinyusb/src/portable/synopsys/dwc2/dwc2_stm32.h **** 
  77:/home/pi/Developer/tinyusb/src/portable/synopsys/dwc2/dwc2_stm32.h ****   #define EP_MAX_HS       9
  78:/home/pi/Developer/tinyusb/src/portable/synopsys/dwc2/dwc2_stm32.h ****   #define DFIFO_DEPTH_HS 1024
  79:/home/pi/Developer/tinyusb/src/portable/synopsys/dwc2/dwc2_stm32.h **** 
  80:/home/pi/Developer/tinyusb/src/portable/synopsys/dwc2/dwc2_stm32.h **** #elif CFG_TUSB_MCU == OPT_MCU_STM32N6
ARM GAS  /tmp/cc4dDpyD.s 			page 13


  81:/home/pi/Developer/tinyusb/src/portable/synopsys/dwc2/dwc2_stm32.h ****   #include "stm32n6xx.h"
  82:/home/pi/Developer/tinyusb/src/portable/synopsys/dwc2/dwc2_stm32.h ****   #define EP_MAX_FS       9
  83:/home/pi/Developer/tinyusb/src/portable/synopsys/dwc2/dwc2_stm32.h ****   #define DFIFO_DEPTH_FS 1024
  84:/home/pi/Developer/tinyusb/src/portable/synopsys/dwc2/dwc2_stm32.h **** 
  85:/home/pi/Developer/tinyusb/src/portable/synopsys/dwc2/dwc2_stm32.h ****   #define EP_MAX_HS       9
  86:/home/pi/Developer/tinyusb/src/portable/synopsys/dwc2/dwc2_stm32.h ****   #define DFIFO_DEPTH_HS 1024
  87:/home/pi/Developer/tinyusb/src/portable/synopsys/dwc2/dwc2_stm32.h **** 
  88:/home/pi/Developer/tinyusb/src/portable/synopsys/dwc2/dwc2_stm32.h ****   #define USB_OTG_FS_PERIPH_BASE    USB1_OTG_HS_BASE
  89:/home/pi/Developer/tinyusb/src/portable/synopsys/dwc2/dwc2_stm32.h ****   #define OTG_FS_IRQn               USB1_OTG_HS_IRQn
  90:/home/pi/Developer/tinyusb/src/portable/synopsys/dwc2/dwc2_stm32.h **** 
  91:/home/pi/Developer/tinyusb/src/portable/synopsys/dwc2/dwc2_stm32.h ****   #define USB_OTG_HS_PERIPH_BASE    USB2_OTG_HS_BASE
  92:/home/pi/Developer/tinyusb/src/portable/synopsys/dwc2/dwc2_stm32.h ****   #define OTG_HS_IRQn               USB2_OTG_HS_IRQn
  93:/home/pi/Developer/tinyusb/src/portable/synopsys/dwc2/dwc2_stm32.h **** 
  94:/home/pi/Developer/tinyusb/src/portable/synopsys/dwc2/dwc2_stm32.h **** #elif CFG_TUSB_MCU == OPT_MCU_STM32F7
  95:/home/pi/Developer/tinyusb/src/portable/synopsys/dwc2/dwc2_stm32.h ****   #include "stm32f7xx.h"
  96:/home/pi/Developer/tinyusb/src/portable/synopsys/dwc2/dwc2_stm32.h ****   #define EP_MAX_FS       6
  97:/home/pi/Developer/tinyusb/src/portable/synopsys/dwc2/dwc2_stm32.h ****   #define DFIFO_DEPTH_FS 320
  98:/home/pi/Developer/tinyusb/src/portable/synopsys/dwc2/dwc2_stm32.h **** 
  99:/home/pi/Developer/tinyusb/src/portable/synopsys/dwc2/dwc2_stm32.h ****   #define EP_MAX_HS       9
 100:/home/pi/Developer/tinyusb/src/portable/synopsys/dwc2/dwc2_stm32.h ****   #define DFIFO_DEPTH_HS 1024
 101:/home/pi/Developer/tinyusb/src/portable/synopsys/dwc2/dwc2_stm32.h **** 
 102:/home/pi/Developer/tinyusb/src/portable/synopsys/dwc2/dwc2_stm32.h **** #elif CFG_TUSB_MCU == OPT_MCU_STM32L4
 103:/home/pi/Developer/tinyusb/src/portable/synopsys/dwc2/dwc2_stm32.h ****   #include "stm32l4xx.h"
 104:/home/pi/Developer/tinyusb/src/portable/synopsys/dwc2/dwc2_stm32.h ****   #define EP_MAX_FS       6
 105:/home/pi/Developer/tinyusb/src/portable/synopsys/dwc2/dwc2_stm32.h ****   #define DFIFO_DEPTH_FS 320
 106:/home/pi/Developer/tinyusb/src/portable/synopsys/dwc2/dwc2_stm32.h **** 
 107:/home/pi/Developer/tinyusb/src/portable/synopsys/dwc2/dwc2_stm32.h **** #elif CFG_TUSB_MCU == OPT_MCU_STM32U5
 108:/home/pi/Developer/tinyusb/src/portable/synopsys/dwc2/dwc2_stm32.h ****   #include "stm32u5xx.h"
 109:/home/pi/Developer/tinyusb/src/portable/synopsys/dwc2/dwc2_stm32.h ****   // U59x/5Ax/5Fx/5Gx are highspeed with built-in HS PHY
 110:/home/pi/Developer/tinyusb/src/portable/synopsys/dwc2/dwc2_stm32.h ****   #ifdef USB_OTG_FS
 111:/home/pi/Developer/tinyusb/src/portable/synopsys/dwc2/dwc2_stm32.h ****     #define USB_OTG_FS_PERIPH_BASE    USB_OTG_FS_BASE
 112:/home/pi/Developer/tinyusb/src/portable/synopsys/dwc2/dwc2_stm32.h ****     #define EP_MAX_FS                 6
 113:/home/pi/Developer/tinyusb/src/portable/synopsys/dwc2/dwc2_stm32.h ****     #define DFIFO_DEPTH_FS           320
 114:/home/pi/Developer/tinyusb/src/portable/synopsys/dwc2/dwc2_stm32.h ****   #else
 115:/home/pi/Developer/tinyusb/src/portable/synopsys/dwc2/dwc2_stm32.h ****     #define USB_OTG_HS_PERIPH_BASE    USB_OTG_HS_BASE
 116:/home/pi/Developer/tinyusb/src/portable/synopsys/dwc2/dwc2_stm32.h ****     #define EP_MAX_HS                 9
 117:/home/pi/Developer/tinyusb/src/portable/synopsys/dwc2/dwc2_stm32.h ****     #define DFIFO_DEPTH_HS           1024
 118:/home/pi/Developer/tinyusb/src/portable/synopsys/dwc2/dwc2_stm32.h ****   #endif
 119:/home/pi/Developer/tinyusb/src/portable/synopsys/dwc2/dwc2_stm32.h **** 
 120:/home/pi/Developer/tinyusb/src/portable/synopsys/dwc2/dwc2_stm32.h **** #elif CFG_TUSB_MCU == OPT_MCU_STM32WBA
 121:/home/pi/Developer/tinyusb/src/portable/synopsys/dwc2/dwc2_stm32.h ****   #if defined(STM32WBA62xx)
 122:/home/pi/Developer/tinyusb/src/portable/synopsys/dwc2/dwc2_stm32.h ****     #include "stm32wba62xx.h"
 123:/home/pi/Developer/tinyusb/src/portable/synopsys/dwc2/dwc2_stm32.h ****   #elif defined(STM32WBA64xx)
 124:/home/pi/Developer/tinyusb/src/portable/synopsys/dwc2/dwc2_stm32.h ****     #include "stm32wba64xx.h"
 125:/home/pi/Developer/tinyusb/src/portable/synopsys/dwc2/dwc2_stm32.h ****   #elif defined(STM32WBA65xx)
 126:/home/pi/Developer/tinyusb/src/portable/synopsys/dwc2/dwc2_stm32.h ****     #include "stm32wba65xx.h"
 127:/home/pi/Developer/tinyusb/src/portable/synopsys/dwc2/dwc2_stm32.h ****   #else
 128:/home/pi/Developer/tinyusb/src/portable/synopsys/dwc2/dwc2_stm32.h ****     #error "The selected STM32WBA series chip does not support OTG USB HS"
 129:/home/pi/Developer/tinyusb/src/portable/synopsys/dwc2/dwc2_stm32.h ****   #endif
 130:/home/pi/Developer/tinyusb/src/portable/synopsys/dwc2/dwc2_stm32.h **** 
 131:/home/pi/Developer/tinyusb/src/portable/synopsys/dwc2/dwc2_stm32.h ****   #define USB_OTG_HS_PERIPH_BASE    USB_OTG_HS_BASE_NS
 132:/home/pi/Developer/tinyusb/src/portable/synopsys/dwc2/dwc2_stm32.h ****   #define OTG_HS_IRQn               USB_OTG_HS_IRQn
 133:/home/pi/Developer/tinyusb/src/portable/synopsys/dwc2/dwc2_stm32.h ****   #define EP_MAX_HS                 9
 134:/home/pi/Developer/tinyusb/src/portable/synopsys/dwc2/dwc2_stm32.h ****   #define DFIFO_DEPTH_HS           1024
 135:/home/pi/Developer/tinyusb/src/portable/synopsys/dwc2/dwc2_stm32.h **** #else
 136:/home/pi/Developer/tinyusb/src/portable/synopsys/dwc2/dwc2_stm32.h ****   #error "Unsupported MCUs"
 137:/home/pi/Developer/tinyusb/src/portable/synopsys/dwc2/dwc2_stm32.h **** #endif
ARM GAS  /tmp/cc4dDpyD.s 			page 14


 138:/home/pi/Developer/tinyusb/src/portable/synopsys/dwc2/dwc2_stm32.h **** 
 139:/home/pi/Developer/tinyusb/src/portable/synopsys/dwc2/dwc2_stm32.h **** // OTG HS always has higher number of endpoints than FS
 140:/home/pi/Developer/tinyusb/src/portable/synopsys/dwc2/dwc2_stm32.h **** #ifdef USB_OTG_HS_PERIPH_BASE
 141:/home/pi/Developer/tinyusb/src/portable/synopsys/dwc2/dwc2_stm32.h ****   #define DWC2_EP_MAX   EP_MAX_HS
 142:/home/pi/Developer/tinyusb/src/portable/synopsys/dwc2/dwc2_stm32.h **** #else
 143:/home/pi/Developer/tinyusb/src/portable/synopsys/dwc2/dwc2_stm32.h ****   #define DWC2_EP_MAX   EP_MAX_FS
 144:/home/pi/Developer/tinyusb/src/portable/synopsys/dwc2/dwc2_stm32.h **** #endif
 145:/home/pi/Developer/tinyusb/src/portable/synopsys/dwc2/dwc2_stm32.h **** 
 146:/home/pi/Developer/tinyusb/src/portable/synopsys/dwc2/dwc2_stm32.h **** // On STM32 for consistency we associate
 147:/home/pi/Developer/tinyusb/src/portable/synopsys/dwc2/dwc2_stm32.h **** // - Port0 to OTG_FS, and Port1 to OTG_HS
 148:/home/pi/Developer/tinyusb/src/portable/synopsys/dwc2/dwc2_stm32.h **** static const dwc2_controller_t _dwc2_controller[] = {
 149:/home/pi/Developer/tinyusb/src/portable/synopsys/dwc2/dwc2_stm32.h ****     #ifdef USB_OTG_FS_PERIPH_BASE
 150:/home/pi/Developer/tinyusb/src/portable/synopsys/dwc2/dwc2_stm32.h ****     { .reg_base = USB_OTG_FS_PERIPH_BASE, .irqnum = OTG_FS_IRQn, .ep_count = EP_MAX_FS, .otg_dfifo_
 151:/home/pi/Developer/tinyusb/src/portable/synopsys/dwc2/dwc2_stm32.h ****     #endif
 152:/home/pi/Developer/tinyusb/src/portable/synopsys/dwc2/dwc2_stm32.h **** 
 153:/home/pi/Developer/tinyusb/src/portable/synopsys/dwc2/dwc2_stm32.h ****     #ifdef USB_OTG_HS_PERIPH_BASE
 154:/home/pi/Developer/tinyusb/src/portable/synopsys/dwc2/dwc2_stm32.h ****     { .reg_base = USB_OTG_HS_PERIPH_BASE, .irqnum = OTG_HS_IRQn, .ep_count = EP_MAX_HS, .otg_dfifo_
 155:/home/pi/Developer/tinyusb/src/portable/synopsys/dwc2/dwc2_stm32.h ****     #endif
 156:/home/pi/Developer/tinyusb/src/portable/synopsys/dwc2/dwc2_stm32.h **** };
 157:/home/pi/Developer/tinyusb/src/portable/synopsys/dwc2/dwc2_stm32.h **** 
 158:/home/pi/Developer/tinyusb/src/portable/synopsys/dwc2/dwc2_stm32.h **** //--------------------------------------------------------------------+
 159:/home/pi/Developer/tinyusb/src/portable/synopsys/dwc2/dwc2_stm32.h **** //
 160:/home/pi/Developer/tinyusb/src/portable/synopsys/dwc2/dwc2_stm32.h **** //--------------------------------------------------------------------+
 161:/home/pi/Developer/tinyusb/src/portable/synopsys/dwc2/dwc2_stm32.h **** 
 162:/home/pi/Developer/tinyusb/src/portable/synopsys/dwc2/dwc2_stm32.h **** // SystemCoreClock is already included by family header
 163:/home/pi/Developer/tinyusb/src/portable/synopsys/dwc2/dwc2_stm32.h **** // extern uint32_t SystemCoreClock;
 164:/home/pi/Developer/tinyusb/src/portable/synopsys/dwc2/dwc2_stm32.h **** 
 165:/home/pi/Developer/tinyusb/src/portable/synopsys/dwc2/dwc2_stm32.h **** // MCU specific to enable dwc2 clock/power before any access to register
 166:/home/pi/Developer/tinyusb/src/portable/synopsys/dwc2/dwc2_stm32.h **** TU_ATTR_ALWAYS_INLINE static inline void dwc2_clock_init(uint8_t rhport, tusb_role_t role) {
 167:/home/pi/Developer/tinyusb/src/portable/synopsys/dwc2/dwc2_stm32.h ****   (void) rhport;
 168:/home/pi/Developer/tinyusb/src/portable/synopsys/dwc2/dwc2_stm32.h ****   (void) role;
 169:/home/pi/Developer/tinyusb/src/portable/synopsys/dwc2/dwc2_stm32.h **** }
 170:/home/pi/Developer/tinyusb/src/portable/synopsys/dwc2/dwc2_stm32.h **** 
 171:/home/pi/Developer/tinyusb/src/portable/synopsys/dwc2/dwc2_stm32.h **** TU_ATTR_ALWAYS_INLINE static inline void dwc2_int_set(uint8_t rhport, tusb_role_t role, bool enable
 172:/home/pi/Developer/tinyusb/src/portable/synopsys/dwc2/dwc2_stm32.h ****   (void) role;
 173:/home/pi/Developer/tinyusb/src/portable/synopsys/dwc2/dwc2_stm32.h ****   const IRQn_Type irqn = (IRQn_Type) _dwc2_controller[rhport].irqnum;
 174:/home/pi/Developer/tinyusb/src/portable/synopsys/dwc2/dwc2_stm32.h ****   if (enabled) {
 175:/home/pi/Developer/tinyusb/src/portable/synopsys/dwc2/dwc2_stm32.h ****     NVIC_EnableIRQ(irqn);
 176:/home/pi/Developer/tinyusb/src/portable/synopsys/dwc2/dwc2_stm32.h ****   } else {
 177:/home/pi/Developer/tinyusb/src/portable/synopsys/dwc2/dwc2_stm32.h ****     NVIC_DisableIRQ(irqn);
 178:/home/pi/Developer/tinyusb/src/portable/synopsys/dwc2/dwc2_stm32.h ****   }
 179:/home/pi/Developer/tinyusb/src/portable/synopsys/dwc2/dwc2_stm32.h **** }
 180:/home/pi/Developer/tinyusb/src/portable/synopsys/dwc2/dwc2_stm32.h **** 
 181:/home/pi/Developer/tinyusb/src/portable/synopsys/dwc2/dwc2_stm32.h **** #define dwc2_dcd_int_enable(_rhport)  dwc2_int_set(_rhport, TUSB_ROLE_DEVICE, true)
 182:/home/pi/Developer/tinyusb/src/portable/synopsys/dwc2/dwc2_stm32.h **** #define dwc2_dcd_int_disable(_rhport) dwc2_int_set(_rhport, TUSB_ROLE_DEVICE, false)
 183:/home/pi/Developer/tinyusb/src/portable/synopsys/dwc2/dwc2_stm32.h **** 
 184:/home/pi/Developer/tinyusb/src/portable/synopsys/dwc2/dwc2_stm32.h **** 
 185:/home/pi/Developer/tinyusb/src/portable/synopsys/dwc2/dwc2_stm32.h **** TU_ATTR_ALWAYS_INLINE static inline void dwc2_remote_wakeup_delay(void) {
 186:/home/pi/Developer/tinyusb/src/portable/synopsys/dwc2/dwc2_stm32.h ****   // try to delay for 1 ms
 187:/home/pi/Developer/tinyusb/src/portable/synopsys/dwc2/dwc2_stm32.h ****   uint32_t count = SystemCoreClock / 1000;
 188:/home/pi/Developer/tinyusb/src/portable/synopsys/dwc2/dwc2_stm32.h ****   while (count--) {
 189:/home/pi/Developer/tinyusb/src/portable/synopsys/dwc2/dwc2_stm32.h ****     __NOP();
 190:/home/pi/Developer/tinyusb/src/portable/synopsys/dwc2/dwc2_stm32.h ****   }
 191:/home/pi/Developer/tinyusb/src/portable/synopsys/dwc2/dwc2_stm32.h **** }
 192:/home/pi/Developer/tinyusb/src/portable/synopsys/dwc2/dwc2_stm32.h **** 
 193:/home/pi/Developer/tinyusb/src/portable/synopsys/dwc2/dwc2_stm32.h **** // MCU specific PHY init, called BEFORE core reset
 194:/home/pi/Developer/tinyusb/src/portable/synopsys/dwc2/dwc2_stm32.h **** // - dwc2 3.30a (H5) use USB_HS_PHYC
ARM GAS  /tmp/cc4dDpyD.s 			page 15


 195:/home/pi/Developer/tinyusb/src/portable/synopsys/dwc2/dwc2_stm32.h **** // - dwc2 4.11a (U5) use femtoPHY
 196:/home/pi/Developer/tinyusb/src/portable/synopsys/dwc2/dwc2_stm32.h **** // - dwc2 x.xxx (WBA) use USB_OTG_HS
 197:/home/pi/Developer/tinyusb/src/portable/synopsys/dwc2/dwc2_stm32.h **** static inline void dwc2_phy_init(dwc2_regs_t* dwc2, uint8_t hs_phy_type) {
 276              		.loc 3 197 20 view .LVU86
 277              	.LBB65:
 198:/home/pi/Developer/tinyusb/src/portable/synopsys/dwc2/dwc2_stm32.h ****   if (hs_phy_type == GHWCFG2_HSPHY_NOT_SUPPORTED) {
 278              		.loc 3 198 3 view .LVU87
 199:/home/pi/Developer/tinyusb/src/portable/synopsys/dwc2/dwc2_stm32.h ****     // Enable on-chip FS PHY
 200:/home/pi/Developer/tinyusb/src/portable/synopsys/dwc2/dwc2_stm32.h ****     dwc2->stm32_gccfg |= STM32_GCCFG_PWRDWN;
 279              		.loc 3 200 5 view .LVU88
 280              		.loc 3 200 23 is_stmt 0 view .LVU89
 281 0040 A26B     		ldr	r2, [r4, #56]
 282              	.LVL18:
 283              		.loc 3 200 23 view .LVU90
 284 0042 42F48032 		orr	r2, r2, #65536
 285 0046 A263     		str	r2, [r4, #56]
 286              	.LVL19:
 201:/home/pi/Developer/tinyusb/src/portable/synopsys/dwc2/dwc2_stm32.h **** 
 202:/home/pi/Developer/tinyusb/src/portable/synopsys/dwc2/dwc2_stm32.h ****     // https://community.st.com/t5/stm32cubemx-mcus/why-stm32h743-usb-fs-doesn-t-work-if-freertos-t
 203:/home/pi/Developer/tinyusb/src/portable/synopsys/dwc2/dwc2_stm32.h ****     // H7 running on full-speed phy need to disable ULPI clock in sleep mode.
 204:/home/pi/Developer/tinyusb/src/portable/synopsys/dwc2/dwc2_stm32.h ****     // Otherwise, USB won't work when mcu executing WFI/WFE instruction i.e tick-less RTOS.
 205:/home/pi/Developer/tinyusb/src/portable/synopsys/dwc2/dwc2_stm32.h ****     // Note: there may be other family that is affected by this, but only H7 and F7 is tested so fa
 206:/home/pi/Developer/tinyusb/src/portable/synopsys/dwc2/dwc2_stm32.h ****     #if defined(USB_OTG_FS_PERIPH_BASE) && defined(RCC_AHB1LPENR_USB2OTGFSULPILPEN)
 207:/home/pi/Developer/tinyusb/src/portable/synopsys/dwc2/dwc2_stm32.h ****     if ( USB_OTG_FS_PERIPH_BASE == (uint32_t) dwc2 ) {
 287              		.loc 3 207 5 is_stmt 1 view .LVU91
 288              		.loc 3 207 8 is_stmt 0 view .LVU92
 289 0048 A74A     		ldr	r2, .L101
 290 004a 9042     		cmp	r0, r2
 291 004c 00F01081 		beq	.L94
 208:/home/pi/Developer/tinyusb/src/portable/synopsys/dwc2/dwc2_stm32.h ****       RCC->AHB1LPENR &= ~RCC_AHB1LPENR_USB2OTGFSULPILPEN;
 209:/home/pi/Developer/tinyusb/src/portable/synopsys/dwc2/dwc2_stm32.h ****     }
 210:/home/pi/Developer/tinyusb/src/portable/synopsys/dwc2/dwc2_stm32.h ****     #endif
 211:/home/pi/Developer/tinyusb/src/portable/synopsys/dwc2/dwc2_stm32.h **** 
 212:/home/pi/Developer/tinyusb/src/portable/synopsys/dwc2/dwc2_stm32.h ****     #if defined(USB_OTG_HS_PERIPH_BASE) && defined(RCC_AHB1LPENR_USB1OTGHSULPILPEN)
 213:/home/pi/Developer/tinyusb/src/portable/synopsys/dwc2/dwc2_stm32.h ****     if ( USB_OTG_HS_PERIPH_BASE == (uint32_t) dwc2 ) {
 292              		.loc 3 213 5 is_stmt 1 view .LVU93
 293              		.loc 3 213 8 is_stmt 0 view .LVU94
 294 0050 A94A     		ldr	r2, .L101+16
 295 0052 9042     		cmp	r0, r2
 296 0054 00F0FE80 		beq	.L95
 297              	.L41:
 214:/home/pi/Developer/tinyusb/src/portable/synopsys/dwc2/dwc2_stm32.h ****       RCC->AHB1LPENR &= ~RCC_AHB1LPENR_USB1OTGHSULPILPEN;
 215:/home/pi/Developer/tinyusb/src/portable/synopsys/dwc2/dwc2_stm32.h ****     }
 216:/home/pi/Developer/tinyusb/src/portable/synopsys/dwc2/dwc2_stm32.h ****     #endif
 217:/home/pi/Developer/tinyusb/src/portable/synopsys/dwc2/dwc2_stm32.h **** 
 218:/home/pi/Developer/tinyusb/src/portable/synopsys/dwc2/dwc2_stm32.h ****     #if defined(USB_OTG_HS_PERIPH_BASE) && defined(RCC_AHB1LPENR_OTGHSULPILPEN)
 219:/home/pi/Developer/tinyusb/src/portable/synopsys/dwc2/dwc2_stm32.h ****     if ( USB_OTG_HS_PERIPH_BASE == (uint32_t) dwc2 ) {
 220:/home/pi/Developer/tinyusb/src/portable/synopsys/dwc2/dwc2_stm32.h ****       RCC->AHB1LPENR &= ~RCC_AHB1LPENR_OTGHSULPILPEN;
 221:/home/pi/Developer/tinyusb/src/portable/synopsys/dwc2/dwc2_stm32.h ****     }
 222:/home/pi/Developer/tinyusb/src/portable/synopsys/dwc2/dwc2_stm32.h ****     #endif
 223:/home/pi/Developer/tinyusb/src/portable/synopsys/dwc2/dwc2_stm32.h **** 
 224:/home/pi/Developer/tinyusb/src/portable/synopsys/dwc2/dwc2_stm32.h ****   } else {
 225:/home/pi/Developer/tinyusb/src/portable/synopsys/dwc2/dwc2_stm32.h **** #if CFG_TUSB_MCU != OPT_MCU_STM32U5 && CFG_TUSB_MCU != OPT_MCU_STM32WBA
 226:/home/pi/Developer/tinyusb/src/portable/synopsys/dwc2/dwc2_stm32.h ****     // Disable FS PHY, TODO on U5A5 (dwc2 4.11a) 16th bit is 'Host CDP behavior enable'
 227:/home/pi/Developer/tinyusb/src/portable/synopsys/dwc2/dwc2_stm32.h ****     dwc2->stm32_gccfg &= ~STM32_GCCFG_PWRDWN;
 228:/home/pi/Developer/tinyusb/src/portable/synopsys/dwc2/dwc2_stm32.h **** #endif
 229:/home/pi/Developer/tinyusb/src/portable/synopsys/dwc2/dwc2_stm32.h ****     // Enable on-chip HS PHY
ARM GAS  /tmp/cc4dDpyD.s 			page 16


 230:/home/pi/Developer/tinyusb/src/portable/synopsys/dwc2/dwc2_stm32.h ****     if (hs_phy_type == GHWCFG2_HSPHY_UTMI || hs_phy_type == GHWCFG2_HSPHY_UTMI_ULPI) {
 231:/home/pi/Developer/tinyusb/src/portable/synopsys/dwc2/dwc2_stm32.h ****       #ifdef USB_HS_PHYC
 232:/home/pi/Developer/tinyusb/src/portable/synopsys/dwc2/dwc2_stm32.h ****       // Enable UTMI HS PHY
 233:/home/pi/Developer/tinyusb/src/portable/synopsys/dwc2/dwc2_stm32.h ****       dwc2->stm32_gccfg |= STM32_GCCFG_PHYHSEN;
 234:/home/pi/Developer/tinyusb/src/portable/synopsys/dwc2/dwc2_stm32.h **** 
 235:/home/pi/Developer/tinyusb/src/portable/synopsys/dwc2/dwc2_stm32.h ****       // Enable LDO
 236:/home/pi/Developer/tinyusb/src/portable/synopsys/dwc2/dwc2_stm32.h ****       USB_HS_PHYC->USB_HS_PHYC_LDO |= USB_HS_PHYC_LDO_ENABLE;
 237:/home/pi/Developer/tinyusb/src/portable/synopsys/dwc2/dwc2_stm32.h **** 
 238:/home/pi/Developer/tinyusb/src/portable/synopsys/dwc2/dwc2_stm32.h ****       // Wait until LDO ready
 239:/home/pi/Developer/tinyusb/src/portable/synopsys/dwc2/dwc2_stm32.h ****       while ( 0 == (USB_HS_PHYC->USB_HS_PHYC_LDO & USB_HS_PHYC_LDO_STATUS) ) {}
 240:/home/pi/Developer/tinyusb/src/portable/synopsys/dwc2/dwc2_stm32.h **** 
 241:/home/pi/Developer/tinyusb/src/portable/synopsys/dwc2/dwc2_stm32.h ****       uint32_t phyc_pll = 0;
 242:/home/pi/Developer/tinyusb/src/portable/synopsys/dwc2/dwc2_stm32.h **** 
 243:/home/pi/Developer/tinyusb/src/portable/synopsys/dwc2/dwc2_stm32.h ****       // TODO Try to get HSE_VALUE from registers instead of depending CFLAGS
 244:/home/pi/Developer/tinyusb/src/portable/synopsys/dwc2/dwc2_stm32.h ****       switch ( HSE_VALUE )
 245:/home/pi/Developer/tinyusb/src/portable/synopsys/dwc2/dwc2_stm32.h ****       {
 246:/home/pi/Developer/tinyusb/src/portable/synopsys/dwc2/dwc2_stm32.h ****         case 12000000: phyc_pll = USB_HS_PHYC_PLL1_PLLSEL_12MHZ   ; break;
 247:/home/pi/Developer/tinyusb/src/portable/synopsys/dwc2/dwc2_stm32.h ****         case 12500000: phyc_pll = USB_HS_PHYC_PLL1_PLLSEL_12_5MHZ ; break;
 248:/home/pi/Developer/tinyusb/src/portable/synopsys/dwc2/dwc2_stm32.h ****         case 16000000: phyc_pll = USB_HS_PHYC_PLL1_PLLSEL_16MHZ   ; break;
 249:/home/pi/Developer/tinyusb/src/portable/synopsys/dwc2/dwc2_stm32.h ****         case 24000000: phyc_pll = USB_HS_PHYC_PLL1_PLLSEL_24MHZ   ; break;
 250:/home/pi/Developer/tinyusb/src/portable/synopsys/dwc2/dwc2_stm32.h ****         case 25000000: phyc_pll = USB_HS_PHYC_PLL1_PLLSEL_25MHZ   ; break;
 251:/home/pi/Developer/tinyusb/src/portable/synopsys/dwc2/dwc2_stm32.h ****         case 32000000: phyc_pll = USB_HS_PHYC_PLL1_PLLSEL_Msk     ; break; // Value not defined in 
 252:/home/pi/Developer/tinyusb/src/portable/synopsys/dwc2/dwc2_stm32.h ****         default:
 253:/home/pi/Developer/tinyusb/src/portable/synopsys/dwc2/dwc2_stm32.h ****           TU_ASSERT(false, );
 254:/home/pi/Developer/tinyusb/src/portable/synopsys/dwc2/dwc2_stm32.h ****       }
 255:/home/pi/Developer/tinyusb/src/portable/synopsys/dwc2/dwc2_stm32.h ****       USB_HS_PHYC->USB_HS_PHYC_PLL = phyc_pll;
 256:/home/pi/Developer/tinyusb/src/portable/synopsys/dwc2/dwc2_stm32.h **** 
 257:/home/pi/Developer/tinyusb/src/portable/synopsys/dwc2/dwc2_stm32.h ****       // Control the tuning interface of the High Speed PHY
 258:/home/pi/Developer/tinyusb/src/portable/synopsys/dwc2/dwc2_stm32.h ****       // Use magic value (USB_HS_PHYC_TUNE_VALUE) from ST driver for F7
 259:/home/pi/Developer/tinyusb/src/portable/synopsys/dwc2/dwc2_stm32.h ****       USB_HS_PHYC->USB_HS_PHYC_TUNE |= 0x00000F13U;
 260:/home/pi/Developer/tinyusb/src/portable/synopsys/dwc2/dwc2_stm32.h **** 
 261:/home/pi/Developer/tinyusb/src/portable/synopsys/dwc2/dwc2_stm32.h ****       // Enable PLL internal PHY
 262:/home/pi/Developer/tinyusb/src/portable/synopsys/dwc2/dwc2_stm32.h ****       USB_HS_PHYC->USB_HS_PHYC_PLL |= USB_HS_PHYC_PLL_PLLEN;
 263:/home/pi/Developer/tinyusb/src/portable/synopsys/dwc2/dwc2_stm32.h **** 
 264:/home/pi/Developer/tinyusb/src/portable/synopsys/dwc2/dwc2_stm32.h ****       // Wait ~2ms until the PLL is ready (there's no RDY bit to query)
 265:/home/pi/Developer/tinyusb/src/portable/synopsys/dwc2/dwc2_stm32.h ****       tusb_time_delay_ms_api(2);
 266:/home/pi/Developer/tinyusb/src/portable/synopsys/dwc2/dwc2_stm32.h ****       #else
 267:/home/pi/Developer/tinyusb/src/portable/synopsys/dwc2/dwc2_stm32.h **** 
 268:/home/pi/Developer/tinyusb/src/portable/synopsys/dwc2/dwc2_stm32.h ****       #endif
 269:/home/pi/Developer/tinyusb/src/portable/synopsys/dwc2/dwc2_stm32.h ****     }
 298              		.loc 3 269 5 is_stmt 1 view .LVU95
 299              	.LVL20:
 300              		.loc 3 269 5 is_stmt 0 view .LVU96
 301              	.LBE65:
 302              	.LBE64:
  74:/home/pi/Developer/tinyusb/src/portable/synopsys/dwc2/dwc2_common.c **** 
 303              		.loc 1 74 3 is_stmt 1 view .LVU97
 304 0058 2046     		mov	r0, r4
 305 005a FFF7FEFF 		bl	reset_core
 306              	.LVL21:
  79:/home/pi/Developer/tinyusb/src/portable/synopsys/dwc2/dwc2_common.c ****   gusbcfg |= 5u << GUSBCFG_TRDT_Pos;
 307              		.loc 1 79 3 view .LVU98
 308              	.LBB70:
 309              	.LBB71:
 310              	.LBB72:
 311              	.LBB73:
 270:/home/pi/Developer/tinyusb/src/portable/synopsys/dwc2/dwc2_stm32.h ****   }
ARM GAS  /tmp/cc4dDpyD.s 			page 17


 271:/home/pi/Developer/tinyusb/src/portable/synopsys/dwc2/dwc2_stm32.h **** }
 272:/home/pi/Developer/tinyusb/src/portable/synopsys/dwc2/dwc2_stm32.h **** 
 273:/home/pi/Developer/tinyusb/src/portable/synopsys/dwc2/dwc2_stm32.h **** // MCU specific PHY deinit, disable PHY power
 274:/home/pi/Developer/tinyusb/src/portable/synopsys/dwc2/dwc2_stm32.h **** static inline void dwc2_phy_deinit(dwc2_regs_t* dwc2, uint8_t hs_phy_type) {
 275:/home/pi/Developer/tinyusb/src/portable/synopsys/dwc2/dwc2_stm32.h ****   if (hs_phy_type == GHWCFG2_HSPHY_NOT_SUPPORTED) {
 276:/home/pi/Developer/tinyusb/src/portable/synopsys/dwc2/dwc2_stm32.h ****     // Disable on-chip FS PHY
 277:/home/pi/Developer/tinyusb/src/portable/synopsys/dwc2/dwc2_stm32.h ****     dwc2->stm32_gccfg &= ~STM32_GCCFG_PWRDWN;
 278:/home/pi/Developer/tinyusb/src/portable/synopsys/dwc2/dwc2_stm32.h ****   } else {
 279:/home/pi/Developer/tinyusb/src/portable/synopsys/dwc2/dwc2_stm32.h ****     // Disable HS PHY
 280:/home/pi/Developer/tinyusb/src/portable/synopsys/dwc2/dwc2_stm32.h ****     #ifdef USB_HS_PHYC
 281:/home/pi/Developer/tinyusb/src/portable/synopsys/dwc2/dwc2_stm32.h ****     dwc2->stm32_gccfg &= ~STM32_GCCFG_PHYHSEN;
 282:/home/pi/Developer/tinyusb/src/portable/synopsys/dwc2/dwc2_stm32.h ****     // Disable PLL and LDO
 283:/home/pi/Developer/tinyusb/src/portable/synopsys/dwc2/dwc2_stm32.h ****     USB_HS_PHYC->USB_HS_PHYC_PLL &= ~USB_HS_PHYC_PLL_PLLEN;
 284:/home/pi/Developer/tinyusb/src/portable/synopsys/dwc2/dwc2_stm32.h ****     USB_HS_PHYC->USB_HS_PHYC_LDO &= ~USB_HS_PHYC_LDO_ENABLE;
 285:/home/pi/Developer/tinyusb/src/portable/synopsys/dwc2/dwc2_stm32.h ****     #endif
 286:/home/pi/Developer/tinyusb/src/portable/synopsys/dwc2/dwc2_stm32.h ****   }
 287:/home/pi/Developer/tinyusb/src/portable/synopsys/dwc2/dwc2_stm32.h **** }
 288:/home/pi/Developer/tinyusb/src/portable/synopsys/dwc2/dwc2_stm32.h **** 
 289:/home/pi/Developer/tinyusb/src/portable/synopsys/dwc2/dwc2_stm32.h **** // MCU specific PHY update, it is called AFTER init() and core reset
 290:/home/pi/Developer/tinyusb/src/portable/synopsys/dwc2/dwc2_stm32.h **** static inline void dwc2_phy_update(dwc2_regs_t* dwc2, uint8_t hs_phy_type) {
 291:/home/pi/Developer/tinyusb/src/portable/synopsys/dwc2/dwc2_stm32.h ****   // used to set turnaround time for fullspeed, nothing to do in highspeed mode
 292:/home/pi/Developer/tinyusb/src/portable/synopsys/dwc2/dwc2_stm32.h ****   if (hs_phy_type == GHWCFG2_HSPHY_NOT_SUPPORTED) {
 293:/home/pi/Developer/tinyusb/src/portable/synopsys/dwc2/dwc2_stm32.h ****     // Turnaround timeout depends on the AHB clock dictated by STM32 Reference Manual
 294:/home/pi/Developer/tinyusb/src/portable/synopsys/dwc2/dwc2_stm32.h ****     uint32_t turnaround;
 295:/home/pi/Developer/tinyusb/src/portable/synopsys/dwc2/dwc2_stm32.h **** 
 296:/home/pi/Developer/tinyusb/src/portable/synopsys/dwc2/dwc2_stm32.h ****     if (SystemCoreClock >= 32000000u) {
 312              		.loc 3 296 25 is_stmt 0 view .LVU99
 313 005e A74A     		ldr	r2, .L101+20
 314 0060 26F47053 		bic	r3, r6, #15360
 315              	.LVL22:
 316              		.loc 3 296 25 view .LVU100
 317              	.LBE73:
 318              	.LBE72:
 319              	.LBE71:
 320              	.LBE70:
  80:/home/pi/Developer/tinyusb/src/portable/synopsys/dwc2/dwc2_common.c ****   dwc2->gusbcfg = gusbcfg;
 321              		.loc 1 80 3 is_stmt 1 view .LVU101
 322              	.LBB95:
 323              	.LBB88:
 324              	.LBB81:
 325              	.LBB74:
 326              		.loc 3 296 8 is_stmt 0 view .LVU102
 327 0064 A649     		ldr	r1, .L101+24
 328              		.loc 3 296 25 view .LVU103
 329 0066 1268     		ldr	r2, [r2]
 330              	.LBE74:
 331              	.LBE81:
 332              	.LBE88:
 333              	.LBE95:
  80:/home/pi/Developer/tinyusb/src/portable/synopsys/dwc2/dwc2_common.c ****   dwc2->gusbcfg = gusbcfg;
 334              		.loc 1 80 11 view .LVU104
 335 0068 43F4A253 		orr	r3, r3, #5184
 336              	.LVL23:
  81:/home/pi/Developer/tinyusb/src/portable/synopsys/dwc2/dwc2_common.c **** 
 337              		.loc 1 81 3 is_stmt 1 view .LVU105
 338              	.LBB96:
 339              	.LBB89:
ARM GAS  /tmp/cc4dDpyD.s 			page 18


 340              	.LBB82:
 341              	.LBB75:
 342              		.loc 3 296 8 is_stmt 0 view .LVU106
 343 006c 8A42     		cmp	r2, r1
 344              	.LBE75:
 345              	.LBE82:
 346              	.LBE89:
 347              	.LBE96:
  81:/home/pi/Developer/tinyusb/src/portable/synopsys/dwc2/dwc2_common.c **** 
 348              		.loc 1 81 17 view .LVU107
 349 006e E360     		str	r3, [r4, #12]
  84:/home/pi/Developer/tinyusb/src/portable/synopsys/dwc2/dwc2_common.c **** }
 350              		.loc 1 84 3 is_stmt 1 view .LVU108
 351              	.LVL24:
 352              	.LBB97:
 353              	.LBI70:
 290:/home/pi/Developer/tinyusb/src/portable/synopsys/dwc2/dwc2_stm32.h ****   // used to set turnaround time for fullspeed, nothing to do in highspeed mode
 354              		.loc 3 290 20 view .LVU109
 355              	.LBE97:
 356              	.LBE63:
 357              	.LBE62:
 292:/home/pi/Developer/tinyusb/src/portable/synopsys/dwc2/dwc2_stm32.h ****     // Turnaround timeout depends on the AHB clock dictated by STM32 Reference Manual
 358              		.loc 3 292 3 view .LVU110
 359              	.LBB110:
 360              	.LBB105:
 361              	.LBB98:
 362              	.LBB90:
 363              	.LBI71:
 290:/home/pi/Developer/tinyusb/src/portable/synopsys/dwc2/dwc2_stm32.h ****   // used to set turnaround time for fullspeed, nothing to do in highspeed mode
 364              		.loc 3 290 20 view .LVU111
 365              	.LBB83:
 366              	.LBB76:
 294:/home/pi/Developer/tinyusb/src/portable/synopsys/dwc2/dwc2_stm32.h **** 
 367              		.loc 3 294 5 view .LVU112
 368              		.loc 3 296 5 view .LVU113
 369              		.loc 3 296 8 is_stmt 0 view .LVU114
 370 0070 C0F0AD80 		bcc	.L96
 371              	.LVL25:
 372              	.L63:
 373              		.loc 3 296 8 view .LVU115
 374 0074 4FF4C052 		mov	r2, #6144
 375              	.L42:
 297:/home/pi/Developer/tinyusb/src/portable/synopsys/dwc2/dwc2_stm32.h ****       turnaround = 0x6u;
 298:/home/pi/Developer/tinyusb/src/portable/synopsys/dwc2/dwc2_stm32.h ****     } else if (SystemCoreClock >= 27500000u) {
 299:/home/pi/Developer/tinyusb/src/portable/synopsys/dwc2/dwc2_stm32.h ****       turnaround = 0x7u;
 300:/home/pi/Developer/tinyusb/src/portable/synopsys/dwc2/dwc2_stm32.h ****     } else if (SystemCoreClock >= 24000000u) {
 301:/home/pi/Developer/tinyusb/src/portable/synopsys/dwc2/dwc2_stm32.h ****       turnaround = 0x8u;
 302:/home/pi/Developer/tinyusb/src/portable/synopsys/dwc2/dwc2_stm32.h ****     } else if (SystemCoreClock >= 21800000u) {
 303:/home/pi/Developer/tinyusb/src/portable/synopsys/dwc2/dwc2_stm32.h ****       turnaround = 0x9u;
 304:/home/pi/Developer/tinyusb/src/portable/synopsys/dwc2/dwc2_stm32.h ****     }
 305:/home/pi/Developer/tinyusb/src/portable/synopsys/dwc2/dwc2_stm32.h ****     else if (SystemCoreClock >= 20000000u) {
 306:/home/pi/Developer/tinyusb/src/portable/synopsys/dwc2/dwc2_stm32.h ****       turnaround = 0xAu;
 307:/home/pi/Developer/tinyusb/src/portable/synopsys/dwc2/dwc2_stm32.h ****     }
 308:/home/pi/Developer/tinyusb/src/portable/synopsys/dwc2/dwc2_stm32.h ****     else if (SystemCoreClock >= 18500000u) {
 309:/home/pi/Developer/tinyusb/src/portable/synopsys/dwc2/dwc2_stm32.h ****       turnaround = 0xBu;
 310:/home/pi/Developer/tinyusb/src/portable/synopsys/dwc2/dwc2_stm32.h ****     }
 311:/home/pi/Developer/tinyusb/src/portable/synopsys/dwc2/dwc2_stm32.h ****     else if (SystemCoreClock >= 17200000u) {
ARM GAS  /tmp/cc4dDpyD.s 			page 19


 312:/home/pi/Developer/tinyusb/src/portable/synopsys/dwc2/dwc2_stm32.h ****       turnaround = 0xCu;
 313:/home/pi/Developer/tinyusb/src/portable/synopsys/dwc2/dwc2_stm32.h ****     }
 314:/home/pi/Developer/tinyusb/src/portable/synopsys/dwc2/dwc2_stm32.h ****     else if (SystemCoreClock >= 16000000u) {
 315:/home/pi/Developer/tinyusb/src/portable/synopsys/dwc2/dwc2_stm32.h ****       turnaround = 0xDu;
 316:/home/pi/Developer/tinyusb/src/portable/synopsys/dwc2/dwc2_stm32.h ****     }
 317:/home/pi/Developer/tinyusb/src/portable/synopsys/dwc2/dwc2_stm32.h ****     else if (SystemCoreClock >= 15000000u) {
 318:/home/pi/Developer/tinyusb/src/portable/synopsys/dwc2/dwc2_stm32.h ****       turnaround = 0xEu;
 319:/home/pi/Developer/tinyusb/src/portable/synopsys/dwc2/dwc2_stm32.h ****     }
 320:/home/pi/Developer/tinyusb/src/portable/synopsys/dwc2/dwc2_stm32.h ****     else {
 321:/home/pi/Developer/tinyusb/src/portable/synopsys/dwc2/dwc2_stm32.h ****       turnaround = 0xFu;
 322:/home/pi/Developer/tinyusb/src/portable/synopsys/dwc2/dwc2_stm32.h ****     }
 323:/home/pi/Developer/tinyusb/src/portable/synopsys/dwc2/dwc2_stm32.h **** 
 324:/home/pi/Developer/tinyusb/src/portable/synopsys/dwc2/dwc2_stm32.h ****     dwc2->gusbcfg = (dwc2->gusbcfg & ~GUSBCFG_TRDT_Msk) | (turnaround << GUSBCFG_TRDT_Pos);
 376              		.loc 3 324 5 is_stmt 1 view .LVU116
 377              		.loc 3 324 26 is_stmt 0 view .LVU117
 378 0078 E368     		ldr	r3, [r4, #12]
 379              		.loc 3 324 36 view .LVU118
 380 007a 23F47053 		bic	r3, r3, #15360
 381              		.loc 3 324 57 view .LVU119
 382 007e 1343     		orrs	r3, r3, r2
 383              		.loc 3 324 19 view .LVU120
 384 0080 E360     		str	r3, [r4, #12]
 385              	.L39:
 386              	.LBE76:
 387              	.LBE83:
 388              	.LBE90:
 389              	.LBE98:
 390              	.LBE105:
 391              	.LBE110:
 212:/home/pi/Developer/tinyusb/src/portable/synopsys/dwc2/dwc2_common.c ****   }
 213:/home/pi/Developer/tinyusb/src/portable/synopsys/dwc2/dwc2_common.c **** 
 214:/home/pi/Developer/tinyusb/src/portable/synopsys/dwc2/dwc2_common.c ****   /* Set HS/FS Timeout Calibration to 7 (max available value).
 215:/home/pi/Developer/tinyusb/src/portable/synopsys/dwc2/dwc2_common.c ****    * The number of PHY clocks that the application programs in
 216:/home/pi/Developer/tinyusb/src/portable/synopsys/dwc2/dwc2_common.c ****    * this field is added to the high/full speed interpacket timeout
 217:/home/pi/Developer/tinyusb/src/portable/synopsys/dwc2/dwc2_common.c ****    * duration in the core to account for any additional delays
 218:/home/pi/Developer/tinyusb/src/portable/synopsys/dwc2/dwc2_common.c ****    * introduced by the PHY. This can be required, because the delay
 219:/home/pi/Developer/tinyusb/src/portable/synopsys/dwc2/dwc2_common.c ****    * introduced by the PHY in generating the linestate condition
 220:/home/pi/Developer/tinyusb/src/portable/synopsys/dwc2/dwc2_common.c ****    * can vary from one PHY to another. */
 221:/home/pi/Developer/tinyusb/src/portable/synopsys/dwc2/dwc2_common.c ****   dwc2->gusbcfg |= (7ul << GUSBCFG_TOCAL_Pos);
 392              		.loc 1 221 3 is_stmt 1 view .LVU121
 393              		.loc 1 221 17 is_stmt 0 view .LVU122
 394 0082 E368     		ldr	r3, [r4, #12]
 395              	.LBB111:
 396              	.LBB112:
  88:/home/pi/Developer/tinyusb/src/portable/synopsys/dwc2/dwc2_common.h **** }
  89:/home/pi/Developer/tinyusb/src/portable/synopsys/dwc2/dwc2_common.h **** 
  90:/home/pi/Developer/tinyusb/src/portable/synopsys/dwc2/dwc2_common.h **** // check if highspeed phy should be used
  91:/home/pi/Developer/tinyusb/src/portable/synopsys/dwc2/dwc2_common.h **** bool dwc2_core_is_highspeed_phy(dwc2_regs_t* dwc2, bool prefer_hs_phy);
  92:/home/pi/Developer/tinyusb/src/portable/synopsys/dwc2/dwc2_common.h **** bool dwc2_core_init(uint8_t rhport, bool is_hs_phy, bool is_dma);
  93:/home/pi/Developer/tinyusb/src/portable/synopsys/dwc2/dwc2_common.h **** void dwc2_core_deinit(uint8_t rhport);
  94:/home/pi/Developer/tinyusb/src/portable/synopsys/dwc2/dwc2_common.h **** void dwc2_core_handle_common_irq(uint8_t rhport, bool in_isr);
  95:/home/pi/Developer/tinyusb/src/portable/synopsys/dwc2/dwc2_common.h **** 
  96:/home/pi/Developer/tinyusb/src/portable/synopsys/dwc2/dwc2_common.h **** //--------------------------------------------------------------------+
  97:/home/pi/Developer/tinyusb/src/portable/synopsys/dwc2/dwc2_common.h **** // DFIFO
  98:/home/pi/Developer/tinyusb/src/portable/synopsys/dwc2/dwc2_common.h **** //--------------------------------------------------------------------+
  99:/home/pi/Developer/tinyusb/src/portable/synopsys/dwc2/dwc2_common.h **** TU_ATTR_ALWAYS_INLINE static inline void dfifo_flush_tx(dwc2_regs_t* dwc2, uint8_t fnum) {
 100:/home/pi/Developer/tinyusb/src/portable/synopsys/dwc2/dwc2_common.h ****   // flush TX fifo and wait for it cleared
ARM GAS  /tmp/cc4dDpyD.s 			page 20


 101:/home/pi/Developer/tinyusb/src/portable/synopsys/dwc2/dwc2_common.h ****   dwc2->grstctl = GRSTCTL_TXFFLSH | (fnum << GRSTCTL_TXFNUM_Pos);
 397              		.loc 2 101 17 view .LVU123
 398 0084 4FF48462 		mov	r2, #1056
 399              	.LBE112:
 400              	.LBE111:
 401              		.loc 1 221 17 view .LVU124
 402 0088 43F00703 		orr	r3, r3, #7
 403 008c E360     		str	r3, [r4, #12]
 222:/home/pi/Developer/tinyusb/src/portable/synopsys/dwc2/dwc2_common.c **** 
 223:/home/pi/Developer/tinyusb/src/portable/synopsys/dwc2/dwc2_common.c ****   // Enable PHY clock TODO stop/gate clock when suspended mode
 224:/home/pi/Developer/tinyusb/src/portable/synopsys/dwc2/dwc2_common.c ****   dwc2->pcgcctl &= ~(PCGCCTL_STOPPCLK | PCGCCTL_GATEHCLK | PCGCCTL_PWRCLMP | PCGCCTL_RSTPDWNMODULE)
 404              		.loc 1 224 3 is_stmt 1 view .LVU125
 405              		.loc 1 224 17 is_stmt 0 view .LVU126
 406 008e D4F8003E 		ldr	r3, [r4, #3584]
 407 0092 23F00F03 		bic	r3, r3, #15
 408 0096 C4F8003E 		str	r3, [r4, #3584]
 225:/home/pi/Developer/tinyusb/src/portable/synopsys/dwc2/dwc2_common.c **** 
 226:/home/pi/Developer/tinyusb/src/portable/synopsys/dwc2/dwc2_common.c ****   dfifo_flush_tx(dwc2, 0x10); // all tx fifo
 409              		.loc 1 226 3 is_stmt 1 view .LVU127
 410              	.LVL26:
 411              	.LBB114:
 412              	.LBI111:
  99:/home/pi/Developer/tinyusb/src/portable/synopsys/dwc2/dwc2_common.h ****   // flush TX fifo and wait for it cleared
 413              		.loc 2 99 42 view .LVU128
 414              	.LBB113:
 415              		.loc 2 101 3 view .LVU129
 416              		.loc 2 101 17 is_stmt 0 view .LVU130
 417 009a 2261     		str	r2, [r4, #16]
 102:/home/pi/Developer/tinyusb/src/portable/synopsys/dwc2/dwc2_common.h ****   while (0 != (dwc2->grstctl & GRSTCTL_TXFFLSH_Msk)) {}
 418              		.loc 2 102 3 is_stmt 1 view .LVU131
 419              	.L43:
 420              		.loc 2 102 55 view .LVU132
 421              		.loc 2 102 9 view .LVU133
 422              		.loc 2 102 20 is_stmt 0 view .LVU134
 423 009c 2369     		ldr	r3, [r4, #16]
 424              		.loc 2 102 9 view .LVU135
 425 009e 9B06     		lsls	r3, r3, #26
 426 00a0 FCD4     		bmi	.L43
 427              	.LVL27:
 428              		.loc 2 102 9 view .LVU136
 429              	.LBE113:
 430              	.LBE114:
 227:/home/pi/Developer/tinyusb/src/portable/synopsys/dwc2/dwc2_common.c ****   dfifo_flush_rx(dwc2);
 431              		.loc 1 227 3 is_stmt 1 view .LVU137
 432              	.LBB115:
 433              	.LBI115:
 103:/home/pi/Developer/tinyusb/src/portable/synopsys/dwc2/dwc2_common.h **** }
 104:/home/pi/Developer/tinyusb/src/portable/synopsys/dwc2/dwc2_common.h **** 
 105:/home/pi/Developer/tinyusb/src/portable/synopsys/dwc2/dwc2_common.h **** TU_ATTR_ALWAYS_INLINE static inline void dfifo_flush_rx(dwc2_regs_t* dwc2) {
 434              		.loc 2 105 42 view .LVU138
 435              	.LBB116:
 106:/home/pi/Developer/tinyusb/src/portable/synopsys/dwc2/dwc2_common.h ****   // flush RX fifo and wait for it cleared
 107:/home/pi/Developer/tinyusb/src/portable/synopsys/dwc2/dwc2_common.h ****   dwc2->grstctl = GRSTCTL_RXFFLSH;
 436              		.loc 2 107 3 view .LVU139
 437              		.loc 2 107 17 is_stmt 0 view .LVU140
 438 00a2 1023     		movs	r3, #16
 439 00a4 2361     		str	r3, [r4, #16]
ARM GAS  /tmp/cc4dDpyD.s 			page 21


 108:/home/pi/Developer/tinyusb/src/portable/synopsys/dwc2/dwc2_common.h ****   while (0 != (dwc2->grstctl & GRSTCTL_RXFFLSH_Msk)) {}
 440              		.loc 2 108 3 is_stmt 1 view .LVU141
 441              	.L44:
 442              		.loc 2 108 55 view .LVU142
 443              		.loc 2 108 9 view .LVU143
 444              		.loc 2 108 20 is_stmt 0 view .LVU144
 445 00a6 2369     		ldr	r3, [r4, #16]
 446              		.loc 2 108 9 view .LVU145
 447 00a8 13F01003 		ands	r3, r3, #16
 448 00ac FBD1     		bne	.L44
 449              		.loc 2 108 9 view .LVU146
 450              	.LBE116:
 451              	.LBE115:
 228:/home/pi/Developer/tinyusb/src/portable/synopsys/dwc2/dwc2_common.c **** 
 229:/home/pi/Developer/tinyusb/src/portable/synopsys/dwc2/dwc2_common.c ****   // Clear pending and disable all interrupts
 230:/home/pi/Developer/tinyusb/src/portable/synopsys/dwc2/dwc2_common.c ****   dwc2->gintsts = 0xFFFFFFFFU;
 452              		.loc 1 230 3 is_stmt 1 view .LVU147
 453              		.loc 1 230 17 is_stmt 0 view .LVU148
 454 00ae 4FF0FF32 		mov	r2, #-1
 455 00b2 6261     		str	r2, [r4, #20]
 231:/home/pi/Developer/tinyusb/src/portable/synopsys/dwc2/dwc2_common.c ****   dwc2->gotgint = 0xFFFFFFFFU;
 456              		.loc 1 231 3 is_stmt 1 view .LVU149
 457              		.loc 1 231 17 is_stmt 0 view .LVU150
 458 00b4 6260     		str	r2, [r4, #4]
 232:/home/pi/Developer/tinyusb/src/portable/synopsys/dwc2/dwc2_common.c ****   dwc2->gintmsk = 0;
 459              		.loc 1 232 3 is_stmt 1 view .LVU151
 460              		.loc 1 232 17 is_stmt 0 view .LVU152
 461 00b6 A361     		str	r3, [r4, #24]
 233:/home/pi/Developer/tinyusb/src/portable/synopsys/dwc2/dwc2_common.c **** 
 234:/home/pi/Developer/tinyusb/src/portable/synopsys/dwc2/dwc2_common.c ****   TU_LOG(DWC2_COMMON_DEBUG, "DMA = %u\r\n", is_dma);
 462              		.loc 1 234 52 is_stmt 1 view .LVU153
 235:/home/pi/Developer/tinyusb/src/portable/synopsys/dwc2/dwc2_common.c **** 
 236:/home/pi/Developer/tinyusb/src/portable/synopsys/dwc2/dwc2_common.c ****   if (is_dma) {
 463              		.loc 1 236 3 view .LVU154
 464              		.loc 1 236 6 is_stmt 0 view .LVU155
 465 00b8 002D     		cmp	r5, #0
 466 00ba 00F08180 		beq	.L45
 237:/home/pi/Developer/tinyusb/src/portable/synopsys/dwc2/dwc2_common.c ****     // DMA seems to be only settable after a core reset, and not possible to switch on-the-fly
 238:/home/pi/Developer/tinyusb/src/portable/synopsys/dwc2/dwc2_common.c ****     dwc2->gahbcfg |= GAHBCFG_DMAEN | GAHBCFG_HBSTLEN_2;
 467              		.loc 1 238 5 is_stmt 1 view .LVU156
 468              		.loc 1 238 19 is_stmt 0 view .LVU157
 469 00be A368     		ldr	r3, [r4, #8]
 239:/home/pi/Developer/tinyusb/src/portable/synopsys/dwc2/dwc2_common.c ****   } else {
 240:/home/pi/Developer/tinyusb/src/portable/synopsys/dwc2/dwc2_common.c ****     dwc2->gintmsk |= GINTSTS_RXFLVL;
 241:/home/pi/Developer/tinyusb/src/portable/synopsys/dwc2/dwc2_common.c ****   }
 242:/home/pi/Developer/tinyusb/src/portable/synopsys/dwc2/dwc2_common.c **** 
 243:/home/pi/Developer/tinyusb/src/portable/synopsys/dwc2/dwc2_common.c ****   return true;
 470              		.loc 1 243 10 view .LVU158
 471 00c0 2846     		mov	r0, r5
 238:/home/pi/Developer/tinyusb/src/portable/synopsys/dwc2/dwc2_common.c ****   } else {
 472              		.loc 1 238 19 view .LVU159
 473 00c2 43F02603 		orr	r3, r3, #38
 474 00c6 A360     		str	r3, [r4, #8]
 475              	.L86:
 244:/home/pi/Developer/tinyusb/src/portable/synopsys/dwc2/dwc2_common.c **** }
 476              		.loc 1 244 1 view .LVU160
 477 00c8 BDE8F081 		pop	{r4, r5, r6, r7, r8, pc}
ARM GAS  /tmp/cc4dDpyD.s 			page 22


 478              	.LVL28:
 479              	.L93:
 209:/home/pi/Developer/tinyusb/src/portable/synopsys/dwc2/dwc2_common.c ****   } else {
 480              		.loc 1 209 5 is_stmt 1 view .LVU161
 481              	.LBB117:
 482              	.LBI117:
  93:/home/pi/Developer/tinyusb/src/portable/synopsys/dwc2/dwc2_common.c ****   uint32_t gusbcfg = dwc2->gusbcfg;
 483              		.loc 1 93 13 view .LVU162
 484              	.LBB118:
  94:/home/pi/Developer/tinyusb/src/portable/synopsys/dwc2/dwc2_common.c ****   const dwc2_ghwcfg2_t ghwcfg2 = {.value = dwc2->ghwcfg2};
 485              		.loc 1 94 3 view .LVU163
  94:/home/pi/Developer/tinyusb/src/portable/synopsys/dwc2/dwc2_common.c ****   const dwc2_ghwcfg2_t ghwcfg2 = {.value = dwc2->ghwcfg2};
 486              		.loc 1 94 12 is_stmt 0 view .LVU164
 487 00cc E768     		ldr	r7, [r4, #12]
 488              	.LVL29:
  95:/home/pi/Developer/tinyusb/src/portable/synopsys/dwc2/dwc2_common.c ****   const dwc2_ghwcfg4_t ghwcfg4 = {.value = dwc2->ghwcfg4};
 489              		.loc 1 95 3 is_stmt 1 view .LVU165
  95:/home/pi/Developer/tinyusb/src/portable/synopsys/dwc2/dwc2_common.c ****   const dwc2_ghwcfg4_t ghwcfg4 = {.value = dwc2->ghwcfg4};
 490              		.loc 1 95 48 is_stmt 0 view .LVU166
 491 00ce A26C     		ldr	r2, [r4, #72]
 492              	.LVL30:
  96:/home/pi/Developer/tinyusb/src/portable/synopsys/dwc2/dwc2_common.c **** 
 493              		.loc 1 96 3 is_stmt 1 view .LVU167
  96:/home/pi/Developer/tinyusb/src/portable/synopsys/dwc2/dwc2_common.c **** 
 494              		.loc 1 96 48 is_stmt 0 view .LVU168
 495 00d0 236D     		ldr	r3, [r4, #80]
 496              	.LVL31:
  98:/home/pi/Developer/tinyusb/src/portable/synopsys/dwc2/dwc2_common.c ****   if (CFG_TUSB_MCU != OPT_MCU_AT32F402_405 && // at32f402_405 does not support 16-bit
 497              		.loc 1 98 3 is_stmt 1 view .LVU169
  99:/home/pi/Developer/tinyusb/src/portable/synopsys/dwc2/dwc2_common.c ****       ghwcfg4.phy_data_width) {
 498              		.loc 1 99 3 view .LVU170
  99:/home/pi/Developer/tinyusb/src/portable/synopsys/dwc2/dwc2_common.c ****       ghwcfg4.phy_data_width) {
 499              		.loc 1 99 44 is_stmt 0 view .LVU171
 500 00d2 C3F30723 		ubfx	r3, r3, #8, #8
 501              	.LVL32:
  99:/home/pi/Developer/tinyusb/src/portable/synopsys/dwc2/dwc2_common.c ****       ghwcfg4.phy_data_width) {
 502              		.loc 1 99 6 view .LVU172
 503 00d6 13F0C00F 		tst	r3, #192
 109:/home/pi/Developer/tinyusb/src/portable/synopsys/dwc2/dwc2_common.c ****     TU_LOG(DWC2_COMMON_DEBUG, "Highspeed ULPI PHY init\r\n");
 504              		.loc 1 109 6 view .LVU173
 505 00da 02F0C003 		and	r3, r2, #192
  99:/home/pi/Developer/tinyusb/src/portable/synopsys/dwc2/dwc2_common.c ****       ghwcfg4.phy_data_width) {
 506              		.loc 1 99 6 view .LVU174
 507 00de 00F09E80 		beq	.L97
 508              	.LVL33:
 107:/home/pi/Developer/tinyusb/src/portable/synopsys/dwc2/dwc2_common.c **** 
 509              		.loc 1 107 3 is_stmt 1 view .LVU175
 109:/home/pi/Developer/tinyusb/src/portable/synopsys/dwc2/dwc2_common.c ****     TU_LOG(DWC2_COMMON_DEBUG, "Highspeed ULPI PHY init\r\n");
 510              		.loc 1 109 3 view .LVU176
 109:/home/pi/Developer/tinyusb/src/portable/synopsys/dwc2/dwc2_common.c ****     TU_LOG(DWC2_COMMON_DEBUG, "Highspeed ULPI PHY init\r\n");
 511              		.loc 1 109 6 is_stmt 0 view .LVU177
 512 00e2 802B     		cmp	r3, #128
 513 00e4 00F0DB80 		beq	.L51
 127:/home/pi/Developer/tinyusb/src/portable/synopsys/dwc2/dwc2_common.c **** 
 514              		.loc 1 127 62 is_stmt 1 view .LVU178
 130:/home/pi/Developer/tinyusb/src/portable/synopsys/dwc2/dwc2_common.c **** 
 515              		.loc 1 130 5 view .LVU179
ARM GAS  /tmp/cc4dDpyD.s 			page 23


 130:/home/pi/Developer/tinyusb/src/portable/synopsys/dwc2/dwc2_common.c **** 
 516              		.loc 1 130 13 is_stmt 0 view .LVU180
 517 00e8 27F05006 		bic	r6, r7, #80
 518              	.LVL34:
 133:/home/pi/Developer/tinyusb/src/portable/synopsys/dwc2/dwc2_common.c ****       gusbcfg |= GUSBCFG_PHYIF16;
 519              		.loc 1 133 5 is_stmt 1 view .LVU181
 134:/home/pi/Developer/tinyusb/src/portable/synopsys/dwc2/dwc2_common.c ****     } else {
 520              		.loc 1 134 7 view .LVU182
 521              	.LBB119:
 522              	.LBB120:
 198:/home/pi/Developer/tinyusb/src/portable/synopsys/dwc2/dwc2_stm32.h ****     // Enable on-chip FS PHY
 523              		.loc 3 198 6 is_stmt 0 view .LVU183
 524 00ec 12F0C00F 		tst	r2, #192
 525              	.LBE120:
 526              	.LBE119:
 134:/home/pi/Developer/tinyusb/src/portable/synopsys/dwc2/dwc2_common.c ****     } else {
 527              		.loc 1 134 15 view .LVU184
 528 00f0 46F00806 		orr	r6, r6, #8
 529              	.LVL35:
 141:/home/pi/Developer/tinyusb/src/portable/synopsys/dwc2/dwc2_common.c **** 
 530              		.loc 1 141 3 is_stmt 1 view .LVU185
 141:/home/pi/Developer/tinyusb/src/portable/synopsys/dwc2/dwc2_common.c **** 
 531              		.loc 1 141 17 is_stmt 0 view .LVU186
 532 00f4 E660     		str	r6, [r4, #12]
 144:/home/pi/Developer/tinyusb/src/portable/synopsys/dwc2/dwc2_common.c **** 
 533              		.loc 1 144 3 is_stmt 1 view .LVU187
 534              	.LVL36:
 535              	.LBB136:
 536              	.LBI119:
 197:/home/pi/Developer/tinyusb/src/portable/synopsys/dwc2/dwc2_stm32.h ****   if (hs_phy_type == GHWCFG2_HSPHY_NOT_SUPPORTED) {
 537              		.loc 3 197 20 view .LVU188
 538              	.LBB125:
 198:/home/pi/Developer/tinyusb/src/portable/synopsys/dwc2/dwc2_stm32.h ****     // Enable on-chip FS PHY
 539              		.loc 3 198 3 view .LVU189
 198:/home/pi/Developer/tinyusb/src/portable/synopsys/dwc2/dwc2_stm32.h ****     // Enable on-chip FS PHY
 540              		.loc 3 198 6 is_stmt 0 view .LVU190
 541 00f6 40F0C380 		bne	.L98
 542              	.LBE125:
 543              	.LBE136:
 101:/home/pi/Developer/tinyusb/src/portable/synopsys/dwc2/dwc2_common.c ****   } else {
 544              		.loc 1 101 15 view .LVU191
 545 00fa 4FF01008 		mov	r8, #16
 546              	.LVL37:
 547              	.L27:
 548              	.LBB137:
 549              	.LBB126:
 200:/home/pi/Developer/tinyusb/src/portable/synopsys/dwc2/dwc2_stm32.h **** 
 550              		.loc 3 200 5 is_stmt 1 view .LVU192
 200:/home/pi/Developer/tinyusb/src/portable/synopsys/dwc2/dwc2_stm32.h **** 
 551              		.loc 3 200 23 is_stmt 0 view .LVU193
 552 00fe A36B     		ldr	r3, [r4, #56]
 553 0100 43F48033 		orr	r3, r3, #65536
 554 0104 A363     		str	r3, [r4, #56]
 207:/home/pi/Developer/tinyusb/src/portable/synopsys/dwc2/dwc2_stm32.h ****       RCC->AHB1LPENR &= ~RCC_AHB1LPENR_USB2OTGFSULPILPEN;
 555              		.loc 3 207 5 is_stmt 1 view .LVU194
 207:/home/pi/Developer/tinyusb/src/portable/synopsys/dwc2/dwc2_stm32.h ****       RCC->AHB1LPENR &= ~RCC_AHB1LPENR_USB2OTGFSULPILPEN;
 556              		.loc 3 207 8 is_stmt 0 view .LVU195
ARM GAS  /tmp/cc4dDpyD.s 			page 24


 557 0106 784B     		ldr	r3, .L101
 558 0108 9842     		cmp	r0, r3
 559 010a 00F0E480 		beq	.L99
 213:/home/pi/Developer/tinyusb/src/portable/synopsys/dwc2/dwc2_stm32.h ****       RCC->AHB1LPENR &= ~RCC_AHB1LPENR_USB1OTGHSULPILPEN;
 560              		.loc 3 213 5 is_stmt 1 view .LVU196
 213:/home/pi/Developer/tinyusb/src/portable/synopsys/dwc2/dwc2_stm32.h ****       RCC->AHB1LPENR &= ~RCC_AHB1LPENR_USB1OTGHSULPILPEN;
 561              		.loc 3 213 8 is_stmt 0 view .LVU197
 562 010e 7A4B     		ldr	r3, .L101+16
 563 0110 9842     		cmp	r0, r3
 564 0112 00F0CE80 		beq	.L32
 565              	.L31:
 269:/home/pi/Developer/tinyusb/src/portable/synopsys/dwc2/dwc2_stm32.h ****   }
 566              		.loc 3 269 5 is_stmt 1 view .LVU198
 269:/home/pi/Developer/tinyusb/src/portable/synopsys/dwc2/dwc2_stm32.h ****   }
 567              		.loc 3 269 5 is_stmt 0 view .LVU199
 568              	.LBE126:
 569              	.LBE137:
 147:/home/pi/Developer/tinyusb/src/portable/synopsys/dwc2/dwc2_common.c **** 
 570              		.loc 1 147 3 is_stmt 1 view .LVU200
 571 0116 2046     		mov	r0, r4
 152:/home/pi/Developer/tinyusb/src/portable/synopsys/dwc2/dwc2_common.c ****   gusbcfg |= (phy_width == 16 ? 5u : 9u) << GUSBCFG_TRDT_Pos;
 572              		.loc 1 152 11 is_stmt 0 view .LVU201
 573 0118 26F47056 		bic	r6, r6, #15360
 574              	.LVL38:
 147:/home/pi/Developer/tinyusb/src/portable/synopsys/dwc2/dwc2_common.c **** 
 575              		.loc 1 147 3 view .LVU202
 576 011c FFF7FEFF 		bl	reset_core
 577              	.LVL39:
 152:/home/pi/Developer/tinyusb/src/portable/synopsys/dwc2/dwc2_common.c ****   gusbcfg |= (phy_width == 16 ? 5u : 9u) << GUSBCFG_TRDT_Pos;
 578              		.loc 1 152 3 is_stmt 1 view .LVU203
 153:/home/pi/Developer/tinyusb/src/portable/synopsys/dwc2/dwc2_common.c ****   dwc2->gusbcfg = gusbcfg;
 579              		.loc 1 153 3 view .LVU204
 153:/home/pi/Developer/tinyusb/src/portable/synopsys/dwc2/dwc2_common.c ****   dwc2->gusbcfg = gusbcfg;
 580              		.loc 1 153 42 is_stmt 0 view .LVU205
 581 0120 B8F1100F 		cmp	r8, #16
 582 0124 00F00281 		beq	.L33
 583 0128 4FF41053 		mov	r3, #9216
 584              	.L34:
 153:/home/pi/Developer/tinyusb/src/portable/synopsys/dwc2/dwc2_common.c ****   dwc2->gusbcfg = gusbcfg;
 585              		.loc 1 153 11 view .LVU206
 586 012c 1E43     		orrs	r6, r6, r3
 587              	.LVL40:
 154:/home/pi/Developer/tinyusb/src/portable/synopsys/dwc2/dwc2_common.c **** 
 588              		.loc 1 154 3 is_stmt 1 view .LVU207
 154:/home/pi/Developer/tinyusb/src/portable/synopsys/dwc2/dwc2_common.c **** 
 589              		.loc 1 154 17 is_stmt 0 view .LVU208
 590 012e E660     		str	r6, [r4, #12]
 157:/home/pi/Developer/tinyusb/src/portable/synopsys/dwc2/dwc2_common.c **** }
 591              		.loc 1 157 3 is_stmt 1 view .LVU209
 592              	.LVL41:
 593              	.LBB138:
 594              	.LBI138:
 290:/home/pi/Developer/tinyusb/src/portable/synopsys/dwc2/dwc2_stm32.h ****   // used to set turnaround time for fullspeed, nothing to do in highspeed mode
 595              		.loc 3 290 20 view .LVU210
 596              	.LBE138:
 597              	.LBE118:
 598              	.LBE117:
ARM GAS  /tmp/cc4dDpyD.s 			page 25


 292:/home/pi/Developer/tinyusb/src/portable/synopsys/dwc2/dwc2_stm32.h ****     // Turnaround timeout depends on the AHB clock dictated by STM32 Reference Manual
 599              		.loc 3 292 3 view .LVU211
 600              	.L46:
 601              	.LBB162:
 602              	.LBB156:
 603              	.LBB142:
 604              	.LBB139:
 605              	.LBI139:
 290:/home/pi/Developer/tinyusb/src/portable/synopsys/dwc2/dwc2_stm32.h ****   // used to set turnaround time for fullspeed, nothing to do in highspeed mode
 606              		.loc 3 290 20 view .LVU212
 607              	.LBB140:
 608              	.LBB141:
 294:/home/pi/Developer/tinyusb/src/portable/synopsys/dwc2/dwc2_stm32.h **** 
 609              		.loc 3 294 5 view .LVU213
 296:/home/pi/Developer/tinyusb/src/portable/synopsys/dwc2/dwc2_stm32.h ****       turnaround = 0x6u;
 610              		.loc 3 296 5 view .LVU214
 296:/home/pi/Developer/tinyusb/src/portable/synopsys/dwc2/dwc2_stm32.h ****       turnaround = 0x6u;
 611              		.loc 3 296 25 is_stmt 0 view .LVU215
 612 0130 724B     		ldr	r3, .L101+20
 296:/home/pi/Developer/tinyusb/src/portable/synopsys/dwc2/dwc2_stm32.h ****       turnaround = 0x6u;
 613              		.loc 3 296 8 view .LVU216
 614 0132 734A     		ldr	r2, .L101+24
 296:/home/pi/Developer/tinyusb/src/portable/synopsys/dwc2/dwc2_stm32.h ****       turnaround = 0x6u;
 615              		.loc 3 296 25 view .LVU217
 616 0134 1B68     		ldr	r3, [r3]
 296:/home/pi/Developer/tinyusb/src/portable/synopsys/dwc2/dwc2_stm32.h ****       turnaround = 0x6u;
 617              		.loc 3 296 8 view .LVU218
 618 0136 9342     		cmp	r3, r2
 619 0138 9CD2     		bcs	.L63
 298:/home/pi/Developer/tinyusb/src/portable/synopsys/dwc2/dwc2_stm32.h ****       turnaround = 0x7u;
 620              		.loc 3 298 12 is_stmt 1 view .LVU219
 298:/home/pi/Developer/tinyusb/src/portable/synopsys/dwc2/dwc2_stm32.h ****       turnaround = 0x7u;
 621              		.loc 3 298 15 is_stmt 0 view .LVU220
 622 013a 724A     		ldr	r2, .L101+28
 623 013c 9342     		cmp	r3, r2
 624 013e 00F29180 		bhi	.L64
 300:/home/pi/Developer/tinyusb/src/portable/synopsys/dwc2/dwc2_stm32.h ****       turnaround = 0x8u;
 625              		.loc 3 300 12 is_stmt 1 view .LVU221
 300:/home/pi/Developer/tinyusb/src/portable/synopsys/dwc2/dwc2_stm32.h ****       turnaround = 0x8u;
 626              		.loc 3 300 15 is_stmt 0 view .LVU222
 627 0142 714A     		ldr	r2, .L101+32
 628 0144 9342     		cmp	r3, r2
 629 0146 80F09080 		bcs	.L65
 302:/home/pi/Developer/tinyusb/src/portable/synopsys/dwc2/dwc2_stm32.h ****       turnaround = 0x9u;
 630              		.loc 3 302 12 is_stmt 1 view .LVU223
 302:/home/pi/Developer/tinyusb/src/portable/synopsys/dwc2/dwc2_stm32.h ****       turnaround = 0x9u;
 631              		.loc 3 302 15 is_stmt 0 view .LVU224
 632 014a 704A     		ldr	r2, .L101+36
 633 014c 9342     		cmp	r3, r2
 634 014e 00F2F180 		bhi	.L66
 305:/home/pi/Developer/tinyusb/src/portable/synopsys/dwc2/dwc2_stm32.h ****       turnaround = 0xAu;
 635              		.loc 3 305 10 is_stmt 1 view .LVU225
 305:/home/pi/Developer/tinyusb/src/portable/synopsys/dwc2/dwc2_stm32.h ****       turnaround = 0xAu;
 636              		.loc 3 305 13 is_stmt 0 view .LVU226
 637 0152 A2F5DB12 		sub	r2, r2, #1794048
 638 0156 A2F5BA52 		sub	r2, r2, #5952
 639 015a 9342     		cmp	r3, r2
ARM GAS  /tmp/cc4dDpyD.s 			page 26


 640 015c 00F2F080 		bhi	.L67
 308:/home/pi/Developer/tinyusb/src/portable/synopsys/dwc2/dwc2_stm32.h ****       turnaround = 0xBu;
 641              		.loc 3 308 10 is_stmt 1 view .LVU227
 308:/home/pi/Developer/tinyusb/src/portable/synopsys/dwc2/dwc2_stm32.h ****       turnaround = 0xBu;
 642              		.loc 3 308 13 is_stmt 0 view .LVU228
 643 0160 A2F5B712 		sub	r2, r2, #1499136
 644 0164 A2F55872 		sub	r2, r2, #864
 645 0168 9342     		cmp	r3, r2
 646 016a 00F2EC80 		bhi	.L68
 311:/home/pi/Developer/tinyusb/src/portable/synopsys/dwc2/dwc2_stm32.h ****       turnaround = 0xCu;
 647              		.loc 3 311 10 is_stmt 1 view .LVU229
 311:/home/pi/Developer/tinyusb/src/portable/synopsys/dwc2/dwc2_stm32.h ****       turnaround = 0xCu;
 648              		.loc 3 311 13 is_stmt 0 view .LVU230
 649 016e 684A     		ldr	r2, .L101+40
 650 0170 9342     		cmp	r3, r2
 651 0172 80F0EB80 		bcs	.L69
 314:/home/pi/Developer/tinyusb/src/portable/synopsys/dwc2/dwc2_stm32.h ****       turnaround = 0xDu;
 652              		.loc 3 314 10 is_stmt 1 view .LVU231
 314:/home/pi/Developer/tinyusb/src/portable/synopsys/dwc2/dwc2_stm32.h ****       turnaround = 0xDu;
 653              		.loc 3 314 13 is_stmt 0 view .LVU232
 654 0176 674A     		ldr	r2, .L101+44
 655 0178 9342     		cmp	r3, r2
 656 017a 80F0EA80 		bcs	.L70
 317:/home/pi/Developer/tinyusb/src/portable/synopsys/dwc2/dwc2_stm32.h ****       turnaround = 0xEu;
 657              		.loc 3 317 10 is_stmt 1 view .LVU233
 317:/home/pi/Developer/tinyusb/src/portable/synopsys/dwc2/dwc2_stm32.h ****       turnaround = 0xEu;
 658              		.loc 3 317 13 is_stmt 0 view .LVU234
 659 017e 664A     		ldr	r2, .L101+48
 660 0180 9342     		cmp	r3, r2
 661 0182 2CBF     		ite	cs
 662 0184 4FF46052 		movcs	r2, #14336
 663 0188 4FF47052 		movcc	r2, #15360
 664 018c 74E7     		b	.L42
 665              	.LVL42:
 666              	.L92:
 317:/home/pi/Developer/tinyusb/src/portable/synopsys/dwc2/dwc2_stm32.h ****       turnaround = 0xEu;
 667              		.loc 3 317 13 view .LVU235
 668              	.LBE141:
 669              	.LBE140:
 670              	.LBE139:
 671              	.LBE142:
 672              	.LBE156:
 673              	.LBE162:
 674              	.LBB163:
 675              	.LBB61:
 177:/home/pi/Developer/tinyusb/src/portable/synopsys/dwc2/dwc2_common.c **** #endif
 676              		.loc 1 177 3 is_stmt 1 view .LVU236
 177:/home/pi/Developer/tinyusb/src/portable/synopsys/dwc2/dwc2_common.c **** #endif
 677              		.loc 1 177 3 view .LVU237
 177:/home/pi/Developer/tinyusb/src/portable/synopsys/dwc2/dwc2_common.c **** #endif
 678              		.loc 1 177 3 view .LVU238
 177:/home/pi/Developer/tinyusb/src/portable/synopsys/dwc2/dwc2_common.c **** #endif
 679              		.loc 1 177 3 view .LVU239
 680              	.LBB60:
 177:/home/pi/Developer/tinyusb/src/portable/synopsys/dwc2/dwc2_common.c **** #endif
 681              		.loc 1 177 3 view .LVU240
 177:/home/pi/Developer/tinyusb/src/portable/synopsys/dwc2/dwc2_common.c **** #endif
ARM GAS  /tmp/cc4dDpyD.s 			page 27


 682              		.loc 1 177 3 view .LVU241
 683 018e 4FF0E023 		mov	r3, #-536813568
 684              	.LVL43:
 177:/home/pi/Developer/tinyusb/src/portable/synopsys/dwc2/dwc2_common.c **** #endif
 685              		.loc 1 177 3 is_stmt 0 view .LVU242
 686 0192 D3F8F03D 		ldr	r3, [r3, #3568]
 687 0196 DA07     		lsls	r2, r3, #31
 688 0198 00D5     		bpl	.L21
 177:/home/pi/Developer/tinyusb/src/portable/synopsys/dwc2/dwc2_common.c **** #endif
 689              		.loc 1 177 3 is_stmt 1 view .LVU243
 690              		.syntax unified
 691              	@ 177 "/home/pi/Developer/tinyusb/src/portable/synopsys/dwc2/dwc2_common.c" 1
 692 019a 00BE     		BKPT #0
 693              	
 694              	@ 0 "" 2
 695              		.thumb
 696              		.syntax unified
 697              	.L21:
 177:/home/pi/Developer/tinyusb/src/portable/synopsys/dwc2/dwc2_common.c **** #endif
 698              		.loc 1 177 3 is_stmt 0 view .LVU244
 699              	.LBE60:
 700              	.LBE61:
 701              	.LBE163:
 203:/home/pi/Developer/tinyusb/src/portable/synopsys/dwc2/dwc2_common.c **** 
 702              		.loc 1 203 3 is_stmt 1 discriminator 1 view .LVU245
 203:/home/pi/Developer/tinyusb/src/portable/synopsys/dwc2/dwc2_common.c **** 
 703              		.loc 1 203 3 discriminator 1 view .LVU246
 203:/home/pi/Developer/tinyusb/src/portable/synopsys/dwc2/dwc2_common.c **** 
 704              		.loc 1 203 3 discriminator 1 view .LVU247
 203:/home/pi/Developer/tinyusb/src/portable/synopsys/dwc2/dwc2_common.c **** 
 705              		.loc 1 203 3 discriminator 1 view .LVU248
 706              	.LBB164:
 203:/home/pi/Developer/tinyusb/src/portable/synopsys/dwc2/dwc2_common.c **** 
 707              		.loc 1 203 3 discriminator 1 view .LVU249
 708              	.LVL44:
 203:/home/pi/Developer/tinyusb/src/portable/synopsys/dwc2/dwc2_common.c **** 
 709              		.loc 1 203 3 discriminator 1 view .LVU250
 710 019c 4FF0E023 		mov	r3, #-536813568
 711 01a0 D3F8F00D 		ldr	r0, [r3, #3568]
 712 01a4 10F00100 		ands	r0, r0, #1
 713 01a8 8ED0     		beq	.L86
 203:/home/pi/Developer/tinyusb/src/portable/synopsys/dwc2/dwc2_common.c **** 
 714              		.loc 1 203 3 discriminator 3 view .LVU251
 715              		.syntax unified
 716              	@ 203 "/home/pi/Developer/tinyusb/src/portable/synopsys/dwc2/dwc2_common.c" 1
 717 01aa 00BE     		BKPT #0
 718              	
 719              	@ 0 "" 2
 720              		.thumb
 721              		.syntax unified
 722              	.LBE164:
 723 01ac 0020     		movs	r0, #0
 724              		.loc 1 244 1 is_stmt 0 discriminator 3 view .LVU252
 725 01ae BDE8F081 		pop	{r4, r5, r6, r7, r8, pc}
 726              	.LVL45:
 727              	.L91:
 728              	.LBB165:
ARM GAS  /tmp/cc4dDpyD.s 			page 28


 729              	.LBB56:
  87:/home/pi/Developer/tinyusb/src/portable/synopsys/dwc2/dwc2_common.h **** }
 730              		.loc 2 87 48 view .LVU253
 731 01b2 5A4A     		ldr	r2, .L101+52
 732              	.LVL46:
  87:/home/pi/Developer/tinyusb/src/portable/synopsys/dwc2/dwc2_common.h **** }
 733              		.loc 2 87 48 view .LVU254
 734 01b4 00EB4003 		add	r3, r0, r0, lsl #1
 735 01b8 52F82300 		ldr	r0, [r2, r3, lsl #2]
 736              	.LVL47:
  87:/home/pi/Developer/tinyusb/src/portable/synopsys/dwc2/dwc2_common.h **** }
 737              		.loc 2 87 10 view .LVU255
 738 01bc 0446     		mov	r4, r0
 739 01be 27E7     		b	.L19
 740              	.LVL48:
 741              	.L45:
  87:/home/pi/Developer/tinyusb/src/portable/synopsys/dwc2/dwc2_common.h **** }
 742              		.loc 2 87 10 view .LVU256
 743              	.LBE56:
 744              	.LBE165:
 240:/home/pi/Developer/tinyusb/src/portable/synopsys/dwc2/dwc2_common.c ****   }
 745              		.loc 1 240 5 is_stmt 1 view .LVU257
 240:/home/pi/Developer/tinyusb/src/portable/synopsys/dwc2/dwc2_common.c ****   }
 746              		.loc 1 240 19 is_stmt 0 view .LVU258
 747 01c0 A369     		ldr	r3, [r4, #24]
 243:/home/pi/Developer/tinyusb/src/portable/synopsys/dwc2/dwc2_common.c **** }
 748              		.loc 1 243 10 view .LVU259
 749 01c2 0120     		movs	r0, #1
 240:/home/pi/Developer/tinyusb/src/portable/synopsys/dwc2/dwc2_common.c ****   }
 750              		.loc 1 240 19 view .LVU260
 751 01c4 43F01003 		orr	r3, r3, #16
 752 01c8 A361     		str	r3, [r4, #24]
 753              		.loc 1 244 1 view .LVU261
 754 01ca BDE8F081 		pop	{r4, r5, r6, r7, r8, pc}
 755              	.LVL49:
 756              	.L96:
 757              	.LBB166:
 758              	.LBB106:
 759              	.LBB99:
 760              	.LBB91:
 761              	.LBB84:
 762              	.LBB77:
 298:/home/pi/Developer/tinyusb/src/portable/synopsys/dwc2/dwc2_stm32.h ****       turnaround = 0x7u;
 763              		.loc 3 298 12 is_stmt 1 view .LVU262
 298:/home/pi/Developer/tinyusb/src/portable/synopsys/dwc2/dwc2_stm32.h ****       turnaround = 0x7u;
 764              		.loc 3 298 15 is_stmt 0 view .LVU263
 765 01ce 4D4B     		ldr	r3, .L101+28
 766              	.LVL50:
 298:/home/pi/Developer/tinyusb/src/portable/synopsys/dwc2/dwc2_stm32.h ****       turnaround = 0x7u;
 767              		.loc 3 298 15 view .LVU264
 768 01d0 9A42     		cmp	r2, r3
 769 01d2 47D8     		bhi	.L64
 300:/home/pi/Developer/tinyusb/src/portable/synopsys/dwc2/dwc2_stm32.h ****       turnaround = 0x8u;
 770              		.loc 3 300 12 is_stmt 1 view .LVU265
 300:/home/pi/Developer/tinyusb/src/portable/synopsys/dwc2/dwc2_stm32.h ****       turnaround = 0x8u;
 771              		.loc 3 300 15 is_stmt 0 view .LVU266
 772 01d4 4C4B     		ldr	r3, .L101+32
ARM GAS  /tmp/cc4dDpyD.s 			page 29


 773 01d6 9A42     		cmp	r2, r3
 774 01d8 47D2     		bcs	.L65
 302:/home/pi/Developer/tinyusb/src/portable/synopsys/dwc2/dwc2_stm32.h ****       turnaround = 0x9u;
 775              		.loc 3 302 12 is_stmt 1 view .LVU267
 302:/home/pi/Developer/tinyusb/src/portable/synopsys/dwc2/dwc2_stm32.h ****       turnaround = 0x9u;
 776              		.loc 3 302 15 is_stmt 0 view .LVU268
 777 01da 4C4B     		ldr	r3, .L101+36
 778 01dc 9A42     		cmp	r2, r3
 779 01de 00F2A980 		bhi	.L66
 305:/home/pi/Developer/tinyusb/src/portable/synopsys/dwc2/dwc2_stm32.h ****       turnaround = 0xAu;
 780              		.loc 3 305 10 is_stmt 1 view .LVU269
 305:/home/pi/Developer/tinyusb/src/portable/synopsys/dwc2/dwc2_stm32.h ****       turnaround = 0xAu;
 781              		.loc 3 305 13 is_stmt 0 view .LVU270
 782 01e2 A3F5DB13 		sub	r3, r3, #1794048
 783 01e6 A3F5BA53 		sub	r3, r3, #5952
 784 01ea 9A42     		cmp	r2, r3
 785 01ec 00F2A880 		bhi	.L67
 308:/home/pi/Developer/tinyusb/src/portable/synopsys/dwc2/dwc2_stm32.h ****       turnaround = 0xBu;
 786              		.loc 3 308 10 is_stmt 1 view .LVU271
 308:/home/pi/Developer/tinyusb/src/portable/synopsys/dwc2/dwc2_stm32.h ****       turnaround = 0xBu;
 787              		.loc 3 308 13 is_stmt 0 view .LVU272
 788 01f0 A3F5B713 		sub	r3, r3, #1499136
 789 01f4 A3F55873 		sub	r3, r3, #864
 790 01f8 9A42     		cmp	r2, r3
 791 01fa 00F2A480 		bhi	.L68
 311:/home/pi/Developer/tinyusb/src/portable/synopsys/dwc2/dwc2_stm32.h ****       turnaround = 0xCu;
 792              		.loc 3 311 10 is_stmt 1 view .LVU273
 311:/home/pi/Developer/tinyusb/src/portable/synopsys/dwc2/dwc2_stm32.h ****       turnaround = 0xCu;
 793              		.loc 3 311 13 is_stmt 0 view .LVU274
 794 01fe 444B     		ldr	r3, .L101+40
 795 0200 9A42     		cmp	r2, r3
 796 0202 80F0A380 		bcs	.L69
 314:/home/pi/Developer/tinyusb/src/portable/synopsys/dwc2/dwc2_stm32.h ****       turnaround = 0xDu;
 797              		.loc 3 314 10 is_stmt 1 view .LVU275
 314:/home/pi/Developer/tinyusb/src/portable/synopsys/dwc2/dwc2_stm32.h ****       turnaround = 0xDu;
 798              		.loc 3 314 13 is_stmt 0 view .LVU276
 799 0206 434B     		ldr	r3, .L101+44
 800 0208 9A42     		cmp	r2, r3
 801 020a 80F0A280 		bcs	.L70
 317:/home/pi/Developer/tinyusb/src/portable/synopsys/dwc2/dwc2_stm32.h ****       turnaround = 0xEu;
 802              		.loc 3 317 10 is_stmt 1 view .LVU277
 317:/home/pi/Developer/tinyusb/src/portable/synopsys/dwc2/dwc2_stm32.h ****       turnaround = 0xEu;
 803              		.loc 3 317 13 is_stmt 0 view .LVU278
 804 020e 424B     		ldr	r3, .L101+48
 805 0210 9A42     		cmp	r2, r3
 806 0212 2CBF     		ite	cs
 807 0214 4FF46052 		movcs	r2, #14336
 808 0218 4FF47052 		movcc	r2, #15360
 809 021c 2CE7     		b	.L42
 810              	.LVL51:
 811              	.L97:
 317:/home/pi/Developer/tinyusb/src/portable/synopsys/dwc2/dwc2_stm32.h ****       turnaround = 0xEu;
 812              		.loc 3 317 13 view .LVU279
 813              	.LBE77:
 814              	.LBE84:
 815              	.LBE91:
 816              	.LBE99:
ARM GAS  /tmp/cc4dDpyD.s 			page 30


 817              	.LBE106:
 818              	.LBE166:
 819              	.LBB167:
 820              	.LBB157:
 103:/home/pi/Developer/tinyusb/src/portable/synopsys/dwc2/dwc2_common.c ****   }
 821              		.loc 1 103 5 is_stmt 1 view .LVU280
 107:/home/pi/Developer/tinyusb/src/portable/synopsys/dwc2/dwc2_common.c **** 
 822              		.loc 1 107 3 view .LVU281
 109:/home/pi/Developer/tinyusb/src/portable/synopsys/dwc2/dwc2_common.c ****     TU_LOG(DWC2_COMMON_DEBUG, "Highspeed ULPI PHY init\r\n");
 823              		.loc 1 109 3 view .LVU282
 109:/home/pi/Developer/tinyusb/src/portable/synopsys/dwc2/dwc2_common.c ****     TU_LOG(DWC2_COMMON_DEBUG, "Highspeed ULPI PHY init\r\n");
 824              		.loc 1 109 6 is_stmt 0 view .LVU283
 825 021e 802B     		cmp	r3, #128
 826 0220 44D0     		beq	.L50
 127:/home/pi/Developer/tinyusb/src/portable/synopsys/dwc2/dwc2_common.c **** 
 827              		.loc 1 127 62 is_stmt 1 view .LVU284
 130:/home/pi/Developer/tinyusb/src/portable/synopsys/dwc2/dwc2_common.c **** 
 828              		.loc 1 130 5 view .LVU285
 829              	.LVL52:
 133:/home/pi/Developer/tinyusb/src/portable/synopsys/dwc2/dwc2_common.c ****       gusbcfg |= GUSBCFG_PHYIF16;
 830              		.loc 1 133 5 view .LVU286
 136:/home/pi/Developer/tinyusb/src/portable/synopsys/dwc2/dwc2_common.c ****     }
 831              		.loc 1 136 7 view .LVU287
 136:/home/pi/Developer/tinyusb/src/portable/synopsys/dwc2/dwc2_common.c ****     }
 832              		.loc 1 136 15 is_stmt 0 view .LVU288
 833 0222 27F05806 		bic	r6, r7, #88
 834              	.LVL53:
 103:/home/pi/Developer/tinyusb/src/portable/synopsys/dwc2/dwc2_common.c ****   }
 835              		.loc 1 103 15 view .LVU289
 836 0226 4FF00808 		mov	r8, #8
 837              	.LVL54:
 838              	.L26:
 141:/home/pi/Developer/tinyusb/src/portable/synopsys/dwc2/dwc2_common.c **** 
 839              		.loc 1 141 3 is_stmt 1 view .LVU290
 840              	.LBB143:
 841              	.LBB127:
 198:/home/pi/Developer/tinyusb/src/portable/synopsys/dwc2/dwc2_stm32.h ****     // Enable on-chip FS PHY
 842              		.loc 3 198 6 is_stmt 0 view .LVU291
 843 022a 12F0C00F 		tst	r2, #192
 844              	.LBE127:
 845              	.LBE143:
 141:/home/pi/Developer/tinyusb/src/portable/synopsys/dwc2/dwc2_common.c **** 
 846              		.loc 1 141 17 view .LVU292
 847 022e E660     		str	r6, [r4, #12]
 144:/home/pi/Developer/tinyusb/src/portable/synopsys/dwc2/dwc2_common.c **** 
 848              		.loc 1 144 3 is_stmt 1 view .LVU293
 849              	.LVL55:
 850              	.LBB144:
 197:/home/pi/Developer/tinyusb/src/portable/synopsys/dwc2/dwc2_stm32.h ****   if (hs_phy_type == GHWCFG2_HSPHY_NOT_SUPPORTED) {
 851              		.loc 3 197 20 view .LVU294
 852              	.LBB128:
 198:/home/pi/Developer/tinyusb/src/portable/synopsys/dwc2/dwc2_stm32.h ****     // Enable on-chip FS PHY
 853              		.loc 3 198 3 view .LVU295
 198:/home/pi/Developer/tinyusb/src/portable/synopsys/dwc2/dwc2_stm32.h ****     // Enable on-chip FS PHY
 854              		.loc 3 198 6 is_stmt 0 view .LVU296
 855 0230 3FF465AF 		beq	.L27
 227:/home/pi/Developer/tinyusb/src/portable/synopsys/dwc2/dwc2_stm32.h **** #endif
ARM GAS  /tmp/cc4dDpyD.s 			page 31


 856              		.loc 3 227 5 is_stmt 1 view .LVU297
 227:/home/pi/Developer/tinyusb/src/portable/synopsys/dwc2/dwc2_stm32.h **** #endif
 857              		.loc 3 227 23 is_stmt 0 view .LVU298
 858 0234 A36B     		ldr	r3, [r4, #56]
 859              	.LBE128:
 860              	.LBE144:
 147:/home/pi/Developer/tinyusb/src/portable/synopsys/dwc2/dwc2_common.c **** 
 861              		.loc 1 147 3 view .LVU299
 862 0236 2046     		mov	r0, r4
 152:/home/pi/Developer/tinyusb/src/portable/synopsys/dwc2/dwc2_common.c ****   gusbcfg |= (phy_width == 16 ? 5u : 9u) << GUSBCFG_TRDT_Pos;
 863              		.loc 1 152 11 view .LVU300
 864 0238 26F47056 		bic	r6, r6, #15360
 865              	.LVL56:
 866              	.LBB145:
 867              	.LBB129:
 227:/home/pi/Developer/tinyusb/src/portable/synopsys/dwc2/dwc2_stm32.h **** #endif
 868              		.loc 3 227 23 view .LVU301
 869 023c 23F48033 		bic	r3, r3, #65536
 870 0240 A363     		str	r3, [r4, #56]
 871              	.LVL57:
 230:/home/pi/Developer/tinyusb/src/portable/synopsys/dwc2/dwc2_stm32.h ****       #ifdef USB_HS_PHYC
 872              		.loc 3 230 5 is_stmt 1 view .LVU302
 269:/home/pi/Developer/tinyusb/src/portable/synopsys/dwc2/dwc2_stm32.h ****   }
 873              		.loc 3 269 5 view .LVU303
 269:/home/pi/Developer/tinyusb/src/portable/synopsys/dwc2/dwc2_stm32.h ****   }
 874              		.loc 3 269 5 is_stmt 0 view .LVU304
 875              	.LBE129:
 876              	.LBE145:
 147:/home/pi/Developer/tinyusb/src/portable/synopsys/dwc2/dwc2_common.c **** 
 877              		.loc 1 147 3 is_stmt 1 view .LVU305
 878 0242 FFF7FEFF 		bl	reset_core
 879              	.LVL58:
 152:/home/pi/Developer/tinyusb/src/portable/synopsys/dwc2/dwc2_common.c ****   gusbcfg |= (phy_width == 16 ? 5u : 9u) << GUSBCFG_TRDT_Pos;
 880              		.loc 1 152 3 view .LVU306
 153:/home/pi/Developer/tinyusb/src/portable/synopsys/dwc2/dwc2_common.c ****   dwc2->gusbcfg = gusbcfg;
 881              		.loc 1 153 3 view .LVU307
 153:/home/pi/Developer/tinyusb/src/portable/synopsys/dwc2/dwc2_common.c ****   dwc2->gusbcfg = gusbcfg;
 882              		.loc 1 153 42 is_stmt 0 view .LVU308
 883 0246 B8F1100F 		cmp	r8, #16
 884 024a 24D0     		beq	.L36
 153:/home/pi/Developer/tinyusb/src/portable/synopsys/dwc2/dwc2_common.c ****   dwc2->gusbcfg = gusbcfg;
 885              		.loc 1 153 11 view .LVU309
 886 024c 46F41056 		orr	r6, r6, #9216
 887              	.LVL59:
 154:/home/pi/Developer/tinyusb/src/portable/synopsys/dwc2/dwc2_common.c **** 
 888              		.loc 1 154 3 is_stmt 1 view .LVU310
 154:/home/pi/Developer/tinyusb/src/portable/synopsys/dwc2/dwc2_common.c **** 
 889              		.loc 1 154 17 is_stmt 0 view .LVU311
 890 0250 E660     		str	r6, [r4, #12]
 157:/home/pi/Developer/tinyusb/src/portable/synopsys/dwc2/dwc2_common.c **** }
 891              		.loc 1 157 3 is_stmt 1 view .LVU312
 892              	.LBB146:
 290:/home/pi/Developer/tinyusb/src/portable/synopsys/dwc2/dwc2_stm32.h ****   // used to set turnaround time for fullspeed, nothing to do in highspeed mode
 893              		.loc 3 290 20 view .LVU313
 894              	.LBE146:
 895              	.LBE157:
 896              	.LBE167:
ARM GAS  /tmp/cc4dDpyD.s 			page 32


 292:/home/pi/Developer/tinyusb/src/portable/synopsys/dwc2/dwc2_stm32.h ****     // Turnaround timeout depends on the AHB clock dictated by STM32 Reference Manual
 897              		.loc 3 292 3 view .LVU314
 898 0252 16E7     		b	.L39
 899              	.LVL60:
 900              	.L95:
 901              	.LBB168:
 902              	.LBB107:
 903              	.LBB100:
 904              	.LBB68:
 905              	.LBB66:
 906              	.LBI66:
 197:/home/pi/Developer/tinyusb/src/portable/synopsys/dwc2/dwc2_stm32.h ****   if (hs_phy_type == GHWCFG2_HSPHY_NOT_SUPPORTED) {
 907              		.loc 3 197 20 view .LVU315
 908              	.LBB67:
 214:/home/pi/Developer/tinyusb/src/portable/synopsys/dwc2/dwc2_stm32.h ****     }
 909              		.loc 3 214 7 view .LVU316
 214:/home/pi/Developer/tinyusb/src/portable/synopsys/dwc2/dwc2_stm32.h ****     }
 910              		.loc 3 214 22 is_stmt 0 view .LVU317
 911 0254 324A     		ldr	r2, .L101+56
 912 0256 D2F80031 		ldr	r3, [r2, #256]
 913 025a 23F08063 		bic	r3, r3, #67108864
 914 025e C2F80031 		str	r3, [r2, #256]
 269:/home/pi/Developer/tinyusb/src/portable/synopsys/dwc2/dwc2_stm32.h ****   }
 915              		.loc 3 269 5 is_stmt 1 view .LVU318
 271:/home/pi/Developer/tinyusb/src/portable/synopsys/dwc2/dwc2_stm32.h **** 
 916              		.loc 3 271 1 is_stmt 0 view .LVU319
 917 0262 F9E6     		b	.L41
 918              	.LVL61:
 919              	.L64:
 271:/home/pi/Developer/tinyusb/src/portable/synopsys/dwc2/dwc2_stm32.h **** 
 920              		.loc 3 271 1 view .LVU320
 921              	.LBE67:
 922              	.LBE66:
 923              	.LBE68:
 924              	.LBE100:
 925              	.LBB101:
 926              	.LBB92:
 927              	.LBB85:
 928              	.LBB78:
 929 0264 4FF4E052 		mov	r2, #7168
 930 0268 06E7     		b	.L42
 931              	.L65:
 932 026a 4FF40052 		mov	r2, #8192
 933 026e 03E7     		b	.L42
 934              	.LVL62:
 935              	.L94:
 271:/home/pi/Developer/tinyusb/src/portable/synopsys/dwc2/dwc2_stm32.h **** 
 936              		.loc 3 271 1 view .LVU321
 937              	.LBE78:
 938              	.LBE85:
 939              	.LBE92:
 940              	.LBE101:
 941              	.LBB102:
 942              	.LBB69:
 208:/home/pi/Developer/tinyusb/src/portable/synopsys/dwc2/dwc2_stm32.h ****     }
 943              		.loc 3 208 7 is_stmt 1 view .LVU322
 208:/home/pi/Developer/tinyusb/src/portable/synopsys/dwc2/dwc2_stm32.h ****     }
ARM GAS  /tmp/cc4dDpyD.s 			page 33


 944              		.loc 3 208 22 is_stmt 0 view .LVU323
 945 0270 2B4A     		ldr	r2, .L101+56
 946 0272 D2F80031 		ldr	r3, [r2, #256]
 947 0276 23F08053 		bic	r3, r3, #268435456
 948 027a C2F80031 		str	r3, [r2, #256]
 213:/home/pi/Developer/tinyusb/src/portable/synopsys/dwc2/dwc2_stm32.h ****       RCC->AHB1LPENR &= ~RCC_AHB1LPENR_USB1OTGHSULPILPEN;
 949              		.loc 3 213 5 is_stmt 1 view .LVU324
 950 027e EBE6     		b	.L41
 951              	.LVL63:
 952              	.L98:
 213:/home/pi/Developer/tinyusb/src/portable/synopsys/dwc2/dwc2_stm32.h ****       RCC->AHB1LPENR &= ~RCC_AHB1LPENR_USB1OTGHSULPILPEN;
 953              		.loc 3 213 5 is_stmt 0 view .LVU325
 954              	.LBE69:
 955              	.LBE102:
 956              	.LBE107:
 957              	.LBE168:
 958              	.LBB169:
 959              	.LBB158:
 960              	.LBB147:
 961              	.LBB130:
 227:/home/pi/Developer/tinyusb/src/portable/synopsys/dwc2/dwc2_stm32.h **** #endif
 962              		.loc 3 227 5 is_stmt 1 view .LVU326
 963 0280 284E     		ldr	r6, .L101+60
 964              	.LVL64:
 227:/home/pi/Developer/tinyusb/src/portable/synopsys/dwc2/dwc2_stm32.h **** #endif
 965              		.loc 3 227 5 is_stmt 0 view .LVU327
 966              	.LBE130:
 967              	.LBE147:
 147:/home/pi/Developer/tinyusb/src/portable/synopsys/dwc2/dwc2_common.c **** 
 968              		.loc 1 147 3 view .LVU328
 969 0282 2046     		mov	r0, r4
 970              	.LBB148:
 971              	.LBB131:
 227:/home/pi/Developer/tinyusb/src/portable/synopsys/dwc2/dwc2_stm32.h **** #endif
 972              		.loc 3 227 23 view .LVU329
 973 0284 A36B     		ldr	r3, [r4, #56]
 974 0286 3E40     		ands	r6, r6, r7
 975 0288 23F48033 		bic	r3, r3, #65536
 976              	.LBE131:
 977              	.LBE148:
 152:/home/pi/Developer/tinyusb/src/portable/synopsys/dwc2/dwc2_common.c ****   gusbcfg |= (phy_width == 16 ? 5u : 9u) << GUSBCFG_TRDT_Pos;
 978              		.loc 1 152 11 view .LVU330
 979 028c 46F00806 		orr	r6, r6, #8
 980              	.LBB149:
 981              	.LBB132:
 227:/home/pi/Developer/tinyusb/src/portable/synopsys/dwc2/dwc2_stm32.h **** #endif
 982              		.loc 3 227 23 view .LVU331
 983 0290 A363     		str	r3, [r4, #56]
 984              	.LVL65:
 230:/home/pi/Developer/tinyusb/src/portable/synopsys/dwc2/dwc2_stm32.h ****       #ifdef USB_HS_PHYC
 985              		.loc 3 230 5 is_stmt 1 view .LVU332
 269:/home/pi/Developer/tinyusb/src/portable/synopsys/dwc2/dwc2_stm32.h ****   }
 986              		.loc 3 269 5 view .LVU333
 269:/home/pi/Developer/tinyusb/src/portable/synopsys/dwc2/dwc2_stm32.h ****   }
 987              		.loc 3 269 5 is_stmt 0 view .LVU334
 988              	.LBE132:
 989              	.LBE149:
ARM GAS  /tmp/cc4dDpyD.s 			page 34


 147:/home/pi/Developer/tinyusb/src/portable/synopsys/dwc2/dwc2_common.c **** 
 990              		.loc 1 147 3 is_stmt 1 view .LVU335
 991 0292 FFF7FEFF 		bl	reset_core
 992              	.LVL66:
 152:/home/pi/Developer/tinyusb/src/portable/synopsys/dwc2/dwc2_common.c ****   gusbcfg |= (phy_width == 16 ? 5u : 9u) << GUSBCFG_TRDT_Pos;
 993              		.loc 1 152 3 view .LVU336
 153:/home/pi/Developer/tinyusb/src/portable/synopsys/dwc2/dwc2_common.c ****   dwc2->gusbcfg = gusbcfg;
 994              		.loc 1 153 3 view .LVU337
 995              	.L36:
 153:/home/pi/Developer/tinyusb/src/portable/synopsys/dwc2/dwc2_common.c ****   dwc2->gusbcfg = gusbcfg;
 996              		.loc 1 153 11 is_stmt 0 view .LVU338
 997 0296 46F4A056 		orr	r6, r6, #5120
 998              	.LVL67:
 154:/home/pi/Developer/tinyusb/src/portable/synopsys/dwc2/dwc2_common.c **** 
 999              		.loc 1 154 3 is_stmt 1 view .LVU339
 154:/home/pi/Developer/tinyusb/src/portable/synopsys/dwc2/dwc2_common.c **** 
 1000              		.loc 1 154 17 is_stmt 0 view .LVU340
 1001 029a E660     		str	r6, [r4, #12]
 157:/home/pi/Developer/tinyusb/src/portable/synopsys/dwc2/dwc2_common.c **** }
 1002              		.loc 1 157 3 is_stmt 1 view .LVU341
 1003              	.LBB150:
 290:/home/pi/Developer/tinyusb/src/portable/synopsys/dwc2/dwc2_stm32.h ****   // used to set turnaround time for fullspeed, nothing to do in highspeed mode
 1004              		.loc 3 290 20 view .LVU342
 1005              	.LBE150:
 1006              	.LBE158:
 1007              	.LBE169:
 292:/home/pi/Developer/tinyusb/src/portable/synopsys/dwc2/dwc2_stm32.h ****     // Turnaround timeout depends on the AHB clock dictated by STM32 Reference Manual
 1008              		.loc 3 292 3 view .LVU343
 1009 029c F1E6     		b	.L39
 1010              	.LVL68:
 1011              	.L51:
 1012              	.LBB170:
 1013              	.LBB159:
 101:/home/pi/Developer/tinyusb/src/portable/synopsys/dwc2/dwc2_common.c ****   } else {
 1014              		.loc 1 101 15 is_stmt 0 view .LVU344
 1015 029e 4FF01008 		mov	r8, #16
 1016              	.LVL69:
 1017              	.L25:
 110:/home/pi/Developer/tinyusb/src/portable/synopsys/dwc2/dwc2_common.c **** 
 1018              		.loc 1 110 61 is_stmt 1 view .LVU345
 113:/home/pi/Developer/tinyusb/src/portable/synopsys/dwc2/dwc2_common.c **** 
 1019              		.loc 1 113 5 view .LVU346
 116:/home/pi/Developer/tinyusb/src/portable/synopsys/dwc2/dwc2_common.c **** 
 1020              		.loc 1 116 5 view .LVU347
 119:/home/pi/Developer/tinyusb/src/portable/synopsys/dwc2/dwc2_common.c **** 
 1021              		.loc 1 119 5 view .LVU348
 122:/home/pi/Developer/tinyusb/src/portable/synopsys/dwc2/dwc2_common.c **** 
 1022              		.loc 1 122 5 view .LVU349
 125:/home/pi/Developer/tinyusb/src/portable/synopsys/dwc2/dwc2_common.c ****   } else {
 1023              		.loc 1 125 5 view .LVU350
 1024 02a2 214E     		ldr	r6, .L101+64
 1025 02a4 3E40     		ands	r6, r6, r7
 125:/home/pi/Developer/tinyusb/src/portable/synopsys/dwc2/dwc2_common.c ****   } else {
 1026              		.loc 1 125 13 is_stmt 0 view .LVU351
 1027 02a6 46F01006 		orr	r6, r6, #16
 1028              	.LVL70:
 125:/home/pi/Developer/tinyusb/src/portable/synopsys/dwc2/dwc2_common.c ****   } else {
ARM GAS  /tmp/cc4dDpyD.s 			page 35


 1029              		.loc 1 125 13 view .LVU352
 1030 02aa BEE7     		b	.L26
 1031              	.LVL71:
 1032              	.L50:
 103:/home/pi/Developer/tinyusb/src/portable/synopsys/dwc2/dwc2_common.c ****   }
 1033              		.loc 1 103 15 view .LVU353
 1034 02ac 4FF00808 		mov	r8, #8
 1035 02b0 F7E7     		b	.L25
 1036              	.LVL72:
 1037              	.L32:
 1038              	.LBB151:
 1039              	.LBB133:
 1040              	.LBB121:
 1041              	.LBI121:
 197:/home/pi/Developer/tinyusb/src/portable/synopsys/dwc2/dwc2_stm32.h ****   if (hs_phy_type == GHWCFG2_HSPHY_NOT_SUPPORTED) {
 1042              		.loc 3 197 20 is_stmt 1 view .LVU354
 1043              	.LBB122:
 214:/home/pi/Developer/tinyusb/src/portable/synopsys/dwc2/dwc2_stm32.h ****     }
 1044              		.loc 3 214 7 view .LVU355
 214:/home/pi/Developer/tinyusb/src/portable/synopsys/dwc2/dwc2_stm32.h ****     }
 1045              		.loc 3 214 22 is_stmt 0 view .LVU356
 1046 02b2 1B4A     		ldr	r2, .L101+56
 1047              	.LVL73:
 214:/home/pi/Developer/tinyusb/src/portable/synopsys/dwc2/dwc2_stm32.h ****     }
 1048              		.loc 3 214 22 view .LVU357
 1049              	.LBE122:
 1050              	.LBE121:
 1051              	.LBE133:
 1052              	.LBE151:
 152:/home/pi/Developer/tinyusb/src/portable/synopsys/dwc2/dwc2_common.c ****   gusbcfg |= (phy_width == 16 ? 5u : 9u) << GUSBCFG_TRDT_Pos;
 1053              		.loc 1 152 11 view .LVU358
 1054 02b4 26F47056 		bic	r6, r6, #15360
 1055              	.LVL74:
 1056              	.LBB152:
 1057              	.LBB134:
 1058              	.LBB124:
 1059              	.LBB123:
 214:/home/pi/Developer/tinyusb/src/portable/synopsys/dwc2/dwc2_stm32.h ****     }
 1060              		.loc 3 214 22 view .LVU359
 1061 02b8 D2F80031 		ldr	r3, [r2, #256]
 1062 02bc 23F08063 		bic	r3, r3, #67108864
 1063 02c0 C2F80031 		str	r3, [r2, #256]
 269:/home/pi/Developer/tinyusb/src/portable/synopsys/dwc2/dwc2_stm32.h ****   }
 1064              		.loc 3 269 5 is_stmt 1 view .LVU360
 1065              	.LVL75:
 269:/home/pi/Developer/tinyusb/src/portable/synopsys/dwc2/dwc2_stm32.h ****   }
 1066              		.loc 3 269 5 is_stmt 0 view .LVU361
 1067              	.LBE123:
 1068              	.LBE124:
 269:/home/pi/Developer/tinyusb/src/portable/synopsys/dwc2/dwc2_stm32.h ****   }
 1069              		.loc 3 269 5 is_stmt 1 view .LVU362
 269:/home/pi/Developer/tinyusb/src/portable/synopsys/dwc2/dwc2_stm32.h ****   }
 1070              		.loc 3 269 5 is_stmt 0 view .LVU363
 1071              	.LBE134:
 1072              	.LBE152:
 147:/home/pi/Developer/tinyusb/src/portable/synopsys/dwc2/dwc2_common.c **** 
 1073              		.loc 1 147 3 is_stmt 1 view .LVU364
ARM GAS  /tmp/cc4dDpyD.s 			page 36


 1074 02c4 FFF7FEFF 		bl	reset_core
 1075              	.LVL76:
 152:/home/pi/Developer/tinyusb/src/portable/synopsys/dwc2/dwc2_common.c ****   gusbcfg |= (phy_width == 16 ? 5u : 9u) << GUSBCFG_TRDT_Pos;
 1076              		.loc 1 152 3 view .LVU365
 153:/home/pi/Developer/tinyusb/src/portable/synopsys/dwc2/dwc2_common.c ****   dwc2->gusbcfg = gusbcfg;
 1077              		.loc 1 153 3 view .LVU366
 153:/home/pi/Developer/tinyusb/src/portable/synopsys/dwc2/dwc2_common.c ****   dwc2->gusbcfg = gusbcfg;
 1078              		.loc 1 153 42 is_stmt 0 view .LVU367
 1079 02c8 B8F1100F 		cmp	r8, #16
 1080 02cc 35D0     		beq	.L100
 153:/home/pi/Developer/tinyusb/src/portable/synopsys/dwc2/dwc2_common.c ****   dwc2->gusbcfg = gusbcfg;
 1081              		.loc 1 153 11 view .LVU368
 1082 02ce 46F41056 		orr	r6, r6, #9216
 1083              	.LVL77:
 154:/home/pi/Developer/tinyusb/src/portable/synopsys/dwc2/dwc2_common.c **** 
 1084              		.loc 1 154 3 is_stmt 1 view .LVU369
 154:/home/pi/Developer/tinyusb/src/portable/synopsys/dwc2/dwc2_common.c **** 
 1085              		.loc 1 154 17 is_stmt 0 view .LVU370
 1086 02d2 C660     		str	r6, [r0, #12]
 157:/home/pi/Developer/tinyusb/src/portable/synopsys/dwc2/dwc2_common.c **** }
 1087              		.loc 1 157 3 is_stmt 1 view .LVU371
 1088              	.LVL78:
 1089              	.LBB153:
 290:/home/pi/Developer/tinyusb/src/portable/synopsys/dwc2/dwc2_stm32.h ****   // used to set turnaround time for fullspeed, nothing to do in highspeed mode
 1090              		.loc 3 290 20 view .LVU372
 1091              	.LBE153:
 1092              	.LBE159:
 1093              	.LBE170:
 292:/home/pi/Developer/tinyusb/src/portable/synopsys/dwc2/dwc2_stm32.h ****     // Turnaround timeout depends on the AHB clock dictated by STM32 Reference Manual
 1094              		.loc 3 292 3 view .LVU373
 1095 02d4 2CE7     		b	.L46
 1096              	.LVL79:
 1097              	.L99:
 1098              	.LBB171:
 1099              	.LBB160:
 1100              	.LBB154:
 1101              	.LBB135:
 208:/home/pi/Developer/tinyusb/src/portable/synopsys/dwc2/dwc2_stm32.h ****     }
 1102              		.loc 3 208 7 view .LVU374
 208:/home/pi/Developer/tinyusb/src/portable/synopsys/dwc2/dwc2_stm32.h ****     }
 1103              		.loc 3 208 22 is_stmt 0 view .LVU375
 1104 02d6 124A     		ldr	r2, .L101+56
 1105              	.LVL80:
 208:/home/pi/Developer/tinyusb/src/portable/synopsys/dwc2/dwc2_stm32.h ****     }
 1106              		.loc 3 208 22 view .LVU376
 1107 02d8 D2F80031 		ldr	r3, [r2, #256]
 1108 02dc 23F08053 		bic	r3, r3, #268435456
 1109 02e0 C2F80031 		str	r3, [r2, #256]
 213:/home/pi/Developer/tinyusb/src/portable/synopsys/dwc2/dwc2_stm32.h ****       RCC->AHB1LPENR &= ~RCC_AHB1LPENR_USB1OTGHSULPILPEN;
 1110              		.loc 3 213 5 is_stmt 1 view .LVU377
 1111 02e4 17E7     		b	.L31
 1112              	.L102:
 1113 02e6 00BF     		.align	2
 1114              	.L101:
 1115 02e8 00000840 		.word	1074266112
 1116 02ec 0000FFFF 		.word	-65536
 1117 02f0 0000544F 		.word	1330905088
ARM GAS  /tmp/cc4dDpyD.s 			page 37


 1118 02f4 00003155 		.word	1429274624
 1119 02f8 00000440 		.word	1074003968
 1120 02fc 00000000 		.word	SystemCoreClock
 1121 0300 0048E801 		.word	32000000
 1122 0304 DF9DA301 		.word	27499999
 1123 0308 00366E01 		.word	24000000
 1124 030c 3FA44C01 		.word	21799999
 1125 0310 80730601 		.word	17200000
 1126 0314 0024F400 		.word	16000000
 1127 0318 C0E1E400 		.word	15000000
 1128 031c 00000000 		.word	.LANCHOR0
 1129 0320 00440258 		.word	1476543488
 1130 0324 AFC3FFFF 		.word	-15441
 1131 0328 37FFC5FF 		.word	-3801289
 1132              	.LVL81:
 1133              	.L33:
 213:/home/pi/Developer/tinyusb/src/portable/synopsys/dwc2/dwc2_stm32.h ****       RCC->AHB1LPENR &= ~RCC_AHB1LPENR_USB1OTGHSULPILPEN;
 1134              		.loc 3 213 5 is_stmt 0 view .LVU378
 1135              	.LBE135:
 1136              	.LBE154:
 153:/home/pi/Developer/tinyusb/src/portable/synopsys/dwc2/dwc2_common.c ****   dwc2->gusbcfg = gusbcfg;
 1137              		.loc 1 153 11 view .LVU379
 1138 032c 46F4A056 		orr	r6, r6, #5120
 1139              	.LVL82:
 154:/home/pi/Developer/tinyusb/src/portable/synopsys/dwc2/dwc2_common.c **** 
 1140              		.loc 1 154 3 is_stmt 1 view .LVU380
 154:/home/pi/Developer/tinyusb/src/portable/synopsys/dwc2/dwc2_common.c **** 
 1141              		.loc 1 154 17 is_stmt 0 view .LVU381
 1142 0330 E660     		str	r6, [r4, #12]
 157:/home/pi/Developer/tinyusb/src/portable/synopsys/dwc2/dwc2_common.c **** }
 1143              		.loc 1 157 3 is_stmt 1 view .LVU382
 1144              	.LBB155:
 290:/home/pi/Developer/tinyusb/src/portable/synopsys/dwc2/dwc2_stm32.h ****   // used to set turnaround time for fullspeed, nothing to do in highspeed mode
 1145              		.loc 3 290 20 view .LVU383
 1146              	.LBE155:
 1147              	.LBE160:
 1148              	.LBE171:
 292:/home/pi/Developer/tinyusb/src/portable/synopsys/dwc2/dwc2_stm32.h ****     // Turnaround timeout depends on the AHB clock dictated by STM32 Reference Manual
 1149              		.loc 3 292 3 view .LVU384
 1150 0332 FDE6     		b	.L46
 1151              	.LVL83:
 1152              	.L66:
 1153              	.LBB172:
 1154              	.LBB108:
 1155              	.LBB103:
 1156              	.LBB93:
 1157              	.LBB86:
 1158              	.LBB79:
 292:/home/pi/Developer/tinyusb/src/portable/synopsys/dwc2/dwc2_stm32.h ****     // Turnaround timeout depends on the AHB clock dictated by STM32 Reference Manual
 1159              		.loc 3 292 3 is_stmt 0 view .LVU385
 1160 0334 4FF41052 		mov	r2, #9216
 1161 0338 9EE6     		b	.L42
 1162              	.LVL84:
 1163              	.L100:
 292:/home/pi/Developer/tinyusb/src/portable/synopsys/dwc2/dwc2_stm32.h ****     // Turnaround timeout depends on the AHB clock dictated by STM32 Reference Manual
 1164              		.loc 3 292 3 view .LVU386
 1165              	.LBE79:
ARM GAS  /tmp/cc4dDpyD.s 			page 38


 1166              	.LBE86:
 1167              	.LBE93:
 1168              	.LBE103:
 1169              	.LBE108:
 1170              	.LBE172:
 1171              	.LBB173:
 1172              	.LBB161:
 153:/home/pi/Developer/tinyusb/src/portable/synopsys/dwc2/dwc2_common.c ****   dwc2->gusbcfg = gusbcfg;
 1173              		.loc 1 153 42 view .LVU387
 1174 033a 4FF4A053 		mov	r3, #5120
 1175 033e F5E6     		b	.L34
 1176              	.LVL85:
 1177              	.L67:
 153:/home/pi/Developer/tinyusb/src/portable/synopsys/dwc2/dwc2_common.c ****   dwc2->gusbcfg = gusbcfg;
 1178              		.loc 1 153 42 view .LVU388
 1179              	.LBE161:
 1180              	.LBE173:
 1181              	.LBB174:
 1182              	.LBB109:
 1183              	.LBB104:
 1184              	.LBB94:
 1185              	.LBB87:
 1186              	.LBB80:
 1187 0340 4FF42052 		mov	r2, #10240
 1188 0344 98E6     		b	.L42
 1189              	.L68:
 1190 0346 4FF43052 		mov	r2, #11264
 1191 034a 95E6     		b	.L42
 1192              	.L69:
 1193 034c 4FF44052 		mov	r2, #12288
 1194 0350 92E6     		b	.L42
 1195              	.L70:
 1196 0352 4FF45052 		mov	r2, #13312
 1197 0356 8FE6     		b	.L42
 1198              	.LBE80:
 1199              	.LBE87:
 1200              	.LBE94:
 1201              	.LBE104:
 1202              	.LBE109:
 1203              	.LBE174:
 1204              		.cfi_endproc
 1205              	.LFE417:
 1207              		.section	.text.dwc2_core_deinit,"ax",%progbits
 1208              		.align	1
 1209              		.p2align 2,,3
 1210              		.global	dwc2_core_deinit
 1211              		.syntax unified
 1212              		.thumb
 1213              		.thumb_func
 1214              		.fpu fpv5-d16
 1216              	dwc2_core_deinit:
 1217              	.LVL86:
 1218              	.LFB418:
 245:/home/pi/Developer/tinyusb/src/portable/synopsys/dwc2/dwc2_common.c **** 
 246:/home/pi/Developer/tinyusb/src/portable/synopsys/dwc2/dwc2_common.c **** void dwc2_core_deinit(uint8_t rhport) {
 1219              		.loc 1 246 39 is_stmt 1 view -0
 1220              		.cfi_startproc
ARM GAS  /tmp/cc4dDpyD.s 			page 39


 1221              		@ args = 0, pretend = 0, frame = 0
 1222              		@ frame_needed = 0, uses_anonymous_args = 0
 247:/home/pi/Developer/tinyusb/src/portable/synopsys/dwc2/dwc2_common.c ****   dwc2_regs_t* dwc2 = DWC2_REG(rhport);
 1223              		.loc 1 247 3 view .LVU390
 1224              	.LBB175:
 1225              	.LBI175:
  82:/home/pi/Developer/tinyusb/src/portable/synopsys/dwc2/dwc2_common.h ****   if (rhport >= DWC2_CONTROLLER_COUNT) {
 1226              		.loc 2 82 50 view .LVU391
 1227              	.LBB176:
  83:/home/pi/Developer/tinyusb/src/portable/synopsys/dwc2/dwc2_common.h ****     // user mis-configured, ignore and use first controller
 1228              		.loc 2 83 3 view .LVU392
  83:/home/pi/Developer/tinyusb/src/portable/synopsys/dwc2/dwc2_common.h ****     // user mis-configured, ignore and use first controller
 1229              		.loc 2 83 6 is_stmt 0 view .LVU393
 1230 0000 0128     		cmp	r0, #1
 1231              	.LBE176:
 1232              	.LBE175:
 246:/home/pi/Developer/tinyusb/src/portable/synopsys/dwc2/dwc2_common.c ****   dwc2_regs_t* dwc2 = DWC2_REG(rhport);
 1233              		.loc 1 246 39 view .LVU394
 1234 0002 08B5     		push	{r3, lr}
 1235              		.cfi_def_cfa_offset 8
 1236              		.cfi_offset 3, -8
 1237              		.cfi_offset 14, -4
 1238              	.LBB179:
 1239              	.LBB177:
  83:/home/pi/Developer/tinyusb/src/portable/synopsys/dwc2/dwc2_common.h ****     // user mis-configured, ignore and use first controller
 1240              		.loc 2 83 6 view .LVU395
 1241 0004 18D9     		bls	.L109
 1242 0006 0F48     		ldr	r0, .L110
 1243              	.LVL87:
 1244              	.L104:
  87:/home/pi/Developer/tinyusb/src/portable/synopsys/dwc2/dwc2_common.h **** }
 1245              		.loc 2 87 3 is_stmt 1 view .LVU396
  87:/home/pi/Developer/tinyusb/src/portable/synopsys/dwc2/dwc2_common.h **** }
 1246              		.loc 2 87 3 is_stmt 0 view .LVU397
 1247              	.LBE177:
 1248              	.LBE179:
 248:/home/pi/Developer/tinyusb/src/portable/synopsys/dwc2/dwc2_common.c **** 
 249:/home/pi/Developer/tinyusb/src/portable/synopsys/dwc2/dwc2_common.c ****   // Disable global interrupt
 250:/home/pi/Developer/tinyusb/src/portable/synopsys/dwc2/dwc2_common.c ****   dwc2->gahbcfg &= ~GAHBCFG_GINT;
 1249              		.loc 1 250 3 is_stmt 1 view .LVU398
 1250              		.loc 1 250 17 is_stmt 0 view .LVU399
 1251 0008 8368     		ldr	r3, [r0, #8]
 1252 000a 23F00103 		bic	r3, r3, #1
 1253 000e 8360     		str	r3, [r0, #8]
 251:/home/pi/Developer/tinyusb/src/portable/synopsys/dwc2/dwc2_common.c **** 
 252:/home/pi/Developer/tinyusb/src/portable/synopsys/dwc2/dwc2_common.c ****   // Reset core: this also flushes FIFOs and clears all interrupt registers
 253:/home/pi/Developer/tinyusb/src/portable/synopsys/dwc2/dwc2_common.c ****   reset_core(dwc2);
 1254              		.loc 1 253 3 is_stmt 1 view .LVU400
 1255 0010 FFF7FEFF 		bl	reset_core
 1256              	.LVL88:
 254:/home/pi/Developer/tinyusb/src/portable/synopsys/dwc2/dwc2_common.c **** 
 255:/home/pi/Developer/tinyusb/src/portable/synopsys/dwc2/dwc2_common.c ****   // Stop PHY clock and gate HCLK for power saving (per databook chapter 14)
 256:/home/pi/Developer/tinyusb/src/portable/synopsys/dwc2/dwc2_common.c ****   dwc2->pcgcctl |= PCGCCTL_STOPPCLK | PCGCCTL_GATEHCLK;
 1257              		.loc 1 256 3 view .LVU401
 1258              		.loc 1 256 17 is_stmt 0 view .LVU402
 1259 0014 D0F8003E 		ldr	r3, [r0, #3584]
 1260 0018 43F00303 		orr	r3, r3, #3
ARM GAS  /tmp/cc4dDpyD.s 			page 40


 1261 001c C0F8003E 		str	r3, [r0, #3584]
 257:/home/pi/Developer/tinyusb/src/portable/synopsys/dwc2/dwc2_common.c **** 
 258:/home/pi/Developer/tinyusb/src/portable/synopsys/dwc2/dwc2_common.c ****   // MCU-specific PHY deinit (disable PHY power)
 259:/home/pi/Developer/tinyusb/src/portable/synopsys/dwc2/dwc2_common.c ****   const dwc2_ghwcfg2_t ghwcfg2 = {.value = dwc2->ghwcfg2};
 1262              		.loc 1 259 3 is_stmt 1 view .LVU403
 1263              		.loc 1 259 48 is_stmt 0 view .LVU404
 1264 0020 826C     		ldr	r2, [r0, #72]
 260:/home/pi/Developer/tinyusb/src/portable/synopsys/dwc2/dwc2_common.c ****   const uint8_t hs_phy_type = (dwc2->gusbcfg & GUSBCFG_PHYSEL) ? GHWCFG2_HSPHY_NOT_SUPPORTED : ghwc
 1265              		.loc 1 260 3 is_stmt 1 view .LVU405
 1266              		.loc 1 260 36 is_stmt 0 view .LVU406
 1267 0022 C368     		ldr	r3, [r0, #12]
 1268              		.loc 1 260 17 view .LVU407
 1269 0024 5B06     		lsls	r3, r3, #25
 1270 0026 02D4     		bmi	.L105
 1271              	.LVL89:
 261:/home/pi/Developer/tinyusb/src/portable/synopsys/dwc2/dwc2_common.c ****   dwc2_phy_deinit(dwc2, hs_phy_type);
 1272              		.loc 1 261 3 is_stmt 1 discriminator 1 view .LVU408
 1273              	.LBB180:
 1274              	.LBI180:
 274:/home/pi/Developer/tinyusb/src/portable/synopsys/dwc2/dwc2_stm32.h ****   if (hs_phy_type == GHWCFG2_HSPHY_NOT_SUPPORTED) {
 1275              		.loc 3 274 20 discriminator 1 view .LVU409
 1276              	.LBB181:
 275:/home/pi/Developer/tinyusb/src/portable/synopsys/dwc2/dwc2_stm32.h ****     // Disable on-chip FS PHY
 1277              		.loc 3 275 3 discriminator 1 view .LVU410
 275:/home/pi/Developer/tinyusb/src/portable/synopsys/dwc2/dwc2_stm32.h ****     // Disable on-chip FS PHY
 1278              		.loc 3 275 6 is_stmt 0 discriminator 1 view .LVU411
 1279 0028 12F0C00F 		tst	r2, #192
 1280 002c 03D1     		bne	.L103
 1281              	.LVL90:
 1282              	.L105:
 277:/home/pi/Developer/tinyusb/src/portable/synopsys/dwc2/dwc2_stm32.h ****   } else {
 1283              		.loc 3 277 5 is_stmt 1 view .LVU412
 277:/home/pi/Developer/tinyusb/src/portable/synopsys/dwc2/dwc2_stm32.h ****   } else {
 1284              		.loc 3 277 23 is_stmt 0 view .LVU413
 1285 002e 836B     		ldr	r3, [r0, #56]
 1286 0030 23F48033 		bic	r3, r3, #65536
 1287 0034 8363     		str	r3, [r0, #56]
 286:/home/pi/Developer/tinyusb/src/portable/synopsys/dwc2/dwc2_stm32.h **** }
 1288              		.loc 3 286 3 is_stmt 1 view .LVU414
 1289              	.L103:
 1290              	.LBE181:
 1291              	.LBE180:
 262:/home/pi/Developer/tinyusb/src/portable/synopsys/dwc2/dwc2_common.c **** }
 1292              		.loc 1 262 1 is_stmt 0 view .LVU415
 1293 0036 08BD     		pop	{r3, pc}
 1294              	.LVL91:
 1295              	.L109:
 1296              	.LBB182:
 1297              	.LBB178:
  87:/home/pi/Developer/tinyusb/src/portable/synopsys/dwc2/dwc2_common.h **** }
 1298              		.loc 2 87 48 view .LVU416
 1299 0038 034B     		ldr	r3, .L110+4
 1300 003a 00EB4000 		add	r0, r0, r0, lsl #1
 1301              	.LVL92:
  87:/home/pi/Developer/tinyusb/src/portable/synopsys/dwc2/dwc2_common.h **** }
 1302              		.loc 2 87 10 view .LVU417
 1303 003e 53F82000 		ldr	r0, [r3, r0, lsl #2]
ARM GAS  /tmp/cc4dDpyD.s 			page 41


 1304 0042 E1E7     		b	.L104
 1305              	.L111:
 1306              		.align	2
 1307              	.L110:
 1308 0044 00000840 		.word	1074266112
 1309 0048 00000000 		.word	.LANCHOR0
 1310              	.LBE178:
 1311              	.LBE182:
 1312              		.cfi_endproc
 1313              	.LFE418:
 1315              		.section	.rodata._dwc2_controller,"a"
 1316              		.align	2
 1317              		.set	.LANCHOR0,. + 0
 1320              	_dwc2_controller:
 1321 0000 00000840 		.word	1074266112
 1322 0004 65000000 		.word	101
 1323 0008 09       		.byte	9
 1324 0009 00       		.space	1
 1325 000a 0004     		.short	1024
 1326 000c 00000440 		.word	1074003968
 1327 0010 4D000000 		.word	77
 1328 0014 09       		.byte	9
 1329 0015 00       		.space	1
 1330 0016 0004     		.short	1024
 1331              		.text
 1332              	.Letext0:
 1333              		.file 4 "/home/pi/Developer/gcc-arm-none-eabi-10-2020-q4-major/arm-none-eabi/include/machine/_defa
 1334              		.file 5 "/home/pi/Developer/gcc-arm-none-eabi-10-2020-q4-major/arm-none-eabi/include/sys/_stdint.h
 1335              		.file 6 "../../libDaisy/Drivers/CMSIS/Device/ST/STM32H7xx/Include/stm32h750xx.h"
 1336              		.file 7 "/home/pi/Developer/tinyusb/src/portable/synopsys/dwc2/dwc2_type.h"
 1337              		.file 8 "../../libDaisy/Drivers/CMSIS/Device/ST/STM32H7xx/Include/system_stm32h7xx.h"
ARM GAS  /tmp/cc4dDpyD.s 			page 42

