ARM GAS  /tmp/cc6L0ebi.s 			page 1


   1              		.cpu cortex-m7
   2              		.eabi_attribute 28, 1
   3              		.eabi_attribute 20, 1
   4              		.eabi_attribute 21, 1
   5              		.eabi_attribute 23, 3
   6              		.eabi_attribute 24, 1
   7              		.eabi_attribute 25, 1
   8              		.eabi_attribute 26, 1
   9              		.eabi_attribute 30, 2
  10              		.eabi_attribute 34, 1
  11              		.eabi_attribute 18, 4
  12              		.file	"hid_device.c"
  13              		.text
  14              	.Ltext0:
  15              		.cfi_sections	.debug_frame
  16              		.section	.text.tud_hid_set_protocol_cb,"ax",%progbits
  17              		.align	1
  18              		.p2align 2,,3
  19              		.weak	tud_hid_set_protocol_cb
  20              		.arch armv7e-m
  21              		.syntax unified
  22              		.thumb
  23              		.thumb_func
  24              		.fpu fpv5-d16
  26              	tud_hid_set_protocol_cb:
  27              	.LVL0:
  28              	.LFB422:
  29              		.file 1 "/home/pi/Developer/tinyusb/src/class/hid/hid_device.c"
   1:/home/pi/Developer/tinyusb/src/class/hid/hid_device.c **** /*
   2:/home/pi/Developer/tinyusb/src/class/hid/hid_device.c ****  * The MIT License (MIT)
   3:/home/pi/Developer/tinyusb/src/class/hid/hid_device.c ****  *
   4:/home/pi/Developer/tinyusb/src/class/hid/hid_device.c ****  * Copyright (c) 2019 Ha Thach (tinyusb.org)
   5:/home/pi/Developer/tinyusb/src/class/hid/hid_device.c ****  *
   6:/home/pi/Developer/tinyusb/src/class/hid/hid_device.c ****  * Permission is hereby granted, free of charge, to any person obtaining a copy
   7:/home/pi/Developer/tinyusb/src/class/hid/hid_device.c ****  * of this software and associated documentation files (the "Software"), to deal
   8:/home/pi/Developer/tinyusb/src/class/hid/hid_device.c ****  * in the Software without restriction, including without limitation the rights
   9:/home/pi/Developer/tinyusb/src/class/hid/hid_device.c ****  * to use, copy, modify, merge, publish, distribute, sublicense, and/or sell
  10:/home/pi/Developer/tinyusb/src/class/hid/hid_device.c ****  * copies of the Software, and to permit persons to whom the Software is
  11:/home/pi/Developer/tinyusb/src/class/hid/hid_device.c ****  * furnished to do so, subject to the following conditions:
  12:/home/pi/Developer/tinyusb/src/class/hid/hid_device.c ****  *
  13:/home/pi/Developer/tinyusb/src/class/hid/hid_device.c ****  * The above copyright notice and this permission notice shall be included in
  14:/home/pi/Developer/tinyusb/src/class/hid/hid_device.c ****  * all copies or substantial portions of the Software.
  15:/home/pi/Developer/tinyusb/src/class/hid/hid_device.c ****  *
  16:/home/pi/Developer/tinyusb/src/class/hid/hid_device.c ****  * THE SOFTWARE IS PROVIDED "AS IS", WITHOUT WARRANTY OF ANY KIND, EXPRESS OR
  17:/home/pi/Developer/tinyusb/src/class/hid/hid_device.c ****  * IMPLIED, INCLUDING BUT NOT LIMITED TO THE WARRANTIES OF MERCHANTABILITY,
  18:/home/pi/Developer/tinyusb/src/class/hid/hid_device.c ****  * FITNESS FOR A PARTICULAR PURPOSE AND NONINFRINGEMENT. IN NO EVENT SHALL THE
  19:/home/pi/Developer/tinyusb/src/class/hid/hid_device.c ****  * AUTHORS OR COPYRIGHT HOLDERS BE LIABLE FOR ANY CLAIM, DAMAGES OR OTHER
  20:/home/pi/Developer/tinyusb/src/class/hid/hid_device.c ****  * LIABILITY, WHETHER IN AN ACTION OF CONTRACT, TORT OR OTHERWISE, ARISING FROM,
  21:/home/pi/Developer/tinyusb/src/class/hid/hid_device.c ****  * OUT OF OR IN CONNECTION WITH THE SOFTWARE OR THE USE OR OTHER DEALINGS IN
  22:/home/pi/Developer/tinyusb/src/class/hid/hid_device.c ****  * THE SOFTWARE.
  23:/home/pi/Developer/tinyusb/src/class/hid/hid_device.c ****  *
  24:/home/pi/Developer/tinyusb/src/class/hid/hid_device.c ****  * This file is part of the TinyUSB stack.
  25:/home/pi/Developer/tinyusb/src/class/hid/hid_device.c ****  */
  26:/home/pi/Developer/tinyusb/src/class/hid/hid_device.c **** 
  27:/home/pi/Developer/tinyusb/src/class/hid/hid_device.c **** #include "tusb_option.h"
  28:/home/pi/Developer/tinyusb/src/class/hid/hid_device.c **** 
  29:/home/pi/Developer/tinyusb/src/class/hid/hid_device.c **** #if (CFG_TUD_ENABLED && CFG_TUD_HID)
ARM GAS  /tmp/cc6L0ebi.s 			page 2


  30:/home/pi/Developer/tinyusb/src/class/hid/hid_device.c **** 
  31:/home/pi/Developer/tinyusb/src/class/hid/hid_device.c **** //--------------------------------------------------------------------+
  32:/home/pi/Developer/tinyusb/src/class/hid/hid_device.c **** // INCLUDE
  33:/home/pi/Developer/tinyusb/src/class/hid/hid_device.c **** //--------------------------------------------------------------------+
  34:/home/pi/Developer/tinyusb/src/class/hid/hid_device.c **** #include "device/usbd.h"
  35:/home/pi/Developer/tinyusb/src/class/hid/hid_device.c **** #include "device/usbd_pvt.h"
  36:/home/pi/Developer/tinyusb/src/class/hid/hid_device.c **** 
  37:/home/pi/Developer/tinyusb/src/class/hid/hid_device.c **** #include "hid_device.h"
  38:/home/pi/Developer/tinyusb/src/class/hid/hid_device.c **** 
  39:/home/pi/Developer/tinyusb/src/class/hid/hid_device.c **** //--------------------------------------------------------------------+
  40:/home/pi/Developer/tinyusb/src/class/hid/hid_device.c **** // MACRO CONSTANT TYPEDEF
  41:/home/pi/Developer/tinyusb/src/class/hid/hid_device.c **** //--------------------------------------------------------------------+
  42:/home/pi/Developer/tinyusb/src/class/hid/hid_device.c **** typedef struct {
  43:/home/pi/Developer/tinyusb/src/class/hid/hid_device.c ****   uint8_t itf_num;
  44:/home/pi/Developer/tinyusb/src/class/hid/hid_device.c ****   uint8_t ep_in;
  45:/home/pi/Developer/tinyusb/src/class/hid/hid_device.c ****   uint8_t ep_out;       // optional Out endpoint
  46:/home/pi/Developer/tinyusb/src/class/hid/hid_device.c ****   uint8_t itf_protocol; // Boot mouse or keyboard
  47:/home/pi/Developer/tinyusb/src/class/hid/hid_device.c **** 
  48:/home/pi/Developer/tinyusb/src/class/hid/hid_device.c ****   uint16_t report_desc_len;
  49:/home/pi/Developer/tinyusb/src/class/hid/hid_device.c ****   uint8_t protocol_mode; // Boot (0) or Report protocol (1)
  50:/home/pi/Developer/tinyusb/src/class/hid/hid_device.c ****   uint8_t idle_rate;     // up to application to handle idle rate
  51:/home/pi/Developer/tinyusb/src/class/hid/hid_device.c **** 
  52:/home/pi/Developer/tinyusb/src/class/hid/hid_device.c ****   // TODO save hid descriptor since host can specifically request this after enumeration
  53:/home/pi/Developer/tinyusb/src/class/hid/hid_device.c ****   // Note: HID descriptor may be not available from application after enumeration
  54:/home/pi/Developer/tinyusb/src/class/hid/hid_device.c ****   const tusb_hid_descriptor_hid_t*hid_descriptor;
  55:/home/pi/Developer/tinyusb/src/class/hid/hid_device.c **** } hidd_interface_t;
  56:/home/pi/Developer/tinyusb/src/class/hid/hid_device.c **** 
  57:/home/pi/Developer/tinyusb/src/class/hid/hid_device.c **** typedef struct {
  58:/home/pi/Developer/tinyusb/src/class/hid/hid_device.c ****   TUD_EPBUF_DEF(ctrl , CFG_TUD_HID_EP_BUFSIZE);
  59:/home/pi/Developer/tinyusb/src/class/hid/hid_device.c ****   TUD_EPBUF_DEF(epin , CFG_TUD_HID_EP_BUFSIZE);
  60:/home/pi/Developer/tinyusb/src/class/hid/hid_device.c ****   TUD_EPBUF_DEF(epout, CFG_TUD_HID_EP_BUFSIZE);
  61:/home/pi/Developer/tinyusb/src/class/hid/hid_device.c **** } hidd_epbuf_t;
  62:/home/pi/Developer/tinyusb/src/class/hid/hid_device.c **** 
  63:/home/pi/Developer/tinyusb/src/class/hid/hid_device.c **** static hidd_interface_t _hidd_itf[CFG_TUD_HID];
  64:/home/pi/Developer/tinyusb/src/class/hid/hid_device.c **** CFG_TUD_MEM_SECTION static hidd_epbuf_t _hidd_epbuf[CFG_TUD_HID];
  65:/home/pi/Developer/tinyusb/src/class/hid/hid_device.c **** 
  66:/home/pi/Developer/tinyusb/src/class/hid/hid_device.c **** /*------------- Helpers -------------*/
  67:/home/pi/Developer/tinyusb/src/class/hid/hid_device.c **** TU_ATTR_ALWAYS_INLINE static inline uint8_t get_index_by_itfnum(uint8_t itf_num) {
  68:/home/pi/Developer/tinyusb/src/class/hid/hid_device.c ****   for (uint8_t i = 0; i < CFG_TUD_HID; i++) {
  69:/home/pi/Developer/tinyusb/src/class/hid/hid_device.c ****     if (itf_num == _hidd_itf[i].itf_num) {
  70:/home/pi/Developer/tinyusb/src/class/hid/hid_device.c ****       return i;
  71:/home/pi/Developer/tinyusb/src/class/hid/hid_device.c ****     }
  72:/home/pi/Developer/tinyusb/src/class/hid/hid_device.c ****   }
  73:/home/pi/Developer/tinyusb/src/class/hid/hid_device.c ****   return 0xFF;
  74:/home/pi/Developer/tinyusb/src/class/hid/hid_device.c **** }
  75:/home/pi/Developer/tinyusb/src/class/hid/hid_device.c **** 
  76:/home/pi/Developer/tinyusb/src/class/hid/hid_device.c **** //--------------------------------------------------------------------+
  77:/home/pi/Developer/tinyusb/src/class/hid/hid_device.c **** // Weak stubs: invoked if no strong implementation is available
  78:/home/pi/Developer/tinyusb/src/class/hid/hid_device.c **** //--------------------------------------------------------------------+
  79:/home/pi/Developer/tinyusb/src/class/hid/hid_device.c **** TU_ATTR_WEAK void tud_hid_set_protocol_cb(uint8_t instance, uint8_t protocol) {
  30              		.loc 1 79 79 view -0
  31              		.cfi_startproc
  32              		@ args = 0, pretend = 0, frame = 0
  33              		@ frame_needed = 0, uses_anonymous_args = 0
  34              		@ link register save eliminated.
  80:/home/pi/Developer/tinyusb/src/class/hid/hid_device.c ****   (void) instance;
  35              		.loc 1 80 3 view .LVU1
ARM GAS  /tmp/cc6L0ebi.s 			page 3


  81:/home/pi/Developer/tinyusb/src/class/hid/hid_device.c ****   (void) protocol;
  36              		.loc 1 81 3 view .LVU2
  82:/home/pi/Developer/tinyusb/src/class/hid/hid_device.c **** }
  37              		.loc 1 82 1 is_stmt 0 view .LVU3
  38 0000 7047     		bx	lr
  39              		.cfi_endproc
  40              	.LFE422:
  42 0002 00BF     		.section	.text.tud_hid_set_idle_cb,"ax",%progbits
  43              		.align	1
  44              		.p2align 2,,3
  45              		.weak	tud_hid_set_idle_cb
  46              		.syntax unified
  47              		.thumb
  48              		.thumb_func
  49              		.fpu fpv5-d16
  51              	tud_hid_set_idle_cb:
  52              	.LVL1:
  53              	.LFB423:
  83:/home/pi/Developer/tinyusb/src/class/hid/hid_device.c **** 
  84:/home/pi/Developer/tinyusb/src/class/hid/hid_device.c **** TU_ATTR_WEAK bool tud_hid_set_idle_cb(uint8_t instance, uint8_t idle_rate) {
  54              		.loc 1 84 76 is_stmt 1 view -0
  55              		.cfi_startproc
  56              		@ args = 0, pretend = 0, frame = 0
  57              		@ frame_needed = 0, uses_anonymous_args = 0
  58              		@ link register save eliminated.
  85:/home/pi/Developer/tinyusb/src/class/hid/hid_device.c ****   (void) instance;
  59              		.loc 1 85 3 view .LVU5
  86:/home/pi/Developer/tinyusb/src/class/hid/hid_device.c ****   (void) idle_rate;
  60              		.loc 1 86 3 view .LVU6
  87:/home/pi/Developer/tinyusb/src/class/hid/hid_device.c ****   return true;
  61              		.loc 1 87 3 view .LVU7
  88:/home/pi/Developer/tinyusb/src/class/hid/hid_device.c **** }
  62              		.loc 1 88 1 is_stmt 0 view .LVU8
  63 0000 0120     		movs	r0, #1
  64              	.LVL2:
  65              		.loc 1 88 1 view .LVU9
  66 0002 7047     		bx	lr
  67              		.cfi_endproc
  68              	.LFE423:
  70              		.section	.text.tud_hid_report_complete_cb,"ax",%progbits
  71              		.align	1
  72              		.p2align 2,,3
  73              		.weak	tud_hid_report_complete_cb
  74              		.syntax unified
  75              		.thumb
  76              		.thumb_func
  77              		.fpu fpv5-d16
  79              	tud_hid_report_complete_cb:
  80              	.LVL3:
  81              	.LFB424:
  89:/home/pi/Developer/tinyusb/src/class/hid/hid_device.c **** 
  90:/home/pi/Developer/tinyusb/src/class/hid/hid_device.c **** TU_ATTR_WEAK void tud_hid_report_complete_cb(uint8_t instance, uint8_t const* report, uint16_t len)
  82              		.loc 1 90 101 is_stmt 1 view -0
  83              		.cfi_startproc
  84              		@ args = 0, pretend = 0, frame = 0
  85              		@ frame_needed = 0, uses_anonymous_args = 0
  86              		@ link register save eliminated.
ARM GAS  /tmp/cc6L0ebi.s 			page 4


  91:/home/pi/Developer/tinyusb/src/class/hid/hid_device.c ****   (void) instance;
  87              		.loc 1 91 3 view .LVU11
  92:/home/pi/Developer/tinyusb/src/class/hid/hid_device.c ****   (void) report;
  88              		.loc 1 92 3 view .LVU12
  93:/home/pi/Developer/tinyusb/src/class/hid/hid_device.c ****   (void) len;
  89              		.loc 1 93 3 view .LVU13
  94:/home/pi/Developer/tinyusb/src/class/hid/hid_device.c **** }
  90              		.loc 1 94 1 is_stmt 0 view .LVU14
  91 0000 7047     		bx	lr
  92              		.cfi_endproc
  93              	.LFE424:
  95 0002 00BF     		.section	.text.tud_hid_report_failed_cb,"ax",%progbits
  96              		.align	1
  97              		.p2align 2,,3
  98              		.weak	tud_hid_report_failed_cb
  99              		.syntax unified
 100              		.thumb
 101              		.thumb_func
 102              		.fpu fpv5-d16
 104              	tud_hid_report_failed_cb:
 105              	.LVL4:
 106              	.LFB425:
  95:/home/pi/Developer/tinyusb/src/class/hid/hid_device.c **** 
  96:/home/pi/Developer/tinyusb/src/class/hid/hid_device.c **** // Invoked when a transfer wasn't successful
  97:/home/pi/Developer/tinyusb/src/class/hid/hid_device.c **** TU_ATTR_WEAK void tud_hid_report_failed_cb(uint8_t instance, hid_report_type_t report_type, uint8_t
 107              		.loc 1 97 140 is_stmt 1 view -0
 108              		.cfi_startproc
 109              		@ args = 0, pretend = 0, frame = 0
 110              		@ frame_needed = 0, uses_anonymous_args = 0
 111              		@ link register save eliminated.
  98:/home/pi/Developer/tinyusb/src/class/hid/hid_device.c ****   (void) instance;
 112              		.loc 1 98 3 view .LVU16
  99:/home/pi/Developer/tinyusb/src/class/hid/hid_device.c ****   (void) report_type;
 113              		.loc 1 99 3 view .LVU17
 100:/home/pi/Developer/tinyusb/src/class/hid/hid_device.c ****   (void) report;
 114              		.loc 1 100 3 view .LVU18
 101:/home/pi/Developer/tinyusb/src/class/hid/hid_device.c ****   (void) xferred_bytes;
 115              		.loc 1 101 3 view .LVU19
 102:/home/pi/Developer/tinyusb/src/class/hid/hid_device.c **** }
 116              		.loc 1 102 1 is_stmt 0 view .LVU20
 117 0000 7047     		bx	lr
 118              		.cfi_endproc
 119              	.LFE425:
 121 0002 00BF     		.section	.text.tud_hid_n_ready,"ax",%progbits
 122              		.align	1
 123              		.p2align 2,,3
 124              		.global	tud_hid_n_ready
 125              		.syntax unified
 126              		.thumb
 127              		.thumb_func
 128              		.fpu fpv5-d16
 130              	tud_hid_n_ready:
 131              	.LVL5:
 132              	.LFB426:
 103:/home/pi/Developer/tinyusb/src/class/hid/hid_device.c **** 
 104:/home/pi/Developer/tinyusb/src/class/hid/hid_device.c **** //--------------------------------------------------------------------+
 105:/home/pi/Developer/tinyusb/src/class/hid/hid_device.c **** // APPLICATION API
ARM GAS  /tmp/cc6L0ebi.s 			page 5


 106:/home/pi/Developer/tinyusb/src/class/hid/hid_device.c **** //--------------------------------------------------------------------+
 107:/home/pi/Developer/tinyusb/src/class/hid/hid_device.c **** bool tud_hid_n_ready(uint8_t instance) {
 133              		.loc 1 107 40 is_stmt 1 view -0
 134              		.cfi_startproc
 135              		@ args = 0, pretend = 0, frame = 0
 136              		@ frame_needed = 0, uses_anonymous_args = 0
 108:/home/pi/Developer/tinyusb/src/class/hid/hid_device.c ****   uint8_t const rhport = 0;
 137              		.loc 1 108 3 view .LVU22
 109:/home/pi/Developer/tinyusb/src/class/hid/hid_device.c ****   uint8_t const ep_in = _hidd_itf[instance].ep_in;
 138              		.loc 1 109 3 view .LVU23
 107:/home/pi/Developer/tinyusb/src/class/hid/hid_device.c ****   uint8_t const rhport = 0;
 139              		.loc 1 107 40 is_stmt 0 view .LVU24
 140 0000 38B5     		push	{r3, r4, r5, lr}
 141              		.cfi_def_cfa_offset 16
 142              		.cfi_offset 3, -16
 143              		.cfi_offset 4, -12
 144              		.cfi_offset 5, -8
 145              		.cfi_offset 14, -4
 146              		.loc 1 109 17 view .LVU25
 147 0002 00EB4000 		add	r0, r0, r0, lsl #1
 148              	.LVL6:
 149              		.loc 1 109 17 view .LVU26
 150 0006 0D4B     		ldr	r3, .L13
 151 0008 03EB8000 		add	r0, r3, r0, lsl #2
 152 000c 4578     		ldrb	r5, [r0, #1]	@ zero_extendqisi2
 153              	.LVL7:
 110:/home/pi/Developer/tinyusb/src/class/hid/hid_device.c ****   return tud_ready() && (ep_in != 0) && !usbd_edpt_busy(rhport, ep_in);
 154              		.loc 1 110 3 is_stmt 1 view .LVU27
 155              	.LBB51:
 156              	.LBI51:
 157              		.file 2 "/home/pi/Developer/tinyusb/src/device/usbd.h"
   1:/home/pi/Developer/tinyusb/src/device/usbd.h **** /*
   2:/home/pi/Developer/tinyusb/src/device/usbd.h ****  * The MIT License (MIT)
   3:/home/pi/Developer/tinyusb/src/device/usbd.h ****  *
   4:/home/pi/Developer/tinyusb/src/device/usbd.h ****  * Copyright (c) 2019 Ha Thach (tinyusb.org)
   5:/home/pi/Developer/tinyusb/src/device/usbd.h ****  *
   6:/home/pi/Developer/tinyusb/src/device/usbd.h ****  * Permission is hereby granted, free of charge, to any person obtaining a copy
   7:/home/pi/Developer/tinyusb/src/device/usbd.h ****  * of this software and associated documentation files (the "Software"), to deal
   8:/home/pi/Developer/tinyusb/src/device/usbd.h ****  * in the Software without restriction, including without limitation the rights
   9:/home/pi/Developer/tinyusb/src/device/usbd.h ****  * to use, copy, modify, merge, publish, distribute, sublicense, and/or sell
  10:/home/pi/Developer/tinyusb/src/device/usbd.h ****  * copies of the Software, and to permit persons to whom the Software is
  11:/home/pi/Developer/tinyusb/src/device/usbd.h ****  * furnished to do so, subject to the following conditions:
  12:/home/pi/Developer/tinyusb/src/device/usbd.h ****  *
  13:/home/pi/Developer/tinyusb/src/device/usbd.h ****  * The above copyright notice and this permission notice shall be included in
  14:/home/pi/Developer/tinyusb/src/device/usbd.h ****  * all copies or substantial portions of the Software.
  15:/home/pi/Developer/tinyusb/src/device/usbd.h ****  *
  16:/home/pi/Developer/tinyusb/src/device/usbd.h ****  * THE SOFTWARE IS PROVIDED "AS IS", WITHOUT WARRANTY OF ANY KIND, EXPRESS OR
  17:/home/pi/Developer/tinyusb/src/device/usbd.h ****  * IMPLIED, INCLUDING BUT NOT LIMITED TO THE WARRANTIES OF MERCHANTABILITY,
  18:/home/pi/Developer/tinyusb/src/device/usbd.h ****  * FITNESS FOR A PARTICULAR PURPOSE AND NONINFRINGEMENT. IN NO EVENT SHALL THE
  19:/home/pi/Developer/tinyusb/src/device/usbd.h ****  * AUTHORS OR COPYRIGHT HOLDERS BE LIABLE FOR ANY CLAIM, DAMAGES OR OTHER
  20:/home/pi/Developer/tinyusb/src/device/usbd.h ****  * LIABILITY, WHETHER IN AN ACTION OF CONTRACT, TORT OR OTHERWISE, ARISING FROM,
  21:/home/pi/Developer/tinyusb/src/device/usbd.h ****  * OUT OF OR IN CONNECTION WITH THE SOFTWARE OR THE USE OR OTHER DEALINGS IN
  22:/home/pi/Developer/tinyusb/src/device/usbd.h ****  * THE SOFTWARE.
  23:/home/pi/Developer/tinyusb/src/device/usbd.h ****  *
  24:/home/pi/Developer/tinyusb/src/device/usbd.h ****  * This file is part of the TinyUSB stack.
  25:/home/pi/Developer/tinyusb/src/device/usbd.h ****  */
  26:/home/pi/Developer/tinyusb/src/device/usbd.h **** 
ARM GAS  /tmp/cc6L0ebi.s 			page 6


  27:/home/pi/Developer/tinyusb/src/device/usbd.h **** #ifndef TUSB_USBD_H_
  28:/home/pi/Developer/tinyusb/src/device/usbd.h **** #define TUSB_USBD_H_
  29:/home/pi/Developer/tinyusb/src/device/usbd.h **** 
  30:/home/pi/Developer/tinyusb/src/device/usbd.h **** #include "common/tusb_common.h"
  31:/home/pi/Developer/tinyusb/src/device/usbd.h **** 
  32:/home/pi/Developer/tinyusb/src/device/usbd.h **** #ifdef __cplusplus
  33:/home/pi/Developer/tinyusb/src/device/usbd.h **** extern "C" {
  34:/home/pi/Developer/tinyusb/src/device/usbd.h **** #endif
  35:/home/pi/Developer/tinyusb/src/device/usbd.h **** 
  36:/home/pi/Developer/tinyusb/src/device/usbd.h **** // ConfigID for tud_configure()
  37:/home/pi/Developer/tinyusb/src/device/usbd.h **** enum {
  38:/home/pi/Developer/tinyusb/src/device/usbd.h ****   TUD_CFGID_INVALID = 0,
  39:/home/pi/Developer/tinyusb/src/device/usbd.h ****   TUD_CFGID_DWC2 = 100,
  40:/home/pi/Developer/tinyusb/src/device/usbd.h **** };
  41:/home/pi/Developer/tinyusb/src/device/usbd.h **** 
  42:/home/pi/Developer/tinyusb/src/device/usbd.h **** typedef struct {
  43:/home/pi/Developer/tinyusb/src/device/usbd.h ****   uint16_t bm_double_buffered; // bitmap of IN endpoints to be double buffered, only effective for 
  44:/home/pi/Developer/tinyusb/src/device/usbd.h ****   bool vbus_sensing; // Vbus pin is used for device connection detection, mandatory for tud_umount_
  45:/home/pi/Developer/tinyusb/src/device/usbd.h **** } tud_configure_dwc2_t;
  46:/home/pi/Developer/tinyusb/src/device/usbd.h **** 
  47:/home/pi/Developer/tinyusb/src/device/usbd.h ****   #ifndef CFG_TUD_CONFIGURE_DWC2_DEFAULT
  48:/home/pi/Developer/tinyusb/src/device/usbd.h ****     #define CFG_TUD_CONFIGURE_DWC2_DEFAULT {.bm_double_buffered = 0, .vbus_sensing = CFG_TUD_VBUS_D
  49:/home/pi/Developer/tinyusb/src/device/usbd.h ****   #endif
  50:/home/pi/Developer/tinyusb/src/device/usbd.h **** 
  51:/home/pi/Developer/tinyusb/src/device/usbd.h **** typedef union {
  52:/home/pi/Developer/tinyusb/src/device/usbd.h ****   tud_configure_dwc2_t dwc2;
  53:/home/pi/Developer/tinyusb/src/device/usbd.h **** } tud_configure_param_t;
  54:/home/pi/Developer/tinyusb/src/device/usbd.h **** 
  55:/home/pi/Developer/tinyusb/src/device/usbd.h **** //--------------------------------------------------------------------+
  56:/home/pi/Developer/tinyusb/src/device/usbd.h **** // Application API
  57:/home/pi/Developer/tinyusb/src/device/usbd.h **** //--------------------------------------------------------------------+
  58:/home/pi/Developer/tinyusb/src/device/usbd.h **** 
  59:/home/pi/Developer/tinyusb/src/device/usbd.h **** // Configure device stack behavior with dynamic or port-specific parameters.
  60:/home/pi/Developer/tinyusb/src/device/usbd.h **** // Should be called before initialization of the device stack
  61:/home/pi/Developer/tinyusb/src/device/usbd.h **** // - cfg_id   : configure ID from TUD_CFGID_* enum values
  62:/home/pi/Developer/tinyusb/src/device/usbd.h **** // - cfg_param: configure data, structure depends on the ID
  63:/home/pi/Developer/tinyusb/src/device/usbd.h **** bool tud_configure(uint8_t rhport, uint32_t cfg_id, const void* cfg_param);
  64:/home/pi/Developer/tinyusb/src/device/usbd.h **** 
  65:/home/pi/Developer/tinyusb/src/device/usbd.h **** // New API to replace tud_init() to init device stack on specific roothub port
  66:/home/pi/Developer/tinyusb/src/device/usbd.h **** // Must be called in the same task/context as tud_task() if RTOS is used
  67:/home/pi/Developer/tinyusb/src/device/usbd.h **** bool tud_rhport_init(uint8_t rhport, const tusb_rhport_init_t* rh_init);
  68:/home/pi/Developer/tinyusb/src/device/usbd.h **** 
  69:/home/pi/Developer/tinyusb/src/device/usbd.h **** // Init device stack on roothub port
  70:/home/pi/Developer/tinyusb/src/device/usbd.h **** #if TUSB_VERSION_NUMBER > 2000  // 0.20.0
  71:/home/pi/Developer/tinyusb/src/device/usbd.h **** TU_ATTR_DEPRECATED("Please use tusb_init(rhport, rh_init) instead")
  72:/home/pi/Developer/tinyusb/src/device/usbd.h **** #endif
  73:/home/pi/Developer/tinyusb/src/device/usbd.h **** TU_ATTR_ALWAYS_INLINE static inline bool tud_init (uint8_t rhport) {
  74:/home/pi/Developer/tinyusb/src/device/usbd.h ****   const tusb_rhport_init_t rh_init = {
  75:/home/pi/Developer/tinyusb/src/device/usbd.h ****     .role = TUSB_ROLE_DEVICE,
  76:/home/pi/Developer/tinyusb/src/device/usbd.h ****     .speed = TUD_OPT_HIGH_SPEED ? TUSB_SPEED_HIGH : TUSB_SPEED_FULL
  77:/home/pi/Developer/tinyusb/src/device/usbd.h ****   };
  78:/home/pi/Developer/tinyusb/src/device/usbd.h ****   return tud_rhport_init(rhport, &rh_init);
  79:/home/pi/Developer/tinyusb/src/device/usbd.h **** }
  80:/home/pi/Developer/tinyusb/src/device/usbd.h **** 
  81:/home/pi/Developer/tinyusb/src/device/usbd.h **** // Deinit device stack on roothub port
  82:/home/pi/Developer/tinyusb/src/device/usbd.h **** // Must be called in the same task/context as tud_task() if RTOS is used
  83:/home/pi/Developer/tinyusb/src/device/usbd.h **** bool tud_deinit(uint8_t rhport);
ARM GAS  /tmp/cc6L0ebi.s 			page 7


  84:/home/pi/Developer/tinyusb/src/device/usbd.h **** 
  85:/home/pi/Developer/tinyusb/src/device/usbd.h **** // Check if device stack is already initialized
  86:/home/pi/Developer/tinyusb/src/device/usbd.h **** bool tud_inited(void);
  87:/home/pi/Developer/tinyusb/src/device/usbd.h **** 
  88:/home/pi/Developer/tinyusb/src/device/usbd.h **** // Task function should be called in main/rtos loop, extended version of tud_task()
  89:/home/pi/Developer/tinyusb/src/device/usbd.h **** // - timeout_ms: millisecond to wait, zero = no wait, 0xFFFFFFFF = wait forever
  90:/home/pi/Developer/tinyusb/src/device/usbd.h **** // - in_isr: if function is called in ISR
  91:/home/pi/Developer/tinyusb/src/device/usbd.h **** void tud_task_ext(uint32_t timeout_ms, bool in_isr);
  92:/home/pi/Developer/tinyusb/src/device/usbd.h **** 
  93:/home/pi/Developer/tinyusb/src/device/usbd.h **** // Task function should be called in main/rtos loop
  94:/home/pi/Developer/tinyusb/src/device/usbd.h **** TU_ATTR_ALWAYS_INLINE static inline
  95:/home/pi/Developer/tinyusb/src/device/usbd.h **** void tud_task (void) {
  96:/home/pi/Developer/tinyusb/src/device/usbd.h ****   tud_task_ext(UINT32_MAX, false);
  97:/home/pi/Developer/tinyusb/src/device/usbd.h **** }
  98:/home/pi/Developer/tinyusb/src/device/usbd.h **** 
  99:/home/pi/Developer/tinyusb/src/device/usbd.h **** // Check if there is pending events need processing by tud_task()
 100:/home/pi/Developer/tinyusb/src/device/usbd.h **** bool tud_task_event_ready(void);
 101:/home/pi/Developer/tinyusb/src/device/usbd.h **** 
 102:/home/pi/Developer/tinyusb/src/device/usbd.h **** #ifndef TUSB_DCD_H_
 103:/home/pi/Developer/tinyusb/src/device/usbd.h **** extern void dcd_int_handler(uint8_t rhport);
 104:/home/pi/Developer/tinyusb/src/device/usbd.h **** #endif
 105:/home/pi/Developer/tinyusb/src/device/usbd.h **** 
 106:/home/pi/Developer/tinyusb/src/device/usbd.h **** // Interrupt handler, name alias to DCD
 107:/home/pi/Developer/tinyusb/src/device/usbd.h **** #define tud_int_handler   dcd_int_handler
 108:/home/pi/Developer/tinyusb/src/device/usbd.h **** 
 109:/home/pi/Developer/tinyusb/src/device/usbd.h **** // Get current bus speed
 110:/home/pi/Developer/tinyusb/src/device/usbd.h **** tusb_speed_t tud_speed_get(void);
 111:/home/pi/Developer/tinyusb/src/device/usbd.h **** 
 112:/home/pi/Developer/tinyusb/src/device/usbd.h **** // Check if device is connected (may not mounted/configured yet)
 113:/home/pi/Developer/tinyusb/src/device/usbd.h **** // True if just got out of Bus Reset and received the very first data from host
 114:/home/pi/Developer/tinyusb/src/device/usbd.h **** bool tud_connected(void);
 115:/home/pi/Developer/tinyusb/src/device/usbd.h **** 
 116:/home/pi/Developer/tinyusb/src/device/usbd.h **** // Check if device is connected and configured
 117:/home/pi/Developer/tinyusb/src/device/usbd.h **** bool tud_mounted(void);
 118:/home/pi/Developer/tinyusb/src/device/usbd.h **** 
 119:/home/pi/Developer/tinyusb/src/device/usbd.h **** // Check if device is suspended
 120:/home/pi/Developer/tinyusb/src/device/usbd.h **** bool tud_suspended(void);
 121:/home/pi/Developer/tinyusb/src/device/usbd.h **** 
 122:/home/pi/Developer/tinyusb/src/device/usbd.h **** // Check if device is ready to transfer
 123:/home/pi/Developer/tinyusb/src/device/usbd.h **** TU_ATTR_ALWAYS_INLINE static inline
 124:/home/pi/Developer/tinyusb/src/device/usbd.h **** bool tud_ready(void) {
 158              		.loc 2 124 6 view .LVU28
 159              	.LBB52:
 125:/home/pi/Developer/tinyusb/src/device/usbd.h ****   const bool is_mounted = tud_mounted();
 160              		.loc 2 125 3 view .LVU29
 161              		.loc 2 125 27 is_stmt 0 view .LVU30
 162 000e FFF7FEFF 		bl	tud_mounted
 163              	.LVL8:
 164 0012 0446     		mov	r4, r0
 165              	.LVL9:
 126:/home/pi/Developer/tinyusb/src/device/usbd.h ****   const bool is_suspended = tud_suspended();
 166              		.loc 2 126 3 is_stmt 1 view .LVU31
 167              		.loc 2 126 29 is_stmt 0 view .LVU32
 168 0014 FFF7FEFF 		bl	tud_suspended
 169              	.LVL10:
 127:/home/pi/Developer/tinyusb/src/device/usbd.h ****   return is_mounted && !is_suspended;
 170              		.loc 2 127 3 is_stmt 1 view .LVU33
ARM GAS  /tmp/cc6L0ebi.s 			page 8


 171              		.loc 2 127 24 is_stmt 0 view .LVU34
 172 0018 80F00100 		eor	r0, r0, #1
 173              	.LBE52:
 174              	.LBE51:
 175              		.loc 1 110 22 view .LVU35
 176 001c 002D     		cmp	r5, #0
 177 001e 0CBF     		ite	eq
 178 0020 0023     		moveq	r3, #0
 179 0022 04F00103 		andne	r3, r4, #1
 180 0026 1840     		ands	r0, r3, r0
 181 0028 00D1     		bne	.L12
 111:/home/pi/Developer/tinyusb/src/class/hid/hid_device.c **** }
 182              		.loc 1 111 1 discriminator 8 view .LVU36
 183 002a 38BD     		pop	{r3, r4, r5, pc}
 184              	.LVL11:
 185              	.L12:
 110:/home/pi/Developer/tinyusb/src/class/hid/hid_device.c **** }
 186              		.loc 1 110 42 discriminator 3 view .LVU37
 187 002c 2946     		mov	r1, r5
 188 002e 0020     		movs	r0, #0
 189 0030 FFF7FEFF 		bl	usbd_edpt_busy
 190              	.LVL12:
 110:/home/pi/Developer/tinyusb/src/class/hid/hid_device.c **** }
 191              		.loc 1 110 38 discriminator 3 view .LVU38
 192 0034 80F00100 		eor	r0, r0, #1
 193 0038 C0B2     		uxtb	r0, r0
 194              		.loc 1 111 1 discriminator 3 view .LVU39
 195 003a 38BD     		pop	{r3, r4, r5, pc}
 196              	.LVL13:
 197              	.L14:
 198              		.loc 1 111 1 discriminator 3 view .LVU40
 199              		.align	2
 200              	.L13:
 201 003c 00000000 		.word	.LANCHOR0
 202              		.cfi_endproc
 203              	.LFE426:
 205              		.section	.text.tud_hid_n_report,"ax",%progbits
 206              		.align	1
 207              		.p2align 2,,3
 208              		.global	tud_hid_n_report
 209              		.syntax unified
 210              		.thumb
 211              		.thumb_func
 212              		.fpu fpv5-d16
 214              	tud_hid_n_report:
 215              	.LVL14:
 216              	.LFB427:
 112:/home/pi/Developer/tinyusb/src/class/hid/hid_device.c **** 
 113:/home/pi/Developer/tinyusb/src/class/hid/hid_device.c **** bool tud_hid_n_report(uint8_t instance, uint8_t report_id, void const *report, uint16_t len) {
 217              		.loc 1 113 94 is_stmt 1 view -0
 218              		.cfi_startproc
 219              		@ args = 0, pretend = 0, frame = 0
 220              		@ frame_needed = 0, uses_anonymous_args = 0
 114:/home/pi/Developer/tinyusb/src/class/hid/hid_device.c ****   TU_VERIFY(instance < CFG_TUD_HID);
 221              		.loc 1 114 3 view .LVU42
 222              		.loc 1 114 3 view .LVU43
 223 0000 08B1     		cbz	r0, .L16
ARM GAS  /tmp/cc6L0ebi.s 			page 9


 224 0002 0020     		movs	r0, #0
 225              	.LVL15:
 115:/home/pi/Developer/tinyusb/src/class/hid/hid_device.c ****   const uint8_t rhport = 0;
 116:/home/pi/Developer/tinyusb/src/class/hid/hid_device.c ****   hidd_interface_t *p_hid = &_hidd_itf[instance];
 117:/home/pi/Developer/tinyusb/src/class/hid/hid_device.c ****   hidd_epbuf_t *p_epbuf = &_hidd_epbuf[instance];
 118:/home/pi/Developer/tinyusb/src/class/hid/hid_device.c **** 
 119:/home/pi/Developer/tinyusb/src/class/hid/hid_device.c ****   // claim endpoint
 120:/home/pi/Developer/tinyusb/src/class/hid/hid_device.c ****   TU_VERIFY(usbd_edpt_claim(rhport, p_hid->ep_in));
 121:/home/pi/Developer/tinyusb/src/class/hid/hid_device.c **** 
 122:/home/pi/Developer/tinyusb/src/class/hid/hid_device.c ****   // prepare data
 123:/home/pi/Developer/tinyusb/src/class/hid/hid_device.c ****   if (report_id) {
 124:/home/pi/Developer/tinyusb/src/class/hid/hid_device.c ****     p_epbuf->epin[0] = report_id;
 125:/home/pi/Developer/tinyusb/src/class/hid/hid_device.c ****     TU_VERIFY(0 == tu_memcpy_s(p_epbuf->epin + 1, CFG_TUD_HID_EP_BUFSIZE - 1, report, len));
 126:/home/pi/Developer/tinyusb/src/class/hid/hid_device.c ****     len++;
 127:/home/pi/Developer/tinyusb/src/class/hid/hid_device.c ****   } else {
 128:/home/pi/Developer/tinyusb/src/class/hid/hid_device.c ****     TU_VERIFY(0 == tu_memcpy_s(p_epbuf->epin, CFG_TUD_HID_EP_BUFSIZE, report, len));
 129:/home/pi/Developer/tinyusb/src/class/hid/hid_device.c ****   }
 130:/home/pi/Developer/tinyusb/src/class/hid/hid_device.c **** 
 131:/home/pi/Developer/tinyusb/src/class/hid/hid_device.c ****   return usbd_edpt_xfer(rhport, p_hid->ep_in, p_epbuf->epin, len, false);
 132:/home/pi/Developer/tinyusb/src/class/hid/hid_device.c **** }
 226              		.loc 1 132 1 is_stmt 0 view .LVU44
 227 0004 7047     		bx	lr
 228              	.LVL16:
 229              	.L16:
 114:/home/pi/Developer/tinyusb/src/class/hid/hid_device.c ****   TU_VERIFY(instance < CFG_TUD_HID);
 230              		.loc 1 114 3 is_stmt 1 discriminator 2 view .LVU45
 115:/home/pi/Developer/tinyusb/src/class/hid/hid_device.c ****   const uint8_t rhport = 0;
 231              		.loc 1 115 3 discriminator 2 view .LVU46
 116:/home/pi/Developer/tinyusb/src/class/hid/hid_device.c ****   hidd_epbuf_t *p_epbuf = &_hidd_epbuf[instance];
 232              		.loc 1 116 3 discriminator 2 view .LVU47
 117:/home/pi/Developer/tinyusb/src/class/hid/hid_device.c **** 
 233              		.loc 1 117 3 discriminator 2 view .LVU48
 120:/home/pi/Developer/tinyusb/src/class/hid/hid_device.c **** 
 234              		.loc 1 120 3 discriminator 2 view .LVU49
 120:/home/pi/Developer/tinyusb/src/class/hid/hid_device.c **** 
 235              		.loc 1 120 3 discriminator 2 view .LVU50
 113:/home/pi/Developer/tinyusb/src/class/hid/hid_device.c ****   TU_VERIFY(instance < CFG_TUD_HID);
 236              		.loc 1 113 94 is_stmt 0 discriminator 2 view .LVU51
 237 0006 F0B5     		push	{r4, r5, r6, r7, lr}
 238              		.cfi_def_cfa_offset 20
 239              		.cfi_offset 4, -20
 240              		.cfi_offset 5, -16
 241              		.cfi_offset 6, -12
 242              		.cfi_offset 7, -8
 243              		.cfi_offset 14, -4
 120:/home/pi/Developer/tinyusb/src/class/hid/hid_device.c **** 
 244              		.loc 1 120 3 discriminator 2 view .LVU52
 245 0008 164F     		ldr	r7, .L35
 113:/home/pi/Developer/tinyusb/src/class/hid/hid_device.c ****   TU_VERIFY(instance < CFG_TUD_HID);
 246              		.loc 1 113 94 discriminator 2 view .LVU53
 247 000a 83B0     		sub	sp, sp, #12
 248              		.cfi_def_cfa_offset 32
 249 000c 0D46     		mov	r5, r1
 250 000e 1646     		mov	r6, r2
 120:/home/pi/Developer/tinyusb/src/class/hid/hid_device.c **** 
 251              		.loc 1 120 3 discriminator 2 view .LVU54
 252 0010 7978     		ldrb	r1, [r7, #1]	@ zero_extendqisi2
ARM GAS  /tmp/cc6L0ebi.s 			page 10


 253              	.LVL17:
 120:/home/pi/Developer/tinyusb/src/class/hid/hid_device.c **** 
 254              		.loc 1 120 3 discriminator 2 view .LVU55
 255 0012 1C46     		mov	r4, r3
 256 0014 FFF7FEFF 		bl	usbd_edpt_claim
 257              	.LVL18:
 120:/home/pi/Developer/tinyusb/src/class/hid/hid_device.c **** 
 258              		.loc 1 120 3 discriminator 2 view .LVU56
 259 0018 70B1     		cbz	r0, .L18
 260              	.LVL19:
 261              	.LBB59:
 262              	.LBI59:
 113:/home/pi/Developer/tinyusb/src/class/hid/hid_device.c ****   TU_VERIFY(instance < CFG_TUD_HID);
 263              		.loc 1 113 6 is_stmt 1 view .LVU57
 264              	.LBB60:
 120:/home/pi/Developer/tinyusb/src/class/hid/hid_device.c **** 
 265              		.loc 1 120 3 view .LVU58
 123:/home/pi/Developer/tinyusb/src/class/hid/hid_device.c ****     p_epbuf->epin[0] = report_id;
 266              		.loc 1 123 3 view .LVU59
 123:/home/pi/Developer/tinyusb/src/class/hid/hid_device.c ****     p_epbuf->epin[0] = report_id;
 267              		.loc 1 123 6 is_stmt 0 view .LVU60
 268 001a 85B1     		cbz	r5, .L19
 124:/home/pi/Developer/tinyusb/src/class/hid/hid_device.c ****     TU_VERIFY(0 == tu_memcpy_s(p_epbuf->epin + 1, CFG_TUD_HID_EP_BUFSIZE - 1, report, len));
 269              		.loc 1 124 5 is_stmt 1 view .LVU61
 124:/home/pi/Developer/tinyusb/src/class/hid/hid_device.c ****     TU_VERIFY(0 == tu_memcpy_s(p_epbuf->epin + 1, CFG_TUD_HID_EP_BUFSIZE - 1, report, len));
 270              		.loc 1 124 22 is_stmt 0 view .LVU62
 271 001c 1248     		ldr	r0, .L35+4
 272 001e 0574     		strb	r5, [r0, #16]
 125:/home/pi/Developer/tinyusb/src/class/hid/hid_device.c ****     len++;
 273              		.loc 1 125 5 is_stmt 1 view .LVU63
 125:/home/pi/Developer/tinyusb/src/class/hid/hid_device.c ****     len++;
 274              		.loc 1 125 5 view .LVU64
 275              	.LVL20:
 276              	.LBB61:
 277              	.LBI61:
 278              		.file 3 "/home/pi/Developer/tinyusb/src/common/tusb_common.h"
   1:/home/pi/Developer/tinyusb/src/common/tusb_common.h **** /*
   2:/home/pi/Developer/tinyusb/src/common/tusb_common.h ****  * The MIT License (MIT)
   3:/home/pi/Developer/tinyusb/src/common/tusb_common.h ****  *
   4:/home/pi/Developer/tinyusb/src/common/tusb_common.h ****  * Copyright (c) 2019 Ha Thach (tinyusb.org)
   5:/home/pi/Developer/tinyusb/src/common/tusb_common.h ****  *
   6:/home/pi/Developer/tinyusb/src/common/tusb_common.h ****  * Permission is hereby granted, free of charge, to any person obtaining a copy
   7:/home/pi/Developer/tinyusb/src/common/tusb_common.h ****  * of this software and associated documentation files (the "Software"), to deal
   8:/home/pi/Developer/tinyusb/src/common/tusb_common.h ****  * in the Software without restriction, including without limitation the rights
   9:/home/pi/Developer/tinyusb/src/common/tusb_common.h ****  * to use, copy, modify, merge, publish, distribute, sublicense, and/or sell
  10:/home/pi/Developer/tinyusb/src/common/tusb_common.h ****  * copies of the Software, and to permit persons to whom the Software is
  11:/home/pi/Developer/tinyusb/src/common/tusb_common.h ****  * furnished to do so, subject to the following conditions:
  12:/home/pi/Developer/tinyusb/src/common/tusb_common.h ****  *
  13:/home/pi/Developer/tinyusb/src/common/tusb_common.h ****  * The above copyright notice and this permission notice shall be included in
  14:/home/pi/Developer/tinyusb/src/common/tusb_common.h ****  * all copies or substantial portions of the Software.
  15:/home/pi/Developer/tinyusb/src/common/tusb_common.h ****  *
  16:/home/pi/Developer/tinyusb/src/common/tusb_common.h ****  * THE SOFTWARE IS PROVIDED "AS IS", WITHOUT WARRANTY OF ANY KIND, EXPRESS OR
  17:/home/pi/Developer/tinyusb/src/common/tusb_common.h ****  * IMPLIED, INCLUDING BUT NOT LIMITED TO THE WARRANTIES OF MERCHANTABILITY,
  18:/home/pi/Developer/tinyusb/src/common/tusb_common.h ****  * FITNESS FOR A PARTICULAR PURPOSE AND NONINFRINGEMENT. IN NO EVENT SHALL THE
  19:/home/pi/Developer/tinyusb/src/common/tusb_common.h ****  * AUTHORS OR COPYRIGHT HOLDERS BE LIABLE FOR ANY CLAIM, DAMAGES OR OTHER
  20:/home/pi/Developer/tinyusb/src/common/tusb_common.h ****  * LIABILITY, WHETHER IN AN ACTION OF CONTRACT, TORT OR OTHERWISE, ARISING FROM,
  21:/home/pi/Developer/tinyusb/src/common/tusb_common.h ****  * OUT OF OR IN CONNECTION WITH THE SOFTWARE OR THE USE OR OTHER DEALINGS IN
ARM GAS  /tmp/cc6L0ebi.s 			page 11


  22:/home/pi/Developer/tinyusb/src/common/tusb_common.h ****  * THE SOFTWARE.
  23:/home/pi/Developer/tinyusb/src/common/tusb_common.h ****  *
  24:/home/pi/Developer/tinyusb/src/common/tusb_common.h ****  * This file is part of the TinyUSB stack.
  25:/home/pi/Developer/tinyusb/src/common/tusb_common.h ****  */
  26:/home/pi/Developer/tinyusb/src/common/tusb_common.h **** 
  27:/home/pi/Developer/tinyusb/src/common/tusb_common.h **** #ifndef TUSB_COMMON_H_
  28:/home/pi/Developer/tinyusb/src/common/tusb_common.h **** #define TUSB_COMMON_H_
  29:/home/pi/Developer/tinyusb/src/common/tusb_common.h **** 
  30:/home/pi/Developer/tinyusb/src/common/tusb_common.h **** #ifdef __cplusplus
  31:/home/pi/Developer/tinyusb/src/common/tusb_common.h ****  extern "C" {
  32:/home/pi/Developer/tinyusb/src/common/tusb_common.h **** #endif
  33:/home/pi/Developer/tinyusb/src/common/tusb_common.h **** 
  34:/home/pi/Developer/tinyusb/src/common/tusb_common.h **** //--------------------------------------------------------------------+
  35:/home/pi/Developer/tinyusb/src/common/tusb_common.h **** // Macros Helper
  36:/home/pi/Developer/tinyusb/src/common/tusb_common.h **** //--------------------------------------------------------------------+
  37:/home/pi/Developer/tinyusb/src/common/tusb_common.h **** #define TU_ARRAY_SIZE(_arr)           ( sizeof(_arr) / sizeof(_arr[0]) )
  38:/home/pi/Developer/tinyusb/src/common/tusb_common.h **** #define TU_FIELD_SIZE(_type, _field)  (sizeof(((_type *)0)->_field))
  39:/home/pi/Developer/tinyusb/src/common/tusb_common.h **** #define TU_MIN(_x, _y)                ( ( (_x) < (_y) ) ? (_x) : (_y) )
  40:/home/pi/Developer/tinyusb/src/common/tusb_common.h **** #define TU_MAX(_x, _y)                ( ( (_x) > (_y) ) ? (_x) : (_y) )
  41:/home/pi/Developer/tinyusb/src/common/tusb_common.h **** #define TU_DIV_CEIL(n, d)             (((n) + (d) - 1) / (d))
  42:/home/pi/Developer/tinyusb/src/common/tusb_common.h **** #define TU_DIV_ROUND_NEAREST(v, d)    (((v) + (d)/2) / (d) ) // round to nearest integer
  43:/home/pi/Developer/tinyusb/src/common/tusb_common.h **** 
  44:/home/pi/Developer/tinyusb/src/common/tusb_common.h **** #define TU_U16(_high, _low)           ((uint16_t) ((((uint16_t) (_high)) << 8) | ((uint16_t) (_low)
  45:/home/pi/Developer/tinyusb/src/common/tusb_common.h **** #define TU_U16_HIGH(_u16)             ((uint8_t) (((uint16_t) (_u16) >> 8) & 0x00ffu))
  46:/home/pi/Developer/tinyusb/src/common/tusb_common.h **** #define TU_U16_LOW(_u16)              ((uint8_t) ((uint16_t) (_u16) & 0x00ffu))
  47:/home/pi/Developer/tinyusb/src/common/tusb_common.h **** #define U16_TO_U8S_BE(_u16)           TU_U16_HIGH(_u16), TU_U16_LOW(_u16)
  48:/home/pi/Developer/tinyusb/src/common/tusb_common.h **** #define U16_TO_U8S_LE(_u16)           TU_U16_LOW(_u16), TU_U16_HIGH(_u16)
  49:/home/pi/Developer/tinyusb/src/common/tusb_common.h **** 
  50:/home/pi/Developer/tinyusb/src/common/tusb_common.h **** #define TU_U24(_high, _mid, _low)     ((uint32_t) ((((uint32_t) (_high)) << 16) | (((uint32_t) (_mi
  51:/home/pi/Developer/tinyusb/src/common/tusb_common.h **** #define TU_U24_HIGH(_u24)             ((uint8_t) (((uint32_t) (_u24) >> 16) & 0x0000ffu))
  52:/home/pi/Developer/tinyusb/src/common/tusb_common.h **** #define TU_U24_MID(_u24)              ((uint8_t) (((uint32_t) (_u24) >>  8) & 0x0000ffu))
  53:/home/pi/Developer/tinyusb/src/common/tusb_common.h **** #define TU_U24_LOW(_u24)              ((uint8_t) ((uint32_t) (_u24) & 0x0000ffu))
  54:/home/pi/Developer/tinyusb/src/common/tusb_common.h **** #define U24_TO_U8S_BE(_u24)           TU_U24_HIGH(_u24), TU_U24_MID(_u24), TU_U24_LOW(_u24)
  55:/home/pi/Developer/tinyusb/src/common/tusb_common.h **** #define U24_TO_U8S_LE(_u24)           TU_U24_LOW(_u24), TU_U24_MID(_u24), TU_U24_HIGH(_u24)
  56:/home/pi/Developer/tinyusb/src/common/tusb_common.h **** 
  57:/home/pi/Developer/tinyusb/src/common/tusb_common.h **** #define TU_U32_BYTE3(_u32)            ((uint8_t) ((((uint32_t) _u32) >> 24) & 0x000000ff)) // MSB
  58:/home/pi/Developer/tinyusb/src/common/tusb_common.h **** #define TU_U32_BYTE2(_u32)            ((uint8_t) ((((uint32_t) _u32) >> 16) & 0x000000ff))
  59:/home/pi/Developer/tinyusb/src/common/tusb_common.h **** #define TU_U32_BYTE1(_u32)            ((uint8_t) ((((uint32_t) _u32) >>  8) & 0x000000ff))
  60:/home/pi/Developer/tinyusb/src/common/tusb_common.h **** #define TU_U32_BYTE0(_u32)            ((uint8_t) (((uint32_t)  _u32)        & 0x000000ff)) // LSB
  61:/home/pi/Developer/tinyusb/src/common/tusb_common.h **** 
  62:/home/pi/Developer/tinyusb/src/common/tusb_common.h **** #define U32_TO_U8S_BE(_u32)           TU_U32_BYTE3(_u32), TU_U32_BYTE2(_u32), TU_U32_BYTE1(_u32), T
  63:/home/pi/Developer/tinyusb/src/common/tusb_common.h **** #define U32_TO_U8S_LE(_u32)           TU_U32_BYTE0(_u32), TU_U32_BYTE1(_u32), TU_U32_BYTE2(_u32), T
  64:/home/pi/Developer/tinyusb/src/common/tusb_common.h **** 
  65:/home/pi/Developer/tinyusb/src/common/tusb_common.h **** #define TU_BIT(n)                     (1UL << (n))
  66:/home/pi/Developer/tinyusb/src/common/tusb_common.h **** 
  67:/home/pi/Developer/tinyusb/src/common/tusb_common.h **** // Generate a mask with bit from high (31) to low (0) set, e.g TU_GENMASK(3, 0) = 0b1111
  68:/home/pi/Developer/tinyusb/src/common/tusb_common.h **** #define TU_GENMASK(h, l)              ( (UINT32_MAX << (l)) & (UINT32_MAX >> (31 - (h))) )
  69:/home/pi/Developer/tinyusb/src/common/tusb_common.h **** 
  70:/home/pi/Developer/tinyusb/src/common/tusb_common.h **** //--------------------------------------------------------------------+
  71:/home/pi/Developer/tinyusb/src/common/tusb_common.h **** // Includes
  72:/home/pi/Developer/tinyusb/src/common/tusb_common.h **** //--------------------------------------------------------------------+
  73:/home/pi/Developer/tinyusb/src/common/tusb_common.h **** 
  74:/home/pi/Developer/tinyusb/src/common/tusb_common.h **** // Standard Headers
  75:/home/pi/Developer/tinyusb/src/common/tusb_common.h **** #include <stdbool.h>
  76:/home/pi/Developer/tinyusb/src/common/tusb_common.h **** #include <stdint.h>
  77:/home/pi/Developer/tinyusb/src/common/tusb_common.h **** #include <inttypes.h>
  78:/home/pi/Developer/tinyusb/src/common/tusb_common.h **** #include <stddef.h>
ARM GAS  /tmp/cc6L0ebi.s 			page 12


  79:/home/pi/Developer/tinyusb/src/common/tusb_common.h **** #include <string.h>
  80:/home/pi/Developer/tinyusb/src/common/tusb_common.h **** 
  81:/home/pi/Developer/tinyusb/src/common/tusb_common.h **** // Tinyusb Common Headers
  82:/home/pi/Developer/tinyusb/src/common/tusb_common.h **** #include "tusb_option.h"
  83:/home/pi/Developer/tinyusb/src/common/tusb_common.h **** #include "tusb_compiler.h"
  84:/home/pi/Developer/tinyusb/src/common/tusb_common.h **** #include "tusb_verify.h"
  85:/home/pi/Developer/tinyusb/src/common/tusb_common.h **** #include "tusb_types.h"
  86:/home/pi/Developer/tinyusb/src/common/tusb_common.h **** #include "tusb_debug.h"
  87:/home/pi/Developer/tinyusb/src/common/tusb_common.h **** 
  88:/home/pi/Developer/tinyusb/src/common/tusb_common.h **** //--------------------------------------------------------------------+
  89:/home/pi/Developer/tinyusb/src/common/tusb_common.h **** // API implemented by application if needed
  90:/home/pi/Developer/tinyusb/src/common/tusb_common.h **** // TODO move to a more obvious place/file
  91:/home/pi/Developer/tinyusb/src/common/tusb_common.h **** //--------------------------------------------------------------------+
  92:/home/pi/Developer/tinyusb/src/common/tusb_common.h **** 
  93:/home/pi/Developer/tinyusb/src/common/tusb_common.h **** // Get current milliseconds, required by some port/configuration without RTOS
  94:/home/pi/Developer/tinyusb/src/common/tusb_common.h **** extern uint32_t tusb_time_millis_api(void);
  95:/home/pi/Developer/tinyusb/src/common/tusb_common.h **** 
  96:/home/pi/Developer/tinyusb/src/common/tusb_common.h **** // Delay in milliseconds, use tusb_time_millis_api() by default. required by some port/configuratio
  97:/home/pi/Developer/tinyusb/src/common/tusb_common.h **** extern void tusb_time_delay_ms_api(uint32_t ms);
  98:/home/pi/Developer/tinyusb/src/common/tusb_common.h **** 
  99:/home/pi/Developer/tinyusb/src/common/tusb_common.h **** // flush data cache
 100:/home/pi/Developer/tinyusb/src/common/tusb_common.h **** extern void tusb_app_dcache_flush(uintptr_t addr, uint32_t data_size);
 101:/home/pi/Developer/tinyusb/src/common/tusb_common.h **** 
 102:/home/pi/Developer/tinyusb/src/common/tusb_common.h **** // invalidate data cache
 103:/home/pi/Developer/tinyusb/src/common/tusb_common.h **** extern void tusb_app_dcache_invalidate(uintptr_t addr, uint32_t data_size);
 104:/home/pi/Developer/tinyusb/src/common/tusb_common.h **** 
 105:/home/pi/Developer/tinyusb/src/common/tusb_common.h **** // Optional physical <-> virtual address translation
 106:/home/pi/Developer/tinyusb/src/common/tusb_common.h **** extern void* tusb_app_virt_to_phys(void *virt_addr);
 107:/home/pi/Developer/tinyusb/src/common/tusb_common.h **** extern void* tusb_app_phys_to_virt(void *phys_addr);
 108:/home/pi/Developer/tinyusb/src/common/tusb_common.h **** 
 109:/home/pi/Developer/tinyusb/src/common/tusb_common.h **** //--------------------------------------------------------------------+
 110:/home/pi/Developer/tinyusb/src/common/tusb_common.h **** // Internal Inline Functions
 111:/home/pi/Developer/tinyusb/src/common/tusb_common.h **** //--------------------------------------------------------------------+
 112:/home/pi/Developer/tinyusb/src/common/tusb_common.h **** 
 113:/home/pi/Developer/tinyusb/src/common/tusb_common.h **** //------------- Mem -------------//
 114:/home/pi/Developer/tinyusb/src/common/tusb_common.h **** #define tu_memclr(buffer, size)  (void) memset((buffer), 0, (size))
 115:/home/pi/Developer/tinyusb/src/common/tusb_common.h **** #define tu_varclr(_var)          tu_memclr(_var, sizeof(*(_var)))
 116:/home/pi/Developer/tinyusb/src/common/tusb_common.h **** 
 117:/home/pi/Developer/tinyusb/src/common/tusb_common.h **** // This is a backport of memset_s from c11
 118:/home/pi/Developer/tinyusb/src/common/tusb_common.h **** TU_ATTR_ALWAYS_INLINE static inline int tu_memset_s(void *dest, size_t destsz, int ch, size_t count
 119:/home/pi/Developer/tinyusb/src/common/tusb_common.h ****   // Validate parameters
 120:/home/pi/Developer/tinyusb/src/common/tusb_common.h ****   if (dest == NULL) {
 121:/home/pi/Developer/tinyusb/src/common/tusb_common.h ****     return -1;
 122:/home/pi/Developer/tinyusb/src/common/tusb_common.h ****   }
 123:/home/pi/Developer/tinyusb/src/common/tusb_common.h **** 
 124:/home/pi/Developer/tinyusb/src/common/tusb_common.h ****   if (count == 0u) {
 125:/home/pi/Developer/tinyusb/src/common/tusb_common.h ****     return 0;
 126:/home/pi/Developer/tinyusb/src/common/tusb_common.h ****   }
 127:/home/pi/Developer/tinyusb/src/common/tusb_common.h **** 
 128:/home/pi/Developer/tinyusb/src/common/tusb_common.h ****   if (count > destsz) {
 129:/home/pi/Developer/tinyusb/src/common/tusb_common.h ****     return -1;
 130:/home/pi/Developer/tinyusb/src/common/tusb_common.h ****   }
 131:/home/pi/Developer/tinyusb/src/common/tusb_common.h **** 
 132:/home/pi/Developer/tinyusb/src/common/tusb_common.h ****   (void) memset(dest, ch, count);
 133:/home/pi/Developer/tinyusb/src/common/tusb_common.h ****   return 0;
 134:/home/pi/Developer/tinyusb/src/common/tusb_common.h **** }
 135:/home/pi/Developer/tinyusb/src/common/tusb_common.h **** 
ARM GAS  /tmp/cc6L0ebi.s 			page 13


 136:/home/pi/Developer/tinyusb/src/common/tusb_common.h **** // This is a backport of memcpy_s from c11
 137:/home/pi/Developer/tinyusb/src/common/tusb_common.h **** TU_ATTR_ALWAYS_INLINE static inline int tu_memcpy_s(void *dest, size_t destsz, const void *src, siz
 279              		.loc 3 137 41 view .LVU65
 280              	.LBB62:
 138:/home/pi/Developer/tinyusb/src/common/tusb_common.h ****   if (dest == NULL) {
 281              		.loc 3 138 3 view .LVU66
 139:/home/pi/Developer/tinyusb/src/common/tusb_common.h ****     return -1;
 140:/home/pi/Developer/tinyusb/src/common/tusb_common.h ****   }
 141:/home/pi/Developer/tinyusb/src/common/tusb_common.h **** 
 142:/home/pi/Developer/tinyusb/src/common/tusb_common.h ****   if (count == 0u) {
 282              		.loc 3 142 3 view .LVU67
 283              		.loc 3 142 6 is_stmt 0 view .LVU68
 284 0020 3CB1     		cbz	r4, .L20
 143:/home/pi/Developer/tinyusb/src/common/tusb_common.h ****     return 0;
 144:/home/pi/Developer/tinyusb/src/common/tusb_common.h ****   }
 145:/home/pi/Developer/tinyusb/src/common/tusb_common.h **** 
 146:/home/pi/Developer/tinyusb/src/common/tusb_common.h ****   if (src == NULL) {
 285              		.loc 3 146 3 is_stmt 1 view .LVU69
 147:/home/pi/Developer/tinyusb/src/common/tusb_common.h ****     return -1;
 148:/home/pi/Developer/tinyusb/src/common/tusb_common.h ****   }
 149:/home/pi/Developer/tinyusb/src/common/tusb_common.h **** 
 150:/home/pi/Developer/tinyusb/src/common/tusb_common.h ****   if (count > destsz) {
 286              		.loc 3 150 3 view .LVU70
 287              		.loc 3 150 6 is_stmt 0 view .LVU71
 288 0022 4EB1     		cbz	r6, .L18
 289 0024 0F2C     		cmp	r4, #15
 290 0026 07D8     		bhi	.L18
 151:/home/pi/Developer/tinyusb/src/common/tusb_common.h ****     return -1;
 152:/home/pi/Developer/tinyusb/src/common/tusb_common.h ****   }
 153:/home/pi/Developer/tinyusb/src/common/tusb_common.h **** 
 154:/home/pi/Developer/tinyusb/src/common/tusb_common.h ****   (void) memcpy(dest, src, count);
 291              		.loc 3 154 3 is_stmt 1 view .LVU72
 292              		.loc 3 154 10 is_stmt 0 view .LVU73
 293 0028 2246     		mov	r2, r4
 294 002a 3146     		mov	r1, r6
 295 002c 1130     		adds	r0, r0, #17
 296 002e FFF7FEFF 		bl	memcpy
 297              	.LVL21:
 155:/home/pi/Developer/tinyusb/src/common/tusb_common.h ****   return 0;
 298              		.loc 3 155 3 is_stmt 1 view .LVU74
 299              	.L20:
 300              		.loc 3 155 3 is_stmt 0 view .LVU75
 301              	.LBE62:
 302              	.LBE61:
 125:/home/pi/Developer/tinyusb/src/class/hid/hid_device.c ****     len++;
 303              		.loc 1 125 5 is_stmt 1 view .LVU76
 126:/home/pi/Developer/tinyusb/src/class/hid/hid_device.c ****   } else {
 304              		.loc 1 126 5 view .LVU77
 126:/home/pi/Developer/tinyusb/src/class/hid/hid_device.c ****   } else {
 305              		.loc 1 126 8 is_stmt 0 view .LVU78
 306 0032 0134     		adds	r4, r4, #1
 307              	.LVL22:
 126:/home/pi/Developer/tinyusb/src/class/hid/hid_device.c ****   } else {
 308              		.loc 1 126 8 view .LVU79
 309 0034 A4B2     		uxth	r4, r4
 310              	.LVL23:
 126:/home/pi/Developer/tinyusb/src/class/hid/hid_device.c ****   } else {
ARM GAS  /tmp/cc6L0ebi.s 			page 14


 311              		.loc 1 126 8 view .LVU80
 312 0036 0CE0     		b	.L21
 313              	.LVL24:
 314              	.L18:
 126:/home/pi/Developer/tinyusb/src/class/hid/hid_device.c ****   } else {
 315              		.loc 1 126 8 view .LVU81
 316              	.LBE60:
 317              	.LBE59:
 114:/home/pi/Developer/tinyusb/src/class/hid/hid_device.c ****   const uint8_t rhport = 0;
 318              		.loc 1 114 3 view .LVU82
 319 0038 0020     		movs	r0, #0
 320              		.loc 1 132 1 view .LVU83
 321 003a 03B0     		add	sp, sp, #12
 322              		.cfi_remember_state
 323              		.cfi_def_cfa_offset 20
 324              		@ sp needed
 325 003c F0BD     		pop	{r4, r5, r6, r7, pc}
 326              	.LVL25:
 327              	.L19:
 328              		.cfi_restore_state
 329              	.LBB66:
 330              	.LBB65:
 128:/home/pi/Developer/tinyusb/src/class/hid/hid_device.c ****   }
 331              		.loc 1 128 5 is_stmt 1 view .LVU84
 128:/home/pi/Developer/tinyusb/src/class/hid/hid_device.c ****   }
 332              		.loc 1 128 5 view .LVU85
 333              	.LBB63:
 334              	.LBI63:
 137:/home/pi/Developer/tinyusb/src/common/tusb_common.h ****   if (dest == NULL) {
 335              		.loc 3 137 41 view .LVU86
 336              	.LBB64:
 138:/home/pi/Developer/tinyusb/src/common/tusb_common.h ****     return -1;
 337              		.loc 3 138 3 view .LVU87
 142:/home/pi/Developer/tinyusb/src/common/tusb_common.h ****     return 0;
 338              		.loc 3 142 3 view .LVU88
 142:/home/pi/Developer/tinyusb/src/common/tusb_common.h ****     return 0;
 339              		.loc 3 142 6 is_stmt 0 view .LVU89
 340 003e 44B1     		cbz	r4, .L21
 146:/home/pi/Developer/tinyusb/src/common/tusb_common.h ****     return -1;
 341              		.loc 3 146 3 is_stmt 1 view .LVU90
 150:/home/pi/Developer/tinyusb/src/common/tusb_common.h ****     return -1;
 342              		.loc 3 150 3 view .LVU91
 150:/home/pi/Developer/tinyusb/src/common/tusb_common.h ****     return -1;
 343              		.loc 3 150 6 is_stmt 0 view .LVU92
 344 0040 002E     		cmp	r6, #0
 345 0042 F9D0     		beq	.L18
 346 0044 102C     		cmp	r4, #16
 347 0046 F7D8     		bhi	.L18
 154:/home/pi/Developer/tinyusb/src/common/tusb_common.h ****   return 0;
 348              		.loc 3 154 3 is_stmt 1 view .LVU93
 154:/home/pi/Developer/tinyusb/src/common/tusb_common.h ****   return 0;
 349              		.loc 3 154 10 is_stmt 0 view .LVU94
 350 0048 2246     		mov	r2, r4
 351 004a 3146     		mov	r1, r6
 352 004c 0748     		ldr	r0, .L35+8
 353 004e FFF7FEFF 		bl	memcpy
 354              	.LVL26:
ARM GAS  /tmp/cc6L0ebi.s 			page 15


 355              		.loc 3 155 3 is_stmt 1 view .LVU95
 356              	.L21:
 357              		.loc 3 155 3 is_stmt 0 view .LVU96
 358              	.LBE64:
 359              	.LBE63:
 128:/home/pi/Developer/tinyusb/src/class/hid/hid_device.c ****   }
 360              		.loc 1 128 5 is_stmt 1 view .LVU97
 131:/home/pi/Developer/tinyusb/src/class/hid/hid_device.c **** }
 361              		.loc 1 131 3 view .LVU98
 131:/home/pi/Developer/tinyusb/src/class/hid/hid_device.c **** }
 362              		.loc 1 131 10 is_stmt 0 view .LVU99
 363 0052 0020     		movs	r0, #0
 364 0054 2346     		mov	r3, r4
 365 0056 054A     		ldr	r2, .L35+8
 366 0058 7978     		ldrb	r1, [r7, #1]	@ zero_extendqisi2
 367 005a 0090     		str	r0, [sp]
 368 005c FFF7FEFF 		bl	usbd_edpt_xfer
 369              	.LVL27:
 131:/home/pi/Developer/tinyusb/src/class/hid/hid_device.c **** }
 370              		.loc 1 131 10 view .LVU100
 371              	.LBE65:
 372              	.LBE66:
 373              		.loc 1 132 1 view .LVU101
 374 0060 03B0     		add	sp, sp, #12
 375              		.cfi_def_cfa_offset 20
 376              		@ sp needed
 377 0062 F0BD     		pop	{r4, r5, r6, r7, pc}
 378              	.LVL28:
 379              	.L36:
 380              		.loc 1 132 1 view .LVU102
 381              		.align	2
 382              	.L35:
 383 0064 00000000 		.word	.LANCHOR0
 384 0068 00000000 		.word	.LANCHOR1
 385 006c 10000000 		.word	.LANCHOR1+16
 386              		.cfi_endproc
 387              	.LFE427:
 389              		.section	.text.tud_hid_n_interface_protocol,"ax",%progbits
 390              		.align	1
 391              		.p2align 2,,3
 392              		.global	tud_hid_n_interface_protocol
 393              		.syntax unified
 394              		.thumb
 395              		.thumb_func
 396              		.fpu fpv5-d16
 398              	tud_hid_n_interface_protocol:
 399              	.LVL29:
 400              	.LFB428:
 133:/home/pi/Developer/tinyusb/src/class/hid/hid_device.c **** 
 134:/home/pi/Developer/tinyusb/src/class/hid/hid_device.c **** uint8_t tud_hid_n_interface_protocol(uint8_t instance) {
 401              		.loc 1 134 56 is_stmt 1 view -0
 402              		.cfi_startproc
 403              		@ args = 0, pretend = 0, frame = 0
 404              		@ frame_needed = 0, uses_anonymous_args = 0
 405              		@ link register save eliminated.
 135:/home/pi/Developer/tinyusb/src/class/hid/hid_device.c ****   return _hidd_itf[instance].itf_protocol;
 406              		.loc 1 135 3 view .LVU104
ARM GAS  /tmp/cc6L0ebi.s 			page 16


 407              		.loc 1 135 29 is_stmt 0 view .LVU105
 408 0000 034B     		ldr	r3, .L38
 409 0002 00EB4000 		add	r0, r0, r0, lsl #1
 410              	.LVL30:
 411              		.loc 1 135 29 view .LVU106
 412 0006 03EB8000 		add	r0, r3, r0, lsl #2
 136:/home/pi/Developer/tinyusb/src/class/hid/hid_device.c **** }
 413              		.loc 1 136 1 view .LVU107
 414 000a C078     		ldrb	r0, [r0, #3]	@ zero_extendqisi2
 415 000c 7047     		bx	lr
 416              	.L39:
 417 000e 00BF     		.align	2
 418              	.L38:
 419 0010 00000000 		.word	.LANCHOR0
 420              		.cfi_endproc
 421              	.LFE428:
 423              		.section	.text.tud_hid_n_get_protocol,"ax",%progbits
 424              		.align	1
 425              		.p2align 2,,3
 426              		.global	tud_hid_n_get_protocol
 427              		.syntax unified
 428              		.thumb
 429              		.thumb_func
 430              		.fpu fpv5-d16
 432              	tud_hid_n_get_protocol:
 433              	.LVL31:
 434              	.LFB429:
 137:/home/pi/Developer/tinyusb/src/class/hid/hid_device.c **** 
 138:/home/pi/Developer/tinyusb/src/class/hid/hid_device.c **** uint8_t tud_hid_n_get_protocol(uint8_t instance) {
 435              		.loc 1 138 50 is_stmt 1 view -0
 436              		.cfi_startproc
 437              		@ args = 0, pretend = 0, frame = 0
 438              		@ frame_needed = 0, uses_anonymous_args = 0
 439              		@ link register save eliminated.
 139:/home/pi/Developer/tinyusb/src/class/hid/hid_device.c ****   return _hidd_itf[instance].protocol_mode;
 440              		.loc 1 139 3 view .LVU109
 441              		.loc 1 139 29 is_stmt 0 view .LVU110
 442 0000 034B     		ldr	r3, .L41
 443 0002 00EB4000 		add	r0, r0, r0, lsl #1
 444              	.LVL32:
 445              		.loc 1 139 29 view .LVU111
 446 0006 03EB8000 		add	r0, r3, r0, lsl #2
 140:/home/pi/Developer/tinyusb/src/class/hid/hid_device.c **** }
 447              		.loc 1 140 1 view .LVU112
 448 000a 8079     		ldrb	r0, [r0, #6]	@ zero_extendqisi2
 449 000c 7047     		bx	lr
 450              	.L42:
 451 000e 00BF     		.align	2
 452              	.L41:
 453 0010 00000000 		.word	.LANCHOR0
 454              		.cfi_endproc
 455              	.LFE429:
 457              		.section	.text.tud_hid_n_keyboard_report,"ax",%progbits
 458              		.align	1
 459              		.p2align 2,,3
 460              		.global	tud_hid_n_keyboard_report
 461              		.syntax unified
ARM GAS  /tmp/cc6L0ebi.s 			page 17


 462              		.thumb
 463              		.thumb_func
 464              		.fpu fpv5-d16
 466              	tud_hid_n_keyboard_report:
 467              	.LVL33:
 468              	.LFB430:
 141:/home/pi/Developer/tinyusb/src/class/hid/hid_device.c **** 
 142:/home/pi/Developer/tinyusb/src/class/hid/hid_device.c **** bool tud_hid_n_keyboard_report(uint8_t instance, uint8_t report_id, uint8_t modifier, const uint8_t
 469              		.loc 1 142 113 is_stmt 1 view -0
 470              		.cfi_startproc
 471              		@ args = 0, pretend = 0, frame = 8
 472              		@ frame_needed = 0, uses_anonymous_args = 0
 143:/home/pi/Developer/tinyusb/src/class/hid/hid_device.c ****   hid_keyboard_report_t report;
 473              		.loc 1 143 3 view .LVU114
 144:/home/pi/Developer/tinyusb/src/class/hid/hid_device.c ****   report.modifier = modifier;
 474              		.loc 1 144 3 view .LVU115
 142:/home/pi/Developer/tinyusb/src/class/hid/hid_device.c ****   hid_keyboard_report_t report;
 475              		.loc 1 142 113 is_stmt 0 view .LVU116
 476 0000 70B5     		push	{r4, r5, r6, lr}
 477              		.cfi_def_cfa_offset 16
 478              		.cfi_offset 4, -16
 479              		.cfi_offset 5, -12
 480              		.cfi_offset 6, -8
 481              		.cfi_offset 14, -4
 145:/home/pi/Developer/tinyusb/src/class/hid/hid_device.c ****   report.reserved = 0;
 482              		.loc 1 145 19 view .LVU117
 483 0002 4FF0000C 		mov	ip, #0
 142:/home/pi/Developer/tinyusb/src/class/hid/hid_device.c ****   hid_keyboard_report_t report;
 484              		.loc 1 142 113 view .LVU118
 485 0006 84B0     		sub	sp, sp, #16
 486              		.cfi_def_cfa_offset 32
 142:/home/pi/Developer/tinyusb/src/class/hid/hid_device.c ****   hid_keyboard_report_t report;
 487              		.loc 1 142 113 view .LVU119
 488 0008 0C46     		mov	r4, r1
 144:/home/pi/Developer/tinyusb/src/class/hid/hid_device.c ****   report.modifier = modifier;
 489              		.loc 1 144 19 view .LVU120
 490 000a 8DF80820 		strb	r2, [sp, #8]
 491              		.loc 1 145 3 is_stmt 1 view .LVU121
 492              		.loc 1 145 19 is_stmt 0 view .LVU122
 493 000e 8DF809C0 		strb	ip, [sp, #9]
 146:/home/pi/Developer/tinyusb/src/class/hid/hid_device.c **** 
 147:/home/pi/Developer/tinyusb/src/class/hid/hid_device.c ****   if (keycode) {
 494              		.loc 1 147 3 is_stmt 1 view .LVU123
 495              		.loc 1 147 6 is_stmt 0 view .LVU124
 496 0012 4BB3     		cbz	r3, .L44
 148:/home/pi/Developer/tinyusb/src/class/hid/hid_device.c ****     memcpy(report.keycode, keycode, sizeof(report.keycode));
 497              		.loc 1 148 5 is_stmt 1 view .LVU125
 498 0014 1A68     		ldr	r2, [r3]	@ unaligned
 499              	.LVL34:
 500              		.loc 1 148 5 is_stmt 0 view .LVU126
 501 0016 9B88     		ldrh	r3, [r3, #4]	@ unaligned
 502              	.LVL35:
 503              		.loc 1 148 5 view .LVU127
 504 0018 CDF80A20 		str	r2, [sp, #10]	@ unaligned
 505 001c ADF80E30 		strh	r3, [sp, #14]	@ unaligned
 506              	.L45:
 149:/home/pi/Developer/tinyusb/src/class/hid/hid_device.c ****   } else {
ARM GAS  /tmp/cc6L0ebi.s 			page 18


 150:/home/pi/Developer/tinyusb/src/class/hid/hid_device.c ****     tu_memclr(report.keycode, 6);
 151:/home/pi/Developer/tinyusb/src/class/hid/hid_device.c ****   }
 152:/home/pi/Developer/tinyusb/src/class/hid/hid_device.c **** 
 153:/home/pi/Developer/tinyusb/src/class/hid/hid_device.c ****   return tud_hid_n_report(instance, report_id, &report, sizeof(report));
 507              		.loc 1 153 3 is_stmt 1 view .LVU128
 508              	.LVL36:
 509              	.LBB75:
 510              	.LBI75:
 113:/home/pi/Developer/tinyusb/src/class/hid/hid_device.c ****   TU_VERIFY(instance < CFG_TUD_HID);
 511              		.loc 1 113 6 view .LVU129
 512              	.LBB76:
 114:/home/pi/Developer/tinyusb/src/class/hid/hid_device.c ****   const uint8_t rhport = 0;
 513              		.loc 1 114 3 view .LVU130
 114:/home/pi/Developer/tinyusb/src/class/hid/hid_device.c ****   const uint8_t rhport = 0;
 514              		.loc 1 114 3 view .LVU131
 515 0020 10B1     		cbz	r0, .L46
 516              	.LVL37:
 517              	.L48:
 114:/home/pi/Developer/tinyusb/src/class/hid/hid_device.c ****   const uint8_t rhport = 0;
 518              		.loc 1 114 3 is_stmt 0 view .LVU132
 519 0022 0020     		movs	r0, #0
 520              	.LVL38:
 114:/home/pi/Developer/tinyusb/src/class/hid/hid_device.c ****   const uint8_t rhport = 0;
 521              		.loc 1 114 3 view .LVU133
 522              	.LBE76:
 523              	.LBE75:
 154:/home/pi/Developer/tinyusb/src/class/hid/hid_device.c **** }
 524              		.loc 1 154 1 view .LVU134
 525 0024 04B0     		add	sp, sp, #16
 526              		.cfi_remember_state
 527              		.cfi_def_cfa_offset 16
 528              		@ sp needed
 529 0026 70BD     		pop	{r4, r5, r6, pc}
 530              	.LVL39:
 531              	.L46:
 532              		.cfi_restore_state
 533              	.LBB89:
 534              	.LBB87:
 114:/home/pi/Developer/tinyusb/src/class/hid/hid_device.c ****   const uint8_t rhport = 0;
 535              		.loc 1 114 3 is_stmt 1 view .LVU135
 115:/home/pi/Developer/tinyusb/src/class/hid/hid_device.c ****   hidd_interface_t *p_hid = &_hidd_itf[instance];
 536              		.loc 1 115 3 view .LVU136
 116:/home/pi/Developer/tinyusb/src/class/hid/hid_device.c ****   hidd_epbuf_t *p_epbuf = &_hidd_epbuf[instance];
 537              		.loc 1 116 3 view .LVU137
 117:/home/pi/Developer/tinyusb/src/class/hid/hid_device.c **** 
 538              		.loc 1 117 3 view .LVU138
 120:/home/pi/Developer/tinyusb/src/class/hid/hid_device.c **** 
 539              		.loc 1 120 3 view .LVU139
 120:/home/pi/Developer/tinyusb/src/class/hid/hid_device.c **** 
 540              		.loc 1 120 3 view .LVU140
 541 0028 124D     		ldr	r5, .L55
 542 002a 6978     		ldrb	r1, [r5, #1]	@ zero_extendqisi2
 543              	.LVL40:
 120:/home/pi/Developer/tinyusb/src/class/hid/hid_device.c **** 
 544              		.loc 1 120 3 is_stmt 0 view .LVU141
 545 002c FFF7FEFF 		bl	usbd_edpt_claim
 546              	.LVL41:
ARM GAS  /tmp/cc6L0ebi.s 			page 19


 120:/home/pi/Developer/tinyusb/src/class/hid/hid_device.c **** 
 547              		.loc 1 120 3 view .LVU142
 548 0030 0028     		cmp	r0, #0
 549 0032 F6D0     		beq	.L48
 550              	.LVL42:
 551              	.LBB77:
 552              	.LBI77:
 113:/home/pi/Developer/tinyusb/src/class/hid/hid_device.c ****   TU_VERIFY(instance < CFG_TUD_HID);
 553              		.loc 1 113 6 is_stmt 1 view .LVU143
 554              	.LBB78:
 120:/home/pi/Developer/tinyusb/src/class/hid/hid_device.c **** 
 555              		.loc 1 120 3 view .LVU144
 123:/home/pi/Developer/tinyusb/src/class/hid/hid_device.c ****     p_epbuf->epin[0] = report_id;
 556              		.loc 1 123 3 view .LVU145
 123:/home/pi/Developer/tinyusb/src/class/hid/hid_device.c ****     p_epbuf->epin[0] = report_id;
 557              		.loc 1 123 6 is_stmt 0 view .LVU146
 558 0034 84B1     		cbz	r4, .L49
 124:/home/pi/Developer/tinyusb/src/class/hid/hid_device.c ****     TU_VERIFY(0 == tu_memcpy_s(p_epbuf->epin + 1, CFG_TUD_HID_EP_BUFSIZE - 1, report, len));
 559              		.loc 1 124 5 is_stmt 1 view .LVU147
 560              	.LBB79:
 561              	.LBB80:
 154:/home/pi/Developer/tinyusb/src/common/tusb_common.h ****   return 0;
 562              		.loc 3 154 10 is_stmt 0 view .LVU148
 563 0036 02AA     		add	r2, sp, #8
 564              	.LVL43:
 154:/home/pi/Developer/tinyusb/src/common/tusb_common.h ****   return 0;
 565              		.loc 3 154 10 view .LVU149
 566              	.LBE80:
 567              	.LBE79:
 124:/home/pi/Developer/tinyusb/src/class/hid/hid_device.c ****     TU_VERIFY(0 == tu_memcpy_s(p_epbuf->epin + 1, CFG_TUD_HID_EP_BUFSIZE - 1, report, len));
 568              		.loc 1 124 22 view .LVU150
 569 0038 0F4E     		ldr	r6, .L55+4
 126:/home/pi/Developer/tinyusb/src/class/hid/hid_device.c ****   } else {
 570              		.loc 1 126 8 view .LVU151
 571 003a 0923     		movs	r3, #9
 124:/home/pi/Developer/tinyusb/src/class/hid/hid_device.c ****     TU_VERIFY(0 == tu_memcpy_s(p_epbuf->epin + 1, CFG_TUD_HID_EP_BUFSIZE - 1, report, len));
 572              		.loc 1 124 22 view .LVU152
 573 003c 3474     		strb	r4, [r6, #16]
 125:/home/pi/Developer/tinyusb/src/class/hid/hid_device.c ****     len++;
 574              		.loc 1 125 5 is_stmt 1 view .LVU153
 125:/home/pi/Developer/tinyusb/src/class/hid/hid_device.c ****     len++;
 575              		.loc 1 125 5 view .LVU154
 576              	.LVL44:
 577              	.LBB82:
 578              	.LBI79:
 137:/home/pi/Developer/tinyusb/src/common/tusb_common.h ****   if (dest == NULL) {
 579              		.loc 3 137 41 view .LVU155
 580              	.LBB81:
 138:/home/pi/Developer/tinyusb/src/common/tusb_common.h ****     return -1;
 581              		.loc 3 138 3 view .LVU156
 142:/home/pi/Developer/tinyusb/src/common/tusb_common.h ****     return 0;
 582              		.loc 3 142 3 view .LVU157
 146:/home/pi/Developer/tinyusb/src/common/tusb_common.h ****     return -1;
 583              		.loc 3 146 3 view .LVU158
 150:/home/pi/Developer/tinyusb/src/common/tusb_common.h ****     return -1;
 584              		.loc 3 150 3 view .LVU159
 154:/home/pi/Developer/tinyusb/src/common/tusb_common.h ****   return 0;
ARM GAS  /tmp/cc6L0ebi.s 			page 20


 585              		.loc 3 154 3 view .LVU160
 154:/home/pi/Developer/tinyusb/src/common/tusb_common.h ****   return 0;
 586              		.loc 3 154 10 is_stmt 0 view .LVU161
 587 003e 03CA     		ldmia	r2!, {r0, r1}
 588              	.LVL45:
 154:/home/pi/Developer/tinyusb/src/common/tusb_common.h ****   return 0;
 589              		.loc 3 154 10 view .LVU162
 590 0040 C6F81100 		str	r0, [r6, #17]	@ unaligned
 591 0044 C6F81510 		str	r1, [r6, #21]	@ unaligned
 592              		.loc 3 155 3 is_stmt 1 view .LVU163
 593              	.LVL46:
 594              		.loc 3 155 3 is_stmt 0 view .LVU164
 595              	.LBE81:
 596              	.LBE82:
 125:/home/pi/Developer/tinyusb/src/class/hid/hid_device.c ****     len++;
 597              		.loc 1 125 5 is_stmt 1 view .LVU165
 126:/home/pi/Developer/tinyusb/src/class/hid/hid_device.c ****   } else {
 598              		.loc 1 126 5 view .LVU166
 599              	.L50:
 128:/home/pi/Developer/tinyusb/src/class/hid/hid_device.c ****   }
 600              		.loc 1 128 5 view .LVU167
 131:/home/pi/Developer/tinyusb/src/class/hid/hid_device.c **** }
 601              		.loc 1 131 3 view .LVU168
 131:/home/pi/Developer/tinyusb/src/class/hid/hid_device.c **** }
 602              		.loc 1 131 10 is_stmt 0 view .LVU169
 603 0048 0020     		movs	r0, #0
 604 004a 0C4A     		ldr	r2, .L55+8
 605 004c 6978     		ldrb	r1, [r5, #1]	@ zero_extendqisi2
 606 004e 0090     		str	r0, [sp]
 607 0050 FFF7FEFF 		bl	usbd_edpt_xfer
 608              	.LVL47:
 131:/home/pi/Developer/tinyusb/src/class/hid/hid_device.c **** }
 609              		.loc 1 131 10 view .LVU170
 610              	.LBE78:
 611              	.LBE77:
 612              	.LBE87:
 613              	.LBE89:
 614              		.loc 1 154 1 view .LVU171
 615 0054 04B0     		add	sp, sp, #16
 616              		.cfi_remember_state
 617              		.cfi_def_cfa_offset 16
 618              		@ sp needed
 619 0056 70BD     		pop	{r4, r5, r6, pc}
 620              	.LVL48:
 621              	.L49:
 622              		.cfi_restore_state
 623              	.LBB90:
 624              	.LBB88:
 625              	.LBB86:
 626              	.LBB85:
 128:/home/pi/Developer/tinyusb/src/class/hid/hid_device.c ****   }
 627              		.loc 1 128 5 is_stmt 1 view .LVU172
 128:/home/pi/Developer/tinyusb/src/class/hid/hid_device.c ****   }
 628              		.loc 1 128 5 view .LVU173
 629              	.LBB83:
 630              	.LBI83:
 137:/home/pi/Developer/tinyusb/src/common/tusb_common.h ****   if (dest == NULL) {
ARM GAS  /tmp/cc6L0ebi.s 			page 21


 631              		.loc 3 137 41 view .LVU174
 632              	.LBB84:
 138:/home/pi/Developer/tinyusb/src/common/tusb_common.h ****     return -1;
 633              		.loc 3 138 3 view .LVU175
 142:/home/pi/Developer/tinyusb/src/common/tusb_common.h ****     return 0;
 634              		.loc 3 142 3 view .LVU176
 146:/home/pi/Developer/tinyusb/src/common/tusb_common.h ****     return -1;
 635              		.loc 3 146 3 view .LVU177
 150:/home/pi/Developer/tinyusb/src/common/tusb_common.h ****     return -1;
 636              		.loc 3 150 3 view .LVU178
 154:/home/pi/Developer/tinyusb/src/common/tusb_common.h ****   return 0;
 637              		.loc 3 154 3 view .LVU179
 154:/home/pi/Developer/tinyusb/src/common/tusb_common.h ****   return 0;
 638              		.loc 3 154 10 is_stmt 0 view .LVU180
 639 0058 04AB     		add	r3, sp, #16
 640 005a 084A     		ldr	r2, .L55+8
 641 005c 13E90300 		ldmdb	r3, {r0, r1}
 642 0060 0823     		movs	r3, #8
 643 0062 82E80300 		stm	r2, {r0, r1}
 644              		.loc 3 155 3 is_stmt 1 view .LVU181
 645              	.LVL49:
 646              		.loc 3 155 3 is_stmt 0 view .LVU182
 647 0066 EFE7     		b	.L50
 648              	.LVL50:
 649              	.L44:
 650              		.loc 3 155 3 view .LVU183
 651              	.LBE84:
 652              	.LBE83:
 653              	.LBE85:
 654              	.LBE86:
 655              	.LBE88:
 656              	.LBE90:
 150:/home/pi/Developer/tinyusb/src/class/hid/hid_device.c ****   }
 657              		.loc 1 150 5 is_stmt 1 view .LVU184
 658 0068 CDF80A30 		str	r3, [sp, #10]	@ unaligned
 659 006c ADF80E30 		strh	r3, [sp, #14]	@ movhi
 660 0070 D6E7     		b	.L45
 661              	.L56:
 662 0072 00BF     		.align	2
 663              	.L55:
 664 0074 00000000 		.word	.LANCHOR0
 665 0078 00000000 		.word	.LANCHOR1
 666 007c 10000000 		.word	.LANCHOR1+16
 667              		.cfi_endproc
 668              	.LFE430:
 670              		.section	.text.tud_hid_n_mouse_report,"ax",%progbits
 671              		.align	1
 672              		.p2align 2,,3
 673              		.global	tud_hid_n_mouse_report
 674              		.syntax unified
 675              		.thumb
 676              		.thumb_func
 677              		.fpu fpv5-d16
 679              	tud_hid_n_mouse_report:
 680              	.LVL51:
 681              	.LFB431:
 155:/home/pi/Developer/tinyusb/src/class/hid/hid_device.c **** 
ARM GAS  /tmp/cc6L0ebi.s 			page 22


 156:/home/pi/Developer/tinyusb/src/class/hid/hid_device.c **** bool tud_hid_n_mouse_report(uint8_t instance, uint8_t report_id,
 157:/home/pi/Developer/tinyusb/src/class/hid/hid_device.c ****                             uint8_t buttons, int8_t x, int8_t y, int8_t vertical, int8_t horizontal
 682              		.loc 1 157 102 view -0
 683              		.cfi_startproc
 684              		@ args = 12, pretend = 0, frame = 0
 685              		@ frame_needed = 0, uses_anonymous_args = 0
 158:/home/pi/Developer/tinyusb/src/class/hid/hid_device.c ****   hid_mouse_report_t report = {
 686              		.loc 1 158 3 view .LVU186
 157:/home/pi/Developer/tinyusb/src/class/hid/hid_device.c ****   hid_mouse_report_t report = {
 687              		.loc 1 157 102 is_stmt 0 view .LVU187
 688 0000 2DE9F047 		push	{r4, r5, r6, r7, r8, r9, r10, lr}
 689              		.cfi_def_cfa_offset 32
 690              		.cfi_offset 4, -32
 691              		.cfi_offset 5, -28
 692              		.cfi_offset 6, -24
 693              		.cfi_offset 7, -20
 694              		.cfi_offset 8, -16
 695              		.cfi_offset 9, -12
 696              		.cfi_offset 10, -8
 697              		.cfi_offset 14, -4
 157:/home/pi/Developer/tinyusb/src/class/hid/hid_device.c ****   hid_mouse_report_t report = {
 698              		.loc 1 157 102 view .LVU188
 699 0004 9DF920A0 		ldrsb	r10, [sp, #32]
 700              	.LVL52:
 157:/home/pi/Developer/tinyusb/src/class/hid/hid_device.c ****   hid_mouse_report_t report = {
 701              		.loc 1 157 102 view .LVU189
 702 0008 9DF92490 		ldrsb	r9, [sp, #36]
 703              	.LVL53:
 157:/home/pi/Developer/tinyusb/src/class/hid/hid_device.c ****   hid_mouse_report_t report = {
 704              		.loc 1 157 102 view .LVU190
 705 000c 9DF92880 		ldrsb	r8, [sp, #40]
 706              	.LVL54:
 159:/home/pi/Developer/tinyusb/src/class/hid/hid_device.c ****     .buttons = buttons,
 160:/home/pi/Developer/tinyusb/src/class/hid/hid_device.c ****     .x = x,
 161:/home/pi/Developer/tinyusb/src/class/hid/hid_device.c ****     .y = y,
 162:/home/pi/Developer/tinyusb/src/class/hid/hid_device.c ****     .wheel = vertical,
 163:/home/pi/Developer/tinyusb/src/class/hid/hid_device.c ****     .pan = horizontal
 164:/home/pi/Developer/tinyusb/src/class/hid/hid_device.c ****   };
 165:/home/pi/Developer/tinyusb/src/class/hid/hid_device.c **** 
 166:/home/pi/Developer/tinyusb/src/class/hid/hid_device.c ****   return tud_hid_n_report(instance, report_id, &report, sizeof(report));
 707              		.loc 1 166 3 is_stmt 1 view .LVU191
 708              	.LBB99:
 709              	.LBI99:
 113:/home/pi/Developer/tinyusb/src/class/hid/hid_device.c ****   TU_VERIFY(instance < CFG_TUD_HID);
 710              		.loc 1 113 6 view .LVU192
 711              	.LBB100:
 114:/home/pi/Developer/tinyusb/src/class/hid/hid_device.c ****   const uint8_t rhport = 0;
 712              		.loc 1 114 3 view .LVU193
 114:/home/pi/Developer/tinyusb/src/class/hid/hid_device.c ****   const uint8_t rhport = 0;
 713              		.loc 1 114 3 view .LVU194
 714 0010 10B1     		cbz	r0, .L67
 715              	.LVL55:
 716              	.L59:
 114:/home/pi/Developer/tinyusb/src/class/hid/hid_device.c ****   const uint8_t rhport = 0;
 717              		.loc 1 114 3 is_stmt 0 view .LVU195
 718              	.LBE100:
 719              	.LBE99:
ARM GAS  /tmp/cc6L0ebi.s 			page 23


 167:/home/pi/Developer/tinyusb/src/class/hid/hid_device.c **** }
 720              		.loc 1 167 1 view .LVU196
 721 0012 0020     		movs	r0, #0
 722 0014 BDE8F087 		pop	{r4, r5, r6, r7, r8, r9, r10, pc}
 723              	.LVL56:
 724              	.L67:
 725              	.LBB111:
 726              	.LBB109:
 114:/home/pi/Developer/tinyusb/src/class/hid/hid_device.c ****   const uint8_t rhport = 0;
 727              		.loc 1 114 3 is_stmt 1 view .LVU197
 115:/home/pi/Developer/tinyusb/src/class/hid/hid_device.c ****   hidd_interface_t *p_hid = &_hidd_itf[instance];
 728              		.loc 1 115 3 view .LVU198
 116:/home/pi/Developer/tinyusb/src/class/hid/hid_device.c ****   hidd_epbuf_t *p_epbuf = &_hidd_epbuf[instance];
 729              		.loc 1 116 3 view .LVU199
 117:/home/pi/Developer/tinyusb/src/class/hid/hid_device.c **** 
 730              		.loc 1 117 3 view .LVU200
 120:/home/pi/Developer/tinyusb/src/class/hid/hid_device.c **** 
 731              		.loc 1 120 3 view .LVU201
 120:/home/pi/Developer/tinyusb/src/class/hid/hid_device.c **** 
 732              		.loc 1 120 3 view .LVU202
 733 0018 134F     		ldr	r7, .L68
 734 001a 0E46     		mov	r6, r1
 735 001c 1546     		mov	r5, r2
 736 001e 1C46     		mov	r4, r3
 737 0020 7978     		ldrb	r1, [r7, #1]	@ zero_extendqisi2
 738              	.LVL57:
 120:/home/pi/Developer/tinyusb/src/class/hid/hid_device.c **** 
 739              		.loc 1 120 3 is_stmt 0 view .LVU203
 740 0022 FFF7FEFF 		bl	usbd_edpt_claim
 741              	.LVL58:
 120:/home/pi/Developer/tinyusb/src/class/hid/hid_device.c **** 
 742              		.loc 1 120 3 view .LVU204
 743 0026 0028     		cmp	r0, #0
 744 0028 F3D0     		beq	.L59
 745              	.LVL59:
 746              	.LBB101:
 747              	.LBI101:
 113:/home/pi/Developer/tinyusb/src/class/hid/hid_device.c ****   TU_VERIFY(instance < CFG_TUD_HID);
 748              		.loc 1 113 6 is_stmt 1 view .LVU205
 749              	.LBB102:
 120:/home/pi/Developer/tinyusb/src/class/hid/hid_device.c **** 
 750              		.loc 1 120 3 view .LVU206
 123:/home/pi/Developer/tinyusb/src/class/hid/hid_device.c ****     p_epbuf->epin[0] = report_id;
 751              		.loc 1 123 3 view .LVU207
 124:/home/pi/Developer/tinyusb/src/class/hid/hid_device.c ****     TU_VERIFY(0 == tu_memcpy_s(p_epbuf->epin + 1, CFG_TUD_HID_EP_BUFSIZE - 1, report, len));
 752              		.loc 1 124 22 is_stmt 0 view .LVU208
 753 002a 104A     		ldr	r2, .L68+4
 123:/home/pi/Developer/tinyusb/src/class/hid/hid_device.c ****     p_epbuf->epin[0] = report_id;
 754              		.loc 1 123 6 view .LVU209
 755 002c 8EB1     		cbz	r6, .L61
 124:/home/pi/Developer/tinyusb/src/class/hid/hid_device.c ****     TU_VERIFY(0 == tu_memcpy_s(p_epbuf->epin + 1, CFG_TUD_HID_EP_BUFSIZE - 1, report, len));
 756              		.loc 1 124 5 is_stmt 1 view .LVU210
 126:/home/pi/Developer/tinyusb/src/class/hid/hid_device.c ****   } else {
 757              		.loc 1 126 8 is_stmt 0 view .LVU211
 758 002e 0623     		movs	r3, #6
 124:/home/pi/Developer/tinyusb/src/class/hid/hid_device.c ****     TU_VERIFY(0 == tu_memcpy_s(p_epbuf->epin + 1, CFG_TUD_HID_EP_BUFSIZE - 1, report, len));
 759              		.loc 1 124 22 view .LVU212
ARM GAS  /tmp/cc6L0ebi.s 			page 24


 760 0030 1674     		strb	r6, [r2, #16]
 125:/home/pi/Developer/tinyusb/src/class/hid/hid_device.c ****     len++;
 761              		.loc 1 125 5 is_stmt 1 view .LVU213
 125:/home/pi/Developer/tinyusb/src/class/hid/hid_device.c ****     len++;
 762              		.loc 1 125 5 view .LVU214
 763              	.LVL60:
 764              	.LBB103:
 765              	.LBI103:
 137:/home/pi/Developer/tinyusb/src/common/tusb_common.h ****   if (dest == NULL) {
 766              		.loc 3 137 41 view .LVU215
 767              	.LBB104:
 138:/home/pi/Developer/tinyusb/src/common/tusb_common.h ****     return -1;
 768              		.loc 3 138 3 view .LVU216
 142:/home/pi/Developer/tinyusb/src/common/tusb_common.h ****     return 0;
 769              		.loc 3 142 3 view .LVU217
 146:/home/pi/Developer/tinyusb/src/common/tusb_common.h ****     return -1;
 770              		.loc 3 146 3 view .LVU218
 150:/home/pi/Developer/tinyusb/src/common/tusb_common.h ****     return -1;
 771              		.loc 3 150 3 view .LVU219
 154:/home/pi/Developer/tinyusb/src/common/tusb_common.h ****   return 0;
 772              		.loc 3 154 3 view .LVU220
 154:/home/pi/Developer/tinyusb/src/common/tusb_common.h ****   return 0;
 773              		.loc 3 154 10 is_stmt 0 view .LVU221
 774 0032 5574     		strb	r5, [r2, #17]
 775 0034 9474     		strb	r4, [r2, #18]
 776 0036 82F813A0 		strb	r10, [r2, #19]
 777 003a 82F81490 		strb	r9, [r2, #20]
 778 003e 82F81580 		strb	r8, [r2, #21]
 779              		.loc 3 155 3 is_stmt 1 view .LVU222
 780              	.LVL61:
 781              		.loc 3 155 3 is_stmt 0 view .LVU223
 782              	.LBE104:
 783              	.LBE103:
 125:/home/pi/Developer/tinyusb/src/class/hid/hid_device.c ****     len++;
 784              		.loc 1 125 5 is_stmt 1 view .LVU224
 126:/home/pi/Developer/tinyusb/src/class/hid/hid_device.c ****   } else {
 785              		.loc 1 126 5 view .LVU225
 786              	.L62:
 128:/home/pi/Developer/tinyusb/src/class/hid/hid_device.c ****   }
 787              		.loc 1 128 5 view .LVU226
 131:/home/pi/Developer/tinyusb/src/class/hid/hid_device.c **** }
 788              		.loc 1 131 3 view .LVU227
 131:/home/pi/Developer/tinyusb/src/class/hid/hid_device.c **** }
 789              		.loc 1 131 10 is_stmt 0 view .LVU228
 790 0042 0020     		movs	r0, #0
 791 0044 7978     		ldrb	r1, [r7, #1]	@ zero_extendqisi2
 792 0046 0A4A     		ldr	r2, .L68+8
 793 0048 0890     		str	r0, [sp, #32]
 794              	.LVL62:
 131:/home/pi/Developer/tinyusb/src/class/hid/hid_device.c **** }
 795              		.loc 1 131 10 view .LVU229
 796              	.LBE102:
 797              	.LBE101:
 798              	.LBE109:
 799              	.LBE111:
 800              		.loc 1 167 1 view .LVU230
 801 004a BDE8F047 		pop	{r4, r5, r6, r7, r8, r9, r10, lr}
ARM GAS  /tmp/cc6L0ebi.s 			page 25


 802              		.cfi_remember_state
 803              		.cfi_restore 14
 804              		.cfi_restore 10
 805              		.cfi_restore 9
 806              		.cfi_restore 8
 807              		.cfi_restore 7
 808              		.cfi_restore 6
 809              		.cfi_restore 5
 810              		.cfi_restore 4
 811              		.cfi_def_cfa_offset 0
 812              	.LVL63:
 813              	.LBB112:
 814              	.LBB110:
 815              	.LBB108:
 816              	.LBB107:
 131:/home/pi/Developer/tinyusb/src/class/hid/hid_device.c **** }
 817              		.loc 1 131 10 view .LVU231
 818 004e FFF7FEBF 		b	usbd_edpt_xfer
 819              	.LVL64:
 820              	.L61:
 821              		.cfi_restore_state
 128:/home/pi/Developer/tinyusb/src/class/hid/hid_device.c ****   }
 822              		.loc 1 128 5 is_stmt 1 view .LVU232
 128:/home/pi/Developer/tinyusb/src/class/hid/hid_device.c ****   }
 823              		.loc 1 128 5 view .LVU233
 824              	.LBB105:
 825              	.LBI105:
 137:/home/pi/Developer/tinyusb/src/common/tusb_common.h ****   if (dest == NULL) {
 826              		.loc 3 137 41 view .LVU234
 827              	.LBB106:
 138:/home/pi/Developer/tinyusb/src/common/tusb_common.h ****     return -1;
 828              		.loc 3 138 3 view .LVU235
 142:/home/pi/Developer/tinyusb/src/common/tusb_common.h ****     return 0;
 829              		.loc 3 142 3 view .LVU236
 146:/home/pi/Developer/tinyusb/src/common/tusb_common.h ****     return -1;
 830              		.loc 3 146 3 view .LVU237
 150:/home/pi/Developer/tinyusb/src/common/tusb_common.h ****     return -1;
 831              		.loc 3 150 3 view .LVU238
 154:/home/pi/Developer/tinyusb/src/common/tusb_common.h ****   return 0;
 832              		.loc 3 154 3 view .LVU239
 154:/home/pi/Developer/tinyusb/src/common/tusb_common.h ****   return 0;
 833              		.loc 3 154 10 is_stmt 0 view .LVU240
 834 0052 0523     		movs	r3, #5
 835 0054 1574     		strb	r5, [r2, #16]
 836 0056 5474     		strb	r4, [r2, #17]
 837 0058 82F812A0 		strb	r10, [r2, #18]
 838 005c 82F81390 		strb	r9, [r2, #19]
 839 0060 82F81480 		strb	r8, [r2, #20]
 840              		.loc 3 155 3 is_stmt 1 view .LVU241
 841              	.LVL65:
 842              		.loc 3 155 3 is_stmt 0 view .LVU242
 843 0064 EDE7     		b	.L62
 844              	.L69:
 845 0066 00BF     		.align	2
 846              	.L68:
 847 0068 00000000 		.word	.LANCHOR0
 848 006c 00000000 		.word	.LANCHOR1
ARM GAS  /tmp/cc6L0ebi.s 			page 26


 849 0070 10000000 		.word	.LANCHOR1+16
 850              	.LBE106:
 851              	.LBE105:
 852              	.LBE107:
 853              	.LBE108:
 854              	.LBE110:
 855              	.LBE112:
 856              		.cfi_endproc
 857              	.LFE431:
 859              		.section	.text.tud_hid_n_abs_mouse_report,"ax",%progbits
 860              		.align	1
 861              		.p2align 2,,3
 862              		.global	tud_hid_n_abs_mouse_report
 863              		.syntax unified
 864              		.thumb
 865              		.thumb_func
 866              		.fpu fpv5-d16
 868              	tud_hid_n_abs_mouse_report:
 869              	.LVL66:
 870              	.LFB432:
 168:/home/pi/Developer/tinyusb/src/class/hid/hid_device.c **** 
 169:/home/pi/Developer/tinyusb/src/class/hid/hid_device.c **** bool tud_hid_n_abs_mouse_report(uint8_t instance, uint8_t report_id,
 170:/home/pi/Developer/tinyusb/src/class/hid/hid_device.c ****                                 uint8_t buttons, int16_t x, int16_t y, int8_t vertical, int8_t hori
 871              		.loc 1 170 108 is_stmt 1 view -0
 872              		.cfi_startproc
 873              		@ args = 12, pretend = 0, frame = 0
 874              		@ frame_needed = 0, uses_anonymous_args = 0
 171:/home/pi/Developer/tinyusb/src/class/hid/hid_device.c ****   hid_abs_mouse_report_t report = {
 875              		.loc 1 171 3 view .LVU244
 170:/home/pi/Developer/tinyusb/src/class/hid/hid_device.c ****   hid_abs_mouse_report_t report = {
 876              		.loc 1 170 108 is_stmt 0 view .LVU245
 877 0000 2DE9F047 		push	{r4, r5, r6, r7, r8, r9, r10, lr}
 878              		.cfi_def_cfa_offset 32
 879              		.cfi_offset 4, -32
 880              		.cfi_offset 5, -28
 881              		.cfi_offset 6, -24
 882              		.cfi_offset 7, -20
 883              		.cfi_offset 8, -16
 884              		.cfi_offset 9, -12
 885              		.cfi_offset 10, -8
 886              		.cfi_offset 14, -4
 170:/home/pi/Developer/tinyusb/src/class/hid/hid_device.c ****   hid_abs_mouse_report_t report = {
 887              		.loc 1 170 108 view .LVU246
 888 0004 BDF920A0 		ldrsh	r10, [sp, #32]
 889              	.LVL67:
 170:/home/pi/Developer/tinyusb/src/class/hid/hid_device.c ****   hid_abs_mouse_report_t report = {
 890              		.loc 1 170 108 view .LVU247
 891 0008 9DF92490 		ldrsb	r9, [sp, #36]
 892              	.LVL68:
 170:/home/pi/Developer/tinyusb/src/class/hid/hid_device.c ****   hid_abs_mouse_report_t report = {
 893              		.loc 1 170 108 view .LVU248
 894 000c 9DF92880 		ldrsb	r8, [sp, #40]
 895              	.LVL69:
 172:/home/pi/Developer/tinyusb/src/class/hid/hid_device.c ****     .buttons = buttons,
 173:/home/pi/Developer/tinyusb/src/class/hid/hid_device.c ****     .x = x,
 174:/home/pi/Developer/tinyusb/src/class/hid/hid_device.c ****     .y = y,
 175:/home/pi/Developer/tinyusb/src/class/hid/hid_device.c ****     .wheel = vertical,
ARM GAS  /tmp/cc6L0ebi.s 			page 27


 176:/home/pi/Developer/tinyusb/src/class/hid/hid_device.c ****     .pan = horizontal
 177:/home/pi/Developer/tinyusb/src/class/hid/hid_device.c ****   };
 178:/home/pi/Developer/tinyusb/src/class/hid/hid_device.c ****   return tud_hid_n_report(instance, report_id, &report, sizeof(report));
 896              		.loc 1 178 3 is_stmt 1 view .LVU249
 897              	.LBB121:
 898              	.LBI121:
 113:/home/pi/Developer/tinyusb/src/class/hid/hid_device.c ****   TU_VERIFY(instance < CFG_TUD_HID);
 899              		.loc 1 113 6 view .LVU250
 900              	.LBB122:
 114:/home/pi/Developer/tinyusb/src/class/hid/hid_device.c ****   const uint8_t rhport = 0;
 901              		.loc 1 114 3 view .LVU251
 114:/home/pi/Developer/tinyusb/src/class/hid/hid_device.c ****   const uint8_t rhport = 0;
 902              		.loc 1 114 3 view .LVU252
 903 0010 10B1     		cbz	r0, .L80
 904              	.LVL70:
 905              	.L72:
 114:/home/pi/Developer/tinyusb/src/class/hid/hid_device.c ****   const uint8_t rhport = 0;
 906              		.loc 1 114 3 is_stmt 0 view .LVU253
 907              	.LBE122:
 908              	.LBE121:
 179:/home/pi/Developer/tinyusb/src/class/hid/hid_device.c **** }
 909              		.loc 1 179 1 view .LVU254
 910 0012 0020     		movs	r0, #0
 911 0014 BDE8F087 		pop	{r4, r5, r6, r7, r8, r9, r10, pc}
 912              	.LVL71:
 913              	.L80:
 914              	.LBB133:
 915              	.LBB131:
 114:/home/pi/Developer/tinyusb/src/class/hid/hid_device.c ****   const uint8_t rhport = 0;
 916              		.loc 1 114 3 is_stmt 1 view .LVU255
 115:/home/pi/Developer/tinyusb/src/class/hid/hid_device.c ****   hidd_interface_t *p_hid = &_hidd_itf[instance];
 917              		.loc 1 115 3 view .LVU256
 116:/home/pi/Developer/tinyusb/src/class/hid/hid_device.c ****   hidd_epbuf_t *p_epbuf = &_hidd_epbuf[instance];
 918              		.loc 1 116 3 view .LVU257
 117:/home/pi/Developer/tinyusb/src/class/hid/hid_device.c **** 
 919              		.loc 1 117 3 view .LVU258
 120:/home/pi/Developer/tinyusb/src/class/hid/hid_device.c **** 
 920              		.loc 1 120 3 view .LVU259
 120:/home/pi/Developer/tinyusb/src/class/hid/hid_device.c **** 
 921              		.loc 1 120 3 view .LVU260
 922 0018 134F     		ldr	r7, .L81
 923 001a 0E46     		mov	r6, r1
 924 001c 1546     		mov	r5, r2
 925 001e 1C46     		mov	r4, r3
 926 0020 7978     		ldrb	r1, [r7, #1]	@ zero_extendqisi2
 927              	.LVL72:
 120:/home/pi/Developer/tinyusb/src/class/hid/hid_device.c **** 
 928              		.loc 1 120 3 is_stmt 0 view .LVU261
 929 0022 FFF7FEFF 		bl	usbd_edpt_claim
 930              	.LVL73:
 120:/home/pi/Developer/tinyusb/src/class/hid/hid_device.c **** 
 931              		.loc 1 120 3 view .LVU262
 932 0026 0028     		cmp	r0, #0
 933 0028 F3D0     		beq	.L72
 934              	.LVL74:
 935              	.LBB123:
 936              	.LBI123:
ARM GAS  /tmp/cc6L0ebi.s 			page 28


 113:/home/pi/Developer/tinyusb/src/class/hid/hid_device.c ****   TU_VERIFY(instance < CFG_TUD_HID);
 937              		.loc 1 113 6 is_stmt 1 view .LVU263
 938              	.LBB124:
 120:/home/pi/Developer/tinyusb/src/class/hid/hid_device.c **** 
 939              		.loc 1 120 3 view .LVU264
 123:/home/pi/Developer/tinyusb/src/class/hid/hid_device.c ****     p_epbuf->epin[0] = report_id;
 940              		.loc 1 123 3 view .LVU265
 124:/home/pi/Developer/tinyusb/src/class/hid/hid_device.c ****     TU_VERIFY(0 == tu_memcpy_s(p_epbuf->epin + 1, CFG_TUD_HID_EP_BUFSIZE - 1, report, len));
 941              		.loc 1 124 22 is_stmt 0 view .LVU266
 942 002a 104A     		ldr	r2, .L81+4
 123:/home/pi/Developer/tinyusb/src/class/hid/hid_device.c ****     p_epbuf->epin[0] = report_id;
 943              		.loc 1 123 6 view .LVU267
 944 002c 8EB1     		cbz	r6, .L74
 124:/home/pi/Developer/tinyusb/src/class/hid/hid_device.c ****     TU_VERIFY(0 == tu_memcpy_s(p_epbuf->epin + 1, CFG_TUD_HID_EP_BUFSIZE - 1, report, len));
 945              		.loc 1 124 5 is_stmt 1 view .LVU268
 126:/home/pi/Developer/tinyusb/src/class/hid/hid_device.c ****   } else {
 946              		.loc 1 126 8 is_stmt 0 view .LVU269
 947 002e 0823     		movs	r3, #8
 124:/home/pi/Developer/tinyusb/src/class/hid/hid_device.c ****     TU_VERIFY(0 == tu_memcpy_s(p_epbuf->epin + 1, CFG_TUD_HID_EP_BUFSIZE - 1, report, len));
 948              		.loc 1 124 22 view .LVU270
 949 0030 1674     		strb	r6, [r2, #16]
 125:/home/pi/Developer/tinyusb/src/class/hid/hid_device.c ****     len++;
 950              		.loc 1 125 5 is_stmt 1 view .LVU271
 125:/home/pi/Developer/tinyusb/src/class/hid/hid_device.c ****     len++;
 951              		.loc 1 125 5 view .LVU272
 952              	.LVL75:
 953              	.LBB125:
 954              	.LBI125:
 137:/home/pi/Developer/tinyusb/src/common/tusb_common.h ****   if (dest == NULL) {
 955              		.loc 3 137 41 view .LVU273
 956              	.LBB126:
 138:/home/pi/Developer/tinyusb/src/common/tusb_common.h ****     return -1;
 957              		.loc 3 138 3 view .LVU274
 142:/home/pi/Developer/tinyusb/src/common/tusb_common.h ****     return 0;
 958              		.loc 3 142 3 view .LVU275
 146:/home/pi/Developer/tinyusb/src/common/tusb_common.h ****     return -1;
 959              		.loc 3 146 3 view .LVU276
 150:/home/pi/Developer/tinyusb/src/common/tusb_common.h ****     return -1;
 960              		.loc 3 150 3 view .LVU277
 154:/home/pi/Developer/tinyusb/src/common/tusb_common.h ****   return 0;
 961              		.loc 3 154 3 view .LVU278
 154:/home/pi/Developer/tinyusb/src/common/tusb_common.h ****   return 0;
 962              		.loc 3 154 10 is_stmt 0 view .LVU279
 963 0032 5574     		strb	r5, [r2, #17]
 964 0034 5482     		strh	r4, [r2, #18]	@ movhi
 965 0036 A2F814A0 		strh	r10, [r2, #20]	@ movhi
 966 003a 82F81690 		strb	r9, [r2, #22]
 967 003e 82F81780 		strb	r8, [r2, #23]
 968              		.loc 3 155 3 is_stmt 1 view .LVU280
 969              	.LVL76:
 970              		.loc 3 155 3 is_stmt 0 view .LVU281
 971              	.LBE126:
 972              	.LBE125:
 125:/home/pi/Developer/tinyusb/src/class/hid/hid_device.c ****     len++;
 973              		.loc 1 125 5 is_stmt 1 view .LVU282
 126:/home/pi/Developer/tinyusb/src/class/hid/hid_device.c ****   } else {
 974              		.loc 1 126 5 view .LVU283
ARM GAS  /tmp/cc6L0ebi.s 			page 29


 975              	.L75:
 128:/home/pi/Developer/tinyusb/src/class/hid/hid_device.c ****   }
 976              		.loc 1 128 5 view .LVU284
 131:/home/pi/Developer/tinyusb/src/class/hid/hid_device.c **** }
 977              		.loc 1 131 3 view .LVU285
 131:/home/pi/Developer/tinyusb/src/class/hid/hid_device.c **** }
 978              		.loc 1 131 10 is_stmt 0 view .LVU286
 979 0042 0020     		movs	r0, #0
 980 0044 7978     		ldrb	r1, [r7, #1]	@ zero_extendqisi2
 981 0046 0A4A     		ldr	r2, .L81+8
 982 0048 0890     		str	r0, [sp, #32]
 983              	.LVL77:
 131:/home/pi/Developer/tinyusb/src/class/hid/hid_device.c **** }
 984              		.loc 1 131 10 view .LVU287
 985              	.LBE124:
 986              	.LBE123:
 987              	.LBE131:
 988              	.LBE133:
 989              		.loc 1 179 1 view .LVU288
 990 004a BDE8F047 		pop	{r4, r5, r6, r7, r8, r9, r10, lr}
 991              		.cfi_remember_state
 992              		.cfi_restore 14
 993              		.cfi_restore 10
 994              		.cfi_restore 9
 995              		.cfi_restore 8
 996              		.cfi_restore 7
 997              		.cfi_restore 6
 998              		.cfi_restore 5
 999              		.cfi_restore 4
 1000              		.cfi_def_cfa_offset 0
 1001              	.LVL78:
 1002              	.LBB134:
 1003              	.LBB132:
 1004              	.LBB130:
 1005              	.LBB129:
 131:/home/pi/Developer/tinyusb/src/class/hid/hid_device.c **** }
 1006              		.loc 1 131 10 view .LVU289
 1007 004e FFF7FEBF 		b	usbd_edpt_xfer
 1008              	.LVL79:
 1009              	.L74:
 1010              		.cfi_restore_state
 128:/home/pi/Developer/tinyusb/src/class/hid/hid_device.c ****   }
 1011              		.loc 1 128 5 is_stmt 1 view .LVU290
 128:/home/pi/Developer/tinyusb/src/class/hid/hid_device.c ****   }
 1012              		.loc 1 128 5 view .LVU291
 1013              	.LBB127:
 1014              	.LBI127:
 137:/home/pi/Developer/tinyusb/src/common/tusb_common.h ****   if (dest == NULL) {
 1015              		.loc 3 137 41 view .LVU292
 1016              	.LBB128:
 138:/home/pi/Developer/tinyusb/src/common/tusb_common.h ****     return -1;
 1017              		.loc 3 138 3 view .LVU293
 142:/home/pi/Developer/tinyusb/src/common/tusb_common.h ****     return 0;
 1018              		.loc 3 142 3 view .LVU294
 146:/home/pi/Developer/tinyusb/src/common/tusb_common.h ****     return -1;
 1019              		.loc 3 146 3 view .LVU295
 150:/home/pi/Developer/tinyusb/src/common/tusb_common.h ****     return -1;
ARM GAS  /tmp/cc6L0ebi.s 			page 30


 1020              		.loc 3 150 3 view .LVU296
 154:/home/pi/Developer/tinyusb/src/common/tusb_common.h ****   return 0;
 1021              		.loc 3 154 3 view .LVU297
 154:/home/pi/Developer/tinyusb/src/common/tusb_common.h ****   return 0;
 1022              		.loc 3 154 10 is_stmt 0 view .LVU298
 1023 0052 0723     		movs	r3, #7
 1024 0054 1574     		strb	r5, [r2, #16]
 1025 0056 A2F81140 		strh	r4, [r2, #17]	@ unaligned
 1026 005a A2F813A0 		strh	r10, [r2, #19]	@ unaligned
 1027 005e 82F81590 		strb	r9, [r2, #21]
 1028 0062 82F81680 		strb	r8, [r2, #22]
 1029              		.loc 3 155 3 is_stmt 1 view .LVU299
 1030              	.LVL80:
 1031              		.loc 3 155 3 is_stmt 0 view .LVU300
 1032 0066 ECE7     		b	.L75
 1033              	.L82:
 1034              		.align	2
 1035              	.L81:
 1036 0068 00000000 		.word	.LANCHOR0
 1037 006c 00000000 		.word	.LANCHOR1
 1038 0070 10000000 		.word	.LANCHOR1+16
 1039              	.LBE128:
 1040              	.LBE127:
 1041              	.LBE129:
 1042              	.LBE130:
 1043              	.LBE132:
 1044              	.LBE134:
 1045              		.cfi_endproc
 1046              	.LFE432:
 1048              		.section	.text.tud_hid_n_gamepad_report,"ax",%progbits
 1049              		.align	1
 1050              		.p2align 2,,3
 1051              		.global	tud_hid_n_gamepad_report
 1052              		.syntax unified
 1053              		.thumb
 1054              		.thumb_func
 1055              		.fpu fpv5-d16
 1057              	tud_hid_n_gamepad_report:
 1058              	.LVL81:
 1059              	.LFB433:
 180:/home/pi/Developer/tinyusb/src/class/hid/hid_device.c **** 
 181:/home/pi/Developer/tinyusb/src/class/hid/hid_device.c **** bool tud_hid_n_gamepad_report(uint8_t instance, uint8_t report_id,
 182:/home/pi/Developer/tinyusb/src/class/hid/hid_device.c ****                               int8_t x, int8_t y, int8_t z, int8_t rz, int8_t rx, int8_t ry, uint8_
 1060              		.loc 1 182 125 is_stmt 1 view -0
 1061              		.cfi_startproc
 1062              		@ args = 24, pretend = 0, frame = 8
 1063              		@ frame_needed = 0, uses_anonymous_args = 0
 183:/home/pi/Developer/tinyusb/src/class/hid/hid_device.c ****   hid_gamepad_report_t report = {
 1064              		.loc 1 183 3 view .LVU302
 182:/home/pi/Developer/tinyusb/src/class/hid/hid_device.c ****   hid_gamepad_report_t report = {
 1065              		.loc 1 182 125 is_stmt 0 view .LVU303
 1066 0000 2DE9F04F 		push	{r4, r5, r6, r7, r8, r9, r10, fp, lr}
 1067              		.cfi_def_cfa_offset 36
 1068              		.cfi_offset 4, -36
 1069              		.cfi_offset 5, -32
 1070              		.cfi_offset 6, -28
 1071              		.cfi_offset 7, -24
ARM GAS  /tmp/cc6L0ebi.s 			page 31


 1072              		.cfi_offset 8, -20
 1073              		.cfi_offset 9, -16
 1074              		.cfi_offset 10, -12
 1075              		.cfi_offset 11, -8
 1076              		.cfi_offset 14, -4
 1077 0004 83B0     		sub	sp, sp, #12
 1078              		.cfi_def_cfa_offset 48
 182:/home/pi/Developer/tinyusb/src/class/hid/hid_device.c ****   hid_gamepad_report_t report = {
 1079              		.loc 1 182 125 view .LVU304
 1080 0006 1646     		mov	r6, r2
 1081              	.LVL82:
 182:/home/pi/Developer/tinyusb/src/class/hid/hid_device.c ****   hid_gamepad_report_t report = {
 1082              		.loc 1 182 125 view .LVU305
 1083 0008 1D46     		mov	r5, r3
 1084              	.LVL83:
 182:/home/pi/Developer/tinyusb/src/class/hid/hid_device.c ****   hid_gamepad_report_t report = {
 1085              		.loc 1 182 125 view .LVU306
 1086 000a 9DF93020 		ldrsb	r2, [sp, #48]
 1087              	.LVL84:
 182:/home/pi/Developer/tinyusb/src/class/hid/hid_device.c ****   hid_gamepad_report_t report = {
 1088              		.loc 1 182 125 view .LVU307
 1089 000e 9DF93430 		ldrsb	r3, [sp, #52]
 1090              	.LVL85:
 182:/home/pi/Developer/tinyusb/src/class/hid/hid_device.c ****   hid_gamepad_report_t report = {
 1091              		.loc 1 182 125 view .LVU308
 1092 0012 9DF938B0 		ldrsb	fp, [sp, #56]
 1093 0016 9DF93CA0 		ldrsb	r10, [sp, #60]
 1094 001a 9DF84090 		ldrb	r9, [sp, #64]	@ zero_extendqisi2
 1095 001e DDF84480 		ldr	r8, [sp, #68]
 1096 0022 0192     		str	r2, [sp, #4]
 1097              	.LVL86:
 182:/home/pi/Developer/tinyusb/src/class/hid/hid_device.c ****   hid_gamepad_report_t report = {
 1098              		.loc 1 182 125 view .LVU309
 1099 0024 0093     		str	r3, [sp]
 1100              	.LVL87:
 184:/home/pi/Developer/tinyusb/src/class/hid/hid_device.c ****       .x = x,
 185:/home/pi/Developer/tinyusb/src/class/hid/hid_device.c ****       .y = y,
 186:/home/pi/Developer/tinyusb/src/class/hid/hid_device.c ****       .z = z,
 187:/home/pi/Developer/tinyusb/src/class/hid/hid_device.c ****       .rz = rz,
 188:/home/pi/Developer/tinyusb/src/class/hid/hid_device.c ****       .rx = rx,
 189:/home/pi/Developer/tinyusb/src/class/hid/hid_device.c ****       .ry = ry,
 190:/home/pi/Developer/tinyusb/src/class/hid/hid_device.c ****       .hat = hat,
 191:/home/pi/Developer/tinyusb/src/class/hid/hid_device.c ****       .buttons = buttons,
 192:/home/pi/Developer/tinyusb/src/class/hid/hid_device.c ****   };
 193:/home/pi/Developer/tinyusb/src/class/hid/hid_device.c **** 
 194:/home/pi/Developer/tinyusb/src/class/hid/hid_device.c ****   return tud_hid_n_report(instance, report_id, &report, sizeof(report));
 1101              		.loc 1 194 3 is_stmt 1 view .LVU310
 1102              	.LBB143:
 1103              	.LBI143:
 113:/home/pi/Developer/tinyusb/src/class/hid/hid_device.c ****   TU_VERIFY(instance < CFG_TUD_HID);
 1104              		.loc 1 113 6 view .LVU311
 1105              	.LBB144:
 114:/home/pi/Developer/tinyusb/src/class/hid/hid_device.c ****   const uint8_t rhport = 0;
 1106              		.loc 1 114 3 view .LVU312
 114:/home/pi/Developer/tinyusb/src/class/hid/hid_device.c ****   const uint8_t rhport = 0;
 1107              		.loc 1 114 3 view .LVU313
 1108 0026 18B1     		cbz	r0, .L93
ARM GAS  /tmp/cc6L0ebi.s 			page 32


 1109              	.LVL88:
 1110              	.L85:
 114:/home/pi/Developer/tinyusb/src/class/hid/hid_device.c ****   const uint8_t rhport = 0;
 1111              		.loc 1 114 3 is_stmt 0 view .LVU314
 1112              	.LBE144:
 1113              	.LBE143:
 195:/home/pi/Developer/tinyusb/src/class/hid/hid_device.c **** }
 1114              		.loc 1 195 1 view .LVU315
 1115 0028 0020     		movs	r0, #0
 1116 002a 03B0     		add	sp, sp, #12
 1117              		.cfi_remember_state
 1118              		.cfi_def_cfa_offset 36
 1119              		@ sp needed
 1120 002c BDE8F08F 		pop	{r4, r5, r6, r7, r8, r9, r10, fp, pc}
 1121              	.LVL89:
 1122              	.L93:
 1123              		.cfi_restore_state
 1124              	.LBB157:
 1125              	.LBB155:
 114:/home/pi/Developer/tinyusb/src/class/hid/hid_device.c ****   const uint8_t rhport = 0;
 1126              		.loc 1 114 3 is_stmt 1 view .LVU316
 115:/home/pi/Developer/tinyusb/src/class/hid/hid_device.c ****   hidd_interface_t *p_hid = &_hidd_itf[instance];
 1127              		.loc 1 115 3 view .LVU317
 116:/home/pi/Developer/tinyusb/src/class/hid/hid_device.c ****   hidd_epbuf_t *p_epbuf = &_hidd_epbuf[instance];
 1128              		.loc 1 116 3 view .LVU318
 117:/home/pi/Developer/tinyusb/src/class/hid/hid_device.c **** 
 1129              		.loc 1 117 3 view .LVU319
 120:/home/pi/Developer/tinyusb/src/class/hid/hid_device.c **** 
 1130              		.loc 1 120 3 view .LVU320
 120:/home/pi/Developer/tinyusb/src/class/hid/hid_device.c **** 
 1131              		.loc 1 120 3 view .LVU321
 1132 0030 174F     		ldr	r7, .L94
 1133 0032 0C46     		mov	r4, r1
 1134 0034 7978     		ldrb	r1, [r7, #1]	@ zero_extendqisi2
 1135              	.LVL90:
 120:/home/pi/Developer/tinyusb/src/class/hid/hid_device.c **** 
 1136              		.loc 1 120 3 is_stmt 0 view .LVU322
 1137 0036 FFF7FEFF 		bl	usbd_edpt_claim
 1138              	.LVL91:
 120:/home/pi/Developer/tinyusb/src/class/hid/hid_device.c **** 
 1139              		.loc 1 120 3 view .LVU323
 1140 003a 0028     		cmp	r0, #0
 1141 003c F4D0     		beq	.L85
 1142              	.LVL92:
 1143              	.LBB145:
 1144              	.LBI145:
 113:/home/pi/Developer/tinyusb/src/class/hid/hid_device.c ****   TU_VERIFY(instance < CFG_TUD_HID);
 1145              		.loc 1 113 6 is_stmt 1 view .LVU324
 1146              	.LBB146:
 120:/home/pi/Developer/tinyusb/src/class/hid/hid_device.c **** 
 1147              		.loc 1 120 3 view .LVU325
 123:/home/pi/Developer/tinyusb/src/class/hid/hid_device.c ****     p_epbuf->epin[0] = report_id;
 1148              		.loc 1 123 3 view .LVU326
 124:/home/pi/Developer/tinyusb/src/class/hid/hid_device.c ****     TU_VERIFY(0 == tu_memcpy_s(p_epbuf->epin + 1, CFG_TUD_HID_EP_BUFSIZE - 1, report, len));
 1149              		.loc 1 124 22 is_stmt 0 view .LVU327
 1150 003e 1549     		ldr	r1, .L94+4
 123:/home/pi/Developer/tinyusb/src/class/hid/hid_device.c ****     p_epbuf->epin[0] = report_id;
ARM GAS  /tmp/cc6L0ebi.s 			page 33


 1151              		.loc 1 123 6 view .LVU328
 1152 0040 DDE90032 		ldrd	r3, r2, [sp]
 1153 0044 B4B1     		cbz	r4, .L87
 124:/home/pi/Developer/tinyusb/src/class/hid/hid_device.c ****     TU_VERIFY(0 == tu_memcpy_s(p_epbuf->epin + 1, CFG_TUD_HID_EP_BUFSIZE - 1, report, len));
 1154              		.loc 1 124 5 is_stmt 1 view .LVU329
 1155              	.LBB147:
 1156              	.LBB148:
 154:/home/pi/Developer/tinyusb/src/common/tusb_common.h ****   return 0;
 1157              		.loc 3 154 10 is_stmt 0 view .LVU330
 1158 0046 0B75     		strb	r3, [r1, #20]
 1159              	.LBE148:
 1160              	.LBE147:
 126:/home/pi/Developer/tinyusb/src/class/hid/hid_device.c ****   } else {
 1161              		.loc 1 126 8 view .LVU331
 1162 0048 0C23     		movs	r3, #12
 124:/home/pi/Developer/tinyusb/src/class/hid/hid_device.c ****     TU_VERIFY(0 == tu_memcpy_s(p_epbuf->epin + 1, CFG_TUD_HID_EP_BUFSIZE - 1, report, len));
 1163              		.loc 1 124 22 view .LVU332
 1164 004a 0C74     		strb	r4, [r1, #16]
 125:/home/pi/Developer/tinyusb/src/class/hid/hid_device.c ****     len++;
 1165              		.loc 1 125 5 is_stmt 1 view .LVU333
 125:/home/pi/Developer/tinyusb/src/class/hid/hid_device.c ****     len++;
 1166              		.loc 1 125 5 view .LVU334
 1167              	.LVL93:
 1168              	.LBB150:
 1169              	.LBI147:
 137:/home/pi/Developer/tinyusb/src/common/tusb_common.h ****   if (dest == NULL) {
 1170              		.loc 3 137 41 view .LVU335
 1171              	.LBB149:
 138:/home/pi/Developer/tinyusb/src/common/tusb_common.h ****     return -1;
 1172              		.loc 3 138 3 view .LVU336
 142:/home/pi/Developer/tinyusb/src/common/tusb_common.h ****     return 0;
 1173              		.loc 3 142 3 view .LVU337
 146:/home/pi/Developer/tinyusb/src/common/tusb_common.h ****     return -1;
 1174              		.loc 3 146 3 view .LVU338
 150:/home/pi/Developer/tinyusb/src/common/tusb_common.h ****     return -1;
 1175              		.loc 3 150 3 view .LVU339
 154:/home/pi/Developer/tinyusb/src/common/tusb_common.h ****   return 0;
 1176              		.loc 3 154 3 view .LVU340
 154:/home/pi/Developer/tinyusb/src/common/tusb_common.h ****   return 0;
 1177              		.loc 3 154 10 is_stmt 0 view .LVU341
 1178 004c 4E74     		strb	r6, [r1, #17]
 1179 004e 8D74     		strb	r5, [r1, #18]
 1180 0050 CA74     		strb	r2, [r1, #19]
 1181 0052 81F815B0 		strb	fp, [r1, #21]
 1182 0056 81F816A0 		strb	r10, [r1, #22]
 1183 005a 81F81790 		strb	r9, [r1, #23]
 1184 005e C1F81880 		str	r8, [r1, #24]
 1185              		.loc 3 155 3 is_stmt 1 view .LVU342
 1186              	.LVL94:
 1187              		.loc 3 155 3 is_stmt 0 view .LVU343
 1188              	.LBE149:
 1189              	.LBE150:
 125:/home/pi/Developer/tinyusb/src/class/hid/hid_device.c ****     len++;
 1190              		.loc 1 125 5 is_stmt 1 view .LVU344
 126:/home/pi/Developer/tinyusb/src/class/hid/hid_device.c ****   } else {
 1191              		.loc 1 126 5 view .LVU345
 1192              	.L88:
ARM GAS  /tmp/cc6L0ebi.s 			page 34


 128:/home/pi/Developer/tinyusb/src/class/hid/hid_device.c ****   }
 1193              		.loc 1 128 5 view .LVU346
 131:/home/pi/Developer/tinyusb/src/class/hid/hid_device.c **** }
 1194              		.loc 1 131 3 view .LVU347
 131:/home/pi/Developer/tinyusb/src/class/hid/hid_device.c **** }
 1195              		.loc 1 131 10 is_stmt 0 view .LVU348
 1196 0062 0020     		movs	r0, #0
 1197 0064 0C4A     		ldr	r2, .L94+8
 1198 0066 7978     		ldrb	r1, [r7, #1]	@ zero_extendqisi2
 1199 0068 0C90     		str	r0, [sp, #48]
 1200              	.LVL95:
 131:/home/pi/Developer/tinyusb/src/class/hid/hid_device.c **** }
 1201              		.loc 1 131 10 view .LVU349
 1202              	.LBE146:
 1203              	.LBE145:
 1204              	.LBE155:
 1205              	.LBE157:
 1206              		.loc 1 195 1 view .LVU350
 1207 006a 03B0     		add	sp, sp, #12
 1208              		.cfi_remember_state
 1209              		.cfi_def_cfa_offset 36
 1210              	.LVL96:
 1211              		.loc 1 195 1 view .LVU351
 1212              		@ sp needed
 1213 006c BDE8F04F 		pop	{r4, r5, r6, r7, r8, r9, r10, fp, lr}
 1214              		.cfi_restore 14
 1215              		.cfi_restore 11
 1216              		.cfi_restore 10
 1217              		.cfi_restore 9
 1218              		.cfi_restore 8
 1219              		.cfi_restore 7
 1220              		.cfi_restore 6
 1221              		.cfi_restore 5
 1222              		.cfi_restore 4
 1223              		.cfi_def_cfa_offset 0
 1224              	.LVL97:
 1225              	.LBB158:
 1226              	.LBB156:
 1227              	.LBB154:
 1228              	.LBB153:
 131:/home/pi/Developer/tinyusb/src/class/hid/hid_device.c **** }
 1229              		.loc 1 131 10 view .LVU352
 1230 0070 FFF7FEBF 		b	usbd_edpt_xfer
 1231              	.LVL98:
 1232              	.L87:
 1233              		.cfi_restore_state
 128:/home/pi/Developer/tinyusb/src/class/hid/hid_device.c ****   }
 1234              		.loc 1 128 5 is_stmt 1 view .LVU353
 128:/home/pi/Developer/tinyusb/src/class/hid/hid_device.c ****   }
 1235              		.loc 1 128 5 view .LVU354
 1236              	.LBB151:
 1237              	.LBI151:
 137:/home/pi/Developer/tinyusb/src/common/tusb_common.h ****   if (dest == NULL) {
 1238              		.loc 3 137 41 view .LVU355
 1239              	.LBB152:
 138:/home/pi/Developer/tinyusb/src/common/tusb_common.h ****     return -1;
 1240              		.loc 3 138 3 view .LVU356
ARM GAS  /tmp/cc6L0ebi.s 			page 35


 142:/home/pi/Developer/tinyusb/src/common/tusb_common.h ****     return 0;
 1241              		.loc 3 142 3 view .LVU357
 146:/home/pi/Developer/tinyusb/src/common/tusb_common.h ****     return -1;
 1242              		.loc 3 146 3 view .LVU358
 150:/home/pi/Developer/tinyusb/src/common/tusb_common.h ****     return -1;
 1243              		.loc 3 150 3 view .LVU359
 154:/home/pi/Developer/tinyusb/src/common/tusb_common.h ****   return 0;
 1244              		.loc 3 154 3 view .LVU360
 154:/home/pi/Developer/tinyusb/src/common/tusb_common.h ****   return 0;
 1245              		.loc 3 154 10 is_stmt 0 view .LVU361
 1246 0074 CB74     		strb	r3, [r1, #19]
 1247 0076 0B23     		movs	r3, #11
 1248 0078 0E74     		strb	r6, [r1, #16]
 1249 007a 4D74     		strb	r5, [r1, #17]
 1250 007c 8A74     		strb	r2, [r1, #18]
 1251 007e 81F814B0 		strb	fp, [r1, #20]
 1252 0082 81F815A0 		strb	r10, [r1, #21]
 1253 0086 81F81690 		strb	r9, [r1, #22]
 1254 008a C1F81780 		str	r8, [r1, #23]	@ unaligned
 1255              		.loc 3 155 3 is_stmt 1 view .LVU362
 1256              	.LVL99:
 1257              		.loc 3 155 3 is_stmt 0 view .LVU363
 1258 008e E8E7     		b	.L88
 1259              	.L95:
 1260              		.align	2
 1261              	.L94:
 1262 0090 00000000 		.word	.LANCHOR0
 1263 0094 00000000 		.word	.LANCHOR1
 1264 0098 10000000 		.word	.LANCHOR1+16
 1265              	.LBE152:
 1266              	.LBE151:
 1267              	.LBE153:
 1268              	.LBE154:
 1269              	.LBE156:
 1270              	.LBE158:
 1271              		.cfi_endproc
 1272              	.LFE433:
 1274              		.section	.text.tud_hid_n_stylus_report,"ax",%progbits
 1275              		.align	1
 1276              		.p2align 2,,3
 1277              		.global	tud_hid_n_stylus_report
 1278              		.syntax unified
 1279              		.thumb
 1280              		.thumb_func
 1281              		.fpu fpv5-d16
 1283              	tud_hid_n_stylus_report:
 1284              	.LVL100:
 1285              	.LFB434:
 196:/home/pi/Developer/tinyusb/src/class/hid/hid_device.c **** 
 197:/home/pi/Developer/tinyusb/src/class/hid/hid_device.c **** bool tud_hid_n_stylus_report(uint8_t instance, uint8_t report_id, uint8_t attrs, uint16_t x, uint16
 1286              		.loc 1 197 106 is_stmt 1 view -0
 1287              		.cfi_startproc
 1288              		@ args = 4, pretend = 0, frame = 0
 1289              		@ frame_needed = 0, uses_anonymous_args = 0
 198:/home/pi/Developer/tinyusb/src/class/hid/hid_device.c ****   hid_stylus_report_t report = {
 1290              		.loc 1 198 3 view .LVU365
 197:/home/pi/Developer/tinyusb/src/class/hid/hid_device.c ****   hid_stylus_report_t report = {
ARM GAS  /tmp/cc6L0ebi.s 			page 36


 1291              		.loc 1 197 106 is_stmt 0 view .LVU366
 1292 0000 2DE9F041 		push	{r4, r5, r6, r7, r8, lr}
 1293              		.cfi_def_cfa_offset 24
 1294              		.cfi_offset 4, -24
 1295              		.cfi_offset 5, -20
 1296              		.cfi_offset 6, -16
 1297              		.cfi_offset 7, -12
 1298              		.cfi_offset 8, -8
 1299              		.cfi_offset 14, -4
 197:/home/pi/Developer/tinyusb/src/class/hid/hid_device.c ****   hid_stylus_report_t report = {
 1300              		.loc 1 197 106 view .LVU367
 1301 0004 BDF81880 		ldrh	r8, [sp, #24]
 1302              	.LVL101:
 199:/home/pi/Developer/tinyusb/src/class/hid/hid_device.c ****     .attr = attrs,
 200:/home/pi/Developer/tinyusb/src/class/hid/hid_device.c ****     .x = x,
 201:/home/pi/Developer/tinyusb/src/class/hid/hid_device.c ****     .y = y,
 202:/home/pi/Developer/tinyusb/src/class/hid/hid_device.c ****   };
 203:/home/pi/Developer/tinyusb/src/class/hid/hid_device.c **** 
 204:/home/pi/Developer/tinyusb/src/class/hid/hid_device.c ****   return tud_hid_n_report(instance, report_id, &report, sizeof(report));
 1303              		.loc 1 204 3 is_stmt 1 view .LVU368
 1304              	.LBB167:
 1305              	.LBI167:
 113:/home/pi/Developer/tinyusb/src/class/hid/hid_device.c ****   TU_VERIFY(instance < CFG_TUD_HID);
 1306              		.loc 1 113 6 view .LVU369
 1307              	.LBB168:
 114:/home/pi/Developer/tinyusb/src/class/hid/hid_device.c ****   const uint8_t rhport = 0;
 1308              		.loc 1 114 3 view .LVU370
 114:/home/pi/Developer/tinyusb/src/class/hid/hid_device.c ****   const uint8_t rhport = 0;
 1309              		.loc 1 114 3 view .LVU371
 1310 0008 10B1     		cbz	r0, .L106
 1311              	.LVL102:
 1312              	.L98:
 114:/home/pi/Developer/tinyusb/src/class/hid/hid_device.c ****   const uint8_t rhport = 0;
 1313              		.loc 1 114 3 is_stmt 0 view .LVU372
 1314              	.LBE168:
 1315              	.LBE167:
 205:/home/pi/Developer/tinyusb/src/class/hid/hid_device.c **** }
 1316              		.loc 1 205 1 view .LVU373
 1317 000a 0020     		movs	r0, #0
 1318 000c BDE8F081 		pop	{r4, r5, r6, r7, r8, pc}
 1319              	.LVL103:
 1320              	.L106:
 1321              	.LBB179:
 1322              	.LBB177:
 114:/home/pi/Developer/tinyusb/src/class/hid/hid_device.c ****   const uint8_t rhport = 0;
 1323              		.loc 1 114 3 is_stmt 1 view .LVU374
 115:/home/pi/Developer/tinyusb/src/class/hid/hid_device.c ****   hidd_interface_t *p_hid = &_hidd_itf[instance];
 1324              		.loc 1 115 3 view .LVU375
 116:/home/pi/Developer/tinyusb/src/class/hid/hid_device.c ****   hidd_epbuf_t *p_epbuf = &_hidd_epbuf[instance];
 1325              		.loc 1 116 3 view .LVU376
 117:/home/pi/Developer/tinyusb/src/class/hid/hid_device.c **** 
 1326              		.loc 1 117 3 view .LVU377
 120:/home/pi/Developer/tinyusb/src/class/hid/hid_device.c **** 
 1327              		.loc 1 120 3 view .LVU378
 120:/home/pi/Developer/tinyusb/src/class/hid/hid_device.c **** 
 1328              		.loc 1 120 3 view .LVU379
 1329 0010 0F4F     		ldr	r7, .L107
ARM GAS  /tmp/cc6L0ebi.s 			page 37


 1330 0012 0C46     		mov	r4, r1
 1331 0014 1646     		mov	r6, r2
 1332 0016 1D46     		mov	r5, r3
 1333 0018 7978     		ldrb	r1, [r7, #1]	@ zero_extendqisi2
 1334              	.LVL104:
 120:/home/pi/Developer/tinyusb/src/class/hid/hid_device.c **** 
 1335              		.loc 1 120 3 is_stmt 0 view .LVU380
 1336 001a FFF7FEFF 		bl	usbd_edpt_claim
 1337              	.LVL105:
 120:/home/pi/Developer/tinyusb/src/class/hid/hid_device.c **** 
 1338              		.loc 1 120 3 view .LVU381
 1339 001e 0028     		cmp	r0, #0
 1340 0020 F3D0     		beq	.L98
 1341              	.LVL106:
 1342              	.LBB169:
 1343              	.LBI169:
 113:/home/pi/Developer/tinyusb/src/class/hid/hid_device.c ****   TU_VERIFY(instance < CFG_TUD_HID);
 1344              		.loc 1 113 6 is_stmt 1 view .LVU382
 1345              	.LBB170:
 120:/home/pi/Developer/tinyusb/src/class/hid/hid_device.c **** 
 1346              		.loc 1 120 3 view .LVU383
 123:/home/pi/Developer/tinyusb/src/class/hid/hid_device.c ****     p_epbuf->epin[0] = report_id;
 1347              		.loc 1 123 3 view .LVU384
 124:/home/pi/Developer/tinyusb/src/class/hid/hid_device.c ****     TU_VERIFY(0 == tu_memcpy_s(p_epbuf->epin + 1, CFG_TUD_HID_EP_BUFSIZE - 1, report, len));
 1348              		.loc 1 124 22 is_stmt 0 view .LVU385
 1349 0022 0C4A     		ldr	r2, .L107+4
 123:/home/pi/Developer/tinyusb/src/class/hid/hid_device.c ****     p_epbuf->epin[0] = report_id;
 1350              		.loc 1 123 6 view .LVU386
 1351 0024 6CB1     		cbz	r4, .L100
 124:/home/pi/Developer/tinyusb/src/class/hid/hid_device.c ****     TU_VERIFY(0 == tu_memcpy_s(p_epbuf->epin + 1, CFG_TUD_HID_EP_BUFSIZE - 1, report, len));
 1352              		.loc 1 124 5 is_stmt 1 view .LVU387
 126:/home/pi/Developer/tinyusb/src/class/hid/hid_device.c ****   } else {
 1353              		.loc 1 126 8 is_stmt 0 view .LVU388
 1354 0026 0623     		movs	r3, #6
 124:/home/pi/Developer/tinyusb/src/class/hid/hid_device.c ****     TU_VERIFY(0 == tu_memcpy_s(p_epbuf->epin + 1, CFG_TUD_HID_EP_BUFSIZE - 1, report, len));
 1355              		.loc 1 124 22 view .LVU389
 1356 0028 1474     		strb	r4, [r2, #16]
 125:/home/pi/Developer/tinyusb/src/class/hid/hid_device.c ****     len++;
 1357              		.loc 1 125 5 is_stmt 1 view .LVU390
 125:/home/pi/Developer/tinyusb/src/class/hid/hid_device.c ****     len++;
 1358              		.loc 1 125 5 view .LVU391
 1359              	.LVL107:
 1360              	.LBB171:
 1361              	.LBI171:
 137:/home/pi/Developer/tinyusb/src/common/tusb_common.h ****   if (dest == NULL) {
 1362              		.loc 3 137 41 view .LVU392
 1363              	.LBB172:
 138:/home/pi/Developer/tinyusb/src/common/tusb_common.h ****     return -1;
 1364              		.loc 3 138 3 view .LVU393
 142:/home/pi/Developer/tinyusb/src/common/tusb_common.h ****     return 0;
 1365              		.loc 3 142 3 view .LVU394
 146:/home/pi/Developer/tinyusb/src/common/tusb_common.h ****     return -1;
 1366              		.loc 3 146 3 view .LVU395
 150:/home/pi/Developer/tinyusb/src/common/tusb_common.h ****     return -1;
 1367              		.loc 3 150 3 view .LVU396
 154:/home/pi/Developer/tinyusb/src/common/tusb_common.h ****   return 0;
 1368              		.loc 3 154 3 view .LVU397
ARM GAS  /tmp/cc6L0ebi.s 			page 38


 154:/home/pi/Developer/tinyusb/src/common/tusb_common.h ****   return 0;
 1369              		.loc 3 154 10 is_stmt 0 view .LVU398
 1370 002a 5674     		strb	r6, [r2, #17]
 1371 002c 5582     		strh	r5, [r2, #18]	@ movhi
 1372 002e A2F81480 		strh	r8, [r2, #20]	@ movhi
 1373              		.loc 3 155 3 is_stmt 1 view .LVU399
 1374              	.LVL108:
 1375              		.loc 3 155 3 is_stmt 0 view .LVU400
 1376              	.LBE172:
 1377              	.LBE171:
 125:/home/pi/Developer/tinyusb/src/class/hid/hid_device.c ****     len++;
 1378              		.loc 1 125 5 is_stmt 1 view .LVU401
 126:/home/pi/Developer/tinyusb/src/class/hid/hid_device.c ****   } else {
 1379              		.loc 1 126 5 view .LVU402
 1380              	.L101:
 128:/home/pi/Developer/tinyusb/src/class/hid/hid_device.c ****   }
 1381              		.loc 1 128 5 view .LVU403
 131:/home/pi/Developer/tinyusb/src/class/hid/hid_device.c **** }
 1382              		.loc 1 131 3 view .LVU404
 131:/home/pi/Developer/tinyusb/src/class/hid/hid_device.c **** }
 1383              		.loc 1 131 10 is_stmt 0 view .LVU405
 1384 0032 0020     		movs	r0, #0
 1385 0034 7978     		ldrb	r1, [r7, #1]	@ zero_extendqisi2
 1386 0036 084A     		ldr	r2, .L107+8
 1387 0038 0690     		str	r0, [sp, #24]
 1388              	.LVL109:
 131:/home/pi/Developer/tinyusb/src/class/hid/hid_device.c **** }
 1389              		.loc 1 131 10 view .LVU406
 1390              	.LBE170:
 1391              	.LBE169:
 1392              	.LBE177:
 1393              	.LBE179:
 1394              		.loc 1 205 1 view .LVU407
 1395 003a BDE8F041 		pop	{r4, r5, r6, r7, r8, lr}
 1396              		.cfi_remember_state
 1397              		.cfi_restore 14
 1398              		.cfi_restore 8
 1399              		.cfi_restore 7
 1400              		.cfi_restore 6
 1401              		.cfi_restore 5
 1402              		.cfi_restore 4
 1403              		.cfi_def_cfa_offset 0
 1404              	.LVL110:
 1405              	.LBB180:
 1406              	.LBB178:
 1407              	.LBB176:
 1408              	.LBB175:
 131:/home/pi/Developer/tinyusb/src/class/hid/hid_device.c **** }
 1409              		.loc 1 131 10 view .LVU408
 1410 003e FFF7FEBF 		b	usbd_edpt_xfer
 1411              	.LVL111:
 1412              	.L100:
 1413              		.cfi_restore_state
 128:/home/pi/Developer/tinyusb/src/class/hid/hid_device.c ****   }
 1414              		.loc 1 128 5 is_stmt 1 view .LVU409
 128:/home/pi/Developer/tinyusb/src/class/hid/hid_device.c ****   }
 1415              		.loc 1 128 5 view .LVU410
ARM GAS  /tmp/cc6L0ebi.s 			page 39


 1416              	.LBB173:
 1417              	.LBI173:
 137:/home/pi/Developer/tinyusb/src/common/tusb_common.h ****   if (dest == NULL) {
 1418              		.loc 3 137 41 view .LVU411
 1419              	.LBB174:
 138:/home/pi/Developer/tinyusb/src/common/tusb_common.h ****     return -1;
 1420              		.loc 3 138 3 view .LVU412
 142:/home/pi/Developer/tinyusb/src/common/tusb_common.h ****     return 0;
 1421              		.loc 3 142 3 view .LVU413
 146:/home/pi/Developer/tinyusb/src/common/tusb_common.h ****     return -1;
 1422              		.loc 3 146 3 view .LVU414
 150:/home/pi/Developer/tinyusb/src/common/tusb_common.h ****     return -1;
 1423              		.loc 3 150 3 view .LVU415
 154:/home/pi/Developer/tinyusb/src/common/tusb_common.h ****   return 0;
 1424              		.loc 3 154 3 view .LVU416
 154:/home/pi/Developer/tinyusb/src/common/tusb_common.h ****   return 0;
 1425              		.loc 3 154 10 is_stmt 0 view .LVU417
 1426 0042 0523     		movs	r3, #5
 1427 0044 1674     		strb	r6, [r2, #16]
 1428 0046 A2F81150 		strh	r5, [r2, #17]	@ unaligned
 1429 004a A2F81380 		strh	r8, [r2, #19]	@ unaligned
 1430              		.loc 3 155 3 is_stmt 1 view .LVU418
 1431              	.LVL112:
 1432              		.loc 3 155 3 is_stmt 0 view .LVU419
 1433 004e F0E7     		b	.L101
 1434              	.L108:
 1435              		.align	2
 1436              	.L107:
 1437 0050 00000000 		.word	.LANCHOR0
 1438 0054 00000000 		.word	.LANCHOR1
 1439 0058 10000000 		.word	.LANCHOR1+16
 1440              	.LBE174:
 1441              	.LBE173:
 1442              	.LBE175:
 1443              	.LBE176:
 1444              	.LBE178:
 1445              	.LBE180:
 1446              		.cfi_endproc
 1447              	.LFE434:
 1449              		.section	.text.hidd_init,"ax",%progbits
 1450              		.align	1
 1451              		.p2align 2,,3
 1452              		.global	hidd_init
 1453              		.syntax unified
 1454              		.thumb
 1455              		.thumb_func
 1456              		.fpu fpv5-d16
 1458              	hidd_init:
 1459              	.LFB435:
 206:/home/pi/Developer/tinyusb/src/class/hid/hid_device.c **** 
 207:/home/pi/Developer/tinyusb/src/class/hid/hid_device.c **** //--------------------------------------------------------------------+
 208:/home/pi/Developer/tinyusb/src/class/hid/hid_device.c **** // USBD-CLASS API
 209:/home/pi/Developer/tinyusb/src/class/hid/hid_device.c **** //--------------------------------------------------------------------+
 210:/home/pi/Developer/tinyusb/src/class/hid/hid_device.c **** void hidd_init(void) {
 1460              		.loc 1 210 22 is_stmt 1 view -0
 1461              		.cfi_startproc
 1462              		@ args = 0, pretend = 0, frame = 0
ARM GAS  /tmp/cc6L0ebi.s 			page 40


 1463              		@ frame_needed = 0, uses_anonymous_args = 0
 1464              		@ link register save eliminated.
 211:/home/pi/Developer/tinyusb/src/class/hid/hid_device.c ****   hidd_reset(0);
 1465              		.loc 1 211 3 view .LVU421
 1466              	.LVL113:
 1467              	.LBB181:
 1468              	.LBI181:
 212:/home/pi/Developer/tinyusb/src/class/hid/hid_device.c **** }
 213:/home/pi/Developer/tinyusb/src/class/hid/hid_device.c **** 
 214:/home/pi/Developer/tinyusb/src/class/hid/hid_device.c **** bool hidd_deinit(void) {
 215:/home/pi/Developer/tinyusb/src/class/hid/hid_device.c ****   return true;
 216:/home/pi/Developer/tinyusb/src/class/hid/hid_device.c **** }
 217:/home/pi/Developer/tinyusb/src/class/hid/hid_device.c **** 
 218:/home/pi/Developer/tinyusb/src/class/hid/hid_device.c **** void hidd_reset(uint8_t rhport) {
 1469              		.loc 1 218 6 view .LVU422
 1470              	.LBB182:
 219:/home/pi/Developer/tinyusb/src/class/hid/hid_device.c ****   (void)rhport;
 1471              		.loc 1 219 3 view .LVU423
 220:/home/pi/Developer/tinyusb/src/class/hid/hid_device.c ****   tu_memclr(_hidd_itf, sizeof(_hidd_itf));
 1472              		.loc 1 220 3 view .LVU424
 1473 0000 024B     		ldr	r3, .L110
 1474 0002 0022     		movs	r2, #0
 1475 0004 C3E90022 		strd	r2, r2, [r3]
 1476 0008 9A60     		str	r2, [r3, #8]
 1477              	.LVL114:
 1478              		.loc 1 220 3 is_stmt 0 view .LVU425
 1479              	.LBE182:
 1480              	.LBE181:
 212:/home/pi/Developer/tinyusb/src/class/hid/hid_device.c **** }
 1481              		.loc 1 212 1 view .LVU426
 1482 000a 7047     		bx	lr
 1483              	.L111:
 1484              		.align	2
 1485              	.L110:
 1486 000c 00000000 		.word	.LANCHOR0
 1487              		.cfi_endproc
 1488              	.LFE435:
 1490              		.section	.text.hidd_deinit,"ax",%progbits
 1491              		.align	1
 1492              		.p2align 2,,3
 1493              		.global	hidd_deinit
 1494              		.syntax unified
 1495              		.thumb
 1496              		.thumb_func
 1497              		.fpu fpv5-d16
 1499              	hidd_deinit:
 1500              	.LFB436:
 214:/home/pi/Developer/tinyusb/src/class/hid/hid_device.c ****   return true;
 1501              		.loc 1 214 24 is_stmt 1 view -0
 1502              		.cfi_startproc
 1503              		@ args = 0, pretend = 0, frame = 0
 1504              		@ frame_needed = 0, uses_anonymous_args = 0
 1505              		@ link register save eliminated.
 215:/home/pi/Developer/tinyusb/src/class/hid/hid_device.c **** }
 1506              		.loc 1 215 3 view .LVU428
 216:/home/pi/Developer/tinyusb/src/class/hid/hid_device.c **** 
 1507              		.loc 1 216 1 is_stmt 0 view .LVU429
ARM GAS  /tmp/cc6L0ebi.s 			page 41


 1508 0000 0120     		movs	r0, #1
 1509 0002 7047     		bx	lr
 1510              		.cfi_endproc
 1511              	.LFE436:
 1513              		.section	.text.hidd_reset,"ax",%progbits
 1514              		.align	1
 1515              		.p2align 2,,3
 1516              		.global	hidd_reset
 1517              		.syntax unified
 1518              		.thumb
 1519              		.thumb_func
 1520              		.fpu fpv5-d16
 1522              	hidd_reset:
 1523              	.LVL115:
 1524              	.LFB437:
 218:/home/pi/Developer/tinyusb/src/class/hid/hid_device.c ****   (void)rhport;
 1525              		.loc 1 218 33 is_stmt 1 view -0
 1526              		.cfi_startproc
 1527              		@ args = 0, pretend = 0, frame = 0
 1528              		@ frame_needed = 0, uses_anonymous_args = 0
 1529              		@ link register save eliminated.
 219:/home/pi/Developer/tinyusb/src/class/hid/hid_device.c ****   tu_memclr(_hidd_itf, sizeof(_hidd_itf));
 1530              		.loc 1 219 3 view .LVU431
 1531              		.loc 1 220 3 view .LVU432
 1532 0000 024B     		ldr	r3, .L114
 1533 0002 0022     		movs	r2, #0
 1534 0004 C3E90022 		strd	r2, r2, [r3]
 1535 0008 9A60     		str	r2, [r3, #8]
 221:/home/pi/Developer/tinyusb/src/class/hid/hid_device.c **** }
 1536              		.loc 1 221 1 is_stmt 0 view .LVU433
 1537 000a 7047     		bx	lr
 1538              	.L115:
 1539              		.align	2
 1540              	.L114:
 1541 000c 00000000 		.word	.LANCHOR0
 1542              		.cfi_endproc
 1543              	.LFE437:
 1545              		.section	.text.hidd_open,"ax",%progbits
 1546              		.align	1
 1547              		.p2align 2,,3
 1548              		.global	hidd_open
 1549              		.syntax unified
 1550              		.thumb
 1551              		.thumb_func
 1552              		.fpu fpv5-d16
 1554              	hidd_open:
 1555              	.LVL116:
 1556              	.LFB438:
 222:/home/pi/Developer/tinyusb/src/class/hid/hid_device.c **** 
 223:/home/pi/Developer/tinyusb/src/class/hid/hid_device.c **** uint16_t hidd_open(uint8_t rhport, tusb_desc_interface_t const *desc_itf, uint16_t max_len) {
 1557              		.loc 1 223 93 is_stmt 1 view -0
 1558              		.cfi_startproc
 1559              		@ args = 0, pretend = 0, frame = 0
 1560              		@ frame_needed = 0, uses_anonymous_args = 0
 224:/home/pi/Developer/tinyusb/src/class/hid/hid_device.c ****   TU_VERIFY(TUSB_CLASS_HID == desc_itf->bInterfaceClass, 0);
 1561              		.loc 1 224 3 view .LVU435
 1562              		.loc 1 224 3 view .LVU436
ARM GAS  /tmp/cc6L0ebi.s 			page 42


 223:/home/pi/Developer/tinyusb/src/class/hid/hid_device.c ****   TU_VERIFY(TUSB_CLASS_HID == desc_itf->bInterfaceClass, 0);
 1563              		.loc 1 223 93 is_stmt 0 view .LVU437
 1564 0000 2DE9F041 		push	{r4, r5, r6, r7, r8, lr}
 1565              		.cfi_def_cfa_offset 24
 1566              		.cfi_offset 4, -24
 1567              		.cfi_offset 5, -20
 1568              		.cfi_offset 6, -16
 1569              		.cfi_offset 7, -12
 1570              		.cfi_offset 8, -8
 1571              		.cfi_offset 14, -4
 1572              		.loc 1 224 3 view .LVU438
 1573 0004 4B79     		ldrb	r3, [r1, #5]	@ zero_extendqisi2
 223:/home/pi/Developer/tinyusb/src/class/hid/hid_device.c ****   TU_VERIFY(TUSB_CLASS_HID == desc_itf->bInterfaceClass, 0);
 1574              		.loc 1 223 93 view .LVU439
 1575 0006 82B0     		sub	sp, sp, #8
 1576              		.cfi_def_cfa_offset 32
 1577              		.loc 1 224 3 view .LVU440
 1578 0008 032B     		cmp	r3, #3
 1579 000a 12D1     		bne	.L147
 1580              		.loc 1 224 3 is_stmt 1 discriminator 2 view .LVU441
 225:/home/pi/Developer/tinyusb/src/class/hid/hid_device.c **** 
 226:/home/pi/Developer/tinyusb/src/class/hid/hid_device.c ****   // len = interface + hid + n*endpoints
 227:/home/pi/Developer/tinyusb/src/class/hid/hid_device.c ****   uint16_t const drv_len = (uint16_t) (sizeof(tusb_desc_interface_t) + sizeof(tusb_hid_descriptor_h
 1581              		.loc 1 227 3 discriminator 2 view .LVU442
 228:/home/pi/Developer/tinyusb/src/class/hid/hid_device.c ****                                        desc_itf->bNumEndpoints * sizeof(tusb_desc_endpoint_t));
 1582              		.loc 1 228 48 is_stmt 0 discriminator 2 view .LVU443
 1583 000c 91F804C0 		ldrb	ip, [r1, #4]	@ zero_extendqisi2
 1584 0010 0C46     		mov	r4, r1
 1585              		.loc 1 228 64 discriminator 2 view .LVU444
 1586 0012 CCEBCC05 		rsb	r5, ip, ip, lsl #3
 227:/home/pi/Developer/tinyusb/src/class/hid/hid_device.c ****                                        desc_itf->bNumEndpoints * sizeof(tusb_desc_endpoint_t));
 1587              		.loc 1 227 18 discriminator 2 view .LVU445
 1588 0016 1235     		adds	r5, r5, #18
 1589 0018 ADB2     		uxth	r5, r5
 1590              	.LVL117:
 229:/home/pi/Developer/tinyusb/src/class/hid/hid_device.c ****   TU_ASSERT(max_len >= drv_len, 0);
 1591              		.loc 1 229 3 is_stmt 1 discriminator 2 view .LVU446
 1592              		.loc 1 229 3 discriminator 2 view .LVU447
 1593 001a 9542     		cmp	r5, r2
 1594 001c 02D8     		bhi	.L150
 1595              	.LVL118:
 230:/home/pi/Developer/tinyusb/src/class/hid/hid_device.c **** 
 231:/home/pi/Developer/tinyusb/src/class/hid/hid_device.c ****   // Find available interface
 232:/home/pi/Developer/tinyusb/src/class/hid/hid_device.c ****   hidd_interface_t *p_hid;
 233:/home/pi/Developer/tinyusb/src/class/hid/hid_device.c ****   uint8_t hid_id;
 234:/home/pi/Developer/tinyusb/src/class/hid/hid_device.c ****   for (hid_id = 0; hid_id < CFG_TUD_HID; hid_id++) {
 1596              		.loc 1 234 20 view .LVU448
 235:/home/pi/Developer/tinyusb/src/class/hid/hid_device.c ****     p_hid = &_hidd_itf[hid_id];
 1597              		.loc 1 235 5 view .LVU449
 236:/home/pi/Developer/tinyusb/src/class/hid/hid_device.c ****     if (p_hid->ep_in == 0) {
 1598              		.loc 1 236 5 view .LVU450
 1599              		.loc 1 236 14 is_stmt 0 view .LVU451
 1600 001e 254F     		ldr	r7, .L153
 1601              		.loc 1 236 8 view .LVU452
 1602 0020 7A78     		ldrb	r2, [r7, #1]	@ zero_extendqisi2
 1603              	.LVL119:
 1604              		.loc 1 236 8 view .LVU453
ARM GAS  /tmp/cc6L0ebi.s 			page 43


 1605 0022 5AB1     		cbz	r2, .L152
 1606              	.LVL120:
 1607              	.L150:
 229:/home/pi/Developer/tinyusb/src/class/hid/hid_device.c **** 
 1608              		.loc 1 229 3 is_stmt 1 discriminator 1 view .LVU454
 229:/home/pi/Developer/tinyusb/src/class/hid/hid_device.c **** 
 1609              		.loc 1 229 3 discriminator 1 view .LVU455
 229:/home/pi/Developer/tinyusb/src/class/hid/hid_device.c **** 
 1610              		.loc 1 229 3 discriminator 1 view .LVU456
 229:/home/pi/Developer/tinyusb/src/class/hid/hid_device.c **** 
 1611              		.loc 1 229 3 discriminator 1 view .LVU457
 1612              	.LBB183:
 229:/home/pi/Developer/tinyusb/src/class/hid/hid_device.c **** 
 1613              		.loc 1 229 3 discriminator 1 view .LVU458
 229:/home/pi/Developer/tinyusb/src/class/hid/hid_device.c **** 
 1614              		.loc 1 229 3 discriminator 1 view .LVU459
 1615 0024 4FF0E023 		mov	r3, #-536813568
 1616 0028 D3F8F03D 		ldr	r3, [r3, #3568]
 1617 002c DA07     		lsls	r2, r3, #31
 1618 002e 00D5     		bpl	.L147
 229:/home/pi/Developer/tinyusb/src/class/hid/hid_device.c **** 
 1619              		.loc 1 229 3 discriminator 3 view .LVU460
 1620              		.syntax unified
 1621              	@ 229 "/home/pi/Developer/tinyusb/src/class/hid/hid_device.c" 1
 1622 0030 00BE     		BKPT #0
 1623              	
 1624              	@ 0 "" 2
 1625              	.LVL121:
 1626              		.thumb
 1627              		.syntax unified
 1628              	.L147:
 229:/home/pi/Developer/tinyusb/src/class/hid/hid_device.c **** 
 1629              		.loc 1 229 3 is_stmt 0 discriminator 3 view .LVU461
 1630              	.LBE183:
 1631 0032 0025     		movs	r5, #0
 1632              	.L128:
 237:/home/pi/Developer/tinyusb/src/class/hid/hid_device.c ****       break;
 238:/home/pi/Developer/tinyusb/src/class/hid/hid_device.c ****     }
 239:/home/pi/Developer/tinyusb/src/class/hid/hid_device.c ****   }
 240:/home/pi/Developer/tinyusb/src/class/hid/hid_device.c ****   TU_ASSERT(hid_id < CFG_TUD_HID, 0);
 241:/home/pi/Developer/tinyusb/src/class/hid/hid_device.c ****   hidd_epbuf_t *p_epbuf = &_hidd_epbuf[hid_id];
 242:/home/pi/Developer/tinyusb/src/class/hid/hid_device.c **** 
 243:/home/pi/Developer/tinyusb/src/class/hid/hid_device.c ****   uint8_t const *p_desc = (uint8_t const *)desc_itf;
 244:/home/pi/Developer/tinyusb/src/class/hid/hid_device.c **** 
 245:/home/pi/Developer/tinyusb/src/class/hid/hid_device.c ****   //------------- HID descriptor -------------//
 246:/home/pi/Developer/tinyusb/src/class/hid/hid_device.c ****   p_desc = tu_desc_next(p_desc);
 247:/home/pi/Developer/tinyusb/src/class/hid/hid_device.c ****   TU_ASSERT(HID_DESC_TYPE_HID == tu_desc_type(p_desc), 0);
 248:/home/pi/Developer/tinyusb/src/class/hid/hid_device.c ****   p_hid->hid_descriptor = (tusb_hid_descriptor_hid_t const *)p_desc;
 249:/home/pi/Developer/tinyusb/src/class/hid/hid_device.c **** 
 250:/home/pi/Developer/tinyusb/src/class/hid/hid_device.c ****   //------------- Endpoint Descriptor -------------//
 251:/home/pi/Developer/tinyusb/src/class/hid/hid_device.c ****   p_desc = tu_desc_next(p_desc);
 252:/home/pi/Developer/tinyusb/src/class/hid/hid_device.c ****   TU_ASSERT(usbd_open_edpt_pair(rhport, p_desc, desc_itf->bNumEndpoints, TUSB_XFER_INTERRUPT, &p_hi
 253:/home/pi/Developer/tinyusb/src/class/hid/hid_device.c **** 
 254:/home/pi/Developer/tinyusb/src/class/hid/hid_device.c ****   if (desc_itf->bInterfaceSubClass == HID_SUBCLASS_BOOT) {
 255:/home/pi/Developer/tinyusb/src/class/hid/hid_device.c ****     p_hid->itf_protocol = desc_itf->bInterfaceProtocol;
 256:/home/pi/Developer/tinyusb/src/class/hid/hid_device.c ****   }
 257:/home/pi/Developer/tinyusb/src/class/hid/hid_device.c **** 
ARM GAS  /tmp/cc6L0ebi.s 			page 44


 258:/home/pi/Developer/tinyusb/src/class/hid/hid_device.c ****   p_hid->protocol_mode = HID_PROTOCOL_REPORT; // Per Specs: default is report mode
 259:/home/pi/Developer/tinyusb/src/class/hid/hid_device.c ****   p_hid->itf_num = desc_itf->bInterfaceNumber;
 260:/home/pi/Developer/tinyusb/src/class/hid/hid_device.c **** 
 261:/home/pi/Developer/tinyusb/src/class/hid/hid_device.c ****   // Use offsetof to avoid pointer to the odd/misaligned address
 262:/home/pi/Developer/tinyusb/src/class/hid/hid_device.c ****   p_hid->report_desc_len = tu_unaligned_read16((uint8_t const *)p_hid->hid_descriptor + offsetof(tu
 263:/home/pi/Developer/tinyusb/src/class/hid/hid_device.c **** 
 264:/home/pi/Developer/tinyusb/src/class/hid/hid_device.c ****   // Prepare for output endpoint
 265:/home/pi/Developer/tinyusb/src/class/hid/hid_device.c ****   if (p_hid->ep_out) {
 266:/home/pi/Developer/tinyusb/src/class/hid/hid_device.c ****     TU_ASSERT(usbd_edpt_xfer(rhport, p_hid->ep_out, p_epbuf->epout, CFG_TUD_HID_EP_BUFSIZE, false),
 267:/home/pi/Developer/tinyusb/src/class/hid/hid_device.c ****   }
 268:/home/pi/Developer/tinyusb/src/class/hid/hid_device.c **** 
 269:/home/pi/Developer/tinyusb/src/class/hid/hid_device.c ****   return drv_len;
 270:/home/pi/Developer/tinyusb/src/class/hid/hid_device.c **** }
 1633              		.loc 1 270 1 view .LVU462
 1634 0034 2846     		mov	r0, r5
 1635 0036 02B0     		add	sp, sp, #8
 1636              		.cfi_remember_state
 1637              		.cfi_def_cfa_offset 24
 1638              		@ sp needed
 1639 0038 BDE8F081 		pop	{r4, r5, r6, r7, r8, pc}
 1640              	.LVL122:
 1641              	.L152:
 1642              		.cfi_restore_state
 240:/home/pi/Developer/tinyusb/src/class/hid/hid_device.c ****   hidd_epbuf_t *p_epbuf = &_hidd_epbuf[hid_id];
 1643              		.loc 1 240 3 is_stmt 1 view .LVU463
 240:/home/pi/Developer/tinyusb/src/class/hid/hid_device.c ****   hidd_epbuf_t *p_epbuf = &_hidd_epbuf[hid_id];
 1644              		.loc 1 240 3 view .LVU464
 240:/home/pi/Developer/tinyusb/src/class/hid/hid_device.c ****   hidd_epbuf_t *p_epbuf = &_hidd_epbuf[hid_id];
 1645              		.loc 1 240 3 view .LVU465
 241:/home/pi/Developer/tinyusb/src/class/hid/hid_device.c **** 
 1646              		.loc 1 241 3 view .LVU466
 243:/home/pi/Developer/tinyusb/src/class/hid/hid_device.c **** 
 1647              		.loc 1 243 3 view .LVU467
 246:/home/pi/Developer/tinyusb/src/class/hid/hid_device.c ****   TU_ASSERT(HID_DESC_TYPE_HID == tu_desc_type(p_desc), 0);
 1648              		.loc 1 246 3 view .LVU468
 1649              	.LBB184:
 1650              	.LBI184:
 156:/home/pi/Developer/tinyusb/src/common/tusb_common.h **** }
 157:/home/pi/Developer/tinyusb/src/common/tusb_common.h **** 
 158:/home/pi/Developer/tinyusb/src/common/tusb_common.h **** TU_ATTR_ALWAYS_INLINE static inline bool tu_mem_is_zero(const void *buffer, size_t size) {
 159:/home/pi/Developer/tinyusb/src/common/tusb_common.h ****   const uint8_t* buf8 = (const uint8_t*) buffer;
 160:/home/pi/Developer/tinyusb/src/common/tusb_common.h ****   for (size_t i = 0; i < size; i++) {
 161:/home/pi/Developer/tinyusb/src/common/tusb_common.h ****     if (buf8[i] != 0) { return false; }
 162:/home/pi/Developer/tinyusb/src/common/tusb_common.h ****   }
 163:/home/pi/Developer/tinyusb/src/common/tusb_common.h ****   return true;
 164:/home/pi/Developer/tinyusb/src/common/tusb_common.h **** }
 165:/home/pi/Developer/tinyusb/src/common/tusb_common.h **** 
 166:/home/pi/Developer/tinyusb/src/common/tusb_common.h **** TU_ATTR_ALWAYS_INLINE static inline bool tu_mem_is_ff(const void *buffer, size_t size) {
 167:/home/pi/Developer/tinyusb/src/common/tusb_common.h ****   const uint8_t* buf8 = (const uint8_t*) buffer;
 168:/home/pi/Developer/tinyusb/src/common/tusb_common.h ****   for (size_t i = 0; i < size; i++) {
 169:/home/pi/Developer/tinyusb/src/common/tusb_common.h ****     if (buf8[i] != 0xff) { return false; }
 170:/home/pi/Developer/tinyusb/src/common/tusb_common.h ****   }
 171:/home/pi/Developer/tinyusb/src/common/tusb_common.h ****   return true;
 172:/home/pi/Developer/tinyusb/src/common/tusb_common.h **** }
 173:/home/pi/Developer/tinyusb/src/common/tusb_common.h **** 
 174:/home/pi/Developer/tinyusb/src/common/tusb_common.h **** 
 175:/home/pi/Developer/tinyusb/src/common/tusb_common.h **** //------------- Bytes -------------//
ARM GAS  /tmp/cc6L0ebi.s 			page 45


 176:/home/pi/Developer/tinyusb/src/common/tusb_common.h **** TU_ATTR_ALWAYS_INLINE static inline uint32_t tu_u32(uint8_t b3, uint8_t b2, uint8_t b1, uint8_t b0)
 177:/home/pi/Developer/tinyusb/src/common/tusb_common.h ****   return (((uint32_t)b3) << 24) | (((uint32_t)b2) << 16) | (((uint32_t)b1) << 8) | b0;
 178:/home/pi/Developer/tinyusb/src/common/tusb_common.h **** }
 179:/home/pi/Developer/tinyusb/src/common/tusb_common.h **** 
 180:/home/pi/Developer/tinyusb/src/common/tusb_common.h **** TU_ATTR_ALWAYS_INLINE static inline uint32_t tu_u32_from_u16(uint16_t high, uint16_t low) {
 181:/home/pi/Developer/tinyusb/src/common/tusb_common.h ****   return (((uint32_t)high) << 16) | low;
 182:/home/pi/Developer/tinyusb/src/common/tusb_common.h **** }
 183:/home/pi/Developer/tinyusb/src/common/tusb_common.h **** 
 184:/home/pi/Developer/tinyusb/src/common/tusb_common.h **** TU_ATTR_ALWAYS_INLINE static inline uint16_t tu_u16(uint8_t high, uint8_t low) {
 185:/home/pi/Developer/tinyusb/src/common/tusb_common.h ****   return (uint16_t)((((uint16_t)high) << 8) | low);
 186:/home/pi/Developer/tinyusb/src/common/tusb_common.h **** }
 187:/home/pi/Developer/tinyusb/src/common/tusb_common.h **** 
 188:/home/pi/Developer/tinyusb/src/common/tusb_common.h **** TU_ATTR_ALWAYS_INLINE static inline uint8_t tu_u32_byte3(uint32_t ui32) { return TU_U32_BYTE3(ui32)
 189:/home/pi/Developer/tinyusb/src/common/tusb_common.h **** TU_ATTR_ALWAYS_INLINE static inline uint8_t tu_u32_byte2(uint32_t ui32) { return TU_U32_BYTE2(ui32)
 190:/home/pi/Developer/tinyusb/src/common/tusb_common.h **** TU_ATTR_ALWAYS_INLINE static inline uint8_t tu_u32_byte1(uint32_t ui32) { return TU_U32_BYTE1(ui32)
 191:/home/pi/Developer/tinyusb/src/common/tusb_common.h **** TU_ATTR_ALWAYS_INLINE static inline uint8_t tu_u32_byte0(uint32_t ui32) { return TU_U32_BYTE0(ui32)
 192:/home/pi/Developer/tinyusb/src/common/tusb_common.h **** 
 193:/home/pi/Developer/tinyusb/src/common/tusb_common.h **** TU_ATTR_ALWAYS_INLINE static inline uint16_t tu_u32_high16(uint32_t ui32) { return (uint16_t) (ui32
 194:/home/pi/Developer/tinyusb/src/common/tusb_common.h **** TU_ATTR_ALWAYS_INLINE static inline uint16_t tu_u32_low16 (uint32_t ui32) { return (uint16_t) (ui32
 195:/home/pi/Developer/tinyusb/src/common/tusb_common.h **** 
 196:/home/pi/Developer/tinyusb/src/common/tusb_common.h **** TU_ATTR_ALWAYS_INLINE static inline uint8_t tu_u16_high(uint16_t ui16) { return TU_U16_HIGH(ui16); 
 197:/home/pi/Developer/tinyusb/src/common/tusb_common.h **** TU_ATTR_ALWAYS_INLINE static inline uint8_t tu_u16_low (uint16_t ui16) { return TU_U16_LOW(ui16); }
 198:/home/pi/Developer/tinyusb/src/common/tusb_common.h **** 
 199:/home/pi/Developer/tinyusb/src/common/tusb_common.h **** //------------- Bits -------------//
 200:/home/pi/Developer/tinyusb/src/common/tusb_common.h **** TU_ATTR_ALWAYS_INLINE static inline uint32_t tu_bit_set  (uint32_t value, uint8_t pos) { return val
 201:/home/pi/Developer/tinyusb/src/common/tusb_common.h **** TU_ATTR_ALWAYS_INLINE static inline uint32_t tu_bit_clear(uint32_t value, uint8_t pos) { return val
 202:/home/pi/Developer/tinyusb/src/common/tusb_common.h **** TU_ATTR_ALWAYS_INLINE static inline bool     tu_bit_test (uint32_t value, uint8_t pos) { return (va
 203:/home/pi/Developer/tinyusb/src/common/tusb_common.h **** 
 204:/home/pi/Developer/tinyusb/src/common/tusb_common.h **** //------------- Min -------------//
 205:/home/pi/Developer/tinyusb/src/common/tusb_common.h **** TU_ATTR_ALWAYS_INLINE static inline uint8_t  tu_min8  (uint8_t  x, uint8_t y ) { return (x < y) ? x
 206:/home/pi/Developer/tinyusb/src/common/tusb_common.h **** TU_ATTR_ALWAYS_INLINE static inline uint16_t tu_min16 (uint16_t x, uint16_t y) { return (x < y) ? x
 207:/home/pi/Developer/tinyusb/src/common/tusb_common.h **** TU_ATTR_ALWAYS_INLINE static inline uint32_t tu_min32 (uint32_t x, uint32_t y) { return (x < y) ? x
 208:/home/pi/Developer/tinyusb/src/common/tusb_common.h **** 
 209:/home/pi/Developer/tinyusb/src/common/tusb_common.h **** //------------- Max -------------//
 210:/home/pi/Developer/tinyusb/src/common/tusb_common.h **** TU_ATTR_ALWAYS_INLINE static inline uint8_t  tu_max8  (uint8_t  x, uint8_t y ) { return (x > y) ? x
 211:/home/pi/Developer/tinyusb/src/common/tusb_common.h **** TU_ATTR_ALWAYS_INLINE static inline uint16_t tu_max16 (uint16_t x, uint16_t y) { return (x > y) ? x
 212:/home/pi/Developer/tinyusb/src/common/tusb_common.h **** TU_ATTR_ALWAYS_INLINE static inline uint32_t tu_max32 (uint32_t x, uint32_t y) { return (x > y) ? x
 213:/home/pi/Developer/tinyusb/src/common/tusb_common.h **** 
 214:/home/pi/Developer/tinyusb/src/common/tusb_common.h **** //------------- Align -------------//
 215:/home/pi/Developer/tinyusb/src/common/tusb_common.h **** TU_ATTR_ALWAYS_INLINE static inline uint32_t tu_align(uint32_t value, uint32_t alignment) {
 216:/home/pi/Developer/tinyusb/src/common/tusb_common.h ****   return value & ((uint32_t) ~(alignment-1));
 217:/home/pi/Developer/tinyusb/src/common/tusb_common.h **** }
 218:/home/pi/Developer/tinyusb/src/common/tusb_common.h **** 
 219:/home/pi/Developer/tinyusb/src/common/tusb_common.h **** TU_ATTR_ALWAYS_INLINE static inline uint32_t tu_align4  (uint32_t value) { return (value & 0xFFFFFF
 220:/home/pi/Developer/tinyusb/src/common/tusb_common.h **** TU_ATTR_ALWAYS_INLINE static inline uint32_t tu_align8  (uint32_t value) { return (value & 0xFFFFFF
 221:/home/pi/Developer/tinyusb/src/common/tusb_common.h **** TU_ATTR_ALWAYS_INLINE static inline uint32_t tu_align16 (uint32_t value) { return (value & 0xFFFFFF
 222:/home/pi/Developer/tinyusb/src/common/tusb_common.h **** TU_ATTR_ALWAYS_INLINE static inline uint32_t tu_align32 (uint32_t value) { return (value & 0xFFFFFF
 223:/home/pi/Developer/tinyusb/src/common/tusb_common.h **** TU_ATTR_ALWAYS_INLINE static inline uint32_t tu_align4k (uint32_t value) { return (value & 0xFFFFF0
 224:/home/pi/Developer/tinyusb/src/common/tusb_common.h **** TU_ATTR_ALWAYS_INLINE static inline uint32_t tu_offset4k(uint32_t value) { return (value & 0xFFFUL)
 225:/home/pi/Developer/tinyusb/src/common/tusb_common.h **** 
 226:/home/pi/Developer/tinyusb/src/common/tusb_common.h **** TU_ATTR_ALWAYS_INLINE static inline bool tu_is_aligned32(uint32_t value) { return (value & 0x1FUL) 
 227:/home/pi/Developer/tinyusb/src/common/tusb_common.h **** TU_ATTR_ALWAYS_INLINE static inline bool tu_is_aligned64(uint64_t value) { return (value & 0x3FUL) 
 228:/home/pi/Developer/tinyusb/src/common/tusb_common.h **** 
 229:/home/pi/Developer/tinyusb/src/common/tusb_common.h **** //------------- Mathematics -------------//
 230:/home/pi/Developer/tinyusb/src/common/tusb_common.h **** TU_ATTR_ALWAYS_INLINE static inline uint32_t tu_div_ceil(uint32_t v, uint32_t d) { return TU_DIV_CE
 231:/home/pi/Developer/tinyusb/src/common/tusb_common.h **** TU_ATTR_ALWAYS_INLINE static inline uint32_t tu_div_round_nearest(uint32_t v, uint32_t d) { return 
 232:/home/pi/Developer/tinyusb/src/common/tusb_common.h **** 
ARM GAS  /tmp/cc6L0ebi.s 			page 46


 233:/home/pi/Developer/tinyusb/src/common/tusb_common.h **** TU_ATTR_ALWAYS_INLINE static inline uint32_t tu_round_up(uint32_t v, uint32_t f) { return tu_div_ce
 234:/home/pi/Developer/tinyusb/src/common/tusb_common.h **** 
 235:/home/pi/Developer/tinyusb/src/common/tusb_common.h **** // log2 of a value is its MSB's position
 236:/home/pi/Developer/tinyusb/src/common/tusb_common.h **** // TODO use clz TODO remove
 237:/home/pi/Developer/tinyusb/src/common/tusb_common.h **** TU_ATTR_ALWAYS_INLINE static inline uint8_t tu_log2(uint32_t value) {
 238:/home/pi/Developer/tinyusb/src/common/tusb_common.h ****   uint8_t result = 0;
 239:/home/pi/Developer/tinyusb/src/common/tusb_common.h ****   while ((value >>= 1u) != 0u) {
 240:/home/pi/Developer/tinyusb/src/common/tusb_common.h ****     result++;
 241:/home/pi/Developer/tinyusb/src/common/tusb_common.h ****   }
 242:/home/pi/Developer/tinyusb/src/common/tusb_common.h ****   return result;
 243:/home/pi/Developer/tinyusb/src/common/tusb_common.h **** }
 244:/home/pi/Developer/tinyusb/src/common/tusb_common.h **** 
 245:/home/pi/Developer/tinyusb/src/common/tusb_common.h **** //static inline uint8_t tu_log2(uint32_t value)
 246:/home/pi/Developer/tinyusb/src/common/tusb_common.h **** //{
 247:/home/pi/Developer/tinyusb/src/common/tusb_common.h **** //   return sizeof(uint32_t) * CHAR_BIT - __builtin_clz(x) - 1;
 248:/home/pi/Developer/tinyusb/src/common/tusb_common.h **** //}
 249:/home/pi/Developer/tinyusb/src/common/tusb_common.h **** 
 250:/home/pi/Developer/tinyusb/src/common/tusb_common.h **** TU_ATTR_ALWAYS_INLINE static inline bool tu_is_power_of_two(uint32_t value) {
 251:/home/pi/Developer/tinyusb/src/common/tusb_common.h ****    return (value != 0) && ((value & (value - 1)) == 0);
 252:/home/pi/Developer/tinyusb/src/common/tusb_common.h **** }
 253:/home/pi/Developer/tinyusb/src/common/tusb_common.h **** 
 254:/home/pi/Developer/tinyusb/src/common/tusb_common.h **** //------------- Unaligned Access -------------//
 255:/home/pi/Developer/tinyusb/src/common/tusb_common.h **** #if TUP_ARCH_STRICT_ALIGN
 256:/home/pi/Developer/tinyusb/src/common/tusb_common.h **** 
 257:/home/pi/Developer/tinyusb/src/common/tusb_common.h **** // Rely on compiler to generate correct code for unaligned access
 258:/home/pi/Developer/tinyusb/src/common/tusb_common.h **** typedef struct { uint16_t val; } TU_ATTR_PACKED tu_unaligned_uint16_t;
 259:/home/pi/Developer/tinyusb/src/common/tusb_common.h **** typedef struct { uint32_t val; } TU_ATTR_PACKED tu_unaligned_uint32_t;
 260:/home/pi/Developer/tinyusb/src/common/tusb_common.h **** 
 261:/home/pi/Developer/tinyusb/src/common/tusb_common.h **** TU_ATTR_ALWAYS_INLINE static inline uint32_t tu_unaligned_read32(const void *mem) {
 262:/home/pi/Developer/tinyusb/src/common/tusb_common.h ****   tu_unaligned_uint32_t const *ua32 = (tu_unaligned_uint32_t const *) mem;
 263:/home/pi/Developer/tinyusb/src/common/tusb_common.h ****   return ua32->val;
 264:/home/pi/Developer/tinyusb/src/common/tusb_common.h **** }
 265:/home/pi/Developer/tinyusb/src/common/tusb_common.h **** 
 266:/home/pi/Developer/tinyusb/src/common/tusb_common.h **** TU_ATTR_ALWAYS_INLINE static inline void tu_unaligned_write32(void *mem, uint32_t value) {
 267:/home/pi/Developer/tinyusb/src/common/tusb_common.h ****   tu_unaligned_uint32_t *ua32 = (tu_unaligned_uint32_t *) mem;
 268:/home/pi/Developer/tinyusb/src/common/tusb_common.h ****   ua32->val = value;
 269:/home/pi/Developer/tinyusb/src/common/tusb_common.h **** }
 270:/home/pi/Developer/tinyusb/src/common/tusb_common.h **** 
 271:/home/pi/Developer/tinyusb/src/common/tusb_common.h **** TU_ATTR_ALWAYS_INLINE static inline uint16_t tu_unaligned_read16(const void *mem) {
 272:/home/pi/Developer/tinyusb/src/common/tusb_common.h ****   tu_unaligned_uint16_t const *ua16 = (tu_unaligned_uint16_t const *) mem;
 273:/home/pi/Developer/tinyusb/src/common/tusb_common.h ****   return ua16->val;
 274:/home/pi/Developer/tinyusb/src/common/tusb_common.h **** }
 275:/home/pi/Developer/tinyusb/src/common/tusb_common.h **** 
 276:/home/pi/Developer/tinyusb/src/common/tusb_common.h **** TU_ATTR_ALWAYS_INLINE static inline void tu_unaligned_write16(void *mem, uint16_t value) {
 277:/home/pi/Developer/tinyusb/src/common/tusb_common.h ****   tu_unaligned_uint16_t *ua16 = (tu_unaligned_uint16_t *) mem;
 278:/home/pi/Developer/tinyusb/src/common/tusb_common.h ****   ua16->val = value;
 279:/home/pi/Developer/tinyusb/src/common/tusb_common.h **** }
 280:/home/pi/Developer/tinyusb/src/common/tusb_common.h **** 
 281:/home/pi/Developer/tinyusb/src/common/tusb_common.h **** #elif TUP_MCU_STRICT_ALIGN
 282:/home/pi/Developer/tinyusb/src/common/tusb_common.h **** 
 283:/home/pi/Developer/tinyusb/src/common/tusb_common.h **** // MCU such as LPC_IP3511 Highspeed cannot access unaligned memory on USB_RAM although it is ARM M4
 284:/home/pi/Developer/tinyusb/src/common/tusb_common.h **** // We have to manually pick up bytes since tu_unaligned_uint32_t will still generate unaligned code
 285:/home/pi/Developer/tinyusb/src/common/tusb_common.h **** // NOTE: volatile cast to memory to prevent compiler to optimize and generate unaligned code
 286:/home/pi/Developer/tinyusb/src/common/tusb_common.h **** // TODO Big Endian may need minor changes
 287:/home/pi/Developer/tinyusb/src/common/tusb_common.h **** TU_ATTR_ALWAYS_INLINE static inline uint32_t tu_unaligned_read32(const void* mem) {
 288:/home/pi/Developer/tinyusb/src/common/tusb_common.h ****   volatile uint8_t const* buf8 = (uint8_t const*) mem;
 289:/home/pi/Developer/tinyusb/src/common/tusb_common.h ****   return tu_u32(buf8[3], buf8[2], buf8[1], buf8[0]);
ARM GAS  /tmp/cc6L0ebi.s 			page 47


 290:/home/pi/Developer/tinyusb/src/common/tusb_common.h **** }
 291:/home/pi/Developer/tinyusb/src/common/tusb_common.h **** 
 292:/home/pi/Developer/tinyusb/src/common/tusb_common.h **** TU_ATTR_ALWAYS_INLINE static inline void tu_unaligned_write32(void* mem, uint32_t value) {
 293:/home/pi/Developer/tinyusb/src/common/tusb_common.h ****   volatile uint8_t* buf8 = (uint8_t*) mem;
 294:/home/pi/Developer/tinyusb/src/common/tusb_common.h ****   buf8[0] = tu_u32_byte0(value);
 295:/home/pi/Developer/tinyusb/src/common/tusb_common.h ****   buf8[1] = tu_u32_byte1(value);
 296:/home/pi/Developer/tinyusb/src/common/tusb_common.h ****   buf8[2] = tu_u32_byte2(value);
 297:/home/pi/Developer/tinyusb/src/common/tusb_common.h ****   buf8[3] = tu_u32_byte3(value);
 298:/home/pi/Developer/tinyusb/src/common/tusb_common.h **** }
 299:/home/pi/Developer/tinyusb/src/common/tusb_common.h **** 
 300:/home/pi/Developer/tinyusb/src/common/tusb_common.h **** TU_ATTR_ALWAYS_INLINE static inline uint16_t tu_unaligned_read16(const void* mem) {
 301:/home/pi/Developer/tinyusb/src/common/tusb_common.h ****   volatile uint8_t const* buf8 = (uint8_t const*) mem;
 302:/home/pi/Developer/tinyusb/src/common/tusb_common.h ****   return tu_u16(buf8[1], buf8[0]);
 303:/home/pi/Developer/tinyusb/src/common/tusb_common.h **** }
 304:/home/pi/Developer/tinyusb/src/common/tusb_common.h **** 
 305:/home/pi/Developer/tinyusb/src/common/tusb_common.h **** TU_ATTR_ALWAYS_INLINE static inline void tu_unaligned_write16(void* mem, uint16_t value) {
 306:/home/pi/Developer/tinyusb/src/common/tusb_common.h ****   volatile uint8_t* buf8 = (uint8_t*) mem;
 307:/home/pi/Developer/tinyusb/src/common/tusb_common.h ****   buf8[0] = tu_u16_low(value);
 308:/home/pi/Developer/tinyusb/src/common/tusb_common.h ****   buf8[1] = tu_u16_high(value);
 309:/home/pi/Developer/tinyusb/src/common/tusb_common.h **** }
 310:/home/pi/Developer/tinyusb/src/common/tusb_common.h **** 
 311:/home/pi/Developer/tinyusb/src/common/tusb_common.h **** #else
 312:/home/pi/Developer/tinyusb/src/common/tusb_common.h **** 
 313:/home/pi/Developer/tinyusb/src/common/tusb_common.h **** // MCU that could access unaligned memory natively
 314:/home/pi/Developer/tinyusb/src/common/tusb_common.h **** TU_ATTR_ALWAYS_INLINE static inline uint32_t tu_unaligned_read32(const void *mem) {
 315:/home/pi/Developer/tinyusb/src/common/tusb_common.h ****   return *((uint32_t const *) mem);
 316:/home/pi/Developer/tinyusb/src/common/tusb_common.h **** }
 317:/home/pi/Developer/tinyusb/src/common/tusb_common.h **** 
 318:/home/pi/Developer/tinyusb/src/common/tusb_common.h **** TU_ATTR_ALWAYS_INLINE static inline uint16_t tu_unaligned_read16(const void *mem) {
 319:/home/pi/Developer/tinyusb/src/common/tusb_common.h ****   return *((uint16_t const *) mem);
 320:/home/pi/Developer/tinyusb/src/common/tusb_common.h **** }
 321:/home/pi/Developer/tinyusb/src/common/tusb_common.h **** 
 322:/home/pi/Developer/tinyusb/src/common/tusb_common.h **** TU_ATTR_ALWAYS_INLINE static inline void tu_unaligned_write32(void *mem, uint32_t value) {
 323:/home/pi/Developer/tinyusb/src/common/tusb_common.h ****   *((uint32_t *) mem) = value;
 324:/home/pi/Developer/tinyusb/src/common/tusb_common.h **** }
 325:/home/pi/Developer/tinyusb/src/common/tusb_common.h **** 
 326:/home/pi/Developer/tinyusb/src/common/tusb_common.h **** TU_ATTR_ALWAYS_INLINE static inline void tu_unaligned_write16(void *mem, uint16_t value) {
 327:/home/pi/Developer/tinyusb/src/common/tusb_common.h ****   *((uint16_t *) mem) = value;
 328:/home/pi/Developer/tinyusb/src/common/tusb_common.h **** }
 329:/home/pi/Developer/tinyusb/src/common/tusb_common.h **** 
 330:/home/pi/Developer/tinyusb/src/common/tusb_common.h **** #endif
 331:/home/pi/Developer/tinyusb/src/common/tusb_common.h **** 
 332:/home/pi/Developer/tinyusb/src/common/tusb_common.h **** // scatter read 4 bytes from two buffers (LE). Parameter are not checked
 333:/home/pi/Developer/tinyusb/src/common/tusb_common.h **** TU_ATTR_ALWAYS_INLINE static inline uint32_t tu_scatter_read32(const uint8_t *buf1, uint8_t len1, c
 334:/home/pi/Developer/tinyusb/src/common/tusb_common.h ****                                                                uint8_t len2) {
 335:/home/pi/Developer/tinyusb/src/common/tusb_common.h ****   uint32_t result = 0;
 336:/home/pi/Developer/tinyusb/src/common/tusb_common.h ****   uint8_t  shift  = 0;
 337:/home/pi/Developer/tinyusb/src/common/tusb_common.h **** 
 338:/home/pi/Developer/tinyusb/src/common/tusb_common.h ****   for (uint8_t i = 0; i < len1; ++i) {
 339:/home/pi/Developer/tinyusb/src/common/tusb_common.h ****     result |= ((uint32_t)buf1[i]) << shift;
 340:/home/pi/Developer/tinyusb/src/common/tusb_common.h ****     shift += 8;
 341:/home/pi/Developer/tinyusb/src/common/tusb_common.h ****   }
 342:/home/pi/Developer/tinyusb/src/common/tusb_common.h **** 
 343:/home/pi/Developer/tinyusb/src/common/tusb_common.h ****   for (uint8_t i = 0; i < len2; ++i) {
 344:/home/pi/Developer/tinyusb/src/common/tusb_common.h ****     result |= ((uint32_t)buf2[i]) << shift;
 345:/home/pi/Developer/tinyusb/src/common/tusb_common.h ****     shift += 8;
 346:/home/pi/Developer/tinyusb/src/common/tusb_common.h ****   }
ARM GAS  /tmp/cc6L0ebi.s 			page 48


 347:/home/pi/Developer/tinyusb/src/common/tusb_common.h **** 
 348:/home/pi/Developer/tinyusb/src/common/tusb_common.h ****   return result;
 349:/home/pi/Developer/tinyusb/src/common/tusb_common.h **** }
 350:/home/pi/Developer/tinyusb/src/common/tusb_common.h **** 
 351:/home/pi/Developer/tinyusb/src/common/tusb_common.h **** // scatter write 4 bytes (LE) to two buffers. Parameter are not checked
 352:/home/pi/Developer/tinyusb/src/common/tusb_common.h **** TU_ATTR_ALWAYS_INLINE static inline void tu_scatter_write32(uint32_t value, uint8_t *buf1, uint8_t 
 353:/home/pi/Developer/tinyusb/src/common/tusb_common.h ****                                                             uint8_t *buf2, uint8_t len2) {
 354:/home/pi/Developer/tinyusb/src/common/tusb_common.h ****   for (uint8_t i = 0; i < len1; ++i) {
 355:/home/pi/Developer/tinyusb/src/common/tusb_common.h ****     buf1[i] = (uint8_t)(value & 0xFF);
 356:/home/pi/Developer/tinyusb/src/common/tusb_common.h ****     value >>= 8;
 357:/home/pi/Developer/tinyusb/src/common/tusb_common.h ****   }
 358:/home/pi/Developer/tinyusb/src/common/tusb_common.h **** 
 359:/home/pi/Developer/tinyusb/src/common/tusb_common.h ****   for (uint8_t i = 0; i < len2; ++i) {
 360:/home/pi/Developer/tinyusb/src/common/tusb_common.h ****     buf2[i] = (uint8_t)(value & 0xFF);
 361:/home/pi/Developer/tinyusb/src/common/tusb_common.h ****     value >>= 8;
 362:/home/pi/Developer/tinyusb/src/common/tusb_common.h ****   }
 363:/home/pi/Developer/tinyusb/src/common/tusb_common.h **** }
 364:/home/pi/Developer/tinyusb/src/common/tusb_common.h **** 
 365:/home/pi/Developer/tinyusb/src/common/tusb_common.h **** //--------------------------------------------------------------------+
 366:/home/pi/Developer/tinyusb/src/common/tusb_common.h **** // Descriptor helper
 367:/home/pi/Developer/tinyusb/src/common/tusb_common.h **** //--------------------------------------------------------------------+
 368:/home/pi/Developer/tinyusb/src/common/tusb_common.h **** 
 369:/home/pi/Developer/tinyusb/src/common/tusb_common.h **** // return next descriptor
 370:/home/pi/Developer/tinyusb/src/common/tusb_common.h **** TU_ATTR_ALWAYS_INLINE static inline uint8_t const * tu_desc_next(void const* desc) {
 1651              		.loc 3 370 53 view .LVU469
 1652              	.LBB185:
 371:/home/pi/Developer/tinyusb/src/common/tusb_common.h ****   uint8_t const* desc8 = (uint8_t const*) desc;
 1653              		.loc 3 371 3 view .LVU470
 372:/home/pi/Developer/tinyusb/src/common/tusb_common.h ****   return desc8 + desc8[DESC_OFFSET_LEN];
 1654              		.loc 3 372 3 view .LVU471
 1655              		.loc 3 372 23 is_stmt 0 view .LVU472
 1656 003c 91F800E0 		ldrb	lr, [r1]	@ zero_extendqisi2
 1657              		.loc 3 372 16 view .LVU473
 1658 0040 7144     		add	r1, r1, lr
 1659              	.LVL123:
 1660              		.loc 3 372 16 view .LVU474
 1661              	.LBE185:
 1662              	.LBE184:
 247:/home/pi/Developer/tinyusb/src/class/hid/hid_device.c ****   p_hid->hid_descriptor = (tusb_hid_descriptor_hid_t const *)p_desc;
 1663              		.loc 1 247 3 is_stmt 1 view .LVU475
 247:/home/pi/Developer/tinyusb/src/class/hid/hid_device.c ****   p_hid->hid_descriptor = (tusb_hid_descriptor_hid_t const *)p_desc;
 1664              		.loc 1 247 3 view .LVU476
 1665              	.LBB186:
 1666              	.LBI186:
 373:/home/pi/Developer/tinyusb/src/common/tusb_common.h **** }
 374:/home/pi/Developer/tinyusb/src/common/tusb_common.h **** 
 375:/home/pi/Developer/tinyusb/src/common/tusb_common.h **** // get descriptor length
 376:/home/pi/Developer/tinyusb/src/common/tusb_common.h **** TU_ATTR_ALWAYS_INLINE static inline uint8_t tu_desc_len(void const* desc) {
 377:/home/pi/Developer/tinyusb/src/common/tusb_common.h ****   return ((uint8_t const*) desc)[DESC_OFFSET_LEN];
 378:/home/pi/Developer/tinyusb/src/common/tusb_common.h **** }
 379:/home/pi/Developer/tinyusb/src/common/tusb_common.h **** 
 380:/home/pi/Developer/tinyusb/src/common/tusb_common.h **** // get descriptor type
 381:/home/pi/Developer/tinyusb/src/common/tusb_common.h **** TU_ATTR_ALWAYS_INLINE static inline uint8_t tu_desc_type(void const* desc) {
 1667              		.loc 3 381 45 view .LVU477
 1668              	.LBB187:
 382:/home/pi/Developer/tinyusb/src/common/tusb_common.h ****   return ((uint8_t const*) desc)[DESC_OFFSET_TYPE];
 1669              		.loc 3 382 3 view .LVU478
ARM GAS  /tmp/cc6L0ebi.s 			page 49


 1670              		.loc 3 382 3 is_stmt 0 view .LVU479
 1671              	.LBE187:
 1672              	.LBE186:
 247:/home/pi/Developer/tinyusb/src/class/hid/hid_device.c ****   p_hid->hid_descriptor = (tusb_hid_descriptor_hid_t const *)p_desc;
 1673              		.loc 1 247 3 view .LVU480
 1674 0042 91F80180 		ldrb	r8, [r1, #1]	@ zero_extendqisi2
 1675 0046 B8F1210F 		cmp	r8, #33
 1676 004a EBD1     		bne	.L150
 247:/home/pi/Developer/tinyusb/src/class/hid/hid_device.c ****   p_hid->hid_descriptor = (tusb_hid_descriptor_hid_t const *)p_desc;
 1677              		.loc 1 247 3 is_stmt 1 discriminator 2 view .LVU481
 248:/home/pi/Developer/tinyusb/src/class/hid/hid_device.c **** 
 1678              		.loc 1 248 3 discriminator 2 view .LVU482
 248:/home/pi/Developer/tinyusb/src/class/hid/hid_device.c **** 
 1679              		.loc 1 248 25 is_stmt 0 discriminator 2 view .LVU483
 1680 004c B960     		str	r1, [r7, #8]
 251:/home/pi/Developer/tinyusb/src/class/hid/hid_device.c ****   TU_ASSERT(usbd_open_edpt_pair(rhport, p_desc, desc_itf->bNumEndpoints, TUSB_XFER_INTERRUPT, &p_hi
 1681              		.loc 1 251 3 is_stmt 1 discriminator 2 view .LVU484
 1682              	.LVL124:
 1683              	.LBB188:
 1684              	.LBI188:
 370:/home/pi/Developer/tinyusb/src/common/tusb_common.h ****   uint8_t const* desc8 = (uint8_t const*) desc;
 1685              		.loc 3 370 53 discriminator 2 view .LVU485
 1686              	.LBB189:
 371:/home/pi/Developer/tinyusb/src/common/tusb_common.h ****   return desc8 + desc8[DESC_OFFSET_LEN];
 1687              		.loc 3 371 3 discriminator 2 view .LVU486
 372:/home/pi/Developer/tinyusb/src/common/tusb_common.h **** }
 1688              		.loc 3 372 3 discriminator 2 view .LVU487
 372:/home/pi/Developer/tinyusb/src/common/tusb_common.h **** }
 1689              		.loc 3 372 3 is_stmt 0 discriminator 2 view .LVU488
 1690              	.LBE189:
 1691              	.LBE188:
 252:/home/pi/Developer/tinyusb/src/class/hid/hid_device.c **** 
 1692              		.loc 1 252 3 is_stmt 1 discriminator 2 view .LVU489
 252:/home/pi/Developer/tinyusb/src/class/hid/hid_device.c **** 
 1693              		.loc 1 252 3 discriminator 2 view .LVU490
 1694 004e 0646     		mov	r6, r0
 1695              	.LBB191:
 1696              	.LBB190:
 372:/home/pi/Developer/tinyusb/src/common/tusb_common.h **** }
 1697              		.loc 3 372 23 is_stmt 0 discriminator 2 view .LVU491
 1698 0050 14F80E20 		ldrb	r2, [r4, lr]	@ zero_extendqisi2
 1699              	.LBE190:
 1700              	.LBE191:
 252:/home/pi/Developer/tinyusb/src/class/hid/hid_device.c **** 
 1701              		.loc 1 252 3 discriminator 2 view .LVU492
 1702 0054 1144     		add	r1, r1, r2
 1703              	.LVL125:
 252:/home/pi/Developer/tinyusb/src/class/hid/hid_device.c **** 
 1704              		.loc 1 252 3 discriminator 2 view .LVU493
 1705 0056 6246     		mov	r2, ip
 1706 0058 07F1010C 		add	ip, r7, #1
 1707 005c CDF804C0 		str	ip, [sp, #4]
 1708              	.LVL126:
 252:/home/pi/Developer/tinyusb/src/class/hid/hid_device.c **** 
 1709              		.loc 1 252 3 discriminator 2 view .LVU494
 1710 0060 07F1020C 		add	ip, r7, #2
 1711 0064 CDF800C0 		str	ip, [sp]
ARM GAS  /tmp/cc6L0ebi.s 			page 50


 1712 0068 FFF7FEFF 		bl	usbd_open_edpt_pair
 1713              	.LVL127:
 252:/home/pi/Developer/tinyusb/src/class/hid/hid_device.c **** 
 1714              		.loc 1 252 3 discriminator 2 view .LVU495
 1715 006c 0028     		cmp	r0, #0
 1716 006e D9D0     		beq	.L150
 252:/home/pi/Developer/tinyusb/src/class/hid/hid_device.c **** 
 1717              		.loc 1 252 3 is_stmt 1 discriminator 2 view .LVU496
 254:/home/pi/Developer/tinyusb/src/class/hid/hid_device.c ****     p_hid->itf_protocol = desc_itf->bInterfaceProtocol;
 1718              		.loc 1 254 3 discriminator 2 view .LVU497
 254:/home/pi/Developer/tinyusb/src/class/hid/hid_device.c ****     p_hid->itf_protocol = desc_itf->bInterfaceProtocol;
 1719              		.loc 1 254 6 is_stmt 0 discriminator 2 view .LVU498
 1720 0070 A379     		ldrb	r3, [r4, #6]	@ zero_extendqisi2
 1721 0072 012B     		cmp	r3, #1
 1722 0074 01D1     		bne	.L124
 255:/home/pi/Developer/tinyusb/src/class/hid/hid_device.c ****   }
 1723              		.loc 1 255 5 is_stmt 1 view .LVU499
 255:/home/pi/Developer/tinyusb/src/class/hid/hid_device.c ****   }
 1724              		.loc 1 255 25 is_stmt 0 view .LVU500
 1725 0076 E379     		ldrb	r3, [r4, #7]	@ zero_extendqisi2
 1726 0078 FB70     		strb	r3, [r7, #3]
 1727              	.L124:
 258:/home/pi/Developer/tinyusb/src/class/hid/hid_device.c ****   p_hid->itf_num = desc_itf->bInterfaceNumber;
 1728              		.loc 1 258 3 is_stmt 1 view .LVU501
 258:/home/pi/Developer/tinyusb/src/class/hid/hid_device.c ****   p_hid->itf_num = desc_itf->bInterfaceNumber;
 1729              		.loc 1 258 24 is_stmt 0 view .LVU502
 1730 007a 0123     		movs	r3, #1
 265:/home/pi/Developer/tinyusb/src/class/hid/hid_device.c ****     TU_ASSERT(usbd_edpt_xfer(rhport, p_hid->ep_out, p_epbuf->epout, CFG_TUD_HID_EP_BUFSIZE, false),
 1731              		.loc 1 265 12 view .LVU503
 1732 007c B978     		ldrb	r1, [r7, #2]	@ zero_extendqisi2
 258:/home/pi/Developer/tinyusb/src/class/hid/hid_device.c ****   p_hid->itf_num = desc_itf->bInterfaceNumber;
 1733              		.loc 1 258 24 view .LVU504
 1734 007e BB71     		strb	r3, [r7, #6]
 259:/home/pi/Developer/tinyusb/src/class/hid/hid_device.c **** 
 1735              		.loc 1 259 3 is_stmt 1 view .LVU505
 1736              	.LBB192:
 1737              	.LBB193:
 319:/home/pi/Developer/tinyusb/src/common/tusb_common.h **** }
 1738              		.loc 3 319 10 is_stmt 0 view .LVU506
 1739 0080 BB68     		ldr	r3, [r7, #8]
 1740              	.LBE193:
 1741              	.LBE192:
 259:/home/pi/Developer/tinyusb/src/class/hid/hid_device.c **** 
 1742              		.loc 1 259 18 view .LVU507
 1743 0082 A278     		ldrb	r2, [r4, #2]	@ zero_extendqisi2
 262:/home/pi/Developer/tinyusb/src/class/hid/hid_device.c **** 
 1744              		.loc 1 262 26 view .LVU508
 1745 0084 B3F80730 		ldrh	r3, [r3, #7]
 259:/home/pi/Developer/tinyusb/src/class/hid/hid_device.c **** 
 1746              		.loc 1 259 18 view .LVU509
 1747 0088 3A70     		strb	r2, [r7]
 262:/home/pi/Developer/tinyusb/src/class/hid/hid_device.c **** 
 1748              		.loc 1 262 3 is_stmt 1 view .LVU510
 1749              	.LVL128:
 1750              	.LBB195:
 1751              	.LBI192:
 318:/home/pi/Developer/tinyusb/src/common/tusb_common.h ****   return *((uint16_t const *) mem);
ARM GAS  /tmp/cc6L0ebi.s 			page 51


 1752              		.loc 3 318 46 view .LVU511
 1753              	.LBB194:
 319:/home/pi/Developer/tinyusb/src/common/tusb_common.h **** }
 1754              		.loc 3 319 3 view .LVU512
 319:/home/pi/Developer/tinyusb/src/common/tusb_common.h **** }
 1755              		.loc 3 319 3 is_stmt 0 view .LVU513
 1756              	.LBE194:
 1757              	.LBE195:
 262:/home/pi/Developer/tinyusb/src/class/hid/hid_device.c **** 
 1758              		.loc 1 262 26 view .LVU514
 1759 008a BB80     		strh	r3, [r7, #4]	@ movhi
 265:/home/pi/Developer/tinyusb/src/class/hid/hid_device.c ****     TU_ASSERT(usbd_edpt_xfer(rhport, p_hid->ep_out, p_epbuf->epout, CFG_TUD_HID_EP_BUFSIZE, false),
 1760              		.loc 1 265 3 is_stmt 1 view .LVU515
 265:/home/pi/Developer/tinyusb/src/class/hid/hid_device.c ****     TU_ASSERT(usbd_edpt_xfer(rhport, p_hid->ep_out, p_epbuf->epout, CFG_TUD_HID_EP_BUFSIZE, false),
 1761              		.loc 1 265 6 is_stmt 0 view .LVU516
 1762 008c 0029     		cmp	r1, #0
 1763 008e D1D0     		beq	.L128
 266:/home/pi/Developer/tinyusb/src/class/hid/hid_device.c ****   }
 1764              		.loc 1 266 5 is_stmt 1 view .LVU517
 266:/home/pi/Developer/tinyusb/src/class/hid/hid_device.c ****   }
 1765              		.loc 1 266 5 view .LVU518
 1766 0090 0022     		movs	r2, #0
 1767 0092 1023     		movs	r3, #16
 1768 0094 3046     		mov	r0, r6
 1769 0096 0092     		str	r2, [sp]
 1770 0098 074A     		ldr	r2, .L153+4
 1771 009a FFF7FEFF 		bl	usbd_edpt_xfer
 1772              	.LVL129:
 1773 009e 0028     		cmp	r0, #0
 1774 00a0 C8D1     		bne	.L128
 266:/home/pi/Developer/tinyusb/src/class/hid/hid_device.c ****   }
 1775              		.loc 1 266 5 discriminator 1 view .LVU519
 266:/home/pi/Developer/tinyusb/src/class/hid/hid_device.c ****   }
 1776              		.loc 1 266 5 discriminator 1 view .LVU520
 266:/home/pi/Developer/tinyusb/src/class/hid/hid_device.c ****   }
 1777              		.loc 1 266 5 discriminator 1 view .LVU521
 266:/home/pi/Developer/tinyusb/src/class/hid/hid_device.c ****   }
 1778              		.loc 1 266 5 discriminator 1 view .LVU522
 1779              	.LBB196:
 266:/home/pi/Developer/tinyusb/src/class/hid/hid_device.c ****   }
 1780              		.loc 1 266 5 discriminator 1 view .LVU523
 1781              	.LVL130:
 266:/home/pi/Developer/tinyusb/src/class/hid/hid_device.c ****   }
 1782              		.loc 1 266 5 discriminator 1 view .LVU524
 1783 00a2 4FF0E023 		mov	r3, #-536813568
 1784 00a6 D3F8F03D 		ldr	r3, [r3, #3568]
 1785 00aa DB07     		lsls	r3, r3, #31
 1786 00ac C2D5     		bpl	.L128
 266:/home/pi/Developer/tinyusb/src/class/hid/hid_device.c ****   }
 1787              		.loc 1 266 5 discriminator 3 view .LVU525
 1788              		.syntax unified
 1789              	@ 266 "/home/pi/Developer/tinyusb/src/class/hid/hid_device.c" 1
 1790 00ae 00BE     		BKPT #0
 1791              	
 1792              	@ 0 "" 2
 1793              		.thumb
 1794              		.syntax unified
ARM GAS  /tmp/cc6L0ebi.s 			page 52


 1795 00b0 C0E7     		b	.L128
 1796              	.L154:
 1797 00b2 00BF     		.align	2
 1798              	.L153:
 1799 00b4 00000000 		.word	.LANCHOR0
 1800 00b8 20000000 		.word	.LANCHOR1+32
 1801              	.LBE196:
 1802              		.cfi_endproc
 1803              	.LFE438:
 1805              		.section	.text.hidd_control_xfer_cb,"ax",%progbits
 1806              		.align	1
 1807              		.p2align 2,,3
 1808              		.global	hidd_control_xfer_cb
 1809              		.syntax unified
 1810              		.thumb
 1811              		.thumb_func
 1812              		.fpu fpv5-d16
 1814              	hidd_control_xfer_cb:
 1815              	.LVL131:
 1816              	.LFB439:
 271:/home/pi/Developer/tinyusb/src/class/hid/hid_device.c **** 
 272:/home/pi/Developer/tinyusb/src/class/hid/hid_device.c **** // Invoked when a control transfer occurred on an interface of this class
 273:/home/pi/Developer/tinyusb/src/class/hid/hid_device.c **** // Driver response accordingly to the request and the transfer stage (setup/data/ack)
 274:/home/pi/Developer/tinyusb/src/class/hid/hid_device.c **** // return false to stall control endpoint (e.g unsupported request)
 275:/home/pi/Developer/tinyusb/src/class/hid/hid_device.c **** bool hidd_control_xfer_cb(uint8_t rhport, uint8_t stage, tusb_control_request_t const *request) {
 1817              		.loc 1 275 97 view -0
 1818              		.cfi_startproc
 1819              		@ args = 0, pretend = 0, frame = 0
 1820              		@ frame_needed = 0, uses_anonymous_args = 0
 276:/home/pi/Developer/tinyusb/src/class/hid/hid_device.c ****   TU_VERIFY(request->bmRequestType_bit.recipient == TUSB_REQ_RCPT_INTERFACE);
 1821              		.loc 1 276 3 view .LVU527
 1822              		.loc 1 276 3 view .LVU528
 275:/home/pi/Developer/tinyusb/src/class/hid/hid_device.c ****   TU_VERIFY(request->bmRequestType_bit.recipient == TUSB_REQ_RCPT_INTERFACE);
 1823              		.loc 1 275 97 is_stmt 0 view .LVU529
 1824 0000 F0B5     		push	{r4, r5, r6, r7, lr}
 1825              		.cfi_def_cfa_offset 20
 1826              		.cfi_offset 4, -20
 1827              		.cfi_offset 5, -16
 1828              		.cfi_offset 6, -12
 1829              		.cfi_offset 7, -8
 1830              		.cfi_offset 14, -4
 1831 0002 1446     		mov	r4, r2
 1832              		.loc 1 276 3 view .LVU530
 1833 0004 1278     		ldrb	r2, [r2]	@ zero_extendqisi2
 1834              	.LVL132:
 275:/home/pi/Developer/tinyusb/src/class/hid/hid_device.c ****   TU_VERIFY(request->bmRequestType_bit.recipient == TUSB_REQ_RCPT_INTERFACE);
 1835              		.loc 1 275 97 view .LVU531
 1836 0006 83B0     		sub	sp, sp, #12
 1837              		.cfi_def_cfa_offset 32
 1838              		.loc 1 276 3 view .LVU532
 1839 0008 02F01F03 		and	r3, r2, #31
 1840 000c 012B     		cmp	r3, #1
 1841 000e 14D1     		bne	.L174
 1842              		.loc 1 276 3 is_stmt 1 discriminator 2 view .LVU533
 277:/home/pi/Developer/tinyusb/src/class/hid/hid_device.c **** 
 278:/home/pi/Developer/tinyusb/src/class/hid/hid_device.c ****   uint8_t const hid_itf = get_index_by_itfnum((uint8_t)request->wIndex);
 1843              		.loc 1 278 3 discriminator 2 view .LVU534
ARM GAS  /tmp/cc6L0ebi.s 			page 53


 1844              	.LVL133:
 1845              	.LBB197:
 1846              	.LBI197:
  67:/home/pi/Developer/tinyusb/src/class/hid/hid_device.c ****   for (uint8_t i = 0; i < CFG_TUD_HID; i++) {
 1847              		.loc 1 67 45 discriminator 2 view .LVU535
 1848              	.LBE197:
  68:/home/pi/Developer/tinyusb/src/class/hid/hid_device.c ****     if (itf_num == _hidd_itf[i].itf_num) {
 1849              		.loc 1 68 3 discriminator 2 view .LVU536
 1850              	.LBB200:
 1851              	.LBB198:
  68:/home/pi/Developer/tinyusb/src/class/hid/hid_device.c ****     if (itf_num == _hidd_itf[i].itf_num) {
 1852              		.loc 1 68 8 discriminator 2 view .LVU537
  68:/home/pi/Developer/tinyusb/src/class/hid/hid_device.c ****     if (itf_num == _hidd_itf[i].itf_num) {
 1853              		.loc 1 68 23 discriminator 2 view .LVU538
  69:/home/pi/Developer/tinyusb/src/class/hid/hid_device.c ****       return i;
 1854              		.loc 1 69 5 discriminator 2 view .LVU539
 1855              	.LBE198:
 1856              	.LBE200:
 1857              		.loc 1 278 63 is_stmt 0 discriminator 2 view .LVU540
 1858 0010 B4F804C0 		ldrh	ip, [r4, #4]	@ unaligned
 1859 0014 0D46     		mov	r5, r1
 1860              	.LBB201:
 1861              	.LBB199:
  69:/home/pi/Developer/tinyusb/src/class/hid/hid_device.c ****       return i;
 1862              		.loc 1 69 32 discriminator 2 view .LVU541
 1863 0016 6B4F     		ldr	r7, .L214
  69:/home/pi/Developer/tinyusb/src/class/hid/hid_device.c ****       return i;
 1864              		.loc 1 69 8 discriminator 2 view .LVU542
 1865 0018 5FFA8CFC 		uxtb	ip, ip
 1866 001c 3978     		ldrb	r1, [r7]	@ zero_extendqisi2
 1867              	.LVL134:
  69:/home/pi/Developer/tinyusb/src/class/hid/hid_device.c ****       return i;
 1868              		.loc 1 69 8 discriminator 2 view .LVU543
 1869 001e 6145     		cmp	r1, ip
 1870 0020 0BD1     		bne	.L174
 1871              	.LVL135:
  69:/home/pi/Developer/tinyusb/src/class/hid/hid_device.c ****       return i;
 1872              		.loc 1 69 8 discriminator 2 view .LVU544
 1873              	.LBE199:
 1874              	.LBE201:
 279:/home/pi/Developer/tinyusb/src/class/hid/hid_device.c ****   TU_VERIFY(hid_itf < CFG_TUD_HID);
 1875              		.loc 1 279 3 is_stmt 1 view .LVU545
 1876              		.loc 1 279 3 view .LVU546
 1877              		.loc 1 279 3 view .LVU547
 280:/home/pi/Developer/tinyusb/src/class/hid/hid_device.c ****   hidd_interface_t *p_hid = &_hidd_itf[hid_itf];
 1878              		.loc 1 280 3 view .LVU548
 281:/home/pi/Developer/tinyusb/src/class/hid/hid_device.c ****   hidd_epbuf_t *p_epbuf = &_hidd_epbuf[hid_itf];
 1879              		.loc 1 281 3 view .LVU549
 282:/home/pi/Developer/tinyusb/src/class/hid/hid_device.c **** 
 283:/home/pi/Developer/tinyusb/src/class/hid/hid_device.c ****   if (request->bmRequestType_bit.type == TUSB_REQ_TYPE_STANDARD) {
 1880              		.loc 1 283 3 view .LVU550
 1881              		.loc 1 283 6 is_stmt 0 view .LVU551
 1882 0022 12F06002 		ands	r2, r2, #96
 1883 0026 0646     		mov	r6, r0
 1884 0028 0AD1     		bne	.L159
 284:/home/pi/Developer/tinyusb/src/class/hid/hid_device.c ****     //------------- STD Request -------------//
 285:/home/pi/Developer/tinyusb/src/class/hid/hid_device.c ****     if (stage == CONTROL_STAGE_SETUP) {
ARM GAS  /tmp/cc6L0ebi.s 			page 54


 1885              		.loc 1 285 5 is_stmt 1 view .LVU552
 1886              		.loc 1 285 8 is_stmt 0 view .LVU553
 1887 002a 012D     		cmp	r5, #1
 1888 002c 02D0     		beq	.L210
 1889              	.LVL136:
 1890              	.L183:
 286:/home/pi/Developer/tinyusb/src/class/hid/hid_device.c ****       uint8_t const desc_type = tu_u16_high(request->wValue);
 287:/home/pi/Developer/tinyusb/src/class/hid/hid_device.c ****       // uint8_t const desc_index = tu_u16_low (request->wValue);
 288:/home/pi/Developer/tinyusb/src/class/hid/hid_device.c **** 
 289:/home/pi/Developer/tinyusb/src/class/hid/hid_device.c ****       if (request->bRequest == TUSB_REQ_GET_DESCRIPTOR && desc_type == HID_DESC_TYPE_HID) {
 290:/home/pi/Developer/tinyusb/src/class/hid/hid_device.c ****         TU_VERIFY(p_hid->hid_descriptor);
 291:/home/pi/Developer/tinyusb/src/class/hid/hid_device.c ****         TU_VERIFY(tud_control_xfer(rhport, request, (void *)(uintptr_t)p_hid->hid_descriptor, p_hid
 292:/home/pi/Developer/tinyusb/src/class/hid/hid_device.c ****       } else if (request->bRequest == TUSB_REQ_GET_DESCRIPTOR && desc_type == HID_DESC_TYPE_REPORT)
 293:/home/pi/Developer/tinyusb/src/class/hid/hid_device.c ****         uint8_t const *desc_report = tud_hid_descriptor_report_cb(hid_itf);
 294:/home/pi/Developer/tinyusb/src/class/hid/hid_device.c ****         tud_control_xfer(rhport, request, (void *)(uintptr_t)desc_report, p_hid->report_desc_len);
 295:/home/pi/Developer/tinyusb/src/class/hid/hid_device.c ****       } else {
 296:/home/pi/Developer/tinyusb/src/class/hid/hid_device.c ****         return false; // stall unsupported request
 297:/home/pi/Developer/tinyusb/src/class/hid/hid_device.c ****       }
 298:/home/pi/Developer/tinyusb/src/class/hid/hid_device.c ****     }
 299:/home/pi/Developer/tinyusb/src/class/hid/hid_device.c ****   } else if (request->bmRequestType_bit.type == TUSB_REQ_TYPE_CLASS) {
 300:/home/pi/Developer/tinyusb/src/class/hid/hid_device.c ****     //------------- Class Specific Request -------------//
 301:/home/pi/Developer/tinyusb/src/class/hid/hid_device.c ****     switch (request->bRequest) {
 302:/home/pi/Developer/tinyusb/src/class/hid/hid_device.c ****       case HID_REQ_CONTROL_GET_REPORT:
 303:/home/pi/Developer/tinyusb/src/class/hid/hid_device.c ****         if (stage == CONTROL_STAGE_SETUP) {
 304:/home/pi/Developer/tinyusb/src/class/hid/hid_device.c ****           uint8_t const report_type = tu_u16_high(request->wValue);
 305:/home/pi/Developer/tinyusb/src/class/hid/hid_device.c ****           uint8_t const report_id = tu_u16_low(request->wValue);
 306:/home/pi/Developer/tinyusb/src/class/hid/hid_device.c **** 
 307:/home/pi/Developer/tinyusb/src/class/hid/hid_device.c ****           uint8_t* report_buf = p_epbuf->ctrl;
 308:/home/pi/Developer/tinyusb/src/class/hid/hid_device.c ****           uint16_t req_len = tu_min16(request->wLength, CFG_TUD_HID_EP_BUFSIZE);
 309:/home/pi/Developer/tinyusb/src/class/hid/hid_device.c ****           uint16_t xferlen = 0;
 310:/home/pi/Developer/tinyusb/src/class/hid/hid_device.c **** 
 311:/home/pi/Developer/tinyusb/src/class/hid/hid_device.c ****           // If host request a specific Report ID, add ID to as 1 byte of response
 312:/home/pi/Developer/tinyusb/src/class/hid/hid_device.c ****           if ((report_id != HID_REPORT_TYPE_INVALID) && (req_len > 1)) {
 313:/home/pi/Developer/tinyusb/src/class/hid/hid_device.c ****             *report_buf++ = report_id;
 314:/home/pi/Developer/tinyusb/src/class/hid/hid_device.c ****             req_len--;
 315:/home/pi/Developer/tinyusb/src/class/hid/hid_device.c ****             xferlen++;
 316:/home/pi/Developer/tinyusb/src/class/hid/hid_device.c ****           }
 317:/home/pi/Developer/tinyusb/src/class/hid/hid_device.c **** 
 318:/home/pi/Developer/tinyusb/src/class/hid/hid_device.c ****           xferlen += tud_hid_get_report_cb(hid_itf, report_id, (hid_report_type_t) report_type, rep
 319:/home/pi/Developer/tinyusb/src/class/hid/hid_device.c ****           TU_ASSERT(xferlen > 0);
 320:/home/pi/Developer/tinyusb/src/class/hid/hid_device.c **** 
 321:/home/pi/Developer/tinyusb/src/class/hid/hid_device.c ****           tud_control_xfer(rhport, request, p_epbuf->ctrl, xferlen);
 322:/home/pi/Developer/tinyusb/src/class/hid/hid_device.c ****         }
 323:/home/pi/Developer/tinyusb/src/class/hid/hid_device.c ****         break;
 324:/home/pi/Developer/tinyusb/src/class/hid/hid_device.c **** 
 325:/home/pi/Developer/tinyusb/src/class/hid/hid_device.c ****       case HID_REQ_CONTROL_SET_REPORT:
 326:/home/pi/Developer/tinyusb/src/class/hid/hid_device.c ****         if (stage == CONTROL_STAGE_SETUP) {
 327:/home/pi/Developer/tinyusb/src/class/hid/hid_device.c ****           TU_VERIFY(request->wLength <= CFG_TUD_HID_EP_BUFSIZE);
 328:/home/pi/Developer/tinyusb/src/class/hid/hid_device.c ****           tud_control_xfer(rhport, request, p_epbuf->ctrl, request->wLength);
 329:/home/pi/Developer/tinyusb/src/class/hid/hid_device.c ****         } else if (stage == CONTROL_STAGE_ACK) {
 330:/home/pi/Developer/tinyusb/src/class/hid/hid_device.c ****           uint8_t const report_type = tu_u16_high(request->wValue);
 331:/home/pi/Developer/tinyusb/src/class/hid/hid_device.c ****           uint8_t const report_id = tu_u16_low(request->wValue);
 332:/home/pi/Developer/tinyusb/src/class/hid/hid_device.c **** 
 333:/home/pi/Developer/tinyusb/src/class/hid/hid_device.c ****           uint8_t const* report_buf = p_epbuf->ctrl;
 334:/home/pi/Developer/tinyusb/src/class/hid/hid_device.c ****           uint16_t report_len = tu_min16(request->wLength, CFG_TUD_HID_EP_BUFSIZE);
 335:/home/pi/Developer/tinyusb/src/class/hid/hid_device.c **** 
 336:/home/pi/Developer/tinyusb/src/class/hid/hid_device.c ****           // If host request a specific Report ID, extract report ID in buffer before invoking call
ARM GAS  /tmp/cc6L0ebi.s 			page 55


 337:/home/pi/Developer/tinyusb/src/class/hid/hid_device.c ****           if ((report_id != HID_REPORT_TYPE_INVALID) && (report_len > 1) && (report_id == report_bu
 338:/home/pi/Developer/tinyusb/src/class/hid/hid_device.c ****             report_buf++;
 339:/home/pi/Developer/tinyusb/src/class/hid/hid_device.c ****             report_len--;
 340:/home/pi/Developer/tinyusb/src/class/hid/hid_device.c ****           }
 341:/home/pi/Developer/tinyusb/src/class/hid/hid_device.c **** 
 342:/home/pi/Developer/tinyusb/src/class/hid/hid_device.c ****           tud_hid_set_report_cb(hid_itf, report_id, (hid_report_type_t) report_type, report_buf, re
 343:/home/pi/Developer/tinyusb/src/class/hid/hid_device.c ****         }
 344:/home/pi/Developer/tinyusb/src/class/hid/hid_device.c ****         break;
 345:/home/pi/Developer/tinyusb/src/class/hid/hid_device.c **** 
 346:/home/pi/Developer/tinyusb/src/class/hid/hid_device.c ****       case HID_REQ_CONTROL_SET_IDLE:
 347:/home/pi/Developer/tinyusb/src/class/hid/hid_device.c ****         if (stage == CONTROL_STAGE_SETUP) {
 348:/home/pi/Developer/tinyusb/src/class/hid/hid_device.c ****           p_hid->idle_rate = tu_u16_high(request->wValue);
 349:/home/pi/Developer/tinyusb/src/class/hid/hid_device.c ****           TU_VERIFY(tud_hid_set_idle_cb(hid_itf, p_hid->idle_rate)); // stall if false
 350:/home/pi/Developer/tinyusb/src/class/hid/hid_device.c ****           tud_control_status(rhport, request);
 351:/home/pi/Developer/tinyusb/src/class/hid/hid_device.c ****         }
 352:/home/pi/Developer/tinyusb/src/class/hid/hid_device.c ****         break;
 353:/home/pi/Developer/tinyusb/src/class/hid/hid_device.c **** 
 354:/home/pi/Developer/tinyusb/src/class/hid/hid_device.c ****       case HID_REQ_CONTROL_GET_IDLE:
 355:/home/pi/Developer/tinyusb/src/class/hid/hid_device.c ****         if (stage == CONTROL_STAGE_SETUP) {
 356:/home/pi/Developer/tinyusb/src/class/hid/hid_device.c ****           // TODO idle rate of report
 357:/home/pi/Developer/tinyusb/src/class/hid/hid_device.c ****           tud_control_xfer(rhport, request, &p_hid->idle_rate, 1);
 358:/home/pi/Developer/tinyusb/src/class/hid/hid_device.c ****         }
 359:/home/pi/Developer/tinyusb/src/class/hid/hid_device.c ****         break;
 360:/home/pi/Developer/tinyusb/src/class/hid/hid_device.c **** 
 361:/home/pi/Developer/tinyusb/src/class/hid/hid_device.c ****       case HID_REQ_CONTROL_GET_PROTOCOL:
 362:/home/pi/Developer/tinyusb/src/class/hid/hid_device.c ****         if (stage == CONTROL_STAGE_SETUP) {
 363:/home/pi/Developer/tinyusb/src/class/hid/hid_device.c ****           tud_control_xfer(rhport, request, &p_hid->protocol_mode, 1);
 364:/home/pi/Developer/tinyusb/src/class/hid/hid_device.c ****         }
 365:/home/pi/Developer/tinyusb/src/class/hid/hid_device.c ****         break;
 366:/home/pi/Developer/tinyusb/src/class/hid/hid_device.c **** 
 367:/home/pi/Developer/tinyusb/src/class/hid/hid_device.c ****       case HID_REQ_CONTROL_SET_PROTOCOL:
 368:/home/pi/Developer/tinyusb/src/class/hid/hid_device.c ****         if (stage == CONTROL_STAGE_SETUP) {
 369:/home/pi/Developer/tinyusb/src/class/hid/hid_device.c ****           tud_control_status(rhport, request);
 370:/home/pi/Developer/tinyusb/src/class/hid/hid_device.c ****         } else if (stage == CONTROL_STAGE_ACK) {
 371:/home/pi/Developer/tinyusb/src/class/hid/hid_device.c ****           p_hid->protocol_mode = (uint8_t) request->wValue;
 372:/home/pi/Developer/tinyusb/src/class/hid/hid_device.c ****           tud_hid_set_protocol_cb(hid_itf, p_hid->protocol_mode);
 373:/home/pi/Developer/tinyusb/src/class/hid/hid_device.c ****         }
 374:/home/pi/Developer/tinyusb/src/class/hid/hid_device.c ****         break;
 375:/home/pi/Developer/tinyusb/src/class/hid/hid_device.c **** 
 376:/home/pi/Developer/tinyusb/src/class/hid/hid_device.c ****       default:
 377:/home/pi/Developer/tinyusb/src/class/hid/hid_device.c ****         return false; // stall unsupported request
 378:/home/pi/Developer/tinyusb/src/class/hid/hid_device.c ****     }
 379:/home/pi/Developer/tinyusb/src/class/hid/hid_device.c ****   } else {
 380:/home/pi/Developer/tinyusb/src/class/hid/hid_device.c ****     return false; // stall unsupported request
 381:/home/pi/Developer/tinyusb/src/class/hid/hid_device.c ****   }
 382:/home/pi/Developer/tinyusb/src/class/hid/hid_device.c **** 
 383:/home/pi/Developer/tinyusb/src/class/hid/hid_device.c ****   return true;
 1891              		.loc 1 383 10 view .LVU554
 1892 002e 0120     		movs	r0, #1
 1893              	.LVL137:
 384:/home/pi/Developer/tinyusb/src/class/hid/hid_device.c **** }
 1894              		.loc 1 384 1 view .LVU555
 1895 0030 03B0     		add	sp, sp, #12
 1896              		.cfi_remember_state
 1897              		.cfi_def_cfa_offset 20
 1898              		@ sp needed
 1899 0032 F0BD     		pop	{r4, r5, r6, r7, pc}
ARM GAS  /tmp/cc6L0ebi.s 			page 56


 1900              	.LVL138:
 1901              	.L210:
 1902              		.cfi_restore_state
 1903              	.LBB202:
 286:/home/pi/Developer/tinyusb/src/class/hid/hid_device.c ****       uint8_t const desc_type = tu_u16_high(request->wValue);
 1904              		.loc 1 286 7 is_stmt 1 view .LVU556
 1905              	.LBB203:
 1906              	.LBI203:
 196:/home/pi/Developer/tinyusb/src/common/tusb_common.h **** TU_ATTR_ALWAYS_INLINE static inline uint8_t tu_u16_low (uint16_t ui16) { return TU_U16_LOW(ui16); }
 1907              		.loc 3 196 45 view .LVU557
 1908              	.LBB204:
 196:/home/pi/Developer/tinyusb/src/common/tusb_common.h **** TU_ATTR_ALWAYS_INLINE static inline uint8_t tu_u16_low (uint16_t ui16) { return TU_U16_LOW(ui16); }
 1909              		.loc 3 196 74 view .LVU558
 196:/home/pi/Developer/tinyusb/src/common/tusb_common.h **** TU_ATTR_ALWAYS_INLINE static inline uint8_t tu_u16_low (uint16_t ui16) { return TU_U16_LOW(ui16); }
 1910              		.loc 3 196 74 is_stmt 0 view .LVU559
 1911              	.LBE204:
 1912              	.LBE203:
 289:/home/pi/Developer/tinyusb/src/class/hid/hid_device.c ****         TU_VERIFY(p_hid->hid_descriptor);
 1913              		.loc 1 289 7 is_stmt 1 view .LVU560
 289:/home/pi/Developer/tinyusb/src/class/hid/hid_device.c ****         TU_VERIFY(p_hid->hid_descriptor);
 1914              		.loc 1 289 10 is_stmt 0 view .LVU561
 1915 0034 6378     		ldrb	r3, [r4, #1]	@ zero_extendqisi2
 1916 0036 062B     		cmp	r3, #6
 1917 0038 22D0     		beq	.L211
 1918              	.LVL139:
 1919              	.L174:
 289:/home/pi/Developer/tinyusb/src/class/hid/hid_device.c ****         TU_VERIFY(p_hid->hid_descriptor);
 1920              		.loc 1 289 10 view .LVU562
 1921              	.LBE202:
 301:/home/pi/Developer/tinyusb/src/class/hid/hid_device.c ****       case HID_REQ_CONTROL_GET_REPORT:
 1922              		.loc 1 301 20 view .LVU563
 1923 003a 0020     		movs	r0, #0
 1924              	.LVL140:
 1925              	.L157:
 1926              		.loc 1 384 1 view .LVU564
 1927 003c 03B0     		add	sp, sp, #12
 1928              		.cfi_remember_state
 1929              		.cfi_def_cfa_offset 20
 1930              		@ sp needed
 1931 003e F0BD     		pop	{r4, r5, r6, r7, pc}
 1932              	.LVL141:
 1933              	.L159:
 1934              		.cfi_restore_state
 299:/home/pi/Developer/tinyusb/src/class/hid/hid_device.c ****     //------------- Class Specific Request -------------//
 1935              		.loc 1 299 10 is_stmt 1 view .LVU565
 299:/home/pi/Developer/tinyusb/src/class/hid/hid_device.c ****     //------------- Class Specific Request -------------//
 1936              		.loc 1 299 13 is_stmt 0 view .LVU566
 1937 0040 202A     		cmp	r2, #32
 1938 0042 FAD1     		bne	.L174
 301:/home/pi/Developer/tinyusb/src/class/hid/hid_device.c ****       case HID_REQ_CONTROL_GET_REPORT:
 1939              		.loc 1 301 5 is_stmt 1 view .LVU567
 1940 0044 6378     		ldrb	r3, [r4, #1]	@ zero_extendqisi2
 1941 0046 013B     		subs	r3, r3, #1
 1942 0048 0A2B     		cmp	r3, #10
 1943 004a F6D8     		bhi	.L174
 1944 004c 01A2     		adr	r2, .L162
 1945 004e 52F823F0 		ldr	pc, [r2, r3, lsl #2]
ARM GAS  /tmp/cc6L0ebi.s 			page 57


 1946 0052 00BF     		.p2align 2
 1947              	.L162:
 1948 0054 39010000 		.word	.L167+1
 1949 0058 27010000 		.word	.L166+1
 1950 005c 15010000 		.word	.L165+1
 1951 0060 3B000000 		.word	.L174+1
 1952 0064 3B000000 		.word	.L174+1
 1953 0068 3B000000 		.word	.L174+1
 1954 006c 3B000000 		.word	.L174+1
 1955 0070 3B000000 		.word	.L174+1
 1956 0074 D9000000 		.word	.L164+1
 1957 0078 B9000000 		.word	.L163+1
 1958 007c A3000000 		.word	.L161+1
 1959              	.LVL142:
 1960              		.p2align 1
 1961              	.L211:
 1962              	.LBB208:
 1963              	.LBB206:
 1964              	.LBB205:
 196:/home/pi/Developer/tinyusb/src/common/tusb_common.h **** TU_ATTR_ALWAYS_INLINE static inline uint8_t tu_u16_low (uint16_t ui16) { return TU_U16_LOW(ui16); }
 1965              		.loc 3 196 81 is_stmt 0 discriminator 1 view .LVU568
 1966 0080 6388     		ldrh	r3, [r4, #2]	@ unaligned
 1967 0082 1B0A     		lsrs	r3, r3, #8
 1968              	.LBE205:
 1969              	.LBE206:
 289:/home/pi/Developer/tinyusb/src/class/hid/hid_device.c ****         TU_VERIFY(p_hid->hid_descriptor);
 1970              		.loc 1 289 56 discriminator 1 view .LVU569
 1971 0084 212B     		cmp	r3, #33
 1972 0086 7DD0     		beq	.L212
 292:/home/pi/Developer/tinyusb/src/class/hid/hid_device.c ****         uint8_t const *desc_report = tud_hid_descriptor_report_cb(hid_itf);
 1973              		.loc 1 292 14 is_stmt 1 discriminator 1 view .LVU570
 292:/home/pi/Developer/tinyusb/src/class/hid/hid_device.c ****         uint8_t const *desc_report = tud_hid_descriptor_report_cb(hid_itf);
 1974              		.loc 1 292 63 is_stmt 0 discriminator 1 view .LVU571
 1975 0088 222B     		cmp	r3, #34
 1976 008a D6D1     		bne	.L174
 1977              	.LBB207:
 293:/home/pi/Developer/tinyusb/src/class/hid/hid_device.c ****         tud_control_xfer(rhport, request, (void *)(uintptr_t)desc_report, p_hid->report_desc_len);
 1978              		.loc 1 293 9 is_stmt 1 view .LVU572
 293:/home/pi/Developer/tinyusb/src/class/hid/hid_device.c ****         tud_control_xfer(rhport, request, (void *)(uintptr_t)desc_report, p_hid->report_desc_len);
 1979              		.loc 1 293 38 is_stmt 0 view .LVU573
 1980 008c 1046     		mov	r0, r2
 1981              	.LVL143:
 293:/home/pi/Developer/tinyusb/src/class/hid/hid_device.c ****         tud_control_xfer(rhport, request, (void *)(uintptr_t)desc_report, p_hid->report_desc_len);
 1982              		.loc 1 293 38 view .LVU574
 1983 008e FFF7FEFF 		bl	tud_hid_descriptor_report_cb
 1984              	.LVL144:
 294:/home/pi/Developer/tinyusb/src/class/hid/hid_device.c ****       } else {
 1985              		.loc 1 294 9 view .LVU575
 1986 0092 BB88     		ldrh	r3, [r7, #4]
 293:/home/pi/Developer/tinyusb/src/class/hid/hid_device.c ****         tud_control_xfer(rhport, request, (void *)(uintptr_t)desc_report, p_hid->report_desc_len);
 1987              		.loc 1 293 38 view .LVU576
 1988 0094 0246     		mov	r2, r0
 1989              	.LVL145:
 294:/home/pi/Developer/tinyusb/src/class/hid/hid_device.c ****       } else {
 1990              		.loc 1 294 9 is_stmt 1 view .LVU577
 1991 0096 2146     		mov	r1, r4
 1992 0098 3046     		mov	r0, r6
ARM GAS  /tmp/cc6L0ebi.s 			page 58


 1993              	.LVL146:
 294:/home/pi/Developer/tinyusb/src/class/hid/hid_device.c ****       } else {
 1994              		.loc 1 294 9 is_stmt 0 view .LVU578
 1995 009a FFF7FEFF 		bl	tud_control_xfer
 1996              	.LVL147:
 294:/home/pi/Developer/tinyusb/src/class/hid/hid_device.c ****       } else {
 1997              		.loc 1 294 9 view .LVU579
 1998              	.LBE207:
 1999              	.LBE208:
 383:/home/pi/Developer/tinyusb/src/class/hid/hid_device.c **** }
 2000              		.loc 1 383 10 view .LVU580
 2001 009e 2846     		mov	r0, r5
 2002              	.LBB209:
 292:/home/pi/Developer/tinyusb/src/class/hid/hid_device.c ****         uint8_t const *desc_report = tud_hid_descriptor_report_cb(hid_itf);
 2003              		.loc 1 292 101 view .LVU581
 2004 00a0 CCE7     		b	.L157
 2005              	.LVL148:
 2006              	.L161:
 292:/home/pi/Developer/tinyusb/src/class/hid/hid_device.c ****         uint8_t const *desc_report = tud_hid_descriptor_report_cb(hid_itf);
 2007              		.loc 1 292 101 view .LVU582
 2008              	.LBE209:
 368:/home/pi/Developer/tinyusb/src/class/hid/hid_device.c ****           tud_control_status(rhport, request);
 2009              		.loc 1 368 9 is_stmt 1 view .LVU583
 368:/home/pi/Developer/tinyusb/src/class/hid/hid_device.c ****           tud_control_status(rhport, request);
 2010              		.loc 1 368 12 is_stmt 0 view .LVU584
 2011 00a2 012D     		cmp	r5, #1
 2012 00a4 12D0     		beq	.L172
 370:/home/pi/Developer/tinyusb/src/class/hid/hid_device.c ****           p_hid->protocol_mode = (uint8_t) request->wValue;
 2013              		.loc 1 370 16 is_stmt 1 view .LVU585
 370:/home/pi/Developer/tinyusb/src/class/hid/hid_device.c ****           p_hid->protocol_mode = (uint8_t) request->wValue;
 2014              		.loc 1 370 19 is_stmt 0 view .LVU586
 2015 00a6 032D     		cmp	r5, #3
 2016 00a8 C1D1     		bne	.L183
 371:/home/pi/Developer/tinyusb/src/class/hid/hid_device.c ****           tud_hid_set_protocol_cb(hid_itf, p_hid->protocol_mode);
 2017              		.loc 1 371 11 is_stmt 1 view .LVU587
 371:/home/pi/Developer/tinyusb/src/class/hid/hid_device.c ****           tud_hid_set_protocol_cb(hid_itf, p_hid->protocol_mode);
 2018              		.loc 1 371 51 is_stmt 0 view .LVU588
 2019 00aa 6188     		ldrh	r1, [r4, #2]	@ unaligned
 372:/home/pi/Developer/tinyusb/src/class/hid/hid_device.c ****         }
 2020              		.loc 1 372 11 view .LVU589
 2021 00ac 0020     		movs	r0, #0
 2022              	.LVL149:
 371:/home/pi/Developer/tinyusb/src/class/hid/hid_device.c ****           tud_hid_set_protocol_cb(hid_itf, p_hid->protocol_mode);
 2023              		.loc 1 371 34 view .LVU590
 2024 00ae C9B2     		uxtb	r1, r1
 371:/home/pi/Developer/tinyusb/src/class/hid/hid_device.c ****           tud_hid_set_protocol_cb(hid_itf, p_hid->protocol_mode);
 2025              		.loc 1 371 32 view .LVU591
 2026 00b0 B971     		strb	r1, [r7, #6]
 372:/home/pi/Developer/tinyusb/src/class/hid/hid_device.c ****         }
 2027              		.loc 1 372 11 is_stmt 1 view .LVU592
 2028 00b2 FFF7FEFF 		bl	tud_hid_set_protocol_cb
 2029              	.LVL150:
 2030 00b6 BAE7     		b	.L183
 2031              	.LVL151:
 2032              	.L163:
 347:/home/pi/Developer/tinyusb/src/class/hid/hid_device.c ****           p_hid->idle_rate = tu_u16_high(request->wValue);
 2033              		.loc 1 347 9 view .LVU593
ARM GAS  /tmp/cc6L0ebi.s 			page 59


 347:/home/pi/Developer/tinyusb/src/class/hid/hid_device.c ****           p_hid->idle_rate = tu_u16_high(request->wValue);
 2034              		.loc 1 347 12 is_stmt 0 view .LVU594
 2035 00b8 012D     		cmp	r5, #1
 2036 00ba B8D1     		bne	.L183
 348:/home/pi/Developer/tinyusb/src/class/hid/hid_device.c ****           TU_VERIFY(tud_hid_set_idle_cb(hid_itf, p_hid->idle_rate)); // stall if false
 2037              		.loc 1 348 11 is_stmt 1 view .LVU595
 2038              	.LVL152:
 2039              	.LBB210:
 2040              	.LBI210:
 196:/home/pi/Developer/tinyusb/src/common/tusb_common.h **** TU_ATTR_ALWAYS_INLINE static inline uint8_t tu_u16_low (uint16_t ui16) { return TU_U16_LOW(ui16); }
 2041              		.loc 3 196 45 view .LVU596
 2042              	.LBB211:
 196:/home/pi/Developer/tinyusb/src/common/tusb_common.h **** TU_ATTR_ALWAYS_INLINE static inline uint8_t tu_u16_low (uint16_t ui16) { return TU_U16_LOW(ui16); }
 2043              		.loc 3 196 74 view .LVU597
 196:/home/pi/Developer/tinyusb/src/common/tusb_common.h **** TU_ATTR_ALWAYS_INLINE static inline uint8_t tu_u16_low (uint16_t ui16) { return TU_U16_LOW(ui16); }
 2044              		.loc 3 196 81 is_stmt 0 view .LVU598
 2045 00bc 6188     		ldrh	r1, [r4, #2]	@ unaligned
 2046              	.LBE211:
 2047              	.LBE210:
 349:/home/pi/Developer/tinyusb/src/class/hid/hid_device.c ****           tud_control_status(rhport, request);
 2048              		.loc 1 349 11 view .LVU599
 2049 00be 0020     		movs	r0, #0
 2050              	.LVL153:
 2051              	.LBB213:
 2052              	.LBB212:
 196:/home/pi/Developer/tinyusb/src/common/tusb_common.h **** TU_ATTR_ALWAYS_INLINE static inline uint8_t tu_u16_low (uint16_t ui16) { return TU_U16_LOW(ui16); }
 2053              		.loc 3 196 81 view .LVU600
 2054 00c0 090A     		lsrs	r1, r1, #8
 2055              	.LVL154:
 196:/home/pi/Developer/tinyusb/src/common/tusb_common.h **** TU_ATTR_ALWAYS_INLINE static inline uint8_t tu_u16_low (uint16_t ui16) { return TU_U16_LOW(ui16); }
 2056              		.loc 3 196 81 view .LVU601
 2057              	.LBE212:
 2058              	.LBE213:
 348:/home/pi/Developer/tinyusb/src/class/hid/hid_device.c ****           TU_VERIFY(tud_hid_set_idle_cb(hid_itf, p_hid->idle_rate)); // stall if false
 2059              		.loc 1 348 28 view .LVU602
 2060 00c2 F971     		strb	r1, [r7, #7]
 349:/home/pi/Developer/tinyusb/src/class/hid/hid_device.c ****           tud_control_status(rhport, request);
 2061              		.loc 1 349 11 is_stmt 1 view .LVU603
 349:/home/pi/Developer/tinyusb/src/class/hid/hid_device.c ****           tud_control_status(rhport, request);
 2062              		.loc 1 349 11 view .LVU604
 2063 00c4 FFF7FEFF 		bl	tud_hid_set_idle_cb
 2064              	.LVL155:
 2065 00c8 0028     		cmp	r0, #0
 2066 00ca B6D0     		beq	.L174
 2067              	.L172:
 349:/home/pi/Developer/tinyusb/src/class/hid/hid_device.c ****           tud_control_status(rhport, request);
 2068              		.loc 1 349 11 discriminator 2 view .LVU605
 350:/home/pi/Developer/tinyusb/src/class/hid/hid_device.c ****         }
 2069              		.loc 1 350 11 discriminator 2 view .LVU606
 2070 00cc 2146     		mov	r1, r4
 2071 00ce 3046     		mov	r0, r6
 2072 00d0 FFF7FEFF 		bl	tud_control_status
 2073              	.LVL156:
 383:/home/pi/Developer/tinyusb/src/class/hid/hid_device.c **** }
 2074              		.loc 1 383 10 is_stmt 0 discriminator 2 view .LVU607
 2075 00d4 0120     		movs	r0, #1
 2076 00d6 B1E7     		b	.L157
ARM GAS  /tmp/cc6L0ebi.s 			page 60


 2077              	.LVL157:
 2078              	.L164:
 326:/home/pi/Developer/tinyusb/src/class/hid/hid_device.c ****           TU_VERIFY(request->wLength <= CFG_TUD_HID_EP_BUFSIZE);
 2079              		.loc 1 326 9 is_stmt 1 view .LVU608
 326:/home/pi/Developer/tinyusb/src/class/hid/hid_device.c ****           TU_VERIFY(request->wLength <= CFG_TUD_HID_EP_BUFSIZE);
 2080              		.loc 1 326 12 is_stmt 0 view .LVU609
 2081 00d8 012D     		cmp	r5, #1
 2082 00da 5ED0     		beq	.L213
 329:/home/pi/Developer/tinyusb/src/class/hid/hid_device.c ****           uint8_t const report_type = tu_u16_high(request->wValue);
 2083              		.loc 1 329 16 is_stmt 1 view .LVU610
 329:/home/pi/Developer/tinyusb/src/class/hid/hid_device.c ****           uint8_t const report_type = tu_u16_high(request->wValue);
 2084              		.loc 1 329 19 is_stmt 0 view .LVU611
 2085 00dc 032D     		cmp	r5, #3
 2086 00de A6D1     		bne	.L183
 2087              	.LBB214:
 330:/home/pi/Developer/tinyusb/src/class/hid/hid_device.c ****           uint8_t const report_id = tu_u16_low(request->wValue);
 2088              		.loc 1 330 11 is_stmt 1 view .LVU612
 334:/home/pi/Developer/tinyusb/src/class/hid/hid_device.c **** 
 2089              		.loc 1 334 33 is_stmt 0 view .LVU613
 2090 00e0 E088     		ldrh	r0, [r4, #6]	@ unaligned
 2091              	.LVL158:
 330:/home/pi/Developer/tinyusb/src/class/hid/hid_device.c ****           uint8_t const report_id = tu_u16_low(request->wValue);
 2092              		.loc 1 330 39 view .LVU614
 2093 00e2 6388     		ldrh	r3, [r4, #2]	@ unaligned
 2094              	.LVL159:
 2095              	.LBB215:
 2096              	.LBI215:
 196:/home/pi/Developer/tinyusb/src/common/tusb_common.h **** TU_ATTR_ALWAYS_INLINE static inline uint8_t tu_u16_low (uint16_t ui16) { return TU_U16_LOW(ui16); }
 2097              		.loc 3 196 45 is_stmt 1 view .LVU615
 2098              	.LBB216:
 196:/home/pi/Developer/tinyusb/src/common/tusb_common.h **** TU_ATTR_ALWAYS_INLINE static inline uint8_t tu_u16_low (uint16_t ui16) { return TU_U16_LOW(ui16); }
 2099              		.loc 3 196 74 view .LVU616
 2100              	.LBE216:
 2101              	.LBE215:
 2102              	.LBB218:
 2103              	.LBB219:
 206:/home/pi/Developer/tinyusb/src/common/tusb_common.h **** TU_ATTR_ALWAYS_INLINE static inline uint32_t tu_min32 (uint32_t x, uint32_t y) { return (x < y) ? x
 2104              		.loc 3 206 101 is_stmt 0 view .LVU617
 2105 00e4 1028     		cmp	r0, #16
 2106 00e6 0446     		mov	r4, r0
 2107              	.LVL160:
 206:/home/pi/Developer/tinyusb/src/common/tusb_common.h **** TU_ATTR_ALWAYS_INLINE static inline uint32_t tu_min32 (uint32_t x, uint32_t y) { return (x < y) ? x
 2108              		.loc 3 206 101 view .LVU618
 2109              	.LBE219:
 2110              	.LBE218:
 2111              	.LBB221:
 2112              	.LBB217:
 196:/home/pi/Developer/tinyusb/src/common/tusb_common.h **** TU_ATTR_ALWAYS_INLINE static inline uint8_t tu_u16_low (uint16_t ui16) { return TU_U16_LOW(ui16); }
 2113              		.loc 3 196 81 view .LVU619
 2114 00e8 4FEA1322 		lsr	r2, r3, #8
 2115              	.LVL161:
 196:/home/pi/Developer/tinyusb/src/common/tusb_common.h **** TU_ATTR_ALWAYS_INLINE static inline uint8_t tu_u16_low (uint16_t ui16) { return TU_U16_LOW(ui16); }
 2116              		.loc 3 196 81 view .LVU620
 2117              	.LBE217:
 2118              	.LBE221:
 331:/home/pi/Developer/tinyusb/src/class/hid/hid_device.c **** 
 2119              		.loc 1 331 11 is_stmt 1 view .LVU621
ARM GAS  /tmp/cc6L0ebi.s 			page 61


 2120              	.LBB222:
 2121              	.LBI222:
 197:/home/pi/Developer/tinyusb/src/common/tusb_common.h **** 
 2122              		.loc 3 197 45 view .LVU622
 2123              	.LBB223:
 197:/home/pi/Developer/tinyusb/src/common/tusb_common.h **** 
 2124              		.loc 3 197 74 view .LVU623
 197:/home/pi/Developer/tinyusb/src/common/tusb_common.h **** 
 2125              		.loc 3 197 74 is_stmt 0 view .LVU624
 2126              	.LBE223:
 2127              	.LBE222:
 333:/home/pi/Developer/tinyusb/src/class/hid/hid_device.c ****           uint16_t report_len = tu_min16(request->wLength, CFG_TUD_HID_EP_BUFSIZE);
 2128              		.loc 1 333 11 is_stmt 1 view .LVU625
 334:/home/pi/Developer/tinyusb/src/class/hid/hid_device.c **** 
 2129              		.loc 1 334 11 view .LVU626
 2130              	.LBB224:
 2131              	.LBI218:
 206:/home/pi/Developer/tinyusb/src/common/tusb_common.h **** TU_ATTR_ALWAYS_INLINE static inline uint32_t tu_min32 (uint32_t x, uint32_t y) { return (x < y) ? x
 2132              		.loc 3 206 46 view .LVU627
 2133              	.LBB220:
 206:/home/pi/Developer/tinyusb/src/common/tusb_common.h **** TU_ATTR_ALWAYS_INLINE static inline uint32_t tu_min32 (uint32_t x, uint32_t y) { return (x < y) ? x
 2134              		.loc 3 206 82 view .LVU628
 206:/home/pi/Developer/tinyusb/src/common/tusb_common.h **** TU_ATTR_ALWAYS_INLINE static inline uint32_t tu_min32 (uint32_t x, uint32_t y) { return (x < y) ? x
 2135              		.loc 3 206 101 is_stmt 0 view .LVU629
 2136 00ec 28BF     		it	cs
 2137 00ee 1024     		movcs	r4, #16
 2138              	.LVL162:
 206:/home/pi/Developer/tinyusb/src/common/tusb_common.h **** TU_ATTR_ALWAYS_INLINE static inline uint32_t tu_min32 (uint32_t x, uint32_t y) { return (x < y) ? x
 2139              		.loc 3 206 101 view .LVU630
 2140              	.LBE220:
 2141              	.LBE224:
 337:/home/pi/Developer/tinyusb/src/class/hid/hid_device.c ****             report_buf++;
 2142              		.loc 1 337 11 is_stmt 1 view .LVU631
 337:/home/pi/Developer/tinyusb/src/class/hid/hid_device.c ****             report_buf++;
 2143              		.loc 1 337 26 is_stmt 0 view .LVU632
 2144 00f0 13F0FF01 		ands	r1, r3, #255
 337:/home/pi/Developer/tinyusb/src/class/hid/hid_device.c ****             report_buf++;
 2145              		.loc 1 337 101 view .LVU633
 2146 00f4 344B     		ldr	r3, .L214+4
 2147              	.LVL163:
 337:/home/pi/Developer/tinyusb/src/class/hid/hid_device.c ****             report_buf++;
 2148              		.loc 1 337 14 view .LVU634
 2149 00f6 07D0     		beq	.L171
 2150 00f8 0128     		cmp	r0, #1
 2151 00fa 05D9     		bls	.L171
 337:/home/pi/Developer/tinyusb/src/class/hid/hid_device.c ****             report_buf++;
 2152              		.loc 1 337 74 discriminator 1 view .LVU635
 2153 00fc 1878     		ldrb	r0, [r3]	@ zero_extendqisi2
 2154 00fe 8842     		cmp	r0, r1
 2155 0100 02D1     		bne	.L171
 338:/home/pi/Developer/tinyusb/src/class/hid/hid_device.c ****             report_len--;
 2156              		.loc 1 338 13 is_stmt 1 view .LVU636
 2157              	.LVL164:
 339:/home/pi/Developer/tinyusb/src/class/hid/hid_device.c ****           }
 2158              		.loc 1 339 13 view .LVU637
 339:/home/pi/Developer/tinyusb/src/class/hid/hid_device.c ****           }
 2159              		.loc 1 339 23 is_stmt 0 view .LVU638
ARM GAS  /tmp/cc6L0ebi.s 			page 62


 2160 0102 013C     		subs	r4, r4, #1
 2161              	.LVL165:
 338:/home/pi/Developer/tinyusb/src/class/hid/hid_device.c ****             report_len--;
 2162              		.loc 1 338 23 view .LVU639
 2163 0104 0133     		adds	r3, r3, #1
 339:/home/pi/Developer/tinyusb/src/class/hid/hid_device.c ****           }
 2164              		.loc 1 339 23 view .LVU640
 2165 0106 A4B2     		uxth	r4, r4
 2166              	.LVL166:
 2167              	.L171:
 342:/home/pi/Developer/tinyusb/src/class/hid/hid_device.c ****         }
 2168              		.loc 1 342 11 is_stmt 1 view .LVU641
 2169 0108 0020     		movs	r0, #0
 2170 010a 0094     		str	r4, [sp]
 2171              	.LVL167:
 342:/home/pi/Developer/tinyusb/src/class/hid/hid_device.c ****         }
 2172              		.loc 1 342 11 is_stmt 0 view .LVU642
 2173 010c FFF7FEFF 		bl	tud_hid_set_report_cb
 2174              	.LVL168:
 342:/home/pi/Developer/tinyusb/src/class/hid/hid_device.c ****         }
 2175              		.loc 1 342 11 view .LVU643
 2176              	.LBE214:
 383:/home/pi/Developer/tinyusb/src/class/hid/hid_device.c **** }
 2177              		.loc 1 383 10 view .LVU644
 2178 0110 0120     		movs	r0, #1
 2179 0112 93E7     		b	.L157
 2180              	.LVL169:
 2181              	.L165:
 362:/home/pi/Developer/tinyusb/src/class/hid/hid_device.c ****           tud_control_xfer(rhport, request, &p_hid->protocol_mode, 1);
 2182              		.loc 1 362 9 is_stmt 1 view .LVU645
 362:/home/pi/Developer/tinyusb/src/class/hid/hid_device.c ****           tud_control_xfer(rhport, request, &p_hid->protocol_mode, 1);
 2183              		.loc 1 362 12 is_stmt 0 view .LVU646
 2184 0114 012D     		cmp	r5, #1
 2185 0116 8AD1     		bne	.L183
 363:/home/pi/Developer/tinyusb/src/class/hid/hid_device.c ****         }
 2186              		.loc 1 363 11 is_stmt 1 view .LVU647
 2187 0118 2B46     		mov	r3, r5
 2188 011a 2C4A     		ldr	r2, .L214+8
 2189 011c 2146     		mov	r1, r4
 2190 011e FFF7FEFF 		bl	tud_control_xfer
 2191              	.LVL170:
 383:/home/pi/Developer/tinyusb/src/class/hid/hid_device.c **** }
 2192              		.loc 1 383 10 is_stmt 0 view .LVU648
 2193 0122 2846     		mov	r0, r5
 2194 0124 8AE7     		b	.L157
 2195              	.LVL171:
 2196              	.L166:
 355:/home/pi/Developer/tinyusb/src/class/hid/hid_device.c ****           // TODO idle rate of report
 2197              		.loc 1 355 9 is_stmt 1 view .LVU649
 355:/home/pi/Developer/tinyusb/src/class/hid/hid_device.c ****           // TODO idle rate of report
 2198              		.loc 1 355 12 is_stmt 0 view .LVU650
 2199 0126 012D     		cmp	r5, #1
 2200 0128 81D1     		bne	.L183
 357:/home/pi/Developer/tinyusb/src/class/hid/hid_device.c ****         }
 2201              		.loc 1 357 11 is_stmt 1 view .LVU651
 2202 012a 2B46     		mov	r3, r5
 2203 012c 284A     		ldr	r2, .L214+12
ARM GAS  /tmp/cc6L0ebi.s 			page 63


 2204 012e 2146     		mov	r1, r4
 2205 0130 FFF7FEFF 		bl	tud_control_xfer
 2206              	.LVL172:
 383:/home/pi/Developer/tinyusb/src/class/hid/hid_device.c **** }
 2207              		.loc 1 383 10 is_stmt 0 view .LVU652
 2208 0134 2846     		mov	r0, r5
 2209 0136 81E7     		b	.L157
 2210              	.LVL173:
 2211              	.L167:
 303:/home/pi/Developer/tinyusb/src/class/hid/hid_device.c ****           uint8_t const report_type = tu_u16_high(request->wValue);
 2212              		.loc 1 303 9 is_stmt 1 view .LVU653
 303:/home/pi/Developer/tinyusb/src/class/hid/hid_device.c ****           uint8_t const report_type = tu_u16_high(request->wValue);
 2213              		.loc 1 303 12 is_stmt 0 view .LVU654
 2214 0138 012D     		cmp	r5, #1
 2215 013a 7FF478AF 		bne	.L183
 2216              	.LBB225:
 304:/home/pi/Developer/tinyusb/src/class/hid/hid_device.c ****           uint8_t const report_id = tu_u16_low(request->wValue);
 2217              		.loc 1 304 11 is_stmt 1 view .LVU655
 308:/home/pi/Developer/tinyusb/src/class/hid/hid_device.c ****           uint16_t xferlen = 0;
 2218              		.loc 1 308 30 is_stmt 0 view .LVU656
 2219 013e E788     		ldrh	r7, [r4, #6]	@ unaligned
 304:/home/pi/Developer/tinyusb/src/class/hid/hid_device.c ****           uint8_t const report_id = tu_u16_low(request->wValue);
 2220              		.loc 1 304 39 view .LVU657
 2221 0140 6388     		ldrh	r3, [r4, #2]	@ unaligned
 2222              	.LVL174:
 2223              	.LBB226:
 2224              	.LBI226:
 196:/home/pi/Developer/tinyusb/src/common/tusb_common.h **** TU_ATTR_ALWAYS_INLINE static inline uint8_t tu_u16_low (uint16_t ui16) { return TU_U16_LOW(ui16); }
 2225              		.loc 3 196 45 is_stmt 1 view .LVU658
 2226              	.LBB227:
 196:/home/pi/Developer/tinyusb/src/common/tusb_common.h **** TU_ATTR_ALWAYS_INLINE static inline uint8_t tu_u16_low (uint16_t ui16) { return TU_U16_LOW(ui16); }
 2227              		.loc 3 196 74 view .LVU659
 2228              	.LBE227:
 2229              	.LBE226:
 2230              	.LBB229:
 2231              	.LBB230:
 206:/home/pi/Developer/tinyusb/src/common/tusb_common.h **** TU_ATTR_ALWAYS_INLINE static inline uint32_t tu_min32 (uint32_t x, uint32_t y) { return (x < y) ? x
 2232              		.loc 3 206 101 is_stmt 0 view .LVU660
 2233 0142 102F     		cmp	r7, #16
 2234 0144 3846     		mov	r0, r7
 2235              	.LVL175:
 206:/home/pi/Developer/tinyusb/src/common/tusb_common.h **** TU_ATTR_ALWAYS_INLINE static inline uint32_t tu_min32 (uint32_t x, uint32_t y) { return (x < y) ? x
 2236              		.loc 3 206 101 view .LVU661
 2237              	.LBE230:
 2238              	.LBE229:
 2239              	.LBB232:
 2240              	.LBB228:
 196:/home/pi/Developer/tinyusb/src/common/tusb_common.h **** TU_ATTR_ALWAYS_INLINE static inline uint8_t tu_u16_low (uint16_t ui16) { return TU_U16_LOW(ui16); }
 2241              		.loc 3 196 81 view .LVU662
 2242 0146 4FEA1322 		lsr	r2, r3, #8
 2243              	.LVL176:
 196:/home/pi/Developer/tinyusb/src/common/tusb_common.h **** TU_ATTR_ALWAYS_INLINE static inline uint8_t tu_u16_low (uint16_t ui16) { return TU_U16_LOW(ui16); }
 2244              		.loc 3 196 81 view .LVU663
 2245              	.LBE228:
 2246              	.LBE232:
 305:/home/pi/Developer/tinyusb/src/class/hid/hid_device.c **** 
 2247              		.loc 1 305 11 is_stmt 1 view .LVU664
ARM GAS  /tmp/cc6L0ebi.s 			page 64


 2248              	.LBB233:
 2249              	.LBI233:
 197:/home/pi/Developer/tinyusb/src/common/tusb_common.h **** 
 2250              		.loc 3 197 45 view .LVU665
 2251              	.LBB234:
 197:/home/pi/Developer/tinyusb/src/common/tusb_common.h **** 
 2252              		.loc 3 197 74 view .LVU666
 197:/home/pi/Developer/tinyusb/src/common/tusb_common.h **** 
 2253              		.loc 3 197 74 is_stmt 0 view .LVU667
 2254              	.LBE234:
 2255              	.LBE233:
 307:/home/pi/Developer/tinyusb/src/class/hid/hid_device.c ****           uint16_t req_len = tu_min16(request->wLength, CFG_TUD_HID_EP_BUFSIZE);
 2256              		.loc 1 307 11 is_stmt 1 view .LVU668
 308:/home/pi/Developer/tinyusb/src/class/hid/hid_device.c ****           uint16_t xferlen = 0;
 2257              		.loc 1 308 11 view .LVU669
 2258              	.LBB235:
 2259              	.LBI229:
 206:/home/pi/Developer/tinyusb/src/common/tusb_common.h **** TU_ATTR_ALWAYS_INLINE static inline uint32_t tu_min32 (uint32_t x, uint32_t y) { return (x < y) ? x
 2260              		.loc 3 206 46 view .LVU670
 2261              	.LBB231:
 206:/home/pi/Developer/tinyusb/src/common/tusb_common.h **** TU_ATTR_ALWAYS_INLINE static inline uint32_t tu_min32 (uint32_t x, uint32_t y) { return (x < y) ? x
 2262              		.loc 3 206 82 view .LVU671
 206:/home/pi/Developer/tinyusb/src/common/tusb_common.h **** TU_ATTR_ALWAYS_INLINE static inline uint32_t tu_min32 (uint32_t x, uint32_t y) { return (x < y) ? x
 2263              		.loc 3 206 101 is_stmt 0 view .LVU672
 2264 014a 28BF     		it	cs
 2265 014c 1020     		movcs	r0, #16
 2266              	.LVL177:
 206:/home/pi/Developer/tinyusb/src/common/tusb_common.h **** TU_ATTR_ALWAYS_INLINE static inline uint32_t tu_min32 (uint32_t x, uint32_t y) { return (x < y) ? x
 2267              		.loc 3 206 101 view .LVU673
 2268              	.LBE231:
 2269              	.LBE235:
 309:/home/pi/Developer/tinyusb/src/class/hid/hid_device.c **** 
 2270              		.loc 1 309 11 is_stmt 1 view .LVU674
 312:/home/pi/Developer/tinyusb/src/class/hid/hid_device.c ****             *report_buf++ = report_id;
 2271              		.loc 1 312 11 view .LVU675
 312:/home/pi/Developer/tinyusb/src/class/hid/hid_device.c ****             *report_buf++ = report_id;
 2272              		.loc 1 312 26 is_stmt 0 view .LVU676
 2273 014e 13F0FF01 		ands	r1, r3, #255
 312:/home/pi/Developer/tinyusb/src/class/hid/hid_device.c ****             *report_buf++ = report_id;
 2274              		.loc 1 312 14 view .LVU677
 2275 0152 33D0     		beq	.L176
 2276 0154 012F     		cmp	r7, #1
 2277 0156 31D9     		bls	.L176
 313:/home/pi/Developer/tinyusb/src/class/hid/hid_device.c ****             req_len--;
 2278              		.loc 1 313 13 is_stmt 1 view .LVU678
 2279              	.LVL178:
 314:/home/pi/Developer/tinyusb/src/class/hid/hid_device.c ****             xferlen++;
 2280              		.loc 1 314 20 is_stmt 0 view .LVU679
 2281 0158 0138     		subs	r0, r0, #1
 2282              	.LVL179:
 313:/home/pi/Developer/tinyusb/src/class/hid/hid_device.c ****             req_len--;
 2283              		.loc 1 313 27 view .LVU680
 2284 015a 1B4B     		ldr	r3, .L214+4
 2285              	.LVL180:
 314:/home/pi/Developer/tinyusb/src/class/hid/hid_device.c ****             xferlen++;
 2286              		.loc 1 314 20 view .LVU681
 2287 015c 80B2     		uxth	r0, r0
ARM GAS  /tmp/cc6L0ebi.s 			page 65


 2288              	.LVL181:
 313:/home/pi/Developer/tinyusb/src/class/hid/hid_device.c ****             req_len--;
 2289              		.loc 1 313 27 view .LVU682
 2290 015e 03F8011B 		strb	r1, [r3], #1
 2291              	.LVL182:
 314:/home/pi/Developer/tinyusb/src/class/hid/hid_device.c ****             xferlen++;
 2292              		.loc 1 314 13 is_stmt 1 view .LVU683
 315:/home/pi/Developer/tinyusb/src/class/hid/hid_device.c ****           }
 2293              		.loc 1 315 13 view .LVU684
 2294              	.L168:
 318:/home/pi/Developer/tinyusb/src/class/hid/hid_device.c ****           TU_ASSERT(xferlen > 0);
 2295              		.loc 1 318 11 view .LVU685
 318:/home/pi/Developer/tinyusb/src/class/hid/hid_device.c ****           TU_ASSERT(xferlen > 0);
 2296              		.loc 1 318 22 is_stmt 0 view .LVU686
 2297 0162 0090     		str	r0, [sp]
 2298 0164 0020     		movs	r0, #0
 2299              	.LVL183:
 318:/home/pi/Developer/tinyusb/src/class/hid/hid_device.c ****           TU_ASSERT(xferlen > 0);
 2300              		.loc 1 318 22 view .LVU687
 2301 0166 FFF7FEFF 		bl	tud_hid_get_report_cb
 2302              	.LVL184:
 318:/home/pi/Developer/tinyusb/src/class/hid/hid_device.c ****           TU_ASSERT(xferlen > 0);
 2303              		.loc 1 318 19 view .LVU688
 2304 016a 2B18     		adds	r3, r5, r0
 2305 016c 9BB2     		uxth	r3, r3
 2306              	.LVL185:
 319:/home/pi/Developer/tinyusb/src/class/hid/hid_device.c **** 
 2307              		.loc 1 319 11 is_stmt 1 view .LVU689
 319:/home/pi/Developer/tinyusb/src/class/hid/hid_device.c **** 
 2308              		.loc 1 319 11 view .LVU690
 2309 016e F3B9     		cbnz	r3, .L169
 319:/home/pi/Developer/tinyusb/src/class/hid/hid_device.c **** 
 2310              		.loc 1 319 11 discriminator 1 view .LVU691
 319:/home/pi/Developer/tinyusb/src/class/hid/hid_device.c **** 
 2311              		.loc 1 319 11 discriminator 1 view .LVU692
 319:/home/pi/Developer/tinyusb/src/class/hid/hid_device.c **** 
 2312              		.loc 1 319 11 discriminator 1 view .LVU693
 319:/home/pi/Developer/tinyusb/src/class/hid/hid_device.c **** 
 2313              		.loc 1 319 11 discriminator 1 view .LVU694
 2314              	.LBB236:
 319:/home/pi/Developer/tinyusb/src/class/hid/hid_device.c **** 
 2315              		.loc 1 319 11 discriminator 1 view .LVU695
 2316              	.LVL186:
 319:/home/pi/Developer/tinyusb/src/class/hid/hid_device.c **** 
 2317              		.loc 1 319 11 discriminator 1 view .LVU696
 2318 0170 4FF0E022 		mov	r2, #-536813568
 2319 0174 D2F8F02D 		ldr	r2, [r2, #3568]
 2320 0178 D207     		lsls	r2, r2, #31
 2321 017a 7FF55EAF 		bpl	.L174
 319:/home/pi/Developer/tinyusb/src/class/hid/hid_device.c **** 
 2322              		.loc 1 319 11 discriminator 3 view .LVU697
 2323              		.syntax unified
 2324              	@ 319 "/home/pi/Developer/tinyusb/src/class/hid/hid_device.c" 1
 2325 017e 00BE     		BKPT #0
 2326              	
 2327              	@ 0 "" 2
 2328              		.thumb
ARM GAS  /tmp/cc6L0ebi.s 			page 66


 2329              		.syntax unified
 2330              	.LBE236:
 2331 0180 1846     		mov	r0, r3
 2332 0182 5BE7     		b	.L157
 2333              	.LVL187:
 2334              	.L212:
 319:/home/pi/Developer/tinyusb/src/class/hid/hid_device.c **** 
 2335              		.loc 1 319 11 is_stmt 0 discriminator 3 view .LVU698
 2336              	.LBE225:
 2337              	.LBB237:
 290:/home/pi/Developer/tinyusb/src/class/hid/hid_device.c ****         TU_VERIFY(tud_control_xfer(rhport, request, (void *)(uintptr_t)p_hid->hid_descriptor, p_hid
 2338              		.loc 1 290 9 is_stmt 1 view .LVU699
 290:/home/pi/Developer/tinyusb/src/class/hid/hid_device.c ****         TU_VERIFY(tud_control_xfer(rhport, request, (void *)(uintptr_t)p_hid->hid_descriptor, p_hid
 2339              		.loc 1 290 9 view .LVU700
 2340 0184 BA68     		ldr	r2, [r7, #8]
 2341 0186 002A     		cmp	r2, #0
 2342 0188 3FF457AF 		beq	.L174
 290:/home/pi/Developer/tinyusb/src/class/hid/hid_device.c ****         TU_VERIFY(tud_control_xfer(rhport, request, (void *)(uintptr_t)p_hid->hid_descriptor, p_hid
 2343              		.loc 1 290 9 discriminator 2 view .LVU701
 291:/home/pi/Developer/tinyusb/src/class/hid/hid_device.c ****       } else if (request->bRequest == TUSB_REQ_GET_DESCRIPTOR && desc_type == HID_DESC_TYPE_REPORT)
 2344              		.loc 1 291 9 discriminator 2 view .LVU702
 291:/home/pi/Developer/tinyusb/src/class/hid/hid_device.c ****       } else if (request->bRequest == TUSB_REQ_GET_DESCRIPTOR && desc_type == HID_DESC_TYPE_REPORT)
 2345              		.loc 1 291 9 discriminator 2 view .LVU703
 2346 018c 1378     		ldrb	r3, [r2]	@ zero_extendqisi2
 2347 018e 2146     		mov	r1, r4
 2348              	.LBE237:
 2349              		.loc 1 384 1 is_stmt 0 discriminator 2 view .LVU704
 2350 0190 03B0     		add	sp, sp, #12
 2351              		.cfi_remember_state
 2352              		.cfi_def_cfa_offset 20
 2353              		@ sp needed
 2354 0192 BDE8F040 		pop	{r4, r5, r6, r7, lr}
 2355              		.cfi_restore 14
 2356              		.cfi_restore 7
 2357              		.cfi_restore 6
 2358              		.cfi_restore 5
 2359              		.cfi_restore 4
 2360              		.cfi_def_cfa_offset 0
 2361              	.LVL188:
 2362              	.LBB238:
 291:/home/pi/Developer/tinyusb/src/class/hid/hid_device.c ****       } else if (request->bRequest == TUSB_REQ_GET_DESCRIPTOR && desc_type == HID_DESC_TYPE_REPORT)
 2363              		.loc 1 291 9 discriminator 2 view .LVU705
 2364 0196 FFF7FEBF 		b	tud_control_xfer
 2365              	.LVL189:
 2366              	.L213:
 2367              		.cfi_restore_state
 291:/home/pi/Developer/tinyusb/src/class/hid/hid_device.c ****       } else if (request->bRequest == TUSB_REQ_GET_DESCRIPTOR && desc_type == HID_DESC_TYPE_REPORT)
 2368              		.loc 1 291 9 discriminator 2 view .LVU706
 2369              	.LBE238:
 327:/home/pi/Developer/tinyusb/src/class/hid/hid_device.c ****           tud_control_xfer(rhport, request, p_epbuf->ctrl, request->wLength);
 2370              		.loc 1 327 11 is_stmt 1 view .LVU707
 327:/home/pi/Developer/tinyusb/src/class/hid/hid_device.c ****           tud_control_xfer(rhport, request, p_epbuf->ctrl, request->wLength);
 2371              		.loc 1 327 11 view .LVU708
 2372 019a E388     		ldrh	r3, [r4, #6]	@ unaligned
 2373 019c 102B     		cmp	r3, #16
 2374 019e 3FF64CAF 		bhi	.L174
 327:/home/pi/Developer/tinyusb/src/class/hid/hid_device.c ****           tud_control_xfer(rhport, request, p_epbuf->ctrl, request->wLength);
ARM GAS  /tmp/cc6L0ebi.s 			page 67


 2375              		.loc 1 327 11 discriminator 2 view .LVU709
 328:/home/pi/Developer/tinyusb/src/class/hid/hid_device.c ****         } else if (stage == CONTROL_STAGE_ACK) {
 2376              		.loc 1 328 11 discriminator 2 view .LVU710
 2377 01a2 094A     		ldr	r2, .L214+4
 2378 01a4 2146     		mov	r1, r4
 2379 01a6 FFF7FEFF 		bl	tud_control_xfer
 2380              	.LVL190:
 383:/home/pi/Developer/tinyusb/src/class/hid/hid_device.c **** }
 2381              		.loc 1 383 10 is_stmt 0 discriminator 2 view .LVU711
 2382 01aa 2846     		mov	r0, r5
 2383 01ac 46E7     		b	.L157
 2384              	.LVL191:
 2385              	.L169:
 2386              	.LBB239:
 319:/home/pi/Developer/tinyusb/src/class/hid/hid_device.c **** 
 2387              		.loc 1 319 11 is_stmt 1 discriminator 2 view .LVU712
 321:/home/pi/Developer/tinyusb/src/class/hid/hid_device.c ****         }
 2388              		.loc 1 321 11 discriminator 2 view .LVU713
 2389 01ae 064A     		ldr	r2, .L214+4
 2390 01b0 2146     		mov	r1, r4
 2391 01b2 3046     		mov	r0, r6
 2392 01b4 FFF7FEFF 		bl	tud_control_xfer
 2393              	.LVL192:
 321:/home/pi/Developer/tinyusb/src/class/hid/hid_device.c ****         }
 2394              		.loc 1 321 11 is_stmt 0 discriminator 2 view .LVU714
 2395              	.LBE239:
 383:/home/pi/Developer/tinyusb/src/class/hid/hid_device.c **** }
 2396              		.loc 1 383 10 discriminator 2 view .LVU715
 2397 01b8 0120     		movs	r0, #1
 2398 01ba 3FE7     		b	.L157
 2399              	.LVL193:
 2400              	.L176:
 2401              	.LBB240:
 309:/home/pi/Developer/tinyusb/src/class/hid/hid_device.c **** 
 2402              		.loc 1 309 20 view .LVU716
 2403 01bc 0025     		movs	r5, #0
 307:/home/pi/Developer/tinyusb/src/class/hid/hid_device.c ****           uint16_t req_len = tu_min16(request->wLength, CFG_TUD_HID_EP_BUFSIZE);
 2404              		.loc 1 307 20 view .LVU717
 2405 01be 024B     		ldr	r3, .L214+4
 2406              	.LVL194:
 307:/home/pi/Developer/tinyusb/src/class/hid/hid_device.c ****           uint16_t req_len = tu_min16(request->wLength, CFG_TUD_HID_EP_BUFSIZE);
 2407              		.loc 1 307 20 view .LVU718
 2408 01c0 CFE7     		b	.L168
 2409              	.L215:
 2410 01c2 00BF     		.align	2
 2411              	.L214:
 2412 01c4 00000000 		.word	.LANCHOR0
 2413 01c8 00000000 		.word	.LANCHOR1
 2414 01cc 06000000 		.word	.LANCHOR0+6
 2415 01d0 07000000 		.word	.LANCHOR0+7
 2416              	.LBE240:
 2417              		.cfi_endproc
 2418              	.LFE439:
 2420              		.section	.text.hidd_xfer_cb,"ax",%progbits
 2421              		.align	1
 2422              		.p2align 2,,3
 2423              		.global	hidd_xfer_cb
ARM GAS  /tmp/cc6L0ebi.s 			page 68


 2424              		.syntax unified
 2425              		.thumb
 2426              		.thumb_func
 2427              		.fpu fpv5-d16
 2429              	hidd_xfer_cb:
 2430              	.LVL195:
 2431              	.LFB440:
 385:/home/pi/Developer/tinyusb/src/class/hid/hid_device.c **** 
 386:/home/pi/Developer/tinyusb/src/class/hid/hid_device.c **** bool hidd_xfer_cb(uint8_t rhport, uint8_t ep_addr, xfer_result_t result, uint32_t xferred_bytes) {
 2432              		.loc 1 386 98 is_stmt 1 view -0
 2433              		.cfi_startproc
 2434              		@ args = 0, pretend = 0, frame = 0
 2435              		@ frame_needed = 0, uses_anonymous_args = 0
 387:/home/pi/Developer/tinyusb/src/class/hid/hid_device.c ****   uint8_t instance;
 2436              		.loc 1 387 3 view .LVU720
 388:/home/pi/Developer/tinyusb/src/class/hid/hid_device.c ****   hidd_interface_t *p_hid;
 2437              		.loc 1 388 3 view .LVU721
 389:/home/pi/Developer/tinyusb/src/class/hid/hid_device.c **** 
 390:/home/pi/Developer/tinyusb/src/class/hid/hid_device.c ****   // Identify which interface to use
 391:/home/pi/Developer/tinyusb/src/class/hid/hid_device.c ****   for (instance = 0; instance < CFG_TUD_HID; instance++) {
 2438              		.loc 1 391 3 view .LVU722
 2439              		.loc 1 391 22 view .LVU723
 392:/home/pi/Developer/tinyusb/src/class/hid/hid_device.c ****     p_hid = &_hidd_itf[instance];
 2440              		.loc 1 392 5 view .LVU724
 393:/home/pi/Developer/tinyusb/src/class/hid/hid_device.c ****     if ((ep_addr == p_hid->ep_out) || (ep_addr == p_hid->ep_in)) {
 2441              		.loc 1 393 5 view .LVU725
 386:/home/pi/Developer/tinyusb/src/class/hid/hid_device.c ****   uint8_t instance;
 2442              		.loc 1 386 98 is_stmt 0 view .LVU726
 2443 0000 D0B5     		push	{r4, r6, r7, lr}
 2444              		.cfi_def_cfa_offset 16
 2445              		.cfi_offset 4, -16
 2446              		.cfi_offset 6, -12
 2447              		.cfi_offset 7, -8
 2448              		.cfi_offset 14, -4
 2449              		.loc 1 393 26 view .LVU727
 2450 0002 264E     		ldr	r6, .L234
 386:/home/pi/Developer/tinyusb/src/class/hid/hid_device.c ****   uint8_t instance;
 2451              		.loc 1 386 98 view .LVU728
 2452 0004 0746     		mov	r7, r0
 2453 0006 1046     		mov	r0, r2
 2454              	.LVL196:
 386:/home/pi/Developer/tinyusb/src/class/hid/hid_device.c ****   uint8_t instance;
 2455              		.loc 1 386 98 view .LVU729
 2456 0008 82B0     		sub	sp, sp, #8
 2457              		.cfi_def_cfa_offset 24
 2458              		.loc 1 393 8 view .LVU730
 2459 000a B278     		ldrb	r2, [r6, #2]	@ zero_extendqisi2
 2460              	.LVL197:
 2461              		.loc 1 393 8 view .LVU731
 2462 000c 8A42     		cmp	r2, r1
 2463 000e 2DD1     		bne	.L232
 394:/home/pi/Developer/tinyusb/src/class/hid/hid_device.c ****       break;
 395:/home/pi/Developer/tinyusb/src/class/hid/hid_device.c ****     }
 396:/home/pi/Developer/tinyusb/src/class/hid/hid_device.c ****   }
 397:/home/pi/Developer/tinyusb/src/class/hid/hid_device.c ****   TU_ASSERT(instance < CFG_TUD_HID);
 2464              		.loc 1 397 3 is_stmt 1 view .LVU732
 2465              		.loc 1 397 3 view .LVU733
ARM GAS  /tmp/cc6L0ebi.s 			page 69


 2466              		.loc 1 397 3 view .LVU734
 398:/home/pi/Developer/tinyusb/src/class/hid/hid_device.c ****   hidd_epbuf_t *p_epbuf = &_hidd_epbuf[instance];
 2467              		.loc 1 398 3 view .LVU735
 2468              	.LVL198:
 399:/home/pi/Developer/tinyusb/src/class/hid/hid_device.c **** 
 400:/home/pi/Developer/tinyusb/src/class/hid/hid_device.c ****   if (ep_addr == p_hid->ep_in) {
 2469              		.loc 1 400 3 view .LVU736
 2470              		.loc 1 400 6 is_stmt 0 view .LVU737
 2471 0010 7178     		ldrb	r1, [r6, #1]	@ zero_extendqisi2
 2472              	.LVL199:
 2473              		.loc 1 400 6 view .LVU738
 2474 0012 9142     		cmp	r1, r2
 2475 0014 12D0     		beq	.L218
 401:/home/pi/Developer/tinyusb/src/class/hid/hid_device.c ****     // Input report
 402:/home/pi/Developer/tinyusb/src/class/hid/hid_device.c ****     if (XFER_RESULT_SUCCESS == result) {
 403:/home/pi/Developer/tinyusb/src/class/hid/hid_device.c ****       tud_hid_report_complete_cb(instance, p_epbuf->epin, (uint16_t) xferred_bytes);
 404:/home/pi/Developer/tinyusb/src/class/hid/hid_device.c ****     } else {
 405:/home/pi/Developer/tinyusb/src/class/hid/hid_device.c ****       tud_hid_report_failed_cb(instance, HID_REPORT_TYPE_INPUT, p_epbuf->epin, (uint16_t) xferred_b
 406:/home/pi/Developer/tinyusb/src/class/hid/hid_device.c ****     }
 407:/home/pi/Developer/tinyusb/src/class/hid/hid_device.c ****   } else {
 408:/home/pi/Developer/tinyusb/src/class/hid/hid_device.c ****     // Output report
 409:/home/pi/Developer/tinyusb/src/class/hid/hid_device.c ****     if (XFER_RESULT_SUCCESS == result) {
 2476              		.loc 1 409 5 is_stmt 1 view .LVU739
 2477              		.loc 1 409 8 is_stmt 0 view .LVU740
 2478 0016 C8B9     		cbnz	r0, .L222
 410:/home/pi/Developer/tinyusb/src/class/hid/hid_device.c ****       tud_hid_set_report_cb(instance, 0, HID_REPORT_TYPE_OUTPUT, p_epbuf->epout, (uint16_t)xferred_
 2479              		.loc 1 410 7 is_stmt 1 view .LVU741
 2480 0018 9CB2     		uxth	r4, r3
 2481 001a 0222     		movs	r2, #2
 2482 001c 204B     		ldr	r3, .L234+4
 2483              	.LVL200:
 2484              		.loc 1 410 7 is_stmt 0 view .LVU742
 2485 001e 0146     		mov	r1, r0
 2486 0020 0094     		str	r4, [sp]
 2487 0022 FFF7FEFF 		bl	tud_hid_set_report_cb
 2488              	.LVL201:
 2489              	.L223:
 411:/home/pi/Developer/tinyusb/src/class/hid/hid_device.c ****     } else {
 412:/home/pi/Developer/tinyusb/src/class/hid/hid_device.c ****       tud_hid_report_failed_cb(instance, HID_REPORT_TYPE_OUTPUT, p_epbuf->epout, (uint16_t) xferred
 413:/home/pi/Developer/tinyusb/src/class/hid/hid_device.c ****     }
 414:/home/pi/Developer/tinyusb/src/class/hid/hid_device.c **** 
 415:/home/pi/Developer/tinyusb/src/class/hid/hid_device.c ****     // prepare for new transfer
 416:/home/pi/Developer/tinyusb/src/class/hid/hid_device.c ****     TU_ASSERT(usbd_edpt_xfer(rhport, p_hid->ep_out, p_epbuf->epout, CFG_TUD_HID_EP_BUFSIZE, false))
 2490              		.loc 1 416 5 is_stmt 1 view .LVU743
 2491              		.loc 1 416 5 view .LVU744
 2492 0026 0024     		movs	r4, #0
 2493 0028 1023     		movs	r3, #16
 2494 002a 1D4A     		ldr	r2, .L234+4
 2495 002c 3846     		mov	r0, r7
 2496 002e B178     		ldrb	r1, [r6, #2]	@ zero_extendqisi2
 2497 0030 0094     		str	r4, [sp]
 2498 0032 FFF7FEFF 		bl	usbd_edpt_xfer
 2499              	.LVL202:
 2500 0036 48B3     		cbz	r0, .L233
 2501              	.L228:
 417:/home/pi/Developer/tinyusb/src/class/hid/hid_device.c ****   }
 418:/home/pi/Developer/tinyusb/src/class/hid/hid_device.c **** 
ARM GAS  /tmp/cc6L0ebi.s 			page 70


 419:/home/pi/Developer/tinyusb/src/class/hid/hid_device.c ****   return true;
 420:/home/pi/Developer/tinyusb/src/class/hid/hid_device.c **** }
 2502              		.loc 1 420 1 is_stmt 0 view .LVU745
 2503 0038 02B0     		add	sp, sp, #8
 2504              		.cfi_remember_state
 2505              		.cfi_def_cfa_offset 16
 2506              		@ sp needed
 2507 003a D0BD     		pop	{r4, r6, r7, pc}
 2508              	.LVL203:
 2509              	.L218:
 2510              		.cfi_restore_state
 402:/home/pi/Developer/tinyusb/src/class/hid/hid_device.c ****       tud_hid_report_complete_cb(instance, p_epbuf->epin, (uint16_t) xferred_bytes);
 2511              		.loc 1 402 5 is_stmt 1 view .LVU746
 402:/home/pi/Developer/tinyusb/src/class/hid/hid_device.c ****       tud_hid_report_complete_cb(instance, p_epbuf->epin, (uint16_t) xferred_bytes);
 2512              		.loc 1 402 8 is_stmt 0 view .LVU747
 2513 003c 68B9     		cbnz	r0, .L221
 403:/home/pi/Developer/tinyusb/src/class/hid/hid_device.c ****     } else {
 2514              		.loc 1 403 7 is_stmt 1 view .LVU748
 2515 003e 9AB2     		uxth	r2, r3
 2516 0040 1849     		ldr	r1, .L234+8
 2517 0042 FFF7FEFF 		bl	tud_hid_report_complete_cb
 2518              	.LVL204:
 419:/home/pi/Developer/tinyusb/src/class/hid/hid_device.c **** }
 2519              		.loc 1 419 10 is_stmt 0 view .LVU749
 2520 0046 0120     		movs	r0, #1
 2521              		.loc 1 420 1 view .LVU750
 2522 0048 02B0     		add	sp, sp, #8
 2523              		.cfi_remember_state
 2524              		.cfi_def_cfa_offset 16
 2525              		@ sp needed
 2526 004a D0BD     		pop	{r4, r6, r7, pc}
 2527              	.LVL205:
 2528              	.L222:
 2529              		.cfi_restore_state
 412:/home/pi/Developer/tinyusb/src/class/hid/hid_device.c ****     }
 2530              		.loc 1 412 7 is_stmt 1 view .LVU751
 2531 004c 9BB2     		uxth	r3, r3
 2532              	.LVL206:
 412:/home/pi/Developer/tinyusb/src/class/hid/hid_device.c ****     }
 2533              		.loc 1 412 7 is_stmt 0 view .LVU752
 2534 004e 144A     		ldr	r2, .L234+4
 2535 0050 0221     		movs	r1, #2
 2536 0052 0020     		movs	r0, #0
 2537 0054 FFF7FEFF 		bl	tud_hid_report_failed_cb
 2538              	.LVL207:
 2539 0058 E5E7     		b	.L223
 2540              	.LVL208:
 2541              	.L221:
 405:/home/pi/Developer/tinyusb/src/class/hid/hid_device.c ****     }
 2542              		.loc 1 405 7 is_stmt 1 view .LVU753
 2543 005a 9BB2     		uxth	r3, r3
 2544              	.LVL209:
 405:/home/pi/Developer/tinyusb/src/class/hid/hid_device.c ****     }
 2545              		.loc 1 405 7 is_stmt 0 view .LVU754
 2546 005c 114A     		ldr	r2, .L234+8
 2547 005e 0121     		movs	r1, #1
 2548 0060 0020     		movs	r0, #0
ARM GAS  /tmp/cc6L0ebi.s 			page 71


 2549 0062 FFF7FEFF 		bl	tud_hid_report_failed_cb
 2550              	.LVL210:
 419:/home/pi/Developer/tinyusb/src/class/hid/hid_device.c **** }
 2551              		.loc 1 419 10 view .LVU755
 2552 0066 0120     		movs	r0, #1
 2553              		.loc 1 420 1 view .LVU756
 2554 0068 02B0     		add	sp, sp, #8
 2555              		.cfi_remember_state
 2556              		.cfi_def_cfa_offset 16
 2557              		@ sp needed
 2558 006a D0BD     		pop	{r4, r6, r7, pc}
 2559              	.LVL211:
 2560              	.L232:
 2561              		.cfi_restore_state
 393:/home/pi/Developer/tinyusb/src/class/hid/hid_device.c ****       break;
 2562              		.loc 1 393 36 discriminator 1 view .LVU757
 2563 006c 7278     		ldrb	r2, [r6, #1]	@ zero_extendqisi2
 2564 006e 8A42     		cmp	r2, r1
 2565 0070 E4D0     		beq	.L218
 2566              	.LVL212:
 391:/home/pi/Developer/tinyusb/src/class/hid/hid_device.c ****     p_hid = &_hidd_itf[instance];
 2567              		.loc 1 391 22 is_stmt 1 view .LVU758
 397:/home/pi/Developer/tinyusb/src/class/hid/hid_device.c ****   hidd_epbuf_t *p_epbuf = &_hidd_epbuf[instance];
 2568              		.loc 1 397 3 view .LVU759
 397:/home/pi/Developer/tinyusb/src/class/hid/hid_device.c ****   hidd_epbuf_t *p_epbuf = &_hidd_epbuf[instance];
 2569              		.loc 1 397 3 view .LVU760
 397:/home/pi/Developer/tinyusb/src/class/hid/hid_device.c ****   hidd_epbuf_t *p_epbuf = &_hidd_epbuf[instance];
 2570              		.loc 1 397 3 view .LVU761
 397:/home/pi/Developer/tinyusb/src/class/hid/hid_device.c ****   hidd_epbuf_t *p_epbuf = &_hidd_epbuf[instance];
 2571              		.loc 1 397 3 view .LVU762
 397:/home/pi/Developer/tinyusb/src/class/hid/hid_device.c ****   hidd_epbuf_t *p_epbuf = &_hidd_epbuf[instance];
 2572              		.loc 1 397 3 view .LVU763
 397:/home/pi/Developer/tinyusb/src/class/hid/hid_device.c ****   hidd_epbuf_t *p_epbuf = &_hidd_epbuf[instance];
 2573              		.loc 1 397 3 view .LVU764
 2574              	.LBB241:
 397:/home/pi/Developer/tinyusb/src/class/hid/hid_device.c ****   hidd_epbuf_t *p_epbuf = &_hidd_epbuf[instance];
 2575              		.loc 1 397 3 view .LVU765
 397:/home/pi/Developer/tinyusb/src/class/hid/hid_device.c ****   hidd_epbuf_t *p_epbuf = &_hidd_epbuf[instance];
 2576              		.loc 1 397 3 view .LVU766
 2577 0072 4FF0E023 		mov	r3, #-536813568
 2578              	.LVL213:
