ARM GAS  /tmp/cc5paFFJ.s 			page 1


   1              		.cpu cortex-m7
   2              		.eabi_attribute 28, 1
   3              		.eabi_attribute 20, 1
   4              		.eabi_attribute 21, 1
   5              		.eabi_attribute 23, 3
   6              		.eabi_attribute 24, 1
   7              		.eabi_attribute 25, 1
   8              		.eabi_attribute 26, 1
   9              		.eabi_attribute 30, 2
  10              		.eabi_attribute 34, 1
  11              		.eabi_attribute 18, 4
  12              		.file	"TinyUsbCdcHidExternal.cpp"
  13              		.text
  14              	.Ltext0:
  15              		.cfi_sections	.debug_frame
  16              		.section	.text._ZN5daisy9DaisySeedD2Ev,"axG",%progbits,_ZN5daisy9DaisySeedD5Ev,comdat
  17              		.align	1
  18              		.p2align 2,,3
  19              		.weak	_ZN5daisy9DaisySeedD2Ev
  20              		.arch armv7e-m
  21              		.syntax unified
  22              		.thumb
  23              		.thumb_func
  24              		.fpu fpv5-d16
  26              	_ZN5daisy9DaisySeedD2Ev:
  27              	.LVL0:
  28              	.LFB2555:
  29              		.file 1 "../../libDaisy/src/daisy_seed.h"
   1:../../libDaisy/src/daisy_seed.h **** #pragma once
   2:../../libDaisy/src/daisy_seed.h **** #ifndef DSY_SEED_H
   3:../../libDaisy/src/daisy_seed.h **** #define DSY_SEED_H
   4:../../libDaisy/src/daisy_seed.h **** 
   5:../../libDaisy/src/daisy_seed.h **** #include "daisy.h"
   6:../../libDaisy/src/daisy_seed.h **** 
   7:../../libDaisy/src/daisy_seed.h **** //Uncomment this out if you're still using the rev2 hardware
   8:../../libDaisy/src/daisy_seed.h **** //#define SEED_REV2
   9:../../libDaisy/src/daisy_seed.h **** 
  10:../../libDaisy/src/daisy_seed.h **** namespace daisy
  11:../../libDaisy/src/daisy_seed.h **** {
  12:../../libDaisy/src/daisy_seed.h **** /**
  13:../../libDaisy/src/daisy_seed.h ****    @brief This is the higher-level interface for the Daisy board. \n 
  14:../../libDaisy/src/daisy_seed.h ****     All basic peripheral configuration/initialization is setup here. \n
  15:../../libDaisy/src/daisy_seed.h **** 
  16:../../libDaisy/src/daisy_seed.h ****    @ingroup boards
  17:../../libDaisy/src/daisy_seed.h **** */
  18:../../libDaisy/src/daisy_seed.h **** class DaisySeed
  19:../../libDaisy/src/daisy_seed.h **** {
  20:../../libDaisy/src/daisy_seed.h ****   public:
  21:../../libDaisy/src/daisy_seed.h ****     DaisySeed() {}
  22:../../libDaisy/src/daisy_seed.h ****     ~DaisySeed() {}
  30              		.loc 1 22 5 view -0
  31              		.cfi_startproc
  32              		@ args = 0, pretend = 0, frame = 0
  33              		@ frame_needed = 0, uses_anonymous_args = 0
  34              		@ link register save eliminated.
  35              	.LBB109:
  36              	.LBI109:
ARM GAS  /tmp/cc5paFFJ.s 			page 2


  37              		.file 2 "../../libDaisy/src/sys/system.h"
   1:../../libDaisy/src/sys/system.h **** #ifndef DSY_SYSTEM_H
   2:../../libDaisy/src/sys/system.h **** #define DSY_SYSTEM_H
   3:../../libDaisy/src/sys/system.h **** 
   4:../../libDaisy/src/sys/system.h **** #ifndef UNIT_TEST // for unit tests, a dummy implementation is provided below
   5:../../libDaisy/src/sys/system.h **** 
   6:../../libDaisy/src/sys/system.h **** #include <cstdint>
   7:../../libDaisy/src/sys/system.h **** #include "per/tim.h"
   8:../../libDaisy/src/sys/system.h **** 
   9:../../libDaisy/src/sys/system.h **** namespace daisy
  10:../../libDaisy/src/sys/system.h **** {
  11:../../libDaisy/src/sys/system.h **** /** A handle for interacting with the Core System.
  12:../../libDaisy/src/sys/system.h ****  ** This includes the Clock tree, MPU, global DMA initialization,
  13:../../libDaisy/src/sys/system.h ****  ** cache handling, and any other necessary global initiailzation
  14:../../libDaisy/src/sys/system.h ****  **
  15:../../libDaisy/src/sys/system.h ****  ** @author shensley
  16:../../libDaisy/src/sys/system.h ****  ** @ingroup system
  17:../../libDaisy/src/sys/system.h ****  */
  18:../../libDaisy/src/sys/system.h **** class System
  19:../../libDaisy/src/sys/system.h **** {
  20:../../libDaisy/src/sys/system.h ****   public:
  21:../../libDaisy/src/sys/system.h ****     /** Contains settings for initializing the System */
  22:../../libDaisy/src/sys/system.h ****     struct Config
  23:../../libDaisy/src/sys/system.h ****     {
  24:../../libDaisy/src/sys/system.h ****         /** Specifies the system clock frequency that feeds APB/AHB clocks, etc. */
  25:../../libDaisy/src/sys/system.h ****         enum class SysClkFreq
  26:../../libDaisy/src/sys/system.h ****         {
  27:../../libDaisy/src/sys/system.h ****             FREQ_400MHZ,
  28:../../libDaisy/src/sys/system.h ****             FREQ_480MHZ,
  29:../../libDaisy/src/sys/system.h ****         };
  30:../../libDaisy/src/sys/system.h **** 
  31:../../libDaisy/src/sys/system.h ****         /** Method to call on the struct to set to defaults
  32:../../libDaisy/src/sys/system.h ****          ** CPU Freq set to 400MHz
  33:../../libDaisy/src/sys/system.h ****          ** Cache Enabled
  34:../../libDaisy/src/sys/system.h ****          ** */
  35:../../libDaisy/src/sys/system.h ****         void Defaults()
  36:../../libDaisy/src/sys/system.h ****         {
  37:../../libDaisy/src/sys/system.h ****             cpu_freq    = SysClkFreq::FREQ_400MHZ;
  38:../../libDaisy/src/sys/system.h ****             use_dcache  = true;
  39:../../libDaisy/src/sys/system.h ****             use_icache  = true;
  40:../../libDaisy/src/sys/system.h ****             skip_clocks = false;
  41:../../libDaisy/src/sys/system.h ****         }
  42:../../libDaisy/src/sys/system.h **** 
  43:../../libDaisy/src/sys/system.h ****         /** Method to call on the struct to set to boost mode:
  44:../../libDaisy/src/sys/system.h ****          ** CPU Freq set to 480MHz
  45:../../libDaisy/src/sys/system.h ****          ** Cache Enabled
  46:../../libDaisy/src/sys/system.h ****          ** */
  47:../../libDaisy/src/sys/system.h ****         void Boost()
  48:../../libDaisy/src/sys/system.h ****         {
  49:../../libDaisy/src/sys/system.h ****             cpu_freq    = SysClkFreq::FREQ_480MHZ;
  50:../../libDaisy/src/sys/system.h ****             use_dcache  = true;
  51:../../libDaisy/src/sys/system.h ****             use_icache  = true;
  52:../../libDaisy/src/sys/system.h ****             skip_clocks = false;
  53:../../libDaisy/src/sys/system.h ****         }
  54:../../libDaisy/src/sys/system.h **** 
  55:../../libDaisy/src/sys/system.h ****         SysClkFreq cpu_freq;
  56:../../libDaisy/src/sys/system.h ****         bool       use_dcache;
ARM GAS  /tmp/cc5paFFJ.s 			page 3


  57:../../libDaisy/src/sys/system.h ****         bool       use_icache;
  58:../../libDaisy/src/sys/system.h ****         bool       skip_clocks;
  59:../../libDaisy/src/sys/system.h ****     };
  60:../../libDaisy/src/sys/system.h **** 
  61:../../libDaisy/src/sys/system.h ****     /** Describes the different regions of memory available to the Daisy */
  62:../../libDaisy/src/sys/system.h ****     enum MemoryRegion
  63:../../libDaisy/src/sys/system.h ****     {
  64:../../libDaisy/src/sys/system.h ****         INTERNAL_FLASH = 0,
  65:../../libDaisy/src/sys/system.h ****         ITCMRAM,
  66:../../libDaisy/src/sys/system.h ****         DTCMRAM,
  67:../../libDaisy/src/sys/system.h ****         SRAM_D1,
  68:../../libDaisy/src/sys/system.h ****         SRAM_D2,
  69:../../libDaisy/src/sys/system.h ****         SRAM_D3,
  70:../../libDaisy/src/sys/system.h ****         SDRAM,
  71:../../libDaisy/src/sys/system.h ****         QSPI,
  72:../../libDaisy/src/sys/system.h ****         INVALID_ADDRESS,
  73:../../libDaisy/src/sys/system.h ****     };
  74:../../libDaisy/src/sys/system.h **** 
  75:../../libDaisy/src/sys/system.h ****     /** Bootloader struct for controlling bootloading parameters */
  76:../../libDaisy/src/sys/system.h ****     struct BootInfo
  77:../../libDaisy/src/sys/system.h ****     {
  78:../../libDaisy/src/sys/system.h ****         enum class Type : uint32_t
  79:../../libDaisy/src/sys/system.h ****         {
  80:../../libDaisy/src/sys/system.h ****             INVALID      = 0x00000000,
  81:../../libDaisy/src/sys/system.h ****             JUMP         = 0xDEADBEEF,
  82:../../libDaisy/src/sys/system.h ****             SKIP_TIMEOUT = 0x5AFEB007,
  83:../../libDaisy/src/sys/system.h ****             INF_TIMEOUT  = 0xB0074EFA,
  84:../../libDaisy/src/sys/system.h ****         } status;
  85:../../libDaisy/src/sys/system.h ****         uint32_t data;
  86:../../libDaisy/src/sys/system.h ****         enum class Version : uint32_t
  87:../../libDaisy/src/sys/system.h ****         {
  88:../../libDaisy/src/sys/system.h ****             LT_v6_0 = 0, // Less than v6.0
  89:../../libDaisy/src/sys/system.h ****             NONE,        // No bootloader present
  90:../../libDaisy/src/sys/system.h ****             v6_0,        // v6.0
  91:../../libDaisy/src/sys/system.h ****             v6_1,        // v6.1 or greater
  92:../../libDaisy/src/sys/system.h ****             LAST
  93:../../libDaisy/src/sys/system.h ****         } version;
  94:../../libDaisy/src/sys/system.h ****     };
  95:../../libDaisy/src/sys/system.h **** 
  96:../../libDaisy/src/sys/system.h ****     System() {}
  97:../../libDaisy/src/sys/system.h ****     ~System() {}
  38              		.loc 2 97 5 view .LVU1
  39              		.loc 2 97 5 is_stmt 0 view .LVU2
  40              	.LBE109:
  41              	.LBB110:
  42              	.LBI110:
  43              		.file 3 "../../libDaisy/src/hid/usb.h"
   1:../../libDaisy/src/hid/usb.h **** #pragma once
   2:../../libDaisy/src/hid/usb.h **** #ifndef DSY_HID_USB_H
   3:../../libDaisy/src/hid/usb.h **** #define DSY_HID_USB_H
   4:../../libDaisy/src/hid/usb.h **** #include <stdint.h>
   5:../../libDaisy/src/hid/usb.h **** #include <stdlib.h>
   6:../../libDaisy/src/hid/usb.h **** 
   7:../../libDaisy/src/hid/usb.h **** namespace daisy
   8:../../libDaisy/src/hid/usb.h **** /** @addtogroup human_interface
   9:../../libDaisy/src/hid/usb.h ****     @{
  10:../../libDaisy/src/hid/usb.h **** */
ARM GAS  /tmp/cc5paFFJ.s 			page 4


  11:../../libDaisy/src/hid/usb.h **** 
  12:../../libDaisy/src/hid/usb.h **** {
  13:../../libDaisy/src/hid/usb.h **** /** 
  14:../../libDaisy/src/hid/usb.h ****     @brief Interface for initializing and using the USB Peripherals on the daisy
  15:../../libDaisy/src/hid/usb.h ****     @author Stephen Hensley
  16:../../libDaisy/src/hid/usb.h ****     @date December 2019
  17:../../libDaisy/src/hid/usb.h **** */
  18:../../libDaisy/src/hid/usb.h **** class UsbHandle
  19:../../libDaisy/src/hid/usb.h **** {
  20:../../libDaisy/src/hid/usb.h ****   public:
  21:../../libDaisy/src/hid/usb.h ****     /** Return values for USBHandle Functions */
  22:../../libDaisy/src/hid/usb.h ****     enum class Result
  23:../../libDaisy/src/hid/usb.h ****     {
  24:../../libDaisy/src/hid/usb.h ****         OK,
  25:../../libDaisy/src/hid/usb.h ****         ERR,
  26:../../libDaisy/src/hid/usb.h ****     };
  27:../../libDaisy/src/hid/usb.h **** 
  28:../../libDaisy/src/hid/usb.h ****     /** Specified which of the two USB Peripherals to initialize. */
  29:../../libDaisy/src/hid/usb.h ****     enum UsbPeriph
  30:../../libDaisy/src/hid/usb.h ****     {
  31:../../libDaisy/src/hid/usb.h ****         FS_INTERNAL, /**< Internal pin */
  32:../../libDaisy/src/hid/usb.h ****         FS_EXTERNAL, /**< FS External D+ pin is Pin 38 (GPIO32). FS External D- pin is Pin 37 (GPIO
  33:../../libDaisy/src/hid/usb.h ****         FS_BOTH,     /**< Both */
  34:../../libDaisy/src/hid/usb.h ****     };
  35:../../libDaisy/src/hid/usb.h **** 
  36:../../libDaisy/src/hid/usb.h **** 
  37:../../libDaisy/src/hid/usb.h ****     /** Function called upon reception of a buffer */
  38:../../libDaisy/src/hid/usb.h ****     typedef void (*ReceiveCallback)(uint8_t* buff, uint32_t* len);
  39:../../libDaisy/src/hid/usb.h **** 
  40:../../libDaisy/src/hid/usb.h ****     UsbHandle() {}
  41:../../libDaisy/src/hid/usb.h **** 
  42:../../libDaisy/src/hid/usb.h ****     ~UsbHandle() {}
  44              		.loc 3 42 5 is_stmt 1 view .LVU3
  45              		.loc 3 42 5 is_stmt 0 view .LVU4
  46              	.LBE110:
  47              	.LBB111:
  48              	.LBI111:
  49              		.file 4 "../../libDaisy/src/per/adc.h"
   1:../../libDaisy/src/per/adc.h **** #pragma once
   2:../../libDaisy/src/per/adc.h **** #ifndef DSY_ADC_H
   3:../../libDaisy/src/per/adc.h **** #define DSY_ADC_H /**< Macro */
   4:../../libDaisy/src/per/adc.h **** #include <stdint.h>
   5:../../libDaisy/src/per/adc.h **** #include <stdlib.h>
   6:../../libDaisy/src/per/adc.h **** #include "daisy_core.h"
   7:../../libDaisy/src/per/adc.h **** #include "per/gpio.h"
   8:../../libDaisy/src/per/adc.h **** 
   9:../../libDaisy/src/per/adc.h **** #define DSY_ADC_MAX_CHANNELS 16 /**< Maximum number of ADC channels */
  10:../../libDaisy/src/per/adc.h **** 
  11:../../libDaisy/src/per/adc.h **** namespace daisy
  12:../../libDaisy/src/per/adc.h **** {
  13:../../libDaisy/src/per/adc.h **** /** @addtogroup per_analog
  14:../../libDaisy/src/per/adc.h ****     @{
  15:../../libDaisy/src/per/adc.h **** */
  16:../../libDaisy/src/per/adc.h **** 
  17:../../libDaisy/src/per/adc.h **** /* While there may not be many configuration options here,
  18:../../libDaisy/src/per/adc.h **** using a struct like this allows us to add more configuration
  19:../../libDaisy/src/per/adc.h **** later without breaking existing functionality.
ARM GAS  /tmp/cc5paFFJ.s 			page 5


  20:../../libDaisy/src/per/adc.h **** */
  21:../../libDaisy/src/per/adc.h **** 
  22:../../libDaisy/src/per/adc.h **** /** @brief   Configuration Structure for an ADC Channel 
  23:../../libDaisy/src/per/adc.h ****  *  @details This can be used to configure a a single input, 
  24:../../libDaisy/src/per/adc.h ****  *           or a multiplexed input, allowing up to 8 inputs on 
  25:../../libDaisy/src/per/adc.h ****  *           one channel.
  26:../../libDaisy/src/per/adc.h ****  *  @note    Sharing data lines to multiple muxes _is_ possible, but
  27:../../libDaisy/src/per/adc.h ****  *           each channel sharing data lines must be set to the maximum
  28:../../libDaisy/src/per/adc.h ****  *           number of channels, even if some multiplexers have fewer
  29:../../libDaisy/src/per/adc.h ****  *           inputs connected.
  30:../../libDaisy/src/per/adc.h **** */
  31:../../libDaisy/src/per/adc.h **** struct AdcChannelConfig
  32:../../libDaisy/src/per/adc.h **** {
  33:../../libDaisy/src/per/adc.h ****     /** Which pin to use for multiplexing */
  34:../../libDaisy/src/per/adc.h ****     enum MuxPin
  35:../../libDaisy/src/per/adc.h ****     {
  36:../../libDaisy/src/per/adc.h ****         MUX_SEL_0,    /**< & */
  37:../../libDaisy/src/per/adc.h ****         MUX_SEL_1,    /**< & */
  38:../../libDaisy/src/per/adc.h ****         MUX_SEL_2,    /**< & */
  39:../../libDaisy/src/per/adc.h ****         MUX_SEL_LAST, /**< & */
  40:../../libDaisy/src/per/adc.h ****     };
  41:../../libDaisy/src/per/adc.h **** 
  42:../../libDaisy/src/per/adc.h ****     /** \brief per channel conversion speed added to fixed time based on bitdepth, etc. */
  43:../../libDaisy/src/per/adc.h ****     enum ConversionSpeed
  44:../../libDaisy/src/per/adc.h ****     {
  45:../../libDaisy/src/per/adc.h ****         SPEED_1CYCLES_5,
  46:../../libDaisy/src/per/adc.h ****         SPEED_2CYCLES_5,
  47:../../libDaisy/src/per/adc.h ****         SPEED_8CYCLES_5,
  48:../../libDaisy/src/per/adc.h ****         SPEED_16CYCLES_5,
  49:../../libDaisy/src/per/adc.h ****         SPEED_32CYCLES_5,
  50:../../libDaisy/src/per/adc.h ****         SPEED_64CYCLES_5,
  51:../../libDaisy/src/per/adc.h ****         SPEED_387CYCLES_5,
  52:../../libDaisy/src/per/adc.h ****         SPEED_810CYCLES_5,
  53:../../libDaisy/src/per/adc.h ****     };
  54:../../libDaisy/src/per/adc.h **** 
  55:../../libDaisy/src/per/adc.h ****     /** Initializes a single ADC pin as an ADC. 
  56:../../libDaisy/src/per/adc.h ****     \param pin Pin to init.
  57:../../libDaisy/src/per/adc.h ****     \param speed conversion speed for this pin defaults to 8.5 cycles
  58:../../libDaisy/src/per/adc.h ****      */
  59:../../libDaisy/src/per/adc.h ****     void InitSingle(dsy_gpio_pin pin, ConversionSpeed speed = SPEED_8CYCLES_5);
  60:../../libDaisy/src/per/adc.h **** 
  61:../../libDaisy/src/per/adc.h ****     /** 
  62:../../libDaisy/src/per/adc.h ****     Initializes a single ADC pin as a Multiplexed ADC.
  63:../../libDaisy/src/per/adc.h ****     Requires a CD405X Multiplexer connected to the pin.
  64:../../libDaisy/src/per/adc.h ****     You only need to supply the mux pins that are required,
  65:../../libDaisy/src/per/adc.h ****     e.g. a 4052 mux would only require mux_0 and mux_1.
  66:../../libDaisy/src/per/adc.h ****     Internal Callbacks handle the pin addressing.
  67:../../libDaisy/src/per/adc.h ****     \param adc_pin &
  68:../../libDaisy/src/per/adc.h ****     \param mux_channels must be 1-8
  69:../../libDaisy/src/per/adc.h ****     \param mux_0 First mux pin
  70:../../libDaisy/src/per/adc.h ****     \param mux_1 Second mux pin
  71:../../libDaisy/src/per/adc.h ****     \param mux_2 Third mux pin
  72:../../libDaisy/src/per/adc.h ****     \param speed conversion speed for this pin defaults to 8.5 cycles
  73:../../libDaisy/src/per/adc.h ****     */
  74:../../libDaisy/src/per/adc.h ****     void InitMux(dsy_gpio_pin    adc_pin,
  75:../../libDaisy/src/per/adc.h ****                  size_t          mux_channels,
  76:../../libDaisy/src/per/adc.h ****                  dsy_gpio_pin    mux_0,
ARM GAS  /tmp/cc5paFFJ.s 			page 6


  77:../../libDaisy/src/per/adc.h ****                  dsy_gpio_pin    mux_1 = {DSY_GPIOX, 0},
  78:../../libDaisy/src/per/adc.h ****                  dsy_gpio_pin    mux_2 = {DSY_GPIOX, 0},
  79:../../libDaisy/src/per/adc.h ****                  ConversionSpeed speed = SPEED_8CYCLES_5);
  80:../../libDaisy/src/per/adc.h **** 
  81:../../libDaisy/src/per/adc.h ****     dsy_gpio        pin_;                   /**< & */
  82:../../libDaisy/src/per/adc.h ****     dsy_gpio        mux_pin_[MUX_SEL_LAST]; /**< & */
  83:../../libDaisy/src/per/adc.h ****     uint8_t         mux_channels_;          /**< & */
  84:../../libDaisy/src/per/adc.h ****     ConversionSpeed speed_;
  85:../../libDaisy/src/per/adc.h **** };
  86:../../libDaisy/src/per/adc.h **** 
  87:../../libDaisy/src/per/adc.h **** /**
  88:../../libDaisy/src/per/adc.h ****    @brief Handler for analog to digital conversion
  89:../../libDaisy/src/per/adc.h **** */
  90:../../libDaisy/src/per/adc.h **** class AdcHandle
  91:../../libDaisy/src/per/adc.h **** {
  92:../../libDaisy/src/per/adc.h ****   public:
  93:../../libDaisy/src/per/adc.h ****     /** Supported oversampling amounts */
  94:../../libDaisy/src/per/adc.h ****     enum OverSampling
  95:../../libDaisy/src/per/adc.h ****     {
  96:../../libDaisy/src/per/adc.h ****         OVS_NONE, /**< & */
  97:../../libDaisy/src/per/adc.h ****         OVS_4,    /**< & */
  98:../../libDaisy/src/per/adc.h ****         OVS_8,    /**< & */
  99:../../libDaisy/src/per/adc.h ****         OVS_16,   /**< & */
 100:../../libDaisy/src/per/adc.h ****         OVS_32,   /**< & */
 101:../../libDaisy/src/per/adc.h ****         OVS_64,   /**< & */
 102:../../libDaisy/src/per/adc.h ****         OVS_128,  /**< & */
 103:../../libDaisy/src/per/adc.h ****         OVS_256,  /**< & */
 104:../../libDaisy/src/per/adc.h ****         OVS_512,  /**< & */
 105:../../libDaisy/src/per/adc.h ****         OVS_1024, /**< & */
 106:../../libDaisy/src/per/adc.h ****         OVS_LAST, /**< & */
 107:../../libDaisy/src/per/adc.h ****     };
 108:../../libDaisy/src/per/adc.h **** 
 109:../../libDaisy/src/per/adc.h ****     AdcHandle() {}
 110:../../libDaisy/src/per/adc.h ****     ~AdcHandle() {}
  50              		.loc 4 110 5 is_stmt 1 view .LVU5
  51              		.loc 4 110 5 is_stmt 0 view .LVU6
  52              	.LBE111:
  53              	.LBB112:
  54              	.LBI112:
  55              		.file 5 "../../libDaisy/src/hid/audio.h"
   1:../../libDaisy/src/hid/audio.h **** #ifndef DSY_AUDIO_H
   2:../../libDaisy/src/hid/audio.h **** #define DSY_AUDIO_H /**< & */
   3:../../libDaisy/src/hid/audio.h **** 
   4:../../libDaisy/src/hid/audio.h **** #include "per/sai.h"
   5:../../libDaisy/src/hid/audio.h **** 
   6:../../libDaisy/src/hid/audio.h **** namespace daisy
   7:../../libDaisy/src/hid/audio.h **** {
   8:../../libDaisy/src/hid/audio.h **** /** @brief Audio Engine Handle
   9:../../libDaisy/src/hid/audio.h ****  *  @ingroup audio 
  10:../../libDaisy/src/hid/audio.h ****  *  @details This class allows for higher level access to an audio engine.
  11:../../libDaisy/src/hid/audio.h ****  *           If you're using a SOM like the DaisySeed or DaisyPatchSM (or any 
  12:../../libDaisy/src/hid/audio.h ****  *            board that includes one of those objects) then the intialization
  13:../../libDaisy/src/hid/audio.h ****  *            is already taken  care of.
  14:../../libDaisy/src/hid/audio.h ****  *           If you're setting up your own custom hardware, or need to make changes
  15:../../libDaisy/src/hid/audio.h ****  *           you will have to take the following steps:
  16:../../libDaisy/src/hid/audio.h ****  *             1. Create and Initialize an SaiHandle or two depending on your requirements
  17:../../libDaisy/src/hid/audio.h ****  *             2. Initialize the Audio Handle with the desired settings and the Initialized SaiHand
ARM GAS  /tmp/cc5paFFJ.s 			page 7


  18:../../libDaisy/src/hid/audio.h ****  *             3. If the connected codec requires special configuration or initialization, do so
  19:../../libDaisy/src/hid/audio.h ****  *             4. Write a callback method using either the AudioCallback or the InterleavingAudioCa
  20:../../libDaisy/src/hid/audio.h ****  *             5. Start the Audio using one of the StartAudio function
  21:../../libDaisy/src/hid/audio.h ****  */
  22:../../libDaisy/src/hid/audio.h **** class AudioHandle
  23:../../libDaisy/src/hid/audio.h **** {
  24:../../libDaisy/src/hid/audio.h ****   public:
  25:../../libDaisy/src/hid/audio.h ****     /** Manually configurable details about the Audio Engine */
  26:../../libDaisy/src/hid/audio.h ****     /** TODO: Figure out how to get samplerate in here. */
  27:../../libDaisy/src/hid/audio.h ****     struct Config
  28:../../libDaisy/src/hid/audio.h ****     {
  29:../../libDaisy/src/hid/audio.h ****         /** number of samples to process per callback */
  30:../../libDaisy/src/hid/audio.h ****         size_t blocksize;
  31:../../libDaisy/src/hid/audio.h **** 
  32:../../libDaisy/src/hid/audio.h ****         /**< Sample rate of audio */
  33:../../libDaisy/src/hid/audio.h ****         SaiHandle::Config::SampleRate samplerate;
  34:../../libDaisy/src/hid/audio.h **** 
  35:../../libDaisy/src/hid/audio.h ****         /** factor for adjustment before and after callback for hardware that may have extra headro
  36:../../libDaisy/src/hid/audio.h ****         float postgain;
  37:../../libDaisy/src/hid/audio.h **** 
  38:../../libDaisy/src/hid/audio.h ****         /** factor for additional one-sided compensation to audio path for hardware that may
  39:../../libDaisy/src/hid/audio.h ****          *  have unequal input/output ranges
  40:../../libDaisy/src/hid/audio.h ****          */
  41:../../libDaisy/src/hid/audio.h ****         float output_compensation;
  42:../../libDaisy/src/hid/audio.h **** 
  43:../../libDaisy/src/hid/audio.h ****         /** Sets default values for config struct */
  44:../../libDaisy/src/hid/audio.h ****         Config()
  45:../../libDaisy/src/hid/audio.h ****         : blocksize(48),
  46:../../libDaisy/src/hid/audio.h ****           samplerate(SaiHandle::Config::SampleRate::SAI_48KHZ),
  47:../../libDaisy/src/hid/audio.h ****           postgain(1.f),
  48:../../libDaisy/src/hid/audio.h ****           output_compensation(1.f)
  49:../../libDaisy/src/hid/audio.h ****         {
  50:../../libDaisy/src/hid/audio.h ****         }
  51:../../libDaisy/src/hid/audio.h ****     };
  52:../../libDaisy/src/hid/audio.h **** 
  53:../../libDaisy/src/hid/audio.h ****     enum class Result
  54:../../libDaisy/src/hid/audio.h ****     {
  55:../../libDaisy/src/hid/audio.h ****         OK,
  56:../../libDaisy/src/hid/audio.h ****         ERR,
  57:../../libDaisy/src/hid/audio.h ****     };
  58:../../libDaisy/src/hid/audio.h **** 
  59:../../libDaisy/src/hid/audio.h ****     /** Non-Interleaving input buffer
  60:../../libDaisy/src/hid/audio.h ****      * Buffer arranged by float[chn][sample] 
  61:../../libDaisy/src/hid/audio.h ****      * const so that the user can't modify the input
  62:../../libDaisy/src/hid/audio.h ****      */
  63:../../libDaisy/src/hid/audio.h ****     typedef const float* const* InputBuffer;
  64:../../libDaisy/src/hid/audio.h **** 
  65:../../libDaisy/src/hid/audio.h ****     /** Non-Interleaving output buffer
  66:../../libDaisy/src/hid/audio.h ****      * Arranged by float[chn][sample] 
  67:../../libDaisy/src/hid/audio.h ****      */
  68:../../libDaisy/src/hid/audio.h ****     typedef float** OutputBuffer;
  69:../../libDaisy/src/hid/audio.h **** 
  70:../../libDaisy/src/hid/audio.h ****     /** Type for a Non-Interleaving audio callback 
  71:../../libDaisy/src/hid/audio.h ****      * Non-Interleaving audio callbacks in daisy will be of this type
  72:../../libDaisy/src/hid/audio.h ****      */
  73:../../libDaisy/src/hid/audio.h ****     typedef void (*AudioCallback)(InputBuffer  in,
  74:../../libDaisy/src/hid/audio.h ****                                   OutputBuffer out,
ARM GAS  /tmp/cc5paFFJ.s 			page 8


  75:../../libDaisy/src/hid/audio.h ****                                   size_t       size);
  76:../../libDaisy/src/hid/audio.h **** 
  77:../../libDaisy/src/hid/audio.h ****     /** Interleaving Input buffer
  78:../../libDaisy/src/hid/audio.h ****      ** audio is prepared as { L0, R0, L1, R1, . . . LN, RN }]
  79:../../libDaisy/src/hid/audio.h ****      ** this is const, as the user shouldn't modify it
  80:../../libDaisy/src/hid/audio.h ****     */
  81:../../libDaisy/src/hid/audio.h ****     typedef const float* InterleavingInputBuffer;
  82:../../libDaisy/src/hid/audio.h **** 
  83:../../libDaisy/src/hid/audio.h ****     /** Interleaving Output buffer 
  84:../../libDaisy/src/hid/audio.h ****      ** audio is prepared as { L0, R0, L1, R1, . . . LN, RN }
  85:../../libDaisy/src/hid/audio.h ****     */
  86:../../libDaisy/src/hid/audio.h ****     typedef float* InterleavingOutputBuffer;
  87:../../libDaisy/src/hid/audio.h **** 
  88:../../libDaisy/src/hid/audio.h ****     /** Interleaving Audio Callback 
  89:../../libDaisy/src/hid/audio.h ****      * Interleaving audio callbacks in daisy must be of this type
  90:../../libDaisy/src/hid/audio.h ****      */
  91:../../libDaisy/src/hid/audio.h ****     typedef void (*InterleavingAudioCallback)(InterleavingInputBuffer  in,
  92:../../libDaisy/src/hid/audio.h ****                                               InterleavingOutputBuffer out,
  93:../../libDaisy/src/hid/audio.h ****                                               size_t                   size);
  94:../../libDaisy/src/hid/audio.h **** 
  95:../../libDaisy/src/hid/audio.h ****     AudioHandle() : pimpl_(nullptr) {}
  96:../../libDaisy/src/hid/audio.h ****     ~AudioHandle() {}
  56              		.loc 5 96 5 is_stmt 1 view .LVU7
  57              		.loc 5 96 5 is_stmt 0 view .LVU8
  58              	.LBE112:
  59              		.loc 1 22 19 view .LVU9
  60 0000 7047     		bx	lr
  61              		.cfi_endproc
  62              	.LFE2555:
  64              		.weak	_ZN5daisy9DaisySeedD1Ev
  65              		.thumb_set _ZN5daisy9DaisySeedD1Ev,_ZN5daisy9DaisySeedD2Ev
  66 0002 00BF     		.section	.text.dsy_tinyusb_irq_handler,"ax",%progbits
  67              		.align	1
  68              		.p2align 2,,3
  69              		.global	dsy_tinyusb_irq_handler
  70              		.syntax unified
  71              		.thumb
  72              		.thumb_func
  73              		.fpu fpv5-d16
  75              	dsy_tinyusb_irq_handler:
  76              	.LFB2674:
  77              		.file 6 "TinyUsbCdcHidExternal.cpp"
   1:TinyUsbCdcHidExternal.cpp **** #include "daisy_seed.h"
   2:TinyUsbCdcHidExternal.cpp **** #include "tusb.h"
   3:TinyUsbCdcHidExternal.cpp **** 
   4:TinyUsbCdcHidExternal.cpp **** using namespace daisy;
   5:TinyUsbCdcHidExternal.cpp **** 
   6:TinyUsbCdcHidExternal.cpp **** DaisySeed hw;
   7:TinyUsbCdcHidExternal.cpp **** static uint32_t blink_interval_ms = 250;
   8:TinyUsbCdcHidExternal.cpp **** 
   9:TinyUsbCdcHidExternal.cpp **** extern "C" void dsy_tinyusb_irq_handler(void)
  10:TinyUsbCdcHidExternal.cpp **** {
  78              		.loc 6 10 1 is_stmt 1 view -0
  79              		.cfi_startproc
  80              		@ args = 0, pretend = 0, frame = 0
  81              		@ frame_needed = 0, uses_anonymous_args = 0
  82              		@ link register save eliminated.
ARM GAS  /tmp/cc5paFFJ.s 			page 9


  11:TinyUsbCdcHidExternal.cpp ****     tud_int_handler(0);
  83              		.loc 6 11 5 view .LVU11
  84              		.loc 6 11 20 is_stmt 0 view .LVU12
  85 0000 0020     		movs	r0, #0
  86 0002 FFF7FEBF 		b	dcd_int_handler
  87              	.LVL1:
  88              		.cfi_endproc
  89              	.LFE2674:
  91 0006 00BF     		.section	.rodata.board_get_unique_id.str1.4,"aMS",%progbits,1
  92              		.align	2
  93              	.LC1:
  94 0000 44414953 		.ascii	"DAISYCDCHID0001\000"
  94      59434443 
  94      48494430 
  94      30303100 
  95              		.section	.text.board_get_unique_id,"ax",%progbits
  96              		.align	1
  97              		.p2align 2,,3
  98              		.global	board_get_unique_id
  99              		.syntax unified
 100              		.thumb
 101              		.thumb_func
 102              		.fpu fpv5-d16
 104              	board_get_unique_id:
 105              	.LVL2:
 106              	.LFB2675:
  12:TinyUsbCdcHidExternal.cpp **** }
  13:TinyUsbCdcHidExternal.cpp **** 
  14:TinyUsbCdcHidExternal.cpp **** extern "C" size_t board_get_unique_id(uint8_t id[], size_t max_len)
  15:TinyUsbCdcHidExternal.cpp **** {
 107              		.loc 6 15 1 is_stmt 1 view -0
 108              		.cfi_startproc
 109              		@ args = 0, pretend = 0, frame = 0
 110              		@ frame_needed = 0, uses_anonymous_args = 0
 111              		@ link register save eliminated.
  16:TinyUsbCdcHidExternal.cpp ****     const char* serial = "DAISYCDCHID0001";
 112              		.loc 6 16 5 view .LVU14
  17:TinyUsbCdcHidExternal.cpp ****     size_t n = 15;
 113              		.loc 6 17 5 view .LVU15
  18:TinyUsbCdcHidExternal.cpp ****     if(n > max_len)
 114              		.loc 6 18 5 view .LVU16
 115 0000 0E29     		cmp	r1, #14
  15:TinyUsbCdcHidExternal.cpp ****     const char* serial = "DAISYCDCHID0001";
 116              		.loc 6 15 1 is_stmt 0 view .LVU17
 117 0002 8446     		mov	ip, r0
 118              		.loc 6 18 5 view .LVU18
 119 0004 13D8     		bhi	.L8
 120              	.LVL3:
  19:TinyUsbCdcHidExternal.cpp ****         n = max_len;
  20:TinyUsbCdcHidExternal.cpp ****     for(size_t i = 0; i < n; i++)
 121              		.loc 6 20 5 is_stmt 1 view .LVU19
 122              	.LBB113:
 123              		.loc 6 20 25 view .LVU20
 124 0006 0846     		mov	r0, r1
 125              	.LVL4:
 126              		.loc 6 20 25 is_stmt 0 view .LVU21
 127 0008 99B1     		cbz	r1, .L9
ARM GAS  /tmp/cc5paFFJ.s 			page 10


 128              	.LVL5:
 129              	.L5:
 130              		.loc 6 20 25 view .LVU22
 131 000a 0CF1FF33 		add	r3, ip, #-1
 132 000e 4421     		movs	r1, #68
 133              	.LVL6:
 134              		.loc 6 20 25 view .LVU23
 135              	.LBE113:
  15:TinyUsbCdcHidExternal.cpp ****     const char* serial = "DAISYCDCHID0001";
 136              		.loc 6 15 1 view .LVU24
 137 0010 10B4     		push	{r4}
 138              		.cfi_def_cfa_offset 4
 139              		.cfi_offset 4, -4
 140 0012 084C     		ldr	r4, .L15
 141 0014 01E0     		b	.L7
 142              	.LVL7:
 143              	.L14:
 144              	.LBB114:
  21:TinyUsbCdcHidExternal.cpp ****         id[i] = (uint8_t)serial[i];
 145              		.loc 6 21 17 view .LVU25
 146 0016 14F8011F 		ldrb	r1, [r4, #1]!	@ zero_extendqisi2
 147              	.LVL8:
 148              	.L7:
 149              		.loc 6 21 9 is_stmt 1 discriminator 2 view .LVU26
  20:TinyUsbCdcHidExternal.cpp ****         id[i] = (uint8_t)serial[i];
 150              		.loc 6 20 25 is_stmt 0 discriminator 2 view .LVU27
 151 001a 9A1C     		adds	r2, r3, #2
 152              		.loc 6 21 15 discriminator 2 view .LVU28
 153 001c 5970     		strb	r1, [r3, #1]
  20:TinyUsbCdcHidExternal.cpp ****         id[i] = (uint8_t)serial[i];
 154              		.loc 6 20 5 is_stmt 1 discriminator 2 view .LVU29
 155              		.loc 6 21 15 is_stmt 0 discriminator 2 view .LVU30
 156 001e 0133     		adds	r3, r3, #1
 157              	.LVL9:
  20:TinyUsbCdcHidExternal.cpp ****         id[i] = (uint8_t)serial[i];
 158              		.loc 6 20 25 is_stmt 1 discriminator 2 view .LVU31
 159 0020 A2EB0C02 		sub	r2, r2, ip
 160 0024 9042     		cmp	r0, r2
 161 0026 F6D8     		bhi	.L14
 162              	.LBE114:
  22:TinyUsbCdcHidExternal.cpp ****     return n;
  23:TinyUsbCdcHidExternal.cpp **** }
 163              		.loc 6 23 1 is_stmt 0 view .LVU32
 164 0028 5DF8044B 		ldr	r4, [sp], #4
 165              		.cfi_restore 4
 166              		.cfi_def_cfa_offset 0
 167 002c 7047     		bx	lr
 168              	.LVL10:
 169              	.L8:
  17:TinyUsbCdcHidExternal.cpp ****     if(n > max_len)
 170              		.loc 6 17 12 view .LVU33
 171 002e 0F20     		movs	r0, #15
 172              	.LVL11:
  17:TinyUsbCdcHidExternal.cpp ****     if(n > max_len)
 173              		.loc 6 17 12 view .LVU34
 174 0030 EBE7     		b	.L5
 175              	.LVL12:
ARM GAS  /tmp/cc5paFFJ.s 			page 11


 176              	.L9:
  22:TinyUsbCdcHidExternal.cpp ****     return n;
 177              		.loc 6 22 5 is_stmt 1 view .LVU35
 178              		.loc 6 23 1 is_stmt 0 view .LVU36
 179 0032 7047     		bx	lr
 180              	.L16:
 181              		.align	2
 182              	.L15:
 183 0034 00000000 		.word	.LC1
 184              		.cfi_endproc
 185              	.LFE2675:
 187              		.section	.text.tud_mount_cb,"ax",%progbits
 188              		.align	1
 189              		.p2align 2,,3
 190              		.global	tud_mount_cb
 191              		.syntax unified
 192              		.thumb
 193              		.thumb_func
 194              		.fpu fpv5-d16
 196              	tud_mount_cb:
 197              	.LFB2679:
  24:TinyUsbCdcHidExternal.cpp **** 
  25:TinyUsbCdcHidExternal.cpp **** static void led_task()
  26:TinyUsbCdcHidExternal.cpp **** {
  27:TinyUsbCdcHidExternal.cpp ****     static uint32_t start_ms = 0;
  28:TinyUsbCdcHidExternal.cpp ****     static bool led_state = false;
  29:TinyUsbCdcHidExternal.cpp ****     if(System::GetNow() - start_ms < blink_interval_ms)
  30:TinyUsbCdcHidExternal.cpp ****         return;
  31:TinyUsbCdcHidExternal.cpp ****     start_ms += blink_interval_ms;
  32:TinyUsbCdcHidExternal.cpp ****     hw.SetLed(led_state);
  33:TinyUsbCdcHidExternal.cpp ****     led_state = !led_state;
  34:TinyUsbCdcHidExternal.cpp **** }
  35:TinyUsbCdcHidExternal.cpp **** 
  36:TinyUsbCdcHidExternal.cpp **** static void cdc_task()
  37:TinyUsbCdcHidExternal.cpp **** {
  38:TinyUsbCdcHidExternal.cpp ****     if(tud_cdc_available())
  39:TinyUsbCdcHidExternal.cpp ****     {
  40:TinyUsbCdcHidExternal.cpp ****         char buf[64];
  41:TinyUsbCdcHidExternal.cpp ****         uint32_t count = tud_cdc_read(buf, sizeof(buf));
  42:TinyUsbCdcHidExternal.cpp ****         tud_cdc_write(buf, count);
  43:TinyUsbCdcHidExternal.cpp ****         tud_cdc_write_flush();
  44:TinyUsbCdcHidExternal.cpp ****     }
  45:TinyUsbCdcHidExternal.cpp **** }
  46:TinyUsbCdcHidExternal.cpp **** 
  47:TinyUsbCdcHidExternal.cpp **** static void hid_task()
  48:TinyUsbCdcHidExternal.cpp **** {
  49:TinyUsbCdcHidExternal.cpp ****     static uint32_t start_ms = 0;
  50:TinyUsbCdcHidExternal.cpp ****     static bool pressed = false;
  51:TinyUsbCdcHidExternal.cpp **** 
  52:TinyUsbCdcHidExternal.cpp ****     if(!tud_hid_ready())
  53:TinyUsbCdcHidExternal.cpp ****         return;
  54:TinyUsbCdcHidExternal.cpp ****     if(System::GetNow() - start_ms < 1000)
  55:TinyUsbCdcHidExternal.cpp ****         return;
  56:TinyUsbCdcHidExternal.cpp ****     start_ms += 1000;
  57:TinyUsbCdcHidExternal.cpp **** 
  58:TinyUsbCdcHidExternal.cpp ****     if(!pressed)
  59:TinyUsbCdcHidExternal.cpp ****     {
ARM GAS  /tmp/cc5paFFJ.s 			page 12


  60:TinyUsbCdcHidExternal.cpp ****         uint8_t keycode[6] = {HID_KEY_A, 0, 0, 0, 0, 0};
  61:TinyUsbCdcHidExternal.cpp ****         tud_hid_keyboard_report(0, 0, keycode);
  62:TinyUsbCdcHidExternal.cpp ****         pressed = true;
  63:TinyUsbCdcHidExternal.cpp ****         if(tud_cdc_connected())
  64:TinyUsbCdcHidExternal.cpp ****         {
  65:TinyUsbCdcHidExternal.cpp ****             tud_cdc_write_str("HID key down\r\n");
  66:TinyUsbCdcHidExternal.cpp ****             tud_cdc_write_flush();
  67:TinyUsbCdcHidExternal.cpp ****         }
  68:TinyUsbCdcHidExternal.cpp ****     }
  69:TinyUsbCdcHidExternal.cpp ****     else
  70:TinyUsbCdcHidExternal.cpp ****     {
  71:TinyUsbCdcHidExternal.cpp ****         tud_hid_keyboard_report(0, 0, NULL);
  72:TinyUsbCdcHidExternal.cpp ****         pressed = false;
  73:TinyUsbCdcHidExternal.cpp ****         if(tud_cdc_connected())
  74:TinyUsbCdcHidExternal.cpp ****         {
  75:TinyUsbCdcHidExternal.cpp ****             tud_cdc_write_str("HID key up\r\n");
  76:TinyUsbCdcHidExternal.cpp ****             tud_cdc_write_flush();
  77:TinyUsbCdcHidExternal.cpp ****         }
  78:TinyUsbCdcHidExternal.cpp ****     }
  79:TinyUsbCdcHidExternal.cpp **** }
  80:TinyUsbCdcHidExternal.cpp **** 
  81:TinyUsbCdcHidExternal.cpp **** extern "C" void tud_mount_cb(void) { blink_interval_ms = 1000; }
 198              		.loc 6 81 36 is_stmt 1 view -0
 199              		.cfi_startproc
 200              		@ args = 0, pretend = 0, frame = 0
 201              		@ frame_needed = 0, uses_anonymous_args = 0
 202              		@ link register save eliminated.
 203              		.loc 6 81 38 view .LVU38
 204              		.loc 6 81 56 is_stmt 0 view .LVU39
 205 0000 024B     		ldr	r3, .L18
 206 0002 4FF47A72 		mov	r2, #1000
 207 0006 1A60     		str	r2, [r3]
 208              		.loc 6 81 64 view .LVU40
 209 0008 7047     		bx	lr
 210              	.L19:
 211 000a 00BF     		.align	2
 212              	.L18:
 213 000c 00000000 		.word	.LANCHOR0
 214              		.cfi_endproc
 215              	.LFE2679:
 217              		.section	.text.tud_umount_cb,"ax",%progbits
 218              		.align	1
 219              		.p2align 2,,3
 220              		.global	tud_umount_cb
 221              		.syntax unified
 222              		.thumb
 223              		.thumb_func
 224              		.fpu fpv5-d16
 226              	tud_umount_cb:
 227              	.LFB2680:
  82:TinyUsbCdcHidExternal.cpp **** extern "C" void tud_umount_cb(void) { blink_interval_ms = 250; }
 228              		.loc 6 82 37 is_stmt 1 view -0
 229              		.cfi_startproc
 230              		@ args = 0, pretend = 0, frame = 0
 231              		@ frame_needed = 0, uses_anonymous_args = 0
 232              		@ link register save eliminated.
 233              		.loc 6 82 39 view .LVU42
ARM GAS  /tmp/cc5paFFJ.s 			page 13


 234              		.loc 6 82 57 is_stmt 0 view .LVU43
 235 0000 014B     		ldr	r3, .L21
 236 0002 FA22     		movs	r2, #250
 237 0004 1A60     		str	r2, [r3]
 238              		.loc 6 82 64 view .LVU44
 239 0006 7047     		bx	lr
 240              	.L22:
 241              		.align	2
 242              	.L21:
 243 0008 00000000 		.word	.LANCHOR0
 244              		.cfi_endproc
 245              	.LFE2680:
 247              		.section	.text.tud_suspend_cb,"ax",%progbits
 248              		.align	1
 249              		.p2align 2,,3
 250              		.global	tud_suspend_cb
 251              		.syntax unified
 252              		.thumb
 253              		.thumb_func
 254              		.fpu fpv5-d16
 256              	tud_suspend_cb:
 257              	.LVL13:
 258              	.LFB2681:
  83:TinyUsbCdcHidExternal.cpp **** extern "C" void tud_suspend_cb(bool remote_wakeup_en)
  84:TinyUsbCdcHidExternal.cpp **** {
 259              		.loc 6 84 1 is_stmt 1 view -0
 260              		.cfi_startproc
 261              		@ args = 0, pretend = 0, frame = 0
 262              		@ frame_needed = 0, uses_anonymous_args = 0
 263              		@ link register save eliminated.
  85:TinyUsbCdcHidExternal.cpp ****     (void)remote_wakeup_en;
 264              		.loc 6 85 5 view .LVU46
  86:TinyUsbCdcHidExternal.cpp ****     blink_interval_ms = 2500;
 265              		.loc 6 86 5 view .LVU47
 266              		.loc 6 86 23 is_stmt 0 view .LVU48
 267 0000 024B     		ldr	r3, .L24
 268 0002 40F6C412 		movw	r2, #2500
 269 0006 1A60     		str	r2, [r3]
  87:TinyUsbCdcHidExternal.cpp **** }
 270              		.loc 6 87 1 view .LVU49
 271 0008 7047     		bx	lr
 272              	.L25:
 273 000a 00BF     		.align	2
 274              	.L24:
 275 000c 00000000 		.word	.LANCHOR0
 276              		.cfi_endproc
 277              	.LFE2681:
 279              		.section	.text.tud_resume_cb,"ax",%progbits
 280              		.align	1
 281              		.p2align 2,,3
 282              		.global	tud_resume_cb
 283              		.syntax unified
 284              		.thumb
 285              		.thumb_func
 286              		.fpu fpv5-d16
 288              	tud_resume_cb:
 289              	.LFB2682:
ARM GAS  /tmp/cc5paFFJ.s 			page 14


  88:TinyUsbCdcHidExternal.cpp **** extern "C" void tud_resume_cb(void)
  89:TinyUsbCdcHidExternal.cpp **** {
 290              		.loc 6 89 1 is_stmt 1 view -0
 291              		.cfi_startproc
 292              		@ args = 0, pretend = 0, frame = 0
 293              		@ frame_needed = 0, uses_anonymous_args = 0
  90:TinyUsbCdcHidExternal.cpp ****     blink_interval_ms = tud_mounted() ? 1000 : 250;
 294              		.loc 6 90 5 view .LVU51
  89:TinyUsbCdcHidExternal.cpp ****     blink_interval_ms = tud_mounted() ? 1000 : 250;
 295              		.loc 6 89 1 is_stmt 0 view .LVU52
 296 0000 08B5     		push	{r3, lr}
 297              		.cfi_def_cfa_offset 8
 298              		.cfi_offset 3, -8
 299              		.cfi_offset 14, -4
 300              		.loc 6 90 36 view .LVU53
 301 0002 FFF7FEFF 		bl	tud_mounted
 302              	.LVL14:
 303              		.loc 6 90 39 view .LVU54
 304 0006 0028     		cmp	r0, #0
 305              		.loc 6 90 23 view .LVU55
 306 0008 034B     		ldr	r3, .L30
 307              		.loc 6 90 39 view .LVU56
 308 000a 14BF     		ite	ne
 309 000c 4FF47A72 		movne	r2, #1000
 310 0010 FA22     		moveq	r2, #250
 311              		.loc 6 90 23 view .LVU57
 312 0012 1A60     		str	r2, [r3]
  91:TinyUsbCdcHidExternal.cpp **** }
 313              		.loc 6 91 1 view .LVU58
 314 0014 08BD     		pop	{r3, pc}
 315              	.L31:
 316 0016 00BF     		.align	2
 317              	.L30:
 318 0018 00000000 		.word	.LANCHOR0
 319              		.cfi_endproc
 320              	.LFE2682:
 322              		.section	.text.tud_hid_get_report_cb,"ax",%progbits
 323              		.align	1
 324              		.p2align 2,,3
 325              		.global	tud_hid_get_report_cb
 326              		.syntax unified
 327              		.thumb
 328              		.thumb_func
 329              		.fpu fpv5-d16
 331              	tud_hid_get_report_cb:
 332              	.LVL15:
 333              	.LFB2683:
  92:TinyUsbCdcHidExternal.cpp **** extern "C" uint16_t tud_hid_get_report_cb(uint8_t instance, uint8_t report_id, hid_report_type_t re
  93:TinyUsbCdcHidExternal.cpp **** {
 334              		.loc 6 93 1 is_stmt 1 view -0
 335              		.cfi_startproc
 336              		@ args = 4, pretend = 0, frame = 0
 337              		@ frame_needed = 0, uses_anonymous_args = 0
 338              		@ link register save eliminated.
  94:TinyUsbCdcHidExternal.cpp ****     (void)instance; (void)report_id; (void)report_type; (void)buffer; (void)reqlen;
 339              		.loc 6 94 5 view .LVU60
 340              		.loc 6 94 21 view .LVU61
ARM GAS  /tmp/cc5paFFJ.s 			page 15


 341              		.loc 6 94 38 view .LVU62
 342              		.loc 6 94 57 view .LVU63
 343              		.loc 6 94 71 view .LVU64
  95:TinyUsbCdcHidExternal.cpp ****     return 0;
 344              		.loc 6 95 5 view .LVU65
  96:TinyUsbCdcHidExternal.cpp **** }
 345              		.loc 6 96 1 is_stmt 0 view .LVU66
 346 0000 0020     		movs	r0, #0
 347              	.LVL16:
 348              		.loc 6 96 1 view .LVU67
 349 0002 7047     		bx	lr
 350              		.cfi_endproc
 351              	.LFE2683:
 353              		.section	.text.tud_hid_set_report_cb,"ax",%progbits
 354              		.align	1
 355              		.p2align 2,,3
 356              		.global	tud_hid_set_report_cb
 357              		.syntax unified
 358              		.thumb
 359              		.thumb_func
 360              		.fpu fpv5-d16
 362              	tud_hid_set_report_cb:
 363              	.LVL17:
 364              	.LFB2684:
  97:TinyUsbCdcHidExternal.cpp **** extern "C" void tud_hid_set_report_cb(uint8_t instance, uint8_t report_id, hid_report_type_t report
  98:TinyUsbCdcHidExternal.cpp **** {
 365              		.loc 6 98 1 is_stmt 1 view -0
 366              		.cfi_startproc
 367              		@ args = 4, pretend = 0, frame = 0
 368              		@ frame_needed = 0, uses_anonymous_args = 0
 369              		@ link register save eliminated.
  99:TinyUsbCdcHidExternal.cpp ****     (void)instance; (void)report_id; (void)report_type; (void)buffer; (void)bufsize;
 370              		.loc 6 99 5 view .LVU69
 371              		.loc 6 99 21 view .LVU70
 372              		.loc 6 99 38 view .LVU71
 373              		.loc 6 99 57 view .LVU72
 374              		.loc 6 99 71 view .LVU73
 100:TinyUsbCdcHidExternal.cpp **** }
 375              		.loc 6 100 1 is_stmt 0 view .LVU74
 376 0000 7047     		bx	lr
 377              		.cfi_endproc
 378              	.LFE2684:
 380 0002 00BF     		.section	.rodata.main.str1.4,"aMS",%progbits,1
 381              		.align	2
 382              	.LC3:
 383 0000 48494420 		.ascii	"HID key down\015\012\000"
 383      6B657920 
 383      646F776E 
 383      0D0A00
 384 000f 00       		.align	2
 385              	.LC4:
 386 0010 48494420 		.ascii	"HID key up\015\012\000"
 386      6B657920 
 386      75700D0A 
 386      00
 387              		.section	.text.startup.main,"ax",%progbits
 388              		.align	1
ARM GAS  /tmp/cc5paFFJ.s 			page 16


 389              		.p2align 2,,3
 390              		.global	main
 391              		.syntax unified
 392              		.thumb
 393              		.thumb_func
 394              		.fpu fpv5-d16
 396              	main:
 397              	.LFB2685:
 101:TinyUsbCdcHidExternal.cpp **** 
 102:TinyUsbCdcHidExternal.cpp **** int main(void)
 103:TinyUsbCdcHidExternal.cpp **** {
 398              		.loc 6 103 1 is_stmt 1 view -0
 399              		.cfi_startproc
 400              		@ Volatile: function does not return.
 401              		@ args = 0, pretend = 0, frame = 72
 402              		@ frame_needed = 0, uses_anonymous_args = 0
 104:TinyUsbCdcHidExternal.cpp ****     hw.Configure();
 403              		.loc 6 104 5 view .LVU76
 103:TinyUsbCdcHidExternal.cpp ****     hw.Configure();
 404              		.loc 6 103 1 is_stmt 0 view .LVU77
 405 0000 2DE98048 		push	{r7, fp, lr}
 406              		.cfi_def_cfa_offset 12
 407              		.cfi_offset 7, -12
 408              		.cfi_offset 11, -8
 409              		.cfi_offset 14, -4
 410              		.loc 6 104 17 view .LVU78
 411 0004 4748     		ldr	r0, .L57
 103:TinyUsbCdcHidExternal.cpp ****     hw.Configure();
 412              		.loc 6 103 1 view .LVU79
 413 0006 93B0     		sub	sp, sp, #76
 414              		.cfi_def_cfa_offset 88
 415              		.loc 6 104 17 view .LVU80
 416 0008 FFF7FEFF 		bl	_ZN5daisy9DaisySeed9ConfigureEv
 417              	.LVL18:
 105:TinyUsbCdcHidExternal.cpp ****     hw.Init();
 418              		.loc 6 105 5 is_stmt 1 view .LVU81
 106:TinyUsbCdcHidExternal.cpp ****     hw.usb_handle.Init(UsbHandle::FS_EXTERNAL);
 107:TinyUsbCdcHidExternal.cpp **** 
 108:TinyUsbCdcHidExternal.cpp ****     tusb_rhport_init_t dev_init = {.role = TUSB_ROLE_DEVICE, .speed = TUSB_SPEED_AUTO};
 419              		.loc 6 108 24 is_stmt 0 view .LVU82
 420 000c DFF830A1 		ldr	r10, .L57+28
 105:TinyUsbCdcHidExternal.cpp ****     hw.Init();
 421              		.loc 6 105 12 view .LVU83
 422 0010 0021     		movs	r1, #0
 423 0012 4448     		ldr	r0, .L57
 424 0014 FFF7FEFF 		bl	_ZN5daisy9DaisySeed4InitEb
 425              	.LVL19:
 106:TinyUsbCdcHidExternal.cpp ****     hw.usb_handle.Init(UsbHandle::FS_EXTERNAL);
 426              		.loc 6 106 5 is_stmt 1 view .LVU84
 106:TinyUsbCdcHidExternal.cpp ****     hw.usb_handle.Init(UsbHandle::FS_EXTERNAL);
 427              		.loc 6 106 23 is_stmt 0 view .LVU85
 428 0018 0121     		movs	r1, #1
 429 001a 4348     		ldr	r0, .L57+4
 430 001c 02AE     		add	r6, sp, #8
 431 001e FFF7FEFF 		bl	_ZN5daisy9UsbHandle4InitENS0_9UsbPeriphE
 432              	.LVL20:
 433              		.loc 6 108 5 is_stmt 1 view .LVU86
ARM GAS  /tmp/cc5paFFJ.s 			page 17


 434              		.loc 6 108 24 is_stmt 0 view .LVU87
 435 0022 3AF8043B 		ldrh	r3, [r10], #4
 109:TinyUsbCdcHidExternal.cpp ****     tusb_init(0, &dev_init);
 436              		.loc 6 109 5 view .LVU88
 437 0026 01A9     		add	r1, sp, #4
 438 0028 0020     		movs	r0, #0
 439 002a 404C     		ldr	r4, .L57+8
 440 002c 404F     		ldr	r7, .L57+12
 441 002e 414D     		ldr	r5, .L57+16
 442 0030 DFF81081 		ldr	r8, .L57+32
 443 0034 DFF81091 		ldr	r9, .L57+36
 108:TinyUsbCdcHidExternal.cpp ****     tusb_init(0, &dev_init);
 444              		.loc 6 108 24 view .LVU89
 445 0038 ADF80430 		strh	r3, [sp, #4]	@ movhi
 446              		.loc 6 109 5 is_stmt 1 view .LVU90
 447 003c FFF7FEFF 		bl	tusb_rhport_init
 448              	.LVL21:
 449              	.L38:
 110:TinyUsbCdcHidExternal.cpp **** 
 111:TinyUsbCdcHidExternal.cpp ****     while(1)
 450              		.loc 6 111 5 discriminator 1 view .LVU91
 112:TinyUsbCdcHidExternal.cpp ****     {
 113:TinyUsbCdcHidExternal.cpp ****         tud_task();
 451              		.loc 6 113 9 discriminator 1 view .LVU92
 452              	.LBB155:
 453              	.LBI155:
 454              		.file 7 "/home/pi/Developer/tinyusb/src/device/usbd.h"
   1:/home/pi/Developer/tinyusb/src/device/usbd.h **** /*
   2:/home/pi/Developer/tinyusb/src/device/usbd.h ****  * The MIT License (MIT)
   3:/home/pi/Developer/tinyusb/src/device/usbd.h ****  *
   4:/home/pi/Developer/tinyusb/src/device/usbd.h ****  * Copyright (c) 2019 Ha Thach (tinyusb.org)
   5:/home/pi/Developer/tinyusb/src/device/usbd.h ****  *
   6:/home/pi/Developer/tinyusb/src/device/usbd.h ****  * Permission is hereby granted, free of charge, to any person obtaining a copy
   7:/home/pi/Developer/tinyusb/src/device/usbd.h ****  * of this software and associated documentation files (the "Software"), to deal
   8:/home/pi/Developer/tinyusb/src/device/usbd.h ****  * in the Software without restriction, including without limitation the rights
   9:/home/pi/Developer/tinyusb/src/device/usbd.h ****  * to use, copy, modify, merge, publish, distribute, sublicense, and/or sell
  10:/home/pi/Developer/tinyusb/src/device/usbd.h ****  * copies of the Software, and to permit persons to whom the Software is
  11:/home/pi/Developer/tinyusb/src/device/usbd.h ****  * furnished to do so, subject to the following conditions:
  12:/home/pi/Developer/tinyusb/src/device/usbd.h ****  *
  13:/home/pi/Developer/tinyusb/src/device/usbd.h ****  * The above copyright notice and this permission notice shall be included in
  14:/home/pi/Developer/tinyusb/src/device/usbd.h ****  * all copies or substantial portions of the Software.
  15:/home/pi/Developer/tinyusb/src/device/usbd.h ****  *
  16:/home/pi/Developer/tinyusb/src/device/usbd.h ****  * THE SOFTWARE IS PROVIDED "AS IS", WITHOUT WARRANTY OF ANY KIND, EXPRESS OR
  17:/home/pi/Developer/tinyusb/src/device/usbd.h ****  * IMPLIED, INCLUDING BUT NOT LIMITED TO THE WARRANTIES OF MERCHANTABILITY,
  18:/home/pi/Developer/tinyusb/src/device/usbd.h ****  * FITNESS FOR A PARTICULAR PURPOSE AND NONINFRINGEMENT. IN NO EVENT SHALL THE
  19:/home/pi/Developer/tinyusb/src/device/usbd.h ****  * AUTHORS OR COPYRIGHT HOLDERS BE LIABLE FOR ANY CLAIM, DAMAGES OR OTHER
  20:/home/pi/Developer/tinyusb/src/device/usbd.h ****  * LIABILITY, WHETHER IN AN ACTION OF CONTRACT, TORT OR OTHERWISE, ARISING FROM,
  21:/home/pi/Developer/tinyusb/src/device/usbd.h ****  * OUT OF OR IN CONNECTION WITH THE SOFTWARE OR THE USE OR OTHER DEALINGS IN
  22:/home/pi/Developer/tinyusb/src/device/usbd.h ****  * THE SOFTWARE.
  23:/home/pi/Developer/tinyusb/src/device/usbd.h ****  *
  24:/home/pi/Developer/tinyusb/src/device/usbd.h ****  * This file is part of the TinyUSB stack.
  25:/home/pi/Developer/tinyusb/src/device/usbd.h ****  */
  26:/home/pi/Developer/tinyusb/src/device/usbd.h **** 
  27:/home/pi/Developer/tinyusb/src/device/usbd.h **** #ifndef TUSB_USBD_H_
  28:/home/pi/Developer/tinyusb/src/device/usbd.h **** #define TUSB_USBD_H_
  29:/home/pi/Developer/tinyusb/src/device/usbd.h **** 
  30:/home/pi/Developer/tinyusb/src/device/usbd.h **** #include "common/tusb_common.h"
ARM GAS  /tmp/cc5paFFJ.s 			page 18


  31:/home/pi/Developer/tinyusb/src/device/usbd.h **** 
  32:/home/pi/Developer/tinyusb/src/device/usbd.h **** #ifdef __cplusplus
  33:/home/pi/Developer/tinyusb/src/device/usbd.h **** extern "C" {
  34:/home/pi/Developer/tinyusb/src/device/usbd.h **** #endif
  35:/home/pi/Developer/tinyusb/src/device/usbd.h **** 
  36:/home/pi/Developer/tinyusb/src/device/usbd.h **** // ConfigID for tud_configure()
  37:/home/pi/Developer/tinyusb/src/device/usbd.h **** enum {
  38:/home/pi/Developer/tinyusb/src/device/usbd.h ****   TUD_CFGID_INVALID = 0,
  39:/home/pi/Developer/tinyusb/src/device/usbd.h ****   TUD_CFGID_DWC2 = 100,
  40:/home/pi/Developer/tinyusb/src/device/usbd.h **** };
  41:/home/pi/Developer/tinyusb/src/device/usbd.h **** 
  42:/home/pi/Developer/tinyusb/src/device/usbd.h **** typedef struct {
  43:/home/pi/Developer/tinyusb/src/device/usbd.h ****   uint16_t bm_double_buffered; // bitmap of IN endpoints to be double buffered, only effective for 
  44:/home/pi/Developer/tinyusb/src/device/usbd.h ****   bool vbus_sensing; // Vbus pin is used for device connection detection, mandatory for tud_umount_
  45:/home/pi/Developer/tinyusb/src/device/usbd.h **** } tud_configure_dwc2_t;
  46:/home/pi/Developer/tinyusb/src/device/usbd.h **** 
  47:/home/pi/Developer/tinyusb/src/device/usbd.h ****   #ifndef CFG_TUD_CONFIGURE_DWC2_DEFAULT
  48:/home/pi/Developer/tinyusb/src/device/usbd.h ****     #define CFG_TUD_CONFIGURE_DWC2_DEFAULT {.bm_double_buffered = 0, .vbus_sensing = CFG_TUD_VBUS_D
  49:/home/pi/Developer/tinyusb/src/device/usbd.h ****   #endif
  50:/home/pi/Developer/tinyusb/src/device/usbd.h **** 
  51:/home/pi/Developer/tinyusb/src/device/usbd.h **** typedef union {
  52:/home/pi/Developer/tinyusb/src/device/usbd.h ****   tud_configure_dwc2_t dwc2;
  53:/home/pi/Developer/tinyusb/src/device/usbd.h **** } tud_configure_param_t;
  54:/home/pi/Developer/tinyusb/src/device/usbd.h **** 
  55:/home/pi/Developer/tinyusb/src/device/usbd.h **** //--------------------------------------------------------------------+
  56:/home/pi/Developer/tinyusb/src/device/usbd.h **** // Application API
  57:/home/pi/Developer/tinyusb/src/device/usbd.h **** //--------------------------------------------------------------------+
  58:/home/pi/Developer/tinyusb/src/device/usbd.h **** 
  59:/home/pi/Developer/tinyusb/src/device/usbd.h **** // Configure device stack behavior with dynamic or port-specific parameters.
  60:/home/pi/Developer/tinyusb/src/device/usbd.h **** // Should be called before initialization of the device stack
  61:/home/pi/Developer/tinyusb/src/device/usbd.h **** // - cfg_id   : configure ID from TUD_CFGID_* enum values
  62:/home/pi/Developer/tinyusb/src/device/usbd.h **** // - cfg_param: configure data, structure depends on the ID
  63:/home/pi/Developer/tinyusb/src/device/usbd.h **** bool tud_configure(uint8_t rhport, uint32_t cfg_id, const void* cfg_param);
  64:/home/pi/Developer/tinyusb/src/device/usbd.h **** 
  65:/home/pi/Developer/tinyusb/src/device/usbd.h **** // New API to replace tud_init() to init device stack on specific roothub port
  66:/home/pi/Developer/tinyusb/src/device/usbd.h **** // Must be called in the same task/context as tud_task() if RTOS is used
  67:/home/pi/Developer/tinyusb/src/device/usbd.h **** bool tud_rhport_init(uint8_t rhport, const tusb_rhport_init_t* rh_init);
  68:/home/pi/Developer/tinyusb/src/device/usbd.h **** 
  69:/home/pi/Developer/tinyusb/src/device/usbd.h **** // Init device stack on roothub port
  70:/home/pi/Developer/tinyusb/src/device/usbd.h **** #if TUSB_VERSION_NUMBER > 2000  // 0.20.0
  71:/home/pi/Developer/tinyusb/src/device/usbd.h **** TU_ATTR_DEPRECATED("Please use tusb_init(rhport, rh_init) instead")
  72:/home/pi/Developer/tinyusb/src/device/usbd.h **** #endif
  73:/home/pi/Developer/tinyusb/src/device/usbd.h **** TU_ATTR_ALWAYS_INLINE static inline bool tud_init (uint8_t rhport) {
  74:/home/pi/Developer/tinyusb/src/device/usbd.h ****   const tusb_rhport_init_t rh_init = {
  75:/home/pi/Developer/tinyusb/src/device/usbd.h ****     .role = TUSB_ROLE_DEVICE,
  76:/home/pi/Developer/tinyusb/src/device/usbd.h ****     .speed = TUD_OPT_HIGH_SPEED ? TUSB_SPEED_HIGH : TUSB_SPEED_FULL
  77:/home/pi/Developer/tinyusb/src/device/usbd.h ****   };
  78:/home/pi/Developer/tinyusb/src/device/usbd.h ****   return tud_rhport_init(rhport, &rh_init);
  79:/home/pi/Developer/tinyusb/src/device/usbd.h **** }
  80:/home/pi/Developer/tinyusb/src/device/usbd.h **** 
  81:/home/pi/Developer/tinyusb/src/device/usbd.h **** // Deinit device stack on roothub port
  82:/home/pi/Developer/tinyusb/src/device/usbd.h **** // Must be called in the same task/context as tud_task() if RTOS is used
  83:/home/pi/Developer/tinyusb/src/device/usbd.h **** bool tud_deinit(uint8_t rhport);
  84:/home/pi/Developer/tinyusb/src/device/usbd.h **** 
  85:/home/pi/Developer/tinyusb/src/device/usbd.h **** // Check if device stack is already initialized
  86:/home/pi/Developer/tinyusb/src/device/usbd.h **** bool tud_inited(void);
  87:/home/pi/Developer/tinyusb/src/device/usbd.h **** 
ARM GAS  /tmp/cc5paFFJ.s 			page 19


  88:/home/pi/Developer/tinyusb/src/device/usbd.h **** // Task function should be called in main/rtos loop, extended version of tud_task()
  89:/home/pi/Developer/tinyusb/src/device/usbd.h **** // - timeout_ms: millisecond to wait, zero = no wait, 0xFFFFFFFF = wait forever
  90:/home/pi/Developer/tinyusb/src/device/usbd.h **** // - in_isr: if function is called in ISR
  91:/home/pi/Developer/tinyusb/src/device/usbd.h **** void tud_task_ext(uint32_t timeout_ms, bool in_isr);
  92:/home/pi/Developer/tinyusb/src/device/usbd.h **** 
  93:/home/pi/Developer/tinyusb/src/device/usbd.h **** // Task function should be called in main/rtos loop
  94:/home/pi/Developer/tinyusb/src/device/usbd.h **** TU_ATTR_ALWAYS_INLINE static inline
  95:/home/pi/Developer/tinyusb/src/device/usbd.h **** void tud_task (void) {
 455              		.loc 7 95 6 discriminator 1 view .LVU93
 456              	.LBB156:
  96:/home/pi/Developer/tinyusb/src/device/usbd.h ****   tud_task_ext(UINT32_MAX, false);
 457              		.loc 7 96 3 discriminator 1 view .LVU94
 458              		.loc 7 96 15 is_stmt 0 discriminator 1 view .LVU95
 459 0040 0021     		movs	r1, #0
 460 0042 4FF0FF30 		mov	r0, #-1
 461 0046 FFF7FEFF 		bl	tud_task_ext
 462              	.LVL22:
 463              	.LBE156:
 464              	.LBE155:
 114:TinyUsbCdcHidExternal.cpp ****         led_task();
 465              		.loc 6 114 9 is_stmt 1 discriminator 1 view .LVU96
 466              	.LBB157:
 467              	.LBI157:
  25:TinyUsbCdcHidExternal.cpp **** {
 468              		.loc 6 25 13 discriminator 1 view .LVU97
 469              	.LBB158:
  27:TinyUsbCdcHidExternal.cpp ****     static bool led_state = false;
 470              		.loc 6 27 5 discriminator 1 view .LVU98
  28:TinyUsbCdcHidExternal.cpp ****     if(System::GetNow() - start_ms < blink_interval_ms)
 471              		.loc 6 28 5 discriminator 1 view .LVU99
  29:TinyUsbCdcHidExternal.cpp ****         return;
 472              		.loc 6 29 5 discriminator 1 view .LVU100
  29:TinyUsbCdcHidExternal.cpp ****         return;
 473              		.loc 6 29 22 is_stmt 0 discriminator 1 view .LVU101
 474 004a FFF7FEFF 		bl	_ZN5daisy6System6GetNowEv
 475              	.LVL23:
  29:TinyUsbCdcHidExternal.cpp ****         return;
 476              		.loc 6 29 25 discriminator 1 view .LVU102
 477 004e 2368     		ldr	r3, [r4]
  29:TinyUsbCdcHidExternal.cpp ****         return;
 478              		.loc 6 29 36 discriminator 1 view .LVU103
 479 0050 3A68     		ldr	r2, [r7]
  29:TinyUsbCdcHidExternal.cpp ****         return;
 480              		.loc 6 29 25 discriminator 1 view .LVU104
 481 0052 C01A     		subs	r0, r0, r3
  29:TinyUsbCdcHidExternal.cpp ****         return;
 482              		.loc 6 29 5 discriminator 1 view .LVU105
 483 0054 9042     		cmp	r0, r2
 484 0056 09D3     		bcc	.L36
  31:TinyUsbCdcHidExternal.cpp ****     hw.SetLed(led_state);
 485              		.loc 6 31 5 is_stmt 1 view .LVU106
  31:TinyUsbCdcHidExternal.cpp ****     hw.SetLed(led_state);
 486              		.loc 6 31 14 is_stmt 0 view .LVU107
 487 0058 1344     		add	r3, r3, r2
  32:TinyUsbCdcHidExternal.cpp ****     led_state = !led_state;
 488              		.loc 6 32 14 view .LVU108
 489 005a 2978     		ldrb	r1, [r5]	@ zero_extendqisi2
ARM GAS  /tmp/cc5paFFJ.s 			page 20


 490 005c 3148     		ldr	r0, .L57
  31:TinyUsbCdcHidExternal.cpp ****     hw.SetLed(led_state);
 491              		.loc 6 31 14 view .LVU109
 492 005e 2360     		str	r3, [r4]
  32:TinyUsbCdcHidExternal.cpp ****     led_state = !led_state;
 493              		.loc 6 32 5 is_stmt 1 view .LVU110
  32:TinyUsbCdcHidExternal.cpp ****     led_state = !led_state;
 494              		.loc 6 32 14 is_stmt 0 view .LVU111
 495 0060 FFF7FEFF 		bl	_ZN5daisy9DaisySeed6SetLedEb
 496              	.LVL24:
  33:TinyUsbCdcHidExternal.cpp **** }
 497              		.loc 6 33 5 is_stmt 1 view .LVU112
  33:TinyUsbCdcHidExternal.cpp **** }
 498              		.loc 6 33 17 is_stmt 0 view .LVU113
 499 0064 2B78     		ldrb	r3, [r5]	@ zero_extendqisi2
 500 0066 83F00103 		eor	r3, r3, #1
  33:TinyUsbCdcHidExternal.cpp **** }
 501              		.loc 6 33 15 view .LVU114
 502 006a 2B70     		strb	r3, [r5]
 503              	.L36:
 504              	.LBE158:
 505              	.LBE157:
 115:TinyUsbCdcHidExternal.cpp ****         cdc_task();
 506              		.loc 6 115 9 is_stmt 1 view .LVU115
 507              	.LBB159:
 508              	.LBI159:
  36:TinyUsbCdcHidExternal.cpp **** {
 509              		.loc 6 36 13 view .LVU116
 510              	.LBE159:
  38:TinyUsbCdcHidExternal.cpp ****     {
 511              		.loc 6 38 5 view .LVU117
 512              	.LBB175:
 513              	.LBB160:
 514              	.LBB161:
 515              	.LBI161:
 516              		.file 8 "/home/pi/Developer/tinyusb/src/class/cdc/cdc_device.h"
   1:/home/pi/Developer/tinyusb/src/class/cdc/cdc_device.h **** /*
   2:/home/pi/Developer/tinyusb/src/class/cdc/cdc_device.h ****  * The MIT License (MIT)
   3:/home/pi/Developer/tinyusb/src/class/cdc/cdc_device.h ****  *
   4:/home/pi/Developer/tinyusb/src/class/cdc/cdc_device.h ****  * Copyright (c) 2019 Ha Thach (tinyusb.org)
   5:/home/pi/Developer/tinyusb/src/class/cdc/cdc_device.h ****  *
   6:/home/pi/Developer/tinyusb/src/class/cdc/cdc_device.h ****  * Permission is hereby granted, free of charge, to any person obtaining a copy
   7:/home/pi/Developer/tinyusb/src/class/cdc/cdc_device.h ****  * of this software and associated documentation files (the "Software"), to deal
   8:/home/pi/Developer/tinyusb/src/class/cdc/cdc_device.h ****  * in the Software without restriction, including without limitation the rights
   9:/home/pi/Developer/tinyusb/src/class/cdc/cdc_device.h ****  * to use, copy, modify, merge, publish, distribute, sublicense, and/or sell
  10:/home/pi/Developer/tinyusb/src/class/cdc/cdc_device.h ****  * copies of the Software, and to permit persons to whom the Software is
  11:/home/pi/Developer/tinyusb/src/class/cdc/cdc_device.h ****  * furnished to do so, subject to the following conditions:
  12:/home/pi/Developer/tinyusb/src/class/cdc/cdc_device.h ****  *
  13:/home/pi/Developer/tinyusb/src/class/cdc/cdc_device.h ****  * The above copyright notice and this permission notice shall be included in
  14:/home/pi/Developer/tinyusb/src/class/cdc/cdc_device.h ****  * all copies or substantial portions of the Software.
  15:/home/pi/Developer/tinyusb/src/class/cdc/cdc_device.h ****  *
  16:/home/pi/Developer/tinyusb/src/class/cdc/cdc_device.h ****  * THE SOFTWARE IS PROVIDED "AS IS", WITHOUT WARRANTY OF ANY KIND, EXPRESS OR
  17:/home/pi/Developer/tinyusb/src/class/cdc/cdc_device.h ****  * IMPLIED, INCLUDING BUT NOT LIMITED TO THE WARRANTIES OF MERCHANTABILITY,
  18:/home/pi/Developer/tinyusb/src/class/cdc/cdc_device.h ****  * FITNESS FOR A PARTICULAR PURPOSE AND NONINFRINGEMENT. IN NO EVENT SHALL THE
  19:/home/pi/Developer/tinyusb/src/class/cdc/cdc_device.h ****  * AUTHORS OR COPYRIGHT HOLDERS BE LIABLE FOR ANY CLAIM, DAMAGES OR OTHER
  20:/home/pi/Developer/tinyusb/src/class/cdc/cdc_device.h ****  * LIABILITY, WHETHER IN AN ACTION OF CONTRACT, TORT OR OTHERWISE, ARISING FROM,
  21:/home/pi/Developer/tinyusb/src/class/cdc/cdc_device.h ****  * OUT OF OR IN CONNECTION WITH THE SOFTWARE OR THE USE OR OTHER DEALINGS IN
ARM GAS  /tmp/cc5paFFJ.s 			page 21


  22:/home/pi/Developer/tinyusb/src/class/cdc/cdc_device.h ****  * THE SOFTWARE.
  23:/home/pi/Developer/tinyusb/src/class/cdc/cdc_device.h ****  *
  24:/home/pi/Developer/tinyusb/src/class/cdc/cdc_device.h ****  * This file is part of the TinyUSB stack.
  25:/home/pi/Developer/tinyusb/src/class/cdc/cdc_device.h ****  */
  26:/home/pi/Developer/tinyusb/src/class/cdc/cdc_device.h **** 
  27:/home/pi/Developer/tinyusb/src/class/cdc/cdc_device.h **** #ifndef TUSB_CDC_DEVICE_H_
  28:/home/pi/Developer/tinyusb/src/class/cdc/cdc_device.h **** #define TUSB_CDC_DEVICE_H_
  29:/home/pi/Developer/tinyusb/src/class/cdc/cdc_device.h **** 
  30:/home/pi/Developer/tinyusb/src/class/cdc/cdc_device.h **** #include "cdc.h"
  31:/home/pi/Developer/tinyusb/src/class/cdc/cdc_device.h **** 
  32:/home/pi/Developer/tinyusb/src/class/cdc/cdc_device.h **** #ifdef __cplusplus
  33:/home/pi/Developer/tinyusb/src/class/cdc/cdc_device.h ****  extern "C" {
  34:/home/pi/Developer/tinyusb/src/class/cdc/cdc_device.h **** #endif
  35:/home/pi/Developer/tinyusb/src/class/cdc/cdc_device.h **** 
  36:/home/pi/Developer/tinyusb/src/class/cdc/cdc_device.h **** //--------------------------------------------------------------------+
  37:/home/pi/Developer/tinyusb/src/class/cdc/cdc_device.h **** // Class Driver Configuration
  38:/home/pi/Developer/tinyusb/src/class/cdc/cdc_device.h **** //--------------------------------------------------------------------+
  39:/home/pi/Developer/tinyusb/src/class/cdc/cdc_device.h **** #ifndef CFG_TUD_CDC_NOTIFY
  40:/home/pi/Developer/tinyusb/src/class/cdc/cdc_device.h ****   #define CFG_TUD_CDC_NOTIFY    0
  41:/home/pi/Developer/tinyusb/src/class/cdc/cdc_device.h **** #endif
  42:/home/pi/Developer/tinyusb/src/class/cdc/cdc_device.h **** 
  43:/home/pi/Developer/tinyusb/src/class/cdc/cdc_device.h **** #ifndef CFG_TUD_CDC_TX_BUFSIZE
  44:/home/pi/Developer/tinyusb/src/class/cdc/cdc_device.h ****   #define CFG_TUD_CDC_TX_BUFSIZE TUD_EPSIZE_BULK_MAX
  45:/home/pi/Developer/tinyusb/src/class/cdc/cdc_device.h **** #endif
  46:/home/pi/Developer/tinyusb/src/class/cdc/cdc_device.h **** 
  47:/home/pi/Developer/tinyusb/src/class/cdc/cdc_device.h **** #ifndef CFG_TUD_CDC_RX_BUFSIZE
  48:/home/pi/Developer/tinyusb/src/class/cdc/cdc_device.h ****   #define CFG_TUD_CDC_RX_BUFSIZE TUD_EPSIZE_BULK_MAX
  49:/home/pi/Developer/tinyusb/src/class/cdc/cdc_device.h **** #endif
  50:/home/pi/Developer/tinyusb/src/class/cdc/cdc_device.h **** 
  51:/home/pi/Developer/tinyusb/src/class/cdc/cdc_device.h **** // EP_BUFSIZE is separated to RX_EPSIZE and TX_EPSIZE
  52:/home/pi/Developer/tinyusb/src/class/cdc/cdc_device.h **** #ifndef CFG_TUD_CDC_RX_EPSIZE
  53:/home/pi/Developer/tinyusb/src/class/cdc/cdc_device.h ****   #ifdef CFG_TUD_CDC_EP_BUFSIZE
  54:/home/pi/Developer/tinyusb/src/class/cdc/cdc_device.h ****     #define CFG_TUD_CDC_RX_EPSIZE CFG_TUD_CDC_EP_BUFSIZE
  55:/home/pi/Developer/tinyusb/src/class/cdc/cdc_device.h ****   #else
  56:/home/pi/Developer/tinyusb/src/class/cdc/cdc_device.h ****     #define CFG_TUD_CDC_RX_EPSIZE TUD_EPSIZE_BULK_MAX
  57:/home/pi/Developer/tinyusb/src/class/cdc/cdc_device.h ****   #endif
  58:/home/pi/Developer/tinyusb/src/class/cdc/cdc_device.h **** #endif
  59:/home/pi/Developer/tinyusb/src/class/cdc/cdc_device.h **** 
  60:/home/pi/Developer/tinyusb/src/class/cdc/cdc_device.h **** #ifndef CFG_TUD_CDC_TX_EPSIZE
  61:/home/pi/Developer/tinyusb/src/class/cdc/cdc_device.h ****   #ifdef CFG_TUD_CDC_EP_BUFSIZE
  62:/home/pi/Developer/tinyusb/src/class/cdc/cdc_device.h ****     #define CFG_TUD_CDC_TX_EPSIZE  CFG_TUD_CDC_EP_BUFSIZE
  63:/home/pi/Developer/tinyusb/src/class/cdc/cdc_device.h ****   #else
  64:/home/pi/Developer/tinyusb/src/class/cdc/cdc_device.h ****     #define CFG_TUD_CDC_TX_EPSIZE TUD_EPSIZE_BULK_MAX
  65:/home/pi/Developer/tinyusb/src/class/cdc/cdc_device.h ****   #endif
  66:/home/pi/Developer/tinyusb/src/class/cdc/cdc_device.h **** #endif
  67:/home/pi/Developer/tinyusb/src/class/cdc/cdc_device.h **** 
  68:/home/pi/Developer/tinyusb/src/class/cdc/cdc_device.h **** // Enable multi-packet RX transfer with ZLP termination for better throughput. Requires host suppor
  69:/home/pi/Developer/tinyusb/src/class/cdc/cdc_device.h **** #ifndef CFG_TUD_CDC_RX_NEED_ZLP
  70:/home/pi/Developer/tinyusb/src/class/cdc/cdc_device.h ****   #define CFG_TUD_CDC_RX_NEED_ZLP 0
  71:/home/pi/Developer/tinyusb/src/class/cdc/cdc_device.h **** #endif
  72:/home/pi/Developer/tinyusb/src/class/cdc/cdc_device.h **** 
  73:/home/pi/Developer/tinyusb/src/class/cdc/cdc_device.h **** // Keep rx fifo data even with bus reset or disconnect
  74:/home/pi/Developer/tinyusb/src/class/cdc/cdc_device.h **** #ifndef CFG_TUD_CDC_RX_PERSISTENT
  75:/home/pi/Developer/tinyusb/src/class/cdc/cdc_device.h ****   #define CFG_TUD_CDC_RX_PERSISTENT 0
  76:/home/pi/Developer/tinyusb/src/class/cdc/cdc_device.h **** #endif
  77:/home/pi/Developer/tinyusb/src/class/cdc/cdc_device.h **** 
  78:/home/pi/Developer/tinyusb/src/class/cdc/cdc_device.h **** // Keep tx fifo data even with bus reset or disconnect
ARM GAS  /tmp/cc5paFFJ.s 			page 22


  79:/home/pi/Developer/tinyusb/src/class/cdc/cdc_device.h **** #ifndef CFG_TUD_CDC_TX_PERSISTENT
  80:/home/pi/Developer/tinyusb/src/class/cdc/cdc_device.h ****   #define CFG_TUD_CDC_TX_PERSISTENT 0
  81:/home/pi/Developer/tinyusb/src/class/cdc/cdc_device.h **** #endif
  82:/home/pi/Developer/tinyusb/src/class/cdc/cdc_device.h **** 
  83:/home/pi/Developer/tinyusb/src/class/cdc/cdc_device.h **** // If not connected, tx fifo can be overwritten
  84:/home/pi/Developer/tinyusb/src/class/cdc/cdc_device.h **** #ifndef CFG_TUD_CDC_TX_OVERWRITABLE_IF_NOT_CONNECTED
  85:/home/pi/Developer/tinyusb/src/class/cdc/cdc_device.h ****   #define CFG_TUD_CDC_TX_OVERWRITABLE_IF_NOT_CONNECTED 1
  86:/home/pi/Developer/tinyusb/src/class/cdc/cdc_device.h **** #endif
  87:/home/pi/Developer/tinyusb/src/class/cdc/cdc_device.h **** 
  88:/home/pi/Developer/tinyusb/src/class/cdc/cdc_device.h **** // Backward compatible: tud_cdc_configure_t and tud_cdc_configure() are no longer used.
  89:/home/pi/Developer/tinyusb/src/class/cdc/cdc_device.h **** // Configuration is now done via compile-time macros above.
  90:/home/pi/Developer/tinyusb/src/class/cdc/cdc_device.h **** typedef struct {
  91:/home/pi/Developer/tinyusb/src/class/cdc/cdc_device.h ****   bool rx_persistent;
  92:/home/pi/Developer/tinyusb/src/class/cdc/cdc_device.h ****   bool tx_persistent;
  93:/home/pi/Developer/tinyusb/src/class/cdc/cdc_device.h ****   bool tx_overwritabe_if_not_connected;
  94:/home/pi/Developer/tinyusb/src/class/cdc/cdc_device.h **** } tud_cdc_configure_t;
  95:/home/pi/Developer/tinyusb/src/class/cdc/cdc_device.h **** 
  96:/home/pi/Developer/tinyusb/src/class/cdc/cdc_device.h **** #define tud_cdc_configure(_cfg)          ((void)(_cfg))
  97:/home/pi/Developer/tinyusb/src/class/cdc/cdc_device.h **** #define tud_cdc_configure_fifo_t         tud_cdc_configure_t
  98:/home/pi/Developer/tinyusb/src/class/cdc/cdc_device.h **** #define tud_cdc_configure_fifo(_cfg)     ((void)(_cfg))
  99:/home/pi/Developer/tinyusb/src/class/cdc/cdc_device.h **** 
 100:/home/pi/Developer/tinyusb/src/class/cdc/cdc_device.h **** //--------------------------------------------------------------------+
 101:/home/pi/Developer/tinyusb/src/class/cdc/cdc_device.h **** // Application API (Multiple Ports) i.e. CFG_TUD_CDC > 1
 102:/home/pi/Developer/tinyusb/src/class/cdc/cdc_device.h **** //--------------------------------------------------------------------+
 103:/home/pi/Developer/tinyusb/src/class/cdc/cdc_device.h **** 
 104:/home/pi/Developer/tinyusb/src/class/cdc/cdc_device.h **** // Check if the interface is ready
 105:/home/pi/Developer/tinyusb/src/class/cdc/cdc_device.h **** bool tud_cdc_n_ready(uint8_t itf);
 106:/home/pi/Developer/tinyusb/src/class/cdc/cdc_device.h **** 
 107:/home/pi/Developer/tinyusb/src/class/cdc/cdc_device.h **** // Check if the terminal is connected to this port
 108:/home/pi/Developer/tinyusb/src/class/cdc/cdc_device.h **** bool tud_cdc_n_connected(uint8_t itf);
 109:/home/pi/Developer/tinyusb/src/class/cdc/cdc_device.h **** 
 110:/home/pi/Developer/tinyusb/src/class/cdc/cdc_device.h **** // Get the current line state. Bit 0:  DTR (Data Terminal Ready), Bit 1: RTS (Request to Send)
 111:/home/pi/Developer/tinyusb/src/class/cdc/cdc_device.h **** uint8_t tud_cdc_n_get_line_state(uint8_t itf);
 112:/home/pi/Developer/tinyusb/src/class/cdc/cdc_device.h **** 
 113:/home/pi/Developer/tinyusb/src/class/cdc/cdc_device.h **** // Get current line encoding: bit rate, stop bits parity etc ..
 114:/home/pi/Developer/tinyusb/src/class/cdc/cdc_device.h **** void tud_cdc_n_get_line_coding(uint8_t itf, cdc_line_coding_t* coding);
 115:/home/pi/Developer/tinyusb/src/class/cdc/cdc_device.h **** 
 116:/home/pi/Developer/tinyusb/src/class/cdc/cdc_device.h **** // Set special character that will trigger tud_cdc_rx_wanted_cb() callback on receiving
 117:/home/pi/Developer/tinyusb/src/class/cdc/cdc_device.h **** void tud_cdc_n_set_wanted_char(uint8_t itf, char wanted);
 118:/home/pi/Developer/tinyusb/src/class/cdc/cdc_device.h **** 
 119:/home/pi/Developer/tinyusb/src/class/cdc/cdc_device.h **** // Get the number of bytes available for reading
 120:/home/pi/Developer/tinyusb/src/class/cdc/cdc_device.h **** uint32_t tud_cdc_n_available(uint8_t itf);
 121:/home/pi/Developer/tinyusb/src/class/cdc/cdc_device.h **** 
 122:/home/pi/Developer/tinyusb/src/class/cdc/cdc_device.h **** // Read received bytes
 123:/home/pi/Developer/tinyusb/src/class/cdc/cdc_device.h **** uint32_t tud_cdc_n_read(uint8_t itf, void* buffer, uint32_t bufsize);
 124:/home/pi/Developer/tinyusb/src/class/cdc/cdc_device.h **** 
 125:/home/pi/Developer/tinyusb/src/class/cdc/cdc_device.h **** // Read a byte, return -1 if there is none
 126:/home/pi/Developer/tinyusb/src/class/cdc/cdc_device.h **** TU_ATTR_ALWAYS_INLINE static inline int32_t tud_cdc_n_read_char(uint8_t itf) {
 127:/home/pi/Developer/tinyusb/src/class/cdc/cdc_device.h ****   uint8_t ch;
 128:/home/pi/Developer/tinyusb/src/class/cdc/cdc_device.h ****   return tud_cdc_n_read(itf, &ch, 1) ? (int32_t) ch : -1;
 129:/home/pi/Developer/tinyusb/src/class/cdc/cdc_device.h **** }
 130:/home/pi/Developer/tinyusb/src/class/cdc/cdc_device.h **** 
 131:/home/pi/Developer/tinyusb/src/class/cdc/cdc_device.h **** // Clear the received FIFO
 132:/home/pi/Developer/tinyusb/src/class/cdc/cdc_device.h **** void tud_cdc_n_read_flush(uint8_t itf);
 133:/home/pi/Developer/tinyusb/src/class/cdc/cdc_device.h **** 
 134:/home/pi/Developer/tinyusb/src/class/cdc/cdc_device.h **** // Get a byte from FIFO without removing it
 135:/home/pi/Developer/tinyusb/src/class/cdc/cdc_device.h **** bool tud_cdc_n_peek(uint8_t itf, uint8_t* ui8);
ARM GAS  /tmp/cc5paFFJ.s 			page 23


 136:/home/pi/Developer/tinyusb/src/class/cdc/cdc_device.h **** 
 137:/home/pi/Developer/tinyusb/src/class/cdc/cdc_device.h **** // Write bytes to TX FIFO, data may remain in the FIFO for a while
 138:/home/pi/Developer/tinyusb/src/class/cdc/cdc_device.h **** uint32_t tud_cdc_n_write(uint8_t itf, void const* buffer, uint32_t bufsize);
 139:/home/pi/Developer/tinyusb/src/class/cdc/cdc_device.h **** 
 140:/home/pi/Developer/tinyusb/src/class/cdc/cdc_device.h **** // Write a byte
 141:/home/pi/Developer/tinyusb/src/class/cdc/cdc_device.h **** TU_ATTR_ALWAYS_INLINE static inline uint32_t tud_cdc_n_write_char(uint8_t itf, char ch) {
 142:/home/pi/Developer/tinyusb/src/class/cdc/cdc_device.h ****   return tud_cdc_n_write(itf, &ch, 1);
 143:/home/pi/Developer/tinyusb/src/class/cdc/cdc_device.h **** }
 144:/home/pi/Developer/tinyusb/src/class/cdc/cdc_device.h **** 
 145:/home/pi/Developer/tinyusb/src/class/cdc/cdc_device.h **** // Write a null-terminated string
 146:/home/pi/Developer/tinyusb/src/class/cdc/cdc_device.h **** TU_ATTR_ALWAYS_INLINE static inline uint32_t tud_cdc_n_write_str(uint8_t itf, char const* str) {
 147:/home/pi/Developer/tinyusb/src/class/cdc/cdc_device.h ****   return tud_cdc_n_write(itf, str, strlen(str));
 148:/home/pi/Developer/tinyusb/src/class/cdc/cdc_device.h **** }
 149:/home/pi/Developer/tinyusb/src/class/cdc/cdc_device.h **** 
 150:/home/pi/Developer/tinyusb/src/class/cdc/cdc_device.h **** // Force sending data if possible, return number of forced bytes
 151:/home/pi/Developer/tinyusb/src/class/cdc/cdc_device.h **** uint32_t tud_cdc_n_write_flush(uint8_t itf);
 152:/home/pi/Developer/tinyusb/src/class/cdc/cdc_device.h **** 
 153:/home/pi/Developer/tinyusb/src/class/cdc/cdc_device.h **** // Return the number of bytes (characters) available for writing to TX FIFO buffer in a single n_wr
 154:/home/pi/Developer/tinyusb/src/class/cdc/cdc_device.h **** uint32_t tud_cdc_n_write_available(uint8_t itf);
 155:/home/pi/Developer/tinyusb/src/class/cdc/cdc_device.h **** 
 156:/home/pi/Developer/tinyusb/src/class/cdc/cdc_device.h **** // Clear the TX FIFO
 157:/home/pi/Developer/tinyusb/src/class/cdc/cdc_device.h **** bool tud_cdc_n_write_clear(uint8_t itf);
 158:/home/pi/Developer/tinyusb/src/class/cdc/cdc_device.h **** 
 159:/home/pi/Developer/tinyusb/src/class/cdc/cdc_device.h **** #if CFG_TUD_CDC_NOTIFY
 160:/home/pi/Developer/tinyusb/src/class/cdc/cdc_device.h **** bool tud_cdc_n_notify_msg(uint8_t itf, cdc_notify_msg_t *msg);
 161:/home/pi/Developer/tinyusb/src/class/cdc/cdc_device.h **** 
 162:/home/pi/Developer/tinyusb/src/class/cdc/cdc_device.h **** // Send UART status notification: DCD, DSR etc ..
 163:/home/pi/Developer/tinyusb/src/class/cdc/cdc_device.h **** TU_ATTR_ALWAYS_INLINE static inline bool tud_cdc_n_notify_uart_state(uint8_t                       
 164:/home/pi/Developer/tinyusb/src/class/cdc/cdc_device.h ****                                                                      const cdc_notify_uart_state_t 
 165:/home/pi/Developer/tinyusb/src/class/cdc/cdc_device.h ****   cdc_notify_msg_t notify_msg;
 166:/home/pi/Developer/tinyusb/src/class/cdc/cdc_device.h ****   notify_msg.request.bmRequestType = CDC_REQ_TYPE_NOTIF;
 167:/home/pi/Developer/tinyusb/src/class/cdc/cdc_device.h ****   notify_msg.request.bRequest      = CDC_NOTIF_SERIAL_STATE;
 168:/home/pi/Developer/tinyusb/src/class/cdc/cdc_device.h ****   notify_msg.request.wValue        = 0;
 169:/home/pi/Developer/tinyusb/src/class/cdc/cdc_device.h ****   notify_msg.request.wIndex        = 0; // filled later
 170:/home/pi/Developer/tinyusb/src/class/cdc/cdc_device.h ****   notify_msg.request.wLength       = sizeof(cdc_notify_uart_state_t);
 171:/home/pi/Developer/tinyusb/src/class/cdc/cdc_device.h ****   notify_msg.serial_state          = *state;
 172:/home/pi/Developer/tinyusb/src/class/cdc/cdc_device.h ****   return tud_cdc_n_notify_msg(itf, &notify_msg);
 173:/home/pi/Developer/tinyusb/src/class/cdc/cdc_device.h **** }
 174:/home/pi/Developer/tinyusb/src/class/cdc/cdc_device.h **** 
 175:/home/pi/Developer/tinyusb/src/class/cdc/cdc_device.h **** // Send connection speed change notification
 176:/home/pi/Developer/tinyusb/src/class/cdc/cdc_device.h **** TU_ATTR_ALWAYS_INLINE static inline bool
 177:/home/pi/Developer/tinyusb/src/class/cdc/cdc_device.h **** tud_cdc_n_notify_conn_speed_change(uint8_t itf, const cdc_notify_conn_speed_change_t *conn_speed_ch
 178:/home/pi/Developer/tinyusb/src/class/cdc/cdc_device.h ****   cdc_notify_msg_t notify_msg;
 179:/home/pi/Developer/tinyusb/src/class/cdc/cdc_device.h ****   notify_msg.request.bmRequestType = CDC_REQ_TYPE_NOTIF;
 180:/home/pi/Developer/tinyusb/src/class/cdc/cdc_device.h ****   notify_msg.request.bRequest      = CDC_NOTIF_CONNECTION_SPEED_CHANGE;
 181:/home/pi/Developer/tinyusb/src/class/cdc/cdc_device.h ****   notify_msg.request.wValue        = 0;
 182:/home/pi/Developer/tinyusb/src/class/cdc/cdc_device.h ****   notify_msg.request.wIndex        = 0; // filled later
 183:/home/pi/Developer/tinyusb/src/class/cdc/cdc_device.h ****   notify_msg.request.wLength       = sizeof(cdc_notify_conn_speed_change_t);
 184:/home/pi/Developer/tinyusb/src/class/cdc/cdc_device.h ****   notify_msg.conn_speed_change     = *conn_speed_change;
 185:/home/pi/Developer/tinyusb/src/class/cdc/cdc_device.h ****   return tud_cdc_n_notify_msg(itf, &notify_msg);
 186:/home/pi/Developer/tinyusb/src/class/cdc/cdc_device.h **** }
 187:/home/pi/Developer/tinyusb/src/class/cdc/cdc_device.h **** 
 188:/home/pi/Developer/tinyusb/src/class/cdc/cdc_device.h **** TU_ATTR_ALWAYS_INLINE static inline bool tud_cdc_notify_msg(cdc_notify_msg_t *msg) {
 189:/home/pi/Developer/tinyusb/src/class/cdc/cdc_device.h ****   return tud_cdc_n_notify_msg(0, msg);
 190:/home/pi/Developer/tinyusb/src/class/cdc/cdc_device.h **** }
 191:/home/pi/Developer/tinyusb/src/class/cdc/cdc_device.h **** 
 192:/home/pi/Developer/tinyusb/src/class/cdc/cdc_device.h **** TU_ATTR_ALWAYS_INLINE static inline bool tud_cdc_notify_uart_state(const cdc_notify_uart_state_t* s
ARM GAS  /tmp/cc5paFFJ.s 			page 24


 193:/home/pi/Developer/tinyusb/src/class/cdc/cdc_device.h ****  return tud_cdc_n_notify_uart_state(0, state);
 194:/home/pi/Developer/tinyusb/src/class/cdc/cdc_device.h **** }
 195:/home/pi/Developer/tinyusb/src/class/cdc/cdc_device.h **** 
 196:/home/pi/Developer/tinyusb/src/class/cdc/cdc_device.h **** TU_ATTR_ALWAYS_INLINE static inline bool tud_cdc_notify_conn_speed_change(const cdc_notify_conn_spe
 197:/home/pi/Developer/tinyusb/src/class/cdc/cdc_device.h ****   return tud_cdc_n_notify_conn_speed_change(0, conn_speed_change);
 198:/home/pi/Developer/tinyusb/src/class/cdc/cdc_device.h **** }
 199:/home/pi/Developer/tinyusb/src/class/cdc/cdc_device.h **** #endif
 200:/home/pi/Developer/tinyusb/src/class/cdc/cdc_device.h **** 
 201:/home/pi/Developer/tinyusb/src/class/cdc/cdc_device.h **** //--------------------------------------------------------------------+
 202:/home/pi/Developer/tinyusb/src/class/cdc/cdc_device.h **** // Application API (Single Port)
 203:/home/pi/Developer/tinyusb/src/class/cdc/cdc_device.h **** //--------------------------------------------------------------------+
 204:/home/pi/Developer/tinyusb/src/class/cdc/cdc_device.h **** 
 205:/home/pi/Developer/tinyusb/src/class/cdc/cdc_device.h **** TU_ATTR_ALWAYS_INLINE static inline bool tud_cdc_ready(void) {
 206:/home/pi/Developer/tinyusb/src/class/cdc/cdc_device.h ****   return tud_cdc_n_ready(0);
 207:/home/pi/Developer/tinyusb/src/class/cdc/cdc_device.h **** }
 208:/home/pi/Developer/tinyusb/src/class/cdc/cdc_device.h **** 
 209:/home/pi/Developer/tinyusb/src/class/cdc/cdc_device.h **** TU_ATTR_ALWAYS_INLINE static inline bool tud_cdc_connected(void) {
 210:/home/pi/Developer/tinyusb/src/class/cdc/cdc_device.h ****   return tud_cdc_n_connected(0);
 211:/home/pi/Developer/tinyusb/src/class/cdc/cdc_device.h **** }
 212:/home/pi/Developer/tinyusb/src/class/cdc/cdc_device.h **** 
 213:/home/pi/Developer/tinyusb/src/class/cdc/cdc_device.h **** TU_ATTR_ALWAYS_INLINE static inline uint8_t tud_cdc_get_line_state(void) {
 214:/home/pi/Developer/tinyusb/src/class/cdc/cdc_device.h ****   return tud_cdc_n_get_line_state(0);
 215:/home/pi/Developer/tinyusb/src/class/cdc/cdc_device.h **** }
 216:/home/pi/Developer/tinyusb/src/class/cdc/cdc_device.h **** 
 217:/home/pi/Developer/tinyusb/src/class/cdc/cdc_device.h **** TU_ATTR_ALWAYS_INLINE static inline void tud_cdc_get_line_coding(cdc_line_coding_t* coding) {
 218:/home/pi/Developer/tinyusb/src/class/cdc/cdc_device.h ****   tud_cdc_n_get_line_coding(0, coding);
 219:/home/pi/Developer/tinyusb/src/class/cdc/cdc_device.h **** }
 220:/home/pi/Developer/tinyusb/src/class/cdc/cdc_device.h **** 
 221:/home/pi/Developer/tinyusb/src/class/cdc/cdc_device.h **** TU_ATTR_ALWAYS_INLINE static inline void tud_cdc_set_wanted_char(char wanted) {
 222:/home/pi/Developer/tinyusb/src/class/cdc/cdc_device.h ****   tud_cdc_n_set_wanted_char(0, wanted);
 223:/home/pi/Developer/tinyusb/src/class/cdc/cdc_device.h **** }
 224:/home/pi/Developer/tinyusb/src/class/cdc/cdc_device.h **** 
 225:/home/pi/Developer/tinyusb/src/class/cdc/cdc_device.h **** TU_ATTR_ALWAYS_INLINE static inline uint32_t tud_cdc_available(void) {
 517              		.loc 8 225 46 view .LVU118
 518              	.LBB162:
 226:/home/pi/Developer/tinyusb/src/class/cdc/cdc_device.h ****   return tud_cdc_n_available(0);
 519              		.loc 8 226 3 view .LVU119
 520              		.loc 8 226 29 is_stmt 0 view .LVU120
 521 006c 0020     		movs	r0, #0
 522 006e FFF7FEFF 		bl	tud_cdc_n_available
 523              	.LVL25:
 524              	.LBE162:
 525              	.LBE161:
  38:TinyUsbCdcHidExternal.cpp ****     {
 526              		.loc 6 38 5 view .LVU121
 527 0072 90BB     		cbnz	r0, .L56
 528              	.L37:
 529              	.LBE160:
 530              	.LBE175:
 116:TinyUsbCdcHidExternal.cpp ****         hid_task();
 531              		.loc 6 116 9 is_stmt 1 view .LVU122
 532              	.LBB176:
 533              	.LBI176:
  47:TinyUsbCdcHidExternal.cpp **** {
 534              		.loc 6 47 13 view .LVU123
 535              	.LBB177:
  49:TinyUsbCdcHidExternal.cpp ****     static bool pressed = false;
ARM GAS  /tmp/cc5paFFJ.s 			page 25


 536              		.loc 6 49 5 view .LVU124
  50:TinyUsbCdcHidExternal.cpp **** 
 537              		.loc 6 50 5 view .LVU125
  52:TinyUsbCdcHidExternal.cpp ****         return;
 538              		.loc 6 52 5 view .LVU126
 539              	.LBB178:
 540              	.LBI178:
 541              		.file 9 "/home/pi/Developer/tinyusb/src/class/hid/hid_device.h"
   1:/home/pi/Developer/tinyusb/src/class/hid/hid_device.h **** /*
   2:/home/pi/Developer/tinyusb/src/class/hid/hid_device.h ****  * The MIT License (MIT)
   3:/home/pi/Developer/tinyusb/src/class/hid/hid_device.h ****  *
   4:/home/pi/Developer/tinyusb/src/class/hid/hid_device.h ****  * Copyright (c) 2019 Ha Thach (tinyusb.org)
   5:/home/pi/Developer/tinyusb/src/class/hid/hid_device.h ****  *
   6:/home/pi/Developer/tinyusb/src/class/hid/hid_device.h ****  * Permission is hereby granted, free of charge, to any person obtaining a copy
   7:/home/pi/Developer/tinyusb/src/class/hid/hid_device.h ****  * of this software and associated documentation files (the "Software"), to deal
   8:/home/pi/Developer/tinyusb/src/class/hid/hid_device.h ****  * in the Software without restriction, including without limitation the rights
   9:/home/pi/Developer/tinyusb/src/class/hid/hid_device.h ****  * to use, copy, modify, merge, publish, distribute, sublicense, and/or sell
  10:/home/pi/Developer/tinyusb/src/class/hid/hid_device.h ****  * copies of the Software, and to permit persons to whom the Software is
  11:/home/pi/Developer/tinyusb/src/class/hid/hid_device.h ****  * furnished to do so, subject to the following conditions:
  12:/home/pi/Developer/tinyusb/src/class/hid/hid_device.h ****  *
  13:/home/pi/Developer/tinyusb/src/class/hid/hid_device.h ****  * The above copyright notice and this permission notice shall be included in
  14:/home/pi/Developer/tinyusb/src/class/hid/hid_device.h ****  * all copies or substantial portions of the Software.
  15:/home/pi/Developer/tinyusb/src/class/hid/hid_device.h ****  *
  16:/home/pi/Developer/tinyusb/src/class/hid/hid_device.h ****  * THE SOFTWARE IS PROVIDED "AS IS", WITHOUT WARRANTY OF ANY KIND, EXPRESS OR
  17:/home/pi/Developer/tinyusb/src/class/hid/hid_device.h ****  * IMPLIED, INCLUDING BUT NOT LIMITED TO THE WARRANTIES OF MERCHANTABILITY,
  18:/home/pi/Developer/tinyusb/src/class/hid/hid_device.h ****  * FITNESS FOR A PARTICULAR PURPOSE AND NONINFRINGEMENT. IN NO EVENT SHALL THE
  19:/home/pi/Developer/tinyusb/src/class/hid/hid_device.h ****  * AUTHORS OR COPYRIGHT HOLDERS BE LIABLE FOR ANY CLAIM, DAMAGES OR OTHER
  20:/home/pi/Developer/tinyusb/src/class/hid/hid_device.h ****  * LIABILITY, WHETHER IN AN ACTION OF CONTRACT, TORT OR OTHERWISE, ARISING FROM,
  21:/home/pi/Developer/tinyusb/src/class/hid/hid_device.h ****  * OUT OF OR IN CONNECTION WITH THE SOFTWARE OR THE USE OR OTHER DEALINGS IN
  22:/home/pi/Developer/tinyusb/src/class/hid/hid_device.h ****  * THE SOFTWARE.
  23:/home/pi/Developer/tinyusb/src/class/hid/hid_device.h ****  *
  24:/home/pi/Developer/tinyusb/src/class/hid/hid_device.h ****  * This file is part of the TinyUSB stack.
  25:/home/pi/Developer/tinyusb/src/class/hid/hid_device.h ****  */
  26:/home/pi/Developer/tinyusb/src/class/hid/hid_device.h **** 
  27:/home/pi/Developer/tinyusb/src/class/hid/hid_device.h **** #ifndef TUSB_HID_DEVICE_H_
  28:/home/pi/Developer/tinyusb/src/class/hid/hid_device.h **** #define TUSB_HID_DEVICE_H_
  29:/home/pi/Developer/tinyusb/src/class/hid/hid_device.h **** 
  30:/home/pi/Developer/tinyusb/src/class/hid/hid_device.h **** #include "hid.h"
  31:/home/pi/Developer/tinyusb/src/class/hid/hid_device.h **** 
  32:/home/pi/Developer/tinyusb/src/class/hid/hid_device.h **** #ifdef __cplusplus
  33:/home/pi/Developer/tinyusb/src/class/hid/hid_device.h ****  extern "C" {
  34:/home/pi/Developer/tinyusb/src/class/hid/hid_device.h **** #endif
  35:/home/pi/Developer/tinyusb/src/class/hid/hid_device.h **** 
  36:/home/pi/Developer/tinyusb/src/class/hid/hid_device.h **** //--------------------------------------------------------------------+
  37:/home/pi/Developer/tinyusb/src/class/hid/hid_device.h **** // Class Driver Default Configure & Validation
  38:/home/pi/Developer/tinyusb/src/class/hid/hid_device.h **** //--------------------------------------------------------------------+
  39:/home/pi/Developer/tinyusb/src/class/hid/hid_device.h **** 
  40:/home/pi/Developer/tinyusb/src/class/hid/hid_device.h **** #if !defined(CFG_TUD_HID_EP_BUFSIZE) & defined(CFG_TUD_HID_BUFSIZE)
  41:/home/pi/Developer/tinyusb/src/class/hid/hid_device.h ****   // TODO warn user to use new name later on
  42:/home/pi/Developer/tinyusb/src/class/hid/hid_device.h ****   // #warning CFG_TUD_HID_BUFSIZE is renamed to CFG_TUD_HID_EP_BUFSIZE, please update to use the ne
  43:/home/pi/Developer/tinyusb/src/class/hid/hid_device.h ****   #define CFG_TUD_HID_EP_BUFSIZE  CFG_TUD_HID_BUFSIZE
  44:/home/pi/Developer/tinyusb/src/class/hid/hid_device.h **** #endif
  45:/home/pi/Developer/tinyusb/src/class/hid/hid_device.h **** 
  46:/home/pi/Developer/tinyusb/src/class/hid/hid_device.h **** #ifndef CFG_TUD_HID_EP_BUFSIZE
  47:/home/pi/Developer/tinyusb/src/class/hid/hid_device.h ****   #define CFG_TUD_HID_EP_BUFSIZE     64
  48:/home/pi/Developer/tinyusb/src/class/hid/hid_device.h **** #endif
  49:/home/pi/Developer/tinyusb/src/class/hid/hid_device.h **** 
ARM GAS  /tmp/cc5paFFJ.s 			page 26


  50:/home/pi/Developer/tinyusb/src/class/hid/hid_device.h **** //--------------------------------------------------------------------+
  51:/home/pi/Developer/tinyusb/src/class/hid/hid_device.h **** // Application API (Multiple Instances) i.e. CFG_TUD_HID > 1
  52:/home/pi/Developer/tinyusb/src/class/hid/hid_device.h **** //--------------------------------------------------------------------+
  53:/home/pi/Developer/tinyusb/src/class/hid/hid_device.h **** 
  54:/home/pi/Developer/tinyusb/src/class/hid/hid_device.h **** // Check if the interface is ready to use
  55:/home/pi/Developer/tinyusb/src/class/hid/hid_device.h **** bool tud_hid_n_ready(uint8_t instance);
  56:/home/pi/Developer/tinyusb/src/class/hid/hid_device.h **** 
  57:/home/pi/Developer/tinyusb/src/class/hid/hid_device.h **** // Get interface supported protocol (bInterfaceProtocol) check out hid_interface_protocol_enum_t fo
  58:/home/pi/Developer/tinyusb/src/class/hid/hid_device.h **** uint8_t tud_hid_n_interface_protocol(uint8_t instance);
  59:/home/pi/Developer/tinyusb/src/class/hid/hid_device.h **** 
  60:/home/pi/Developer/tinyusb/src/class/hid/hid_device.h **** // Get current active protocol: HID_PROTOCOL_BOOT (0) or HID_PROTOCOL_REPORT (1)
  61:/home/pi/Developer/tinyusb/src/class/hid/hid_device.h **** uint8_t tud_hid_n_get_protocol(uint8_t instance);
  62:/home/pi/Developer/tinyusb/src/class/hid/hid_device.h **** 
  63:/home/pi/Developer/tinyusb/src/class/hid/hid_device.h **** // Send report to host
  64:/home/pi/Developer/tinyusb/src/class/hid/hid_device.h **** bool tud_hid_n_report(uint8_t instance, uint8_t report_id, void const* report, uint16_t len);
  65:/home/pi/Developer/tinyusb/src/class/hid/hid_device.h **** 
  66:/home/pi/Developer/tinyusb/src/class/hid/hid_device.h **** // KEYBOARD: convenient helper to send keyboard report if application
  67:/home/pi/Developer/tinyusb/src/class/hid/hid_device.h **** // use template layout report as defined by hid_keyboard_report_t
  68:/home/pi/Developer/tinyusb/src/class/hid/hid_device.h **** bool tud_hid_n_keyboard_report(uint8_t instance, uint8_t report_id, uint8_t modifier, const uint8_t
  69:/home/pi/Developer/tinyusb/src/class/hid/hid_device.h **** 
  70:/home/pi/Developer/tinyusb/src/class/hid/hid_device.h **** // MOUSE: convenient helper to send mouse report if application
  71:/home/pi/Developer/tinyusb/src/class/hid/hid_device.h **** // use template layout report as defined by hid_mouse_report_t
  72:/home/pi/Developer/tinyusb/src/class/hid/hid_device.h **** bool tud_hid_n_mouse_report(uint8_t instance, uint8_t report_id, uint8_t buttons, int8_t x, int8_t 
  73:/home/pi/Developer/tinyusb/src/class/hid/hid_device.h **** 
  74:/home/pi/Developer/tinyusb/src/class/hid/hid_device.h **** // ABSOLUTE MOUSE: convenient helper to send absolute mouse report if application
  75:/home/pi/Developer/tinyusb/src/class/hid/hid_device.h **** // use template layout report as defined by hid_abs_mouse_report_t
  76:/home/pi/Developer/tinyusb/src/class/hid/hid_device.h **** bool tud_hid_n_abs_mouse_report(uint8_t instance, uint8_t report_id, uint8_t buttons, int16_t x, in
  77:/home/pi/Developer/tinyusb/src/class/hid/hid_device.h **** 
  78:/home/pi/Developer/tinyusb/src/class/hid/hid_device.h **** // Gamepad: convenient helper to send gamepad report if application
  79:/home/pi/Developer/tinyusb/src/class/hid/hid_device.h **** // use template layout report TUD_HID_REPORT_DESC_GAMEPAD
  80:/home/pi/Developer/tinyusb/src/class/hid/hid_device.h **** bool tud_hid_n_gamepad_report(uint8_t instance, uint8_t report_id, int8_t x, int8_t y, int8_t z, in
  81:/home/pi/Developer/tinyusb/src/class/hid/hid_device.h **** 
  82:/home/pi/Developer/tinyusb/src/class/hid/hid_device.h **** // STYLUS PEN: convenient helper to send absolute stylus pen report if application
  83:/home/pi/Developer/tinyusb/src/class/hid/hid_device.h **** bool tud_hid_n_stylus_report(uint8_t instance, uint8_t report_id, uint8_t attrs, uint16_t x, uint16
  84:/home/pi/Developer/tinyusb/src/class/hid/hid_device.h **** 
  85:/home/pi/Developer/tinyusb/src/class/hid/hid_device.h **** //--------------------------------------------------------------------+
  86:/home/pi/Developer/tinyusb/src/class/hid/hid_device.h **** // Application API (Single Port)
  87:/home/pi/Developer/tinyusb/src/class/hid/hid_device.h **** //--------------------------------------------------------------------+
  88:/home/pi/Developer/tinyusb/src/class/hid/hid_device.h **** TU_ATTR_ALWAYS_INLINE static inline bool tud_hid_ready(void) {
 542              		.loc 9 88 42 view .LVU127
 543              	.LBB179:
  89:/home/pi/Developer/tinyusb/src/class/hid/hid_device.h ****   return tud_hid_n_ready(0);
 544              		.loc 9 89 3 view .LVU128
 545              		.loc 9 89 25 is_stmt 0 view .LVU129
 546 0074 0020     		movs	r0, #0
 547 0076 FFF7FEFF 		bl	tud_hid_n_ready
 548              	.LVL26:
 549              	.LBE179:
 550              	.LBE178:
  52:TinyUsbCdcHidExternal.cpp ****         return;
 551              		.loc 6 52 5 view .LVU130
 552 007a 0028     		cmp	r0, #0
 553 007c E0D0     		beq	.L38
  54:TinyUsbCdcHidExternal.cpp ****         return;
 554              		.loc 6 54 5 is_stmt 1 view .LVU131
  54:TinyUsbCdcHidExternal.cpp ****         return;
 555              		.loc 6 54 22 is_stmt 0 view .LVU132
ARM GAS  /tmp/cc5paFFJ.s 			page 27


 556 007e FFF7FEFF 		bl	_ZN5daisy6System6GetNowEv
 557              	.LVL27:
  54:TinyUsbCdcHidExternal.cpp ****         return;
 558              		.loc 6 54 25 view .LVU133
 559 0082 D8F80030 		ldr	r3, [r8]
 560 0086 C01A     		subs	r0, r0, r3
  54:TinyUsbCdcHidExternal.cpp ****         return;
 561              		.loc 6 54 5 view .LVU134
 562 0088 B0F57A7F 		cmp	r0, #1000
 563 008c D8D3     		bcc	.L38
  56:TinyUsbCdcHidExternal.cpp **** 
 564              		.loc 6 56 5 is_stmt 1 view .LVU135
  56:TinyUsbCdcHidExternal.cpp **** 
 565              		.loc 6 56 14 is_stmt 0 view .LVU136
 566 008e 03F57A73 		add	r3, r3, #1000
 567              	.LBB180:
  58:TinyUsbCdcHidExternal.cpp ****     {
 568              		.loc 6 58 5 view .LVU137
 569 0092 99F800B0 		ldrb	fp, [r9]	@ zero_extendqisi2
 570              	.LBE180:
  56:TinyUsbCdcHidExternal.cpp **** 
 571              		.loc 6 56 14 view .LVU138
 572 0096 C8F80030 		str	r3, [r8]
  58:TinyUsbCdcHidExternal.cpp ****     {
 573              		.loc 6 58 5 is_stmt 1 view .LVU139
 574              	.LBB213:
 575 009a BBF1000F 		cmp	fp, #0
 576 009e 2AD1     		bne	.L40
 577              	.LBB181:
  60:TinyUsbCdcHidExternal.cpp ****         tud_hid_keyboard_report(0, 0, keycode);
 578              		.loc 6 60 9 view .LVU140
 579              	.LBB182:
 580              	.LBB183:
  90:/home/pi/Developer/tinyusb/src/class/hid/hid_device.h **** }
  91:/home/pi/Developer/tinyusb/src/class/hid/hid_device.h **** 
  92:/home/pi/Developer/tinyusb/src/class/hid/hid_device.h **** TU_ATTR_ALWAYS_INLINE static inline uint8_t tud_hid_interface_protocol(void) {
  93:/home/pi/Developer/tinyusb/src/class/hid/hid_device.h ****   return tud_hid_n_interface_protocol(0);
  94:/home/pi/Developer/tinyusb/src/class/hid/hid_device.h **** }
  95:/home/pi/Developer/tinyusb/src/class/hid/hid_device.h **** 
  96:/home/pi/Developer/tinyusb/src/class/hid/hid_device.h **** TU_ATTR_ALWAYS_INLINE static inline uint8_t tud_hid_get_protocol(void) {
  97:/home/pi/Developer/tinyusb/src/class/hid/hid_device.h ****   return tud_hid_n_get_protocol(0);
  98:/home/pi/Developer/tinyusb/src/class/hid/hid_device.h **** }
  99:/home/pi/Developer/tinyusb/src/class/hid/hid_device.h **** 
 100:/home/pi/Developer/tinyusb/src/class/hid/hid_device.h **** TU_ATTR_ALWAYS_INLINE static inline bool tud_hid_report(uint8_t report_id, void const* report, uint
 101:/home/pi/Developer/tinyusb/src/class/hid/hid_device.h ****   return tud_hid_n_report(0, report_id, report, len);
 102:/home/pi/Developer/tinyusb/src/class/hid/hid_device.h **** }
 103:/home/pi/Developer/tinyusb/src/class/hid/hid_device.h **** 
 104:/home/pi/Developer/tinyusb/src/class/hid/hid_device.h **** TU_ATTR_ALWAYS_INLINE static inline bool tud_hid_keyboard_report(uint8_t report_id, uint8_t modifie
 105:/home/pi/Developer/tinyusb/src/class/hid/hid_device.h ****   return tud_hid_n_keyboard_report(0, report_id, modifier, keycode);
 581              		.loc 9 105 35 is_stmt 0 view .LVU141
 582 00a0 5A46     		mov	r2, fp
 583              	.LBE183:
 584              	.LBE182:
  60:TinyUsbCdcHidExternal.cpp ****         tud_hid_keyboard_report(0, 0, keycode);
 585              		.loc 6 60 17 view .LVU142
 586 00a2 9AE80300 		ldm	r10, {r0, r1}
 587 00a6 3060     		str	r0, [r6]
ARM GAS  /tmp/cc5paFFJ.s 			page 28


 588              	.LBB186:
 589              	.LBB184:
 590              		.loc 9 105 35 view .LVU143
 591 00a8 02AE     		add	r6, sp, #8
 592              	.LBE184:
 593              	.LBE186:
  60:TinyUsbCdcHidExternal.cpp ****         tud_hid_keyboard_report(0, 0, keycode);
 594              		.loc 6 60 17 view .LVU144
 595 00aa ADF80C10 		strh	r1, [sp, #12]	@ movhi
  61:TinyUsbCdcHidExternal.cpp ****         pressed = true;
 596              		.loc 6 61 9 is_stmt 1 view .LVU145
 597              	.LVL28:
 598              	.LBB187:
 599              	.LBI182:
 104:/home/pi/Developer/tinyusb/src/class/hid/hid_device.h ****   return tud_hid_n_keyboard_report(0, report_id, modifier, keycode);
 600              		.loc 9 104 42 view .LVU146
 601              	.LBB185:
 602              		.loc 9 105 3 view .LVU147
 603              		.loc 9 105 35 is_stmt 0 view .LVU148
 604 00ae 5846     		mov	r0, fp
 605 00b0 3346     		mov	r3, r6
 606 00b2 5946     		mov	r1, fp
 607 00b4 FFF7FEFF 		bl	tud_hid_n_keyboard_report
 608              	.LVL29:
 609              		.loc 9 105 35 view .LVU149
 610              	.LBE185:
 611              	.LBE187:
  62:TinyUsbCdcHidExternal.cpp ****         if(tud_cdc_connected())
 612              		.loc 6 62 9 is_stmt 1 view .LVU150
  62:TinyUsbCdcHidExternal.cpp ****         if(tud_cdc_connected())
 613              		.loc 6 62 17 is_stmt 0 view .LVU151
 614 00b8 0123     		movs	r3, #1
 615              	.LBB188:
 616              	.LBB189:
 210:/home/pi/Developer/tinyusb/src/class/cdc/cdc_device.h **** }
 617              		.loc 8 210 29 view .LVU152
 618 00ba 5846     		mov	r0, fp
 619              	.LBE189:
 620              	.LBE188:
  62:TinyUsbCdcHidExternal.cpp ****         if(tud_cdc_connected())
 621              		.loc 6 62 17 view .LVU153
 622 00bc 89F80030 		strb	r3, [r9]
  63:TinyUsbCdcHidExternal.cpp ****         {
 623              		.loc 6 63 9 is_stmt 1 view .LVU154
 624              	.LBB191:
 625              	.LBI188:
 209:/home/pi/Developer/tinyusb/src/class/cdc/cdc_device.h ****   return tud_cdc_n_connected(0);
 626              		.loc 8 209 42 view .LVU155
 627              	.LBB190:
 210:/home/pi/Developer/tinyusb/src/class/cdc/cdc_device.h **** }
 628              		.loc 8 210 3 view .LVU156
 210:/home/pi/Developer/tinyusb/src/class/cdc/cdc_device.h **** }
 629              		.loc 8 210 29 is_stmt 0 view .LVU157
 630 00c0 FFF7FEFF 		bl	tud_cdc_n_connected
 631              	.LVL30:
 632              	.LBE190:
 633              	.LBE191:
ARM GAS  /tmp/cc5paFFJ.s 			page 29


  63:TinyUsbCdcHidExternal.cpp ****         {
 634              		.loc 6 63 9 view .LVU158
 635 00c4 0028     		cmp	r0, #0
 636 00c6 BBD0     		beq	.L38
  65:TinyUsbCdcHidExternal.cpp ****             tud_cdc_write_flush();
 637              		.loc 6 65 13 is_stmt 1 view .LVU159
 638              	.LVL31:
 639              	.LBB192:
 640              	.LBI192:
 227:/home/pi/Developer/tinyusb/src/class/cdc/cdc_device.h **** }
 228:/home/pi/Developer/tinyusb/src/class/cdc/cdc_device.h **** 
 229:/home/pi/Developer/tinyusb/src/class/cdc/cdc_device.h **** TU_ATTR_ALWAYS_INLINE static inline int32_t tud_cdc_read_char(void) {
 230:/home/pi/Developer/tinyusb/src/class/cdc/cdc_device.h ****   return tud_cdc_n_read_char(0);
 231:/home/pi/Developer/tinyusb/src/class/cdc/cdc_device.h **** }
 232:/home/pi/Developer/tinyusb/src/class/cdc/cdc_device.h **** 
 233:/home/pi/Developer/tinyusb/src/class/cdc/cdc_device.h **** TU_ATTR_ALWAYS_INLINE static inline uint32_t tud_cdc_read(void* buffer, uint32_t bufsize) {
 234:/home/pi/Developer/tinyusb/src/class/cdc/cdc_device.h ****   return tud_cdc_n_read(0, buffer, bufsize);
 235:/home/pi/Developer/tinyusb/src/class/cdc/cdc_device.h **** }
 236:/home/pi/Developer/tinyusb/src/class/cdc/cdc_device.h **** 
 237:/home/pi/Developer/tinyusb/src/class/cdc/cdc_device.h **** TU_ATTR_ALWAYS_INLINE static inline void tud_cdc_read_flush(void) {
 238:/home/pi/Developer/tinyusb/src/class/cdc/cdc_device.h ****   tud_cdc_n_read_flush(0);
 239:/home/pi/Developer/tinyusb/src/class/cdc/cdc_device.h **** }
 240:/home/pi/Developer/tinyusb/src/class/cdc/cdc_device.h **** 
 241:/home/pi/Developer/tinyusb/src/class/cdc/cdc_device.h **** TU_ATTR_ALWAYS_INLINE static inline bool tud_cdc_peek(uint8_t* ui8) {
 242:/home/pi/Developer/tinyusb/src/class/cdc/cdc_device.h ****   return tud_cdc_n_peek(0, ui8);
 243:/home/pi/Developer/tinyusb/src/class/cdc/cdc_device.h **** }
 244:/home/pi/Developer/tinyusb/src/class/cdc/cdc_device.h **** 
 245:/home/pi/Developer/tinyusb/src/class/cdc/cdc_device.h **** TU_ATTR_ALWAYS_INLINE static inline uint32_t tud_cdc_write_char(char ch) {
 246:/home/pi/Developer/tinyusb/src/class/cdc/cdc_device.h ****   return tud_cdc_n_write_char(0, ch);
 247:/home/pi/Developer/tinyusb/src/class/cdc/cdc_device.h **** }
 248:/home/pi/Developer/tinyusb/src/class/cdc/cdc_device.h **** 
 249:/home/pi/Developer/tinyusb/src/class/cdc/cdc_device.h **** TU_ATTR_ALWAYS_INLINE static inline uint32_t tud_cdc_write(void const* buffer, uint32_t bufsize) {
 250:/home/pi/Developer/tinyusb/src/class/cdc/cdc_device.h ****   return tud_cdc_n_write(0, buffer, bufsize);
 251:/home/pi/Developer/tinyusb/src/class/cdc/cdc_device.h **** }
 252:/home/pi/Developer/tinyusb/src/class/cdc/cdc_device.h **** 
 253:/home/pi/Developer/tinyusb/src/class/cdc/cdc_device.h **** TU_ATTR_ALWAYS_INLINE static inline uint32_t tud_cdc_write_str(char const* str) {
 641              		.loc 8 253 46 view .LVU160
 642              	.LBE192:
 643              	.LBE181:
 644              	.LBE213:
 645              	.LBE177:
 646              	.LBE176:
 254:/home/pi/Developer/tinyusb/src/class/cdc/cdc_device.h ****   return tud_cdc_n_write_str(0, str);
 647              		.loc 8 254 3 view .LVU161
 648              	.LBB220:
 649              	.LBB217:
 650              	.LBB214:
 651              	.LBB198:
 652              	.LBB195:
 653              	.LBB193:
 654              	.LBI193:
 146:/home/pi/Developer/tinyusb/src/class/cdc/cdc_device.h ****   return tud_cdc_n_write(itf, str, strlen(str));
 655              		.loc 8 146 46 view .LVU162
 656              	.LBB194:
 147:/home/pi/Developer/tinyusb/src/class/cdc/cdc_device.h **** }
 657              		.loc 8 147 3 view .LVU163
 147:/home/pi/Developer/tinyusb/src/class/cdc/cdc_device.h **** }
ARM GAS  /tmp/cc5paFFJ.s 			page 30


 658              		.loc 8 147 25 is_stmt 0 view .LVU164
 659 00c8 0E22     		movs	r2, #14
 660 00ca 1B49     		ldr	r1, .L57+20
 661 00cc 5846     		mov	r0, fp
 662 00ce FFF7FEFF 		bl	tud_cdc_n_write
 663              	.LVL32:
 147:/home/pi/Developer/tinyusb/src/class/cdc/cdc_device.h **** }
 664              		.loc 8 147 25 view .LVU165
 665              	.LBE194:
 666              	.LBE193:
 667              	.LBE195:
  66:TinyUsbCdcHidExternal.cpp ****         }
 668              		.loc 6 66 13 is_stmt 1 view .LVU166
 669              	.LBB196:
 670              	.LBI196:
 255:/home/pi/Developer/tinyusb/src/class/cdc/cdc_device.h **** }
 256:/home/pi/Developer/tinyusb/src/class/cdc/cdc_device.h **** 
 257:/home/pi/Developer/tinyusb/src/class/cdc/cdc_device.h **** TU_ATTR_ALWAYS_INLINE static inline uint32_t tud_cdc_write_flush(void) {
 671              		.loc 8 257 46 view .LVU167
 672              	.LBB197:
 258:/home/pi/Developer/tinyusb/src/class/cdc/cdc_device.h ****   return tud_cdc_n_write_flush(0);
 673              		.loc 8 258 3 view .LVU168
 674              		.loc 8 258 31 is_stmt 0 view .LVU169
 675 00d2 5846     		mov	r0, fp
 676 00d4 FFF7FEFF 		bl	tud_cdc_n_write_flush
 677              	.LVL33:
 678              		.loc 8 258 33 view .LVU170
 679 00d8 B2E7     		b	.L38
 680              	.L56:
 681              	.LBE197:
 682              	.LBE196:
 683              	.LBE198:
 684              	.LBE214:
 685              	.LBE217:
 686              	.LBE220:
 687              	.LBB221:
 688              	.LBB174:
 689              	.LBB163:
  40:TinyUsbCdcHidExternal.cpp ****         uint32_t count = tud_cdc_read(buf, sizeof(buf));
 690              		.loc 6 40 9 is_stmt 1 view .LVU171
  41:TinyUsbCdcHidExternal.cpp ****         tud_cdc_write(buf, count);
 691              		.loc 6 41 9 view .LVU172
 692              	.LVL34:
 693              	.LBB164:
 694              	.LBI164:
 233:/home/pi/Developer/tinyusb/src/class/cdc/cdc_device.h ****   return tud_cdc_n_read(0, buffer, bufsize);
 695              		.loc 8 233 46 view .LVU173
 696              	.LBB165:
 234:/home/pi/Developer/tinyusb/src/class/cdc/cdc_device.h **** }
 697              		.loc 8 234 3 view .LVU174
 234:/home/pi/Developer/tinyusb/src/class/cdc/cdc_device.h **** }
 698              		.loc 8 234 24 is_stmt 0 view .LVU175
 699 00da 3146     		mov	r1, r6
 700 00dc 4022     		movs	r2, #64
 701 00de 0020     		movs	r0, #0
 702 00e0 FFF7FEFF 		bl	tud_cdc_n_read
 703              	.LVL35:
ARM GAS  /tmp/cc5paFFJ.s 			page 31


 234:/home/pi/Developer/tinyusb/src/class/cdc/cdc_device.h **** }
 704              		.loc 8 234 24 view .LVU176
 705              	.LBE165:
 706              	.LBE164:
 707              	.LBB167:
 708              	.LBB168:
 250:/home/pi/Developer/tinyusb/src/class/cdc/cdc_device.h **** }
 709              		.loc 8 250 25 view .LVU177
 710 00e4 3146     		mov	r1, r6
 711              	.LBE168:
 712              	.LBE167:
 713              	.LBB170:
 714              	.LBB166:
 234:/home/pi/Developer/tinyusb/src/class/cdc/cdc_device.h **** }
 715              		.loc 8 234 24 view .LVU178
 716 00e6 0246     		mov	r2, r0
 717              	.LVL36:
 234:/home/pi/Developer/tinyusb/src/class/cdc/cdc_device.h **** }
 718              		.loc 8 234 24 view .LVU179
 719              	.LBE166:
 720              	.LBE170:
  42:TinyUsbCdcHidExternal.cpp ****         tud_cdc_write_flush();
 721              		.loc 6 42 9 is_stmt 1 view .LVU180
 722              	.LBB171:
 723              	.LBI167:
 249:/home/pi/Developer/tinyusb/src/class/cdc/cdc_device.h ****   return tud_cdc_n_write(0, buffer, bufsize);
 724              		.loc 8 249 46 view .LVU181
 725              	.LBB169:
 250:/home/pi/Developer/tinyusb/src/class/cdc/cdc_device.h **** }
 726              		.loc 8 250 3 view .LVU182
 250:/home/pi/Developer/tinyusb/src/class/cdc/cdc_device.h **** }
 727              		.loc 8 250 25 is_stmt 0 view .LVU183
 728 00e8 0020     		movs	r0, #0
 729              	.LVL37:
 250:/home/pi/Developer/tinyusb/src/class/cdc/cdc_device.h **** }
 730              		.loc 8 250 25 view .LVU184
 731 00ea FFF7FEFF 		bl	tud_cdc_n_write
 732              	.LVL38:
 250:/home/pi/Developer/tinyusb/src/class/cdc/cdc_device.h **** }
 733              		.loc 8 250 25 view .LVU185
 734              	.LBE169:
 735              	.LBE171:
  43:TinyUsbCdcHidExternal.cpp ****     }
 736              		.loc 6 43 9 is_stmt 1 view .LVU186
 737              	.LBB172:
 738              	.LBI172:
 257:/home/pi/Developer/tinyusb/src/class/cdc/cdc_device.h ****   return tud_cdc_n_write_flush(0);
 739              		.loc 8 257 46 view .LVU187
 740              	.LBB173:
 741              		.loc 8 258 3 view .LVU188
 742              		.loc 8 258 31 is_stmt 0 view .LVU189
 743 00ee 0020     		movs	r0, #0
 744 00f0 FFF7FEFF 		bl	tud_cdc_n_write_flush
 745              	.LVL39:
 746              	.LBE173:
 747              	.LBE172:
 748              	.LBE163:
ARM GAS  /tmp/cc5paFFJ.s 			page 32


 749 00f4 BEE7     		b	.L37
 750              	.L40:
 751              		.loc 8 258 31 view .LVU190
 752              	.LBE174:
 753              	.LBE221:
 754              	.LBB222:
 755              	.LBB218:
 756              	.LBB215:
  71:TinyUsbCdcHidExternal.cpp ****         pressed = false;
 757              		.loc 6 71 9 is_stmt 1 view .LVU191
 758              	.LVL40:
 759              	.LBB199:
 760              	.LBI199:
 104:/home/pi/Developer/tinyusb/src/class/hid/hid_device.h ****   return tud_hid_n_keyboard_report(0, report_id, modifier, keycode);
 761              		.loc 9 104 42 view .LVU192
 762              	.LBB200:
 763              		.loc 9 105 3 view .LVU193
 764              		.loc 9 105 35 is_stmt 0 view .LVU194
 765 00f6 0023     		movs	r3, #0
 766              	.LBE200:
 767              	.LBE199:
  72:TinyUsbCdcHidExternal.cpp ****         if(tud_cdc_connected())
 768              		.loc 6 72 17 view .LVU195
 769 00f8 9B46     		mov	fp, r3
 770              	.LBB202:
 771              	.LBB201:
 772              		.loc 9 105 35 view .LVU196
 773 00fa 1A46     		mov	r2, r3
 774 00fc 1946     		mov	r1, r3
 775 00fe 1846     		mov	r0, r3
 776 0100 FFF7FEFF 		bl	tud_hid_n_keyboard_report
 777              	.LVL41:
 778              		.loc 9 105 35 view .LVU197
 779              	.LBE201:
 780              	.LBE202:
  72:TinyUsbCdcHidExternal.cpp ****         if(tud_cdc_connected())
 781              		.loc 6 72 9 is_stmt 1 view .LVU198
 782              	.LBB203:
 783              	.LBB204:
 210:/home/pi/Developer/tinyusb/src/class/cdc/cdc_device.h **** }
 784              		.loc 8 210 29 is_stmt 0 view .LVU199
 785 0104 5846     		mov	r0, fp
 786              	.LBE204:
 787              	.LBE203:
  72:TinyUsbCdcHidExternal.cpp ****         if(tud_cdc_connected())
 788              		.loc 6 72 17 view .LVU200
 789 0106 89F800B0 		strb	fp, [r9]
  73:TinyUsbCdcHidExternal.cpp ****         {
 790              		.loc 6 73 9 is_stmt 1 view .LVU201
 791              	.LBB206:
 792              	.LBI203:
 209:/home/pi/Developer/tinyusb/src/class/cdc/cdc_device.h ****   return tud_cdc_n_connected(0);
 793              		.loc 8 209 42 view .LVU202
 794              	.LBB205:
 210:/home/pi/Developer/tinyusb/src/class/cdc/cdc_device.h **** }
 795              		.loc 8 210 3 view .LVU203
 210:/home/pi/Developer/tinyusb/src/class/cdc/cdc_device.h **** }
ARM GAS  /tmp/cc5paFFJ.s 			page 33


 796              		.loc 8 210 29 is_stmt 0 view .LVU204
 797 010a FFF7FEFF 		bl	tud_cdc_n_connected
 798              	.LVL42:
 799              	.LBE205:
 800              	.LBE206:
  73:TinyUsbCdcHidExternal.cpp ****         {
 801              		.loc 6 73 9 view .LVU205
 802 010e 0028     		cmp	r0, #0
 803 0110 96D0     		beq	.L38
  75:TinyUsbCdcHidExternal.cpp ****             tud_cdc_write_flush();
 804              		.loc 6 75 13 is_stmt 1 view .LVU206
 805              	.LVL43:
 806              	.LBB207:
 807              	.LBI207:
 253:/home/pi/Developer/tinyusb/src/class/cdc/cdc_device.h ****   return tud_cdc_n_write_str(0, str);
 808              		.loc 8 253 46 view .LVU207
 809              	.LBE207:
 810              	.LBE215:
 811              	.LBE218:
 812              	.LBE222:
 254:/home/pi/Developer/tinyusb/src/class/cdc/cdc_device.h **** }
 813              		.loc 8 254 3 view .LVU208
 814              	.LBB223:
 815              	.LBB219:
 816              	.LBB216:
 817              	.LBB210:
 818              	.LBB208:
 819              	.LBI208:
 146:/home/pi/Developer/tinyusb/src/class/cdc/cdc_device.h ****   return tud_cdc_n_write(itf, str, strlen(str));
 820              		.loc 8 146 46 view .LVU209
 821              	.LBB209:
 147:/home/pi/Developer/tinyusb/src/class/cdc/cdc_device.h **** }
 822              		.loc 8 147 3 view .LVU210
 147:/home/pi/Developer/tinyusb/src/class/cdc/cdc_device.h **** }
 823              		.loc 8 147 25 is_stmt 0 view .LVU211
 824 0112 0C22     		movs	r2, #12
 825 0114 0949     		ldr	r1, .L57+24
 826 0116 5846     		mov	r0, fp
 827 0118 FFF7FEFF 		bl	tud_cdc_n_write
 828              	.LVL44:
 147:/home/pi/Developer/tinyusb/src/class/cdc/cdc_device.h **** }
 829              		.loc 8 147 25 view .LVU212
 830              	.LBE209:
 831              	.LBE208:
 832              	.LBE210:
  76:TinyUsbCdcHidExternal.cpp ****         }
 833              		.loc 6 76 13 is_stmt 1 view .LVU213
 834              	.LBB211:
 835              	.LBI211:
 257:/home/pi/Developer/tinyusb/src/class/cdc/cdc_device.h ****   return tud_cdc_n_write_flush(0);
 836              		.loc 8 257 46 view .LVU214
 837              	.LBB212:
 838              		.loc 8 258 3 view .LVU215
 839              		.loc 8 258 31 is_stmt 0 view .LVU216
 840 011c 5846     		mov	r0, fp
 841 011e FFF7FEFF 		bl	tud_cdc_n_write_flush
 842              	.LVL45:
ARM GAS  /tmp/cc5paFFJ.s 			page 34


 843              		.loc 8 258 33 view .LVU217
 844 0122 8DE7     		b	.L38
 845              	.L58:
 846              		.align	2
 847              	.L57:
 848 0124 00000000 		.word	.LANCHOR1
 849 0128 24000000 		.word	.LANCHOR1+36
 850 012c 00000000 		.word	.LANCHOR3
 851 0130 00000000 		.word	.LANCHOR0
 852 0134 00000000 		.word	.LANCHOR4
 853 0138 00000000 		.word	.LC3
 854 013c 10000000 		.word	.LC4
 855 0140 00000000 		.word	.LANCHOR2
 856 0144 00000000 		.word	.LANCHOR5
 857 0148 00000000 		.word	.LANCHOR6
 858              	.LBE212:
 859              	.LBE211:
 860              	.LBE216:
 861              	.LBE219:
 862              	.LBE223:
 863              		.cfi_endproc
 864              	.LFE2685:
 866              		.section	.text.startup._GLOBAL__sub_I_hw,"ax",%progbits
 867              		.align	1
 868              		.p2align 2,,3
 869              		.syntax unified
 870              		.thumb
 871              		.thumb_func
 872              		.fpu fpv5-d16
 874              	_GLOBAL__sub_I_hw:
 875              	.LFB2704:
 117:TinyUsbCdcHidExternal.cpp ****     }
 118:TinyUsbCdcHidExternal.cpp **** }
 876              		.loc 6 118 1 is_stmt 1 view -0
 877              		.cfi_startproc
 878              		@ args = 0, pretend = 0, frame = 0
 879              		@ frame_needed = 0, uses_anonymous_args = 0
 880              		@ link register save eliminated.
 881              	.LBB245:
 882              	.LBI245:
 883              		.loc 6 118 1 view .LVU219
 884              	.LVL46:
 885              	.LBB246:
 886              	.LBB247:
 887              	.LBI247:
  21:../../libDaisy/src/daisy_seed.h ****     ~DaisySeed() {}
 888              		.loc 1 21 5 view .LVU220
 889              	.LBB248:
 890              	.LBB249:
 891              	.LBI249:
 892              		.file 10 "../../libDaisy/src/per/qspi.h"
   1:../../libDaisy/src/per/qspi.h **** #ifndef DSY_QSPI
   2:../../libDaisy/src/per/qspi.h **** #define DSY_QSPI /**< Macro */
   3:../../libDaisy/src/per/qspi.h **** 
   4:../../libDaisy/src/per/qspi.h **** #ifndef UNIT_TEST // for unit tests, a dummy implementation
   5:../../libDaisy/src/per/qspi.h **** 
   6:../../libDaisy/src/per/qspi.h **** #include <cstdint>
ARM GAS  /tmp/cc5paFFJ.s 			page 35


   7:../../libDaisy/src/per/qspi.h **** #include "daisy_core.h" // Added for dsy_gpio_pin typedef
   8:../../libDaisy/src/per/qspi.h **** 
   9:../../libDaisy/src/per/qspi.h **** #define DSY_QSPI_TEXT       \
  10:../../libDaisy/src/per/qspi.h ****     __attribute__((section( \
  11:../../libDaisy/src/per/qspi.h ****         ".qspiflash_text"))) /**< used for reading memory in memory_mapped mode. */
  12:../../libDaisy/src/per/qspi.h **** #define DSY_QSPI_DATA       \
  13:../../libDaisy/src/per/qspi.h ****     __attribute__((section( \
  14:../../libDaisy/src/per/qspi.h ****         ".qspiflash_data"))) /**< used for reading memory in memory_mapped mode. */
  15:../../libDaisy/src/per/qspi.h **** #define DSY_QSPI_BSS        \
  16:../../libDaisy/src/per/qspi.h ****     __attribute__((section( \
  17:../../libDaisy/src/per/qspi.h ****         ".qspiflash_bss"))) /**< used for reading memory in memory_mapped mode. */
  18:../../libDaisy/src/per/qspi.h **** 
  19:../../libDaisy/src/per/qspi.h **** namespace daisy
  20:../../libDaisy/src/per/qspi.h **** {
  21:../../libDaisy/src/per/qspi.h **** /** @addtogroup serial
  22:../../libDaisy/src/per/qspi.h **** @{
  23:../../libDaisy/src/per/qspi.h **** */
  24:../../libDaisy/src/per/qspi.h **** 
  25:../../libDaisy/src/per/qspi.h **** /** 
  26:../../libDaisy/src/per/qspi.h ****  Driver for QSPI peripheral to interface with external flash memory. \n 
  27:../../libDaisy/src/per/qspi.h ****     Currently supported QSPI Devices: \n 
  28:../../libDaisy/src/per/qspi.h ****     * IS25LP080D
  29:../../libDaisy/src/per/qspi.h **** */
  30:../../libDaisy/src/per/qspi.h **** class QSPIHandle
  31:../../libDaisy/src/per/qspi.h **** {
  32:../../libDaisy/src/per/qspi.h ****   public:
  33:../../libDaisy/src/per/qspi.h ****     enum Result
  34:../../libDaisy/src/per/qspi.h ****     {
  35:../../libDaisy/src/per/qspi.h ****         OK = 0,
  36:../../libDaisy/src/per/qspi.h ****         ERR
  37:../../libDaisy/src/per/qspi.h ****     };
  38:../../libDaisy/src/per/qspi.h **** 
  39:../../libDaisy/src/per/qspi.h ****     /** Indicates the current status of the module. 
  40:../../libDaisy/src/per/qspi.h ****          *  Warnings are indicated by a leading W.
  41:../../libDaisy/src/per/qspi.h ****          *  Errors are indicated by a leading E and cause an immediate exit.
  42:../../libDaisy/src/per/qspi.h ****          * 
  43:../../libDaisy/src/per/qspi.h ****          *  \param GOOD - No errors have been reported.
  44:../../libDaisy/src/per/qspi.h ****          *  \param E_HAL_ERROR - HAL code did not return HAL_OK.
  45:../../libDaisy/src/per/qspi.h ****          *  \param E_SWITCHING_MODES - An error was encountered while switching QSPI peripheral mod
  46:../../libDaisy/src/per/qspi.h ****          *  \param E_INVALID_MODE - QSPI should not be written to while the program is executing fr
  47:../../libDaisy/src/per/qspi.h ****          */
  48:../../libDaisy/src/per/qspi.h ****     enum Status
  49:../../libDaisy/src/per/qspi.h ****     {
  50:../../libDaisy/src/per/qspi.h ****         GOOD = 0,
  51:../../libDaisy/src/per/qspi.h ****         E_HAL_ERROR,
  52:../../libDaisy/src/per/qspi.h ****         E_SWITCHING_MODES,
  53:../../libDaisy/src/per/qspi.h ****         E_INVALID_MODE,
  54:../../libDaisy/src/per/qspi.h ****     };
  55:../../libDaisy/src/per/qspi.h **** 
  56:../../libDaisy/src/per/qspi.h ****     /** Configuration structure for interfacing with QSPI Driver */
  57:../../libDaisy/src/per/qspi.h ****     struct Config
  58:../../libDaisy/src/per/qspi.h ****     {
  59:../../libDaisy/src/per/qspi.h ****         /** Flash Devices supported. (Both of these are more-or-less the same, just different sizes
  60:../../libDaisy/src/per/qspi.h ****         enum Device
  61:../../libDaisy/src/per/qspi.h ****         {
  62:../../libDaisy/src/per/qspi.h ****             IS25LP080D,  /**< & */
  63:../../libDaisy/src/per/qspi.h ****             IS25LP064A,  /**< & */
ARM GAS  /tmp/cc5paFFJ.s 			page 36


  64:../../libDaisy/src/per/qspi.h ****             DEVICE_LAST, /**< & */
  65:../../libDaisy/src/per/qspi.h ****         };
  66:../../libDaisy/src/per/qspi.h **** 
  67:../../libDaisy/src/per/qspi.h ****         /** 
  68:../../libDaisy/src/per/qspi.h ****         Modes of operation.
  69:../../libDaisy/src/per/qspi.h ****         Memory Mapped mode: QSPI configured so that the QSPI can be
  70:../../libDaisy/src/per/qspi.h ****         read from starting address 0x90000000. Writing is not
  71:../../libDaisy/src/per/qspi.h ****         possible in this mode. \n 
  72:../../libDaisy/src/per/qspi.h ****         Indirect Polling mode: Device driver enabled. 
  73:../../libDaisy/src/per/qspi.h ****         */
  74:../../libDaisy/src/per/qspi.h ****         enum Mode
  75:../../libDaisy/src/per/qspi.h ****         {
  76:../../libDaisy/src/per/qspi.h ****             MEMORY_MAPPED,    /**< & */
  77:../../libDaisy/src/per/qspi.h ****             INDIRECT_POLLING, /**< & */
  78:../../libDaisy/src/per/qspi.h ****             MODE_LAST,
  79:../../libDaisy/src/per/qspi.h ****         };
  80:../../libDaisy/src/per/qspi.h **** 
  81:../../libDaisy/src/per/qspi.h ****         //SCK,  CE# (active low)
  82:../../libDaisy/src/per/qspi.h ****         struct
  83:../../libDaisy/src/per/qspi.h ****         {
  84:../../libDaisy/src/per/qspi.h ****             dsy_gpio_pin io0; /**< & */
  85:../../libDaisy/src/per/qspi.h ****             dsy_gpio_pin io1; /**< & */
  86:../../libDaisy/src/per/qspi.h ****             dsy_gpio_pin io2; /**< & */
  87:../../libDaisy/src/per/qspi.h ****             dsy_gpio_pin io3; /**< & */
  88:../../libDaisy/src/per/qspi.h ****             dsy_gpio_pin clk; /**< & */
  89:../../libDaisy/src/per/qspi.h ****             dsy_gpio_pin ncs; /**< & */
  90:../../libDaisy/src/per/qspi.h ****         } pin_config;
  91:../../libDaisy/src/per/qspi.h **** 
  92:../../libDaisy/src/per/qspi.h ****         Device device;
  93:../../libDaisy/src/per/qspi.h ****         Mode   mode;
  94:../../libDaisy/src/per/qspi.h ****     };
  95:../../libDaisy/src/per/qspi.h **** 
  96:../../libDaisy/src/per/qspi.h ****     /** 
  97:../../libDaisy/src/per/qspi.h ****         Initializes QSPI peripheral, and Resets, and prepares memory for access.
  98:../../libDaisy/src/per/qspi.h ****         \param config should be populated with the mode, device and pin_config before calling this 
  99:../../libDaisy/src/per/qspi.h ****         \return Result::OK or Result::ERR
 100:../../libDaisy/src/per/qspi.h ****         */
 101:../../libDaisy/src/per/qspi.h ****     Result Init(const Config& config);
 102:../../libDaisy/src/per/qspi.h **** 
 103:../../libDaisy/src/per/qspi.h ****     /** Returns the current config. */
 104:../../libDaisy/src/per/qspi.h ****     const Config& GetConfig() const;
 105:../../libDaisy/src/per/qspi.h **** 
 106:../../libDaisy/src/per/qspi.h ****     // Couldn't this just be called before anything else in init? That
 107:../../libDaisy/src/per/qspi.h ****     // would make manually calling it unnecessary.
 108:../../libDaisy/src/per/qspi.h ****     /** 
 109:../../libDaisy/src/per/qspi.h ****         Deinitializes the peripheral
 110:../../libDaisy/src/per/qspi.h ****         This should be called before reinitializing QSPI in a different mode.
 111:../../libDaisy/src/per/qspi.h ****         \return Result::OK or Result::ERR
 112:../../libDaisy/src/per/qspi.h ****         */
 113:../../libDaisy/src/per/qspi.h ****     Result DeInit();
 114:../../libDaisy/src/per/qspi.h **** 
 115:../../libDaisy/src/per/qspi.h ****     /** 
 116:../../libDaisy/src/per/qspi.h ****         Writes a single page to to the specified address on the QSPI chip.
 117:../../libDaisy/src/per/qspi.h ****         For IS25LP*, page size is 256 bytes.
 118:../../libDaisy/src/per/qspi.h ****         \param address Address to write to
 119:../../libDaisy/src/per/qspi.h ****         \param size Buffer size
 120:../../libDaisy/src/per/qspi.h ****         \param buffer Buffer to write
ARM GAS  /tmp/cc5paFFJ.s 			page 37


 121:../../libDaisy/src/per/qspi.h ****         \return Result::OK or Result::ERR
 122:../../libDaisy/src/per/qspi.h ****         */
 123:../../libDaisy/src/per/qspi.h ****     Result WritePage(uint32_t address, uint32_t size, uint8_t* buffer);
 124:../../libDaisy/src/per/qspi.h **** 
 125:../../libDaisy/src/per/qspi.h ****     /** 
 126:../../libDaisy/src/per/qspi.h ****         Writes data in buffer to to the QSPI. Starting at address to address+size 
 127:../../libDaisy/src/per/qspi.h ****         \param address Address to write to
 128:../../libDaisy/src/per/qspi.h ****         \param size Buffer size
 129:../../libDaisy/src/per/qspi.h ****         \param buffer Buffer to write
 130:../../libDaisy/src/per/qspi.h ****         \return Result::OK or Result::ERR
 131:../../libDaisy/src/per/qspi.h ****         */
 132:../../libDaisy/src/per/qspi.h ****     Result Write(uint32_t address, uint32_t size, uint8_t* buffer);
 133:../../libDaisy/src/per/qspi.h **** 
 134:../../libDaisy/src/per/qspi.h ****     /** 
 135:../../libDaisy/src/per/qspi.h ****         Erases the area specified on the chip.
 136:../../libDaisy/src/per/qspi.h ****         Erasures will happen by 4K, 32K or 64K increments.
 137:../../libDaisy/src/per/qspi.h ****         Smallest erase possible is 4kB at a time. (on IS25LP*)
 138:../../libDaisy/src/per/qspi.h ****         \param start_addr Address to begin erasing from
 139:../../libDaisy/src/per/qspi.h ****         \param end_addr  Address to stop erasing at
 140:../../libDaisy/src/per/qspi.h ****         \return Result::OK or Result::ERR
 141:../../libDaisy/src/per/qspi.h ****         */
 142:../../libDaisy/src/per/qspi.h ****     Result Erase(uint32_t start_addr, uint32_t end_addr);
 143:../../libDaisy/src/per/qspi.h **** 
 144:../../libDaisy/src/per/qspi.h ****     /**  
 145:../../libDaisy/src/per/qspi.h ****          Erases a single sector of the chip.  
 146:../../libDaisy/src/per/qspi.h ****         TODO: Document the size of this function. 
 147:../../libDaisy/src/per/qspi.h ****         \param address Address of sector to erase
 148:../../libDaisy/src/per/qspi.h ****         \return Result::OK or Result::ERR
 149:../../libDaisy/src/per/qspi.h ****         */
 150:../../libDaisy/src/per/qspi.h ****     Result EraseSector(uint32_t address);
 151:../../libDaisy/src/per/qspi.h **** 
 152:../../libDaisy/src/per/qspi.h ****     /** Returns the current class status. Useful for debugging.
 153:../../libDaisy/src/per/qspi.h ****      *  \returns Status
 154:../../libDaisy/src/per/qspi.h ****      */
 155:../../libDaisy/src/per/qspi.h ****     Status GetStatus();
 156:../../libDaisy/src/per/qspi.h **** 
 157:../../libDaisy/src/per/qspi.h ****     /** Returns a pointer to the actual memory used 
 158:../../libDaisy/src/per/qspi.h ****      *  The memory at this address is read-only
 159:../../libDaisy/src/per/qspi.h ****      *  to write to it use the Write function.
 160:../../libDaisy/src/per/qspi.h ****      * 
 161:../../libDaisy/src/per/qspi.h ****      *  \param offset returns the pointer starting this 
 162:../../libDaisy/src/per/qspi.h ****      *                many bytes into the memory
 163:../../libDaisy/src/per/qspi.h ****     */
 164:../../libDaisy/src/per/qspi.h ****     void* GetData(uint32_t offset = 0);
 165:../../libDaisy/src/per/qspi.h **** 
 166:../../libDaisy/src/per/qspi.h ****     QSPIHandle() : pimpl_(nullptr) {}
 893              		.loc 10 166 5 view .LVU221
 894              	.LBB250:
 895              	.LBB251:
 896              		.loc 10 166 34 is_stmt 0 view .LVU222
 897 0000 0448     		ldr	r0, .L60
 898 0002 0023     		movs	r3, #0
 899              	.LBE251:
 900              	.LBE250:
 901              	.LBE249:
 902              	.LBE248:
 903              	.LBE247:
ARM GAS  /tmp/cc5paFFJ.s 			page 38


   6:TinyUsbCdcHidExternal.cpp **** static uint32_t blink_interval_ms = 250;
 904              		.loc 6 6 11 view .LVU223
 905 0004 044A     		ldr	r2, .L60+4
 906 0006 0549     		ldr	r1, .L60+8
 907              	.LBB268:
 908              	.LBB267:
 909              	.LBB254:
 910              	.LBB253:
 911              	.LBB252:
 912              		.loc 10 166 34 view .LVU224
 913 0008 0360     		str	r3, [r0]
 914              	.LVL47:
 915              		.loc 10 166 34 view .LVU225
 916              	.LBE252:
 917              	.LBE253:
 918              	.LBE254:
 919              	.LBB255:
 920              	.LBI255:
  95:../../libDaisy/src/hid/audio.h ****     ~AudioHandle() {}
 921              		.loc 5 95 5 is_stmt 1 view .LVU226
 922              	.LBB256:
 923              	.LBB257:
  95:../../libDaisy/src/hid/audio.h ****     ~AudioHandle() {}
 924              		.loc 5 95 35 is_stmt 0 view .LVU227
 925 000a 4361     		str	r3, [r0, #20]
 926              	.LVL48:
  95:../../libDaisy/src/hid/audio.h ****     ~AudioHandle() {}
 927              		.loc 5 95 35 view .LVU228
 928              	.LBE257:
 929              	.LBE256:
 930              	.LBE255:
 931              	.LBB258:
 932              	.LBI258:
 109:../../libDaisy/src/per/adc.h ****     ~AdcHandle() {}
 933              		.loc 4 109 5 is_stmt 1 view .LVU229
 109:../../libDaisy/src/per/adc.h ****     ~AdcHandle() {}
 934              		.loc 4 109 5 is_stmt 0 view .LVU230
 935              	.LBE258:
 936              	.LBB259:
 937              	.LBI259:
 938              		.file 11 "../../libDaisy/src/per/dac.h"
   1:../../libDaisy/src/per/dac.h **** #pragma once
   2:../../libDaisy/src/per/dac.h **** #ifndef DSY_DAC_H
   3:../../libDaisy/src/per/dac.h **** #define DSY_DAC_H
   4:../../libDaisy/src/per/dac.h **** 
   5:../../libDaisy/src/per/dac.h **** #include "daisy_core.h"
   6:../../libDaisy/src/per/dac.h **** 
   7:../../libDaisy/src/per/dac.h **** namespace daisy
   8:../../libDaisy/src/per/dac.h **** {
   9:../../libDaisy/src/per/dac.h **** /** @brief DAC handle for Built-in DAC Peripheral 
  10:../../libDaisy/src/per/dac.h ****  *  @ingroup per_analog
  11:../../libDaisy/src/per/dac.h ****  ** 
  12:../../libDaisy/src/per/dac.h ****  ** For now only Normal Mode is supported,
  13:../../libDaisy/src/per/dac.h ****  ** Sample and hold mode provides reduced power consumption, but requires a bit more setup.
  14:../../libDaisy/src/per/dac.h ****  **
  15:../../libDaisy/src/per/dac.h ****  ** For now connecting the DAC through other internal peripherals is also not supported.
  16:../../libDaisy/src/per/dac.h ****  **
ARM GAS  /tmp/cc5paFFJ.s 			page 39


  17:../../libDaisy/src/per/dac.h ****  ** Since the DAC channels have dedicated pins we don't need to pass in a pin config like with
  18:../../libDaisy/src/per/dac.h ****  ** other modules. However, it is still important to not try to use the DAC pins for anything else.
  19:../../libDaisy/src/per/dac.h ****  ** DAC Channel 1 is on PA4, and DAC Channel 2 is on PA5
  20:../../libDaisy/src/per/dac.h ****  ***/
  21:../../libDaisy/src/per/dac.h **** class DacHandle
  22:../../libDaisy/src/per/dac.h **** {
  23:../../libDaisy/src/per/dac.h ****   public:
  24:../../libDaisy/src/per/dac.h ****     /** Return Values for the DacHandle class */
  25:../../libDaisy/src/per/dac.h ****     enum class Result
  26:../../libDaisy/src/per/dac.h ****     {
  27:../../libDaisy/src/per/dac.h ****         OK,
  28:../../libDaisy/src/per/dac.h ****         ERR,
  29:../../libDaisy/src/per/dac.h ****     };
  30:../../libDaisy/src/per/dac.h **** 
  31:../../libDaisy/src/per/dac.h ****     /** Selects which channel(s) will be configured for use. */
  32:../../libDaisy/src/per/dac.h ****     enum class Channel
  33:../../libDaisy/src/per/dac.h ****     {
  34:../../libDaisy/src/per/dac.h ****         ONE,
  35:../../libDaisy/src/per/dac.h ****         TWO,
  36:../../libDaisy/src/per/dac.h ****         BOTH,
  37:../../libDaisy/src/per/dac.h ****     };
  38:../../libDaisy/src/per/dac.h **** 
  39:../../libDaisy/src/per/dac.h ****     /** Sets the Mode for the DAC channels.
  40:../../libDaisy/src/per/dac.h ****      **
  41:../../libDaisy/src/per/dac.h ****      ** Polling mode uses the blocking mode to transmit a single value at a time.
  42:../../libDaisy/src/per/dac.h ****      **
  43:../../libDaisy/src/per/dac.h ****      ** DMA mode uses a buffer, and periodically transmits it triggering a 
  44:../../libDaisy/src/per/dac.h ****      ** callback to fill the buffer when it is ready for more samples.
  45:../../libDaisy/src/per/dac.h ****      ***/
  46:../../libDaisy/src/per/dac.h ****     enum class Mode
  47:../../libDaisy/src/per/dac.h ****     {
  48:../../libDaisy/src/per/dac.h ****         POLLING,
  49:../../libDaisy/src/per/dac.h ****         DMA,
  50:../../libDaisy/src/per/dac.h ****     };
  51:../../libDaisy/src/per/dac.h **** 
  52:../../libDaisy/src/per/dac.h ****     /** Sets the number of bits per sample transmitted out of the DAC.
  53:../../libDaisy/src/per/dac.h ****      ** The output range will be: 0V - VDDA
  54:../../libDaisy/src/per/dac.h ****      ** The resolution will be roughly: bitdepth / (VDDA - 0V) 
  55:../../libDaisy/src/per/dac.h ****      ***/
  56:../../libDaisy/src/per/dac.h ****     enum class BitDepth
  57:../../libDaisy/src/per/dac.h ****     {
  58:../../libDaisy/src/per/dac.h ****         BITS_8,
  59:../../libDaisy/src/per/dac.h ****         BITS_12
  60:../../libDaisy/src/per/dac.h ****     };
  61:../../libDaisy/src/per/dac.h **** 
  62:../../libDaisy/src/per/dac.h ****     /** Sets whether the DAC output is buffered for higher drive ability. */
  63:../../libDaisy/src/per/dac.h ****     enum class BufferState
  64:../../libDaisy/src/per/dac.h ****     {
  65:../../libDaisy/src/per/dac.h ****         ENABLED,
  66:../../libDaisy/src/per/dac.h ****         DISABLED,
  67:../../libDaisy/src/per/dac.h ****     };
  68:../../libDaisy/src/per/dac.h **** 
  69:../../libDaisy/src/per/dac.h ****     /** Configuration structure for initializing the DAC structure. */
  70:../../libDaisy/src/per/dac.h ****     struct Config
  71:../../libDaisy/src/per/dac.h ****     {
  72:../../libDaisy/src/per/dac.h ****         /** Target Samplerate in Hz used to configure the internal 
  73:../../libDaisy/src/per/dac.h ****          ** timebase for DMA mode. Does nothing in POLLING mode.
ARM GAS  /tmp/cc5paFFJ.s 			page 40


  74:../../libDaisy/src/per/dac.h ****          ** If the value is 0 at Init time this will default to 48000Hz 
  75:../../libDaisy/src/per/dac.h ****          ** otherwise the driver will attempt meet the target.*/
  76:../../libDaisy/src/per/dac.h ****         uint32_t target_samplerate;
  77:../../libDaisy/src/per/dac.h **** 
  78:../../libDaisy/src/per/dac.h ****         Channel     chn;
  79:../../libDaisy/src/per/dac.h ****         Mode        mode;
  80:../../libDaisy/src/per/dac.h ****         BitDepth    bitdepth;
  81:../../libDaisy/src/per/dac.h ****         BufferState buff_state;
  82:../../libDaisy/src/per/dac.h ****     };
  83:../../libDaisy/src/per/dac.h **** 
  84:../../libDaisy/src/per/dac.h ****     DacHandle() : pimpl_(nullptr) {}
 939              		.loc 11 84 5 is_stmt 1 view .LVU231
 940              	.LBB260:
 941              	.LBB261:
 942              		.loc 11 84 33 is_stmt 0 view .LVU232
 943 000c 0362     		str	r3, [r0, #32]
 944              	.LVL49:
 945              		.loc 11 84 33 view .LVU233
 946              	.LBE261:
 947              	.LBE260:
 948              	.LBE259:
 949              	.LBB262:
 950              	.LBI262:
  40:../../libDaisy/src/hid/usb.h **** 
 951              		.loc 3 40 5 is_stmt 1 view .LVU234
  40:../../libDaisy/src/hid/usb.h **** 
 952              		.loc 3 40 5 is_stmt 0 view .LVU235
 953              	.LBE262:
 954              	.LBB263:
 955              	.LBI263:
  96:../../libDaisy/src/sys/system.h ****     ~System() {}
 956              		.loc 2 96 5 is_stmt 1 view .LVU236
  96:../../libDaisy/src/sys/system.h ****     ~System() {}
 957              		.loc 2 96 5 is_stmt 0 view .LVU237
 958              	.LBE263:
 959              	.LBB264:
 960              	.LBI264:
 961              		.file 12 "../../libDaisy/src/per/sai.h"
   1:../../libDaisy/src/per/sai.h **** #pragma once
   2:../../libDaisy/src/per/sai.h **** #ifndef DSY_SAI_H
   3:../../libDaisy/src/per/sai.h **** #define DSY_SAI_H
   4:../../libDaisy/src/per/sai.h **** 
   5:../../libDaisy/src/per/sai.h **** #include "daisy_core.h"
   6:../../libDaisy/src/per/sai.h **** 
   7:../../libDaisy/src/per/sai.h **** namespace daisy
   8:../../libDaisy/src/per/sai.h **** {
   9:../../libDaisy/src/per/sai.h **** /** 
  10:../../libDaisy/src/per/sai.h ****  * Support for I2S Audio Protocol with different bit-depth, samplerate options
  11:../../libDaisy/src/per/sai.h ****  * Allows for master or slave, as well as freedom of selecting direction, 
  12:../../libDaisy/src/per/sai.h ****  * and other behavior for each peripheral, and block.
  13:../../libDaisy/src/per/sai.h ****  * 
  14:../../libDaisy/src/per/sai.h ****  * DMA Transfer commands must use buffers located within non-cached memory or use cache maintenance
  15:../../libDaisy/src/per/sai.h ****  * To declare an unitialized global element in the DMA memory section:
  16:../../libDaisy/src/per/sai.h ****  *    int32_t DSY_DMA_BUFFER_SECTOR my_buffer[96];
  17:../../libDaisy/src/per/sai.h ****  *
  18:../../libDaisy/src/per/sai.h ****  * Callback functions will be called once per half of the buffer. In the above example, 
  19:../../libDaisy/src/per/sai.h ****  * the callback function would be called once for every 48 samples.
ARM GAS  /tmp/cc5paFFJ.s 			page 41


  20:../../libDaisy/src/per/sai.h ****  * 
  21:../../libDaisy/src/per/sai.h ****  * Use SAI Handle like this:
  22:../../libDaisy/src/per/sai.h ****  * 
  23:../../libDaisy/src/per/sai.h ****  *  SaiHandle::Config sai_config;
  24:../../libDaisy/src/per/sai.h ****  *  sai_config.periph          = SaiHandle::Config::Peripheral::SAI_1;
  25:../../libDaisy/src/per/sai.h ****  *  sai_config.sr              = SaiHandle::Config::SampleRate::SAI_48KHZ;
  26:../../libDaisy/src/per/sai.h ****  *  sai_config.bit_depth       = SaiHandle::Config::BitDepth::SAI_24BIT;
  27:../../libDaisy/src/per/sai.h ****  *  sai_config.a_sync          = SaiHandle::Config::Sync::MASTER;
  28:../../libDaisy/src/per/sai.h ****  *  sai_config.b_sync          = SaiHandle::Config::Sync::SLAVE;
  29:../../libDaisy/src/per/sai.h ****  *  sai_config.a_dir           = SaiHandle::Config::Direction::RECEIVE;
  30:../../libDaisy/src/per/sai.h ****  *  sai_config.b_dir           = SaiHandle::Config::Direction::TRANSMIT;
  31:../../libDaisy/src/per/sai.h ****  *  sai_config.pin_config.fs   = {DSY_GPIOE, 4};
  32:../../libDaisy/src/per/sai.h ****  *  sai_config.pin_config.mclk = {DSY_GPIOE, 2};
  33:../../libDaisy/src/per/sai.h ****  *  sai_config.pin_config.sck  = {DSY_GPIOE, 5};
  34:../../libDaisy/src/per/sai.h ****  *  sai_config.pin_config.sa   = {DSY_GPIOE, 6};
  35:../../libDaisy/src/per/sai.h ****  *  sai_config.pin_config.sb   = {DSY_GPIOE, 3};
  36:../../libDaisy/src/per/sai.h ****  *  // Then Initialize
  37:../../libDaisy/src/per/sai.h ****  *  SaiHandle sai;
  38:../../libDaisy/src/per/sai.h ****  *  sai.Init(sai_config);
  39:../../libDaisy/src/per/sai.h ****  *  // Now you can use it:
  40:../../libDaisy/src/per/sai.h ****  *  sai.StartDma(. . .);
  41:../../libDaisy/src/per/sai.h ****  */
  42:../../libDaisy/src/per/sai.h **** class SaiHandle
  43:../../libDaisy/src/per/sai.h **** {
  44:../../libDaisy/src/per/sai.h ****   public:
  45:../../libDaisy/src/per/sai.h ****     /** Contains settings for initialising an SAI Interface */
  46:../../libDaisy/src/per/sai.h ****     struct Config
  47:../../libDaisy/src/per/sai.h ****     {
  48:../../libDaisy/src/per/sai.h ****         /** Specifies the internal peripheral to use (mapped to different hardware pins) */
  49:../../libDaisy/src/per/sai.h ****         enum class Peripheral
  50:../../libDaisy/src/per/sai.h ****         {
  51:../../libDaisy/src/per/sai.h ****             SAI_1,
  52:../../libDaisy/src/per/sai.h ****             SAI_2,
  53:../../libDaisy/src/per/sai.h ****         };
  54:../../libDaisy/src/per/sai.h **** 
  55:../../libDaisy/src/per/sai.h ****         /** Rate at which samples will be streaming to/from the device. */
  56:../../libDaisy/src/per/sai.h ****         enum class SampleRate
  57:../../libDaisy/src/per/sai.h ****         {
  58:../../libDaisy/src/per/sai.h ****             SAI_8KHZ,
  59:../../libDaisy/src/per/sai.h ****             SAI_16KHZ,
  60:../../libDaisy/src/per/sai.h ****             SAI_32KHZ,
  61:../../libDaisy/src/per/sai.h ****             SAI_48KHZ,
  62:../../libDaisy/src/per/sai.h ****             SAI_96KHZ,
  63:../../libDaisy/src/per/sai.h ****         };
  64:../../libDaisy/src/per/sai.h **** 
  65:../../libDaisy/src/per/sai.h ****         /** Bit Depth that the hardware expects to be transferred to/from the device. */
  66:../../libDaisy/src/per/sai.h ****         enum class BitDepth
  67:../../libDaisy/src/per/sai.h ****         {
  68:../../libDaisy/src/per/sai.h ****             SAI_16BIT,
  69:../../libDaisy/src/per/sai.h ****             SAI_24BIT,
  70:../../libDaisy/src/per/sai.h ****             SAI_32BIT,
  71:../../libDaisy/src/per/sai.h ****         };
  72:../../libDaisy/src/per/sai.h **** 
  73:../../libDaisy/src/per/sai.h ****         /** Specifies whether a particular block is the master or the slave 
  74:../../libDaisy/src/per/sai.h ****          ** If both are set to slave, no MCLK signal will be used, and it is
  75:../../libDaisy/src/per/sai.h ****          ** expected that the codec will have its own xtal.
  76:../../libDaisy/src/per/sai.h ****          */
ARM GAS  /tmp/cc5paFFJ.s 			page 42


  77:../../libDaisy/src/per/sai.h ****         enum class Sync
  78:../../libDaisy/src/per/sai.h ****         {
  79:../../libDaisy/src/per/sai.h ****             MASTER,
  80:../../libDaisy/src/per/sai.h ****             SLAVE,
  81:../../libDaisy/src/per/sai.h ****         };
  82:../../libDaisy/src/per/sai.h **** 
  83:../../libDaisy/src/per/sai.h ****         /** Specifies the direction for each peripheral block. */
  84:../../libDaisy/src/per/sai.h ****         enum class Direction
  85:../../libDaisy/src/per/sai.h ****         {
  86:../../libDaisy/src/per/sai.h ****             TRANSMIT,
  87:../../libDaisy/src/per/sai.h ****             RECEIVE,
  88:../../libDaisy/src/per/sai.h ****         };
  89:../../libDaisy/src/per/sai.h **** 
  90:../../libDaisy/src/per/sai.h ****         Peripheral periph;
  91:../../libDaisy/src/per/sai.h ****         struct
  92:../../libDaisy/src/per/sai.h ****         {
  93:../../libDaisy/src/per/sai.h ****             dsy_gpio_pin mclk, fs, sck, sa, sb;
  94:../../libDaisy/src/per/sai.h ****         } pin_config;
  95:../../libDaisy/src/per/sai.h ****         SampleRate sr;
  96:../../libDaisy/src/per/sai.h ****         BitDepth   bit_depth;
  97:../../libDaisy/src/per/sai.h ****         Sync       a_sync, b_sync;
  98:../../libDaisy/src/per/sai.h ****         Direction  a_dir, b_dir;
  99:../../libDaisy/src/per/sai.h ****     };
 100:../../libDaisy/src/per/sai.h **** 
 101:../../libDaisy/src/per/sai.h ****     /** Return values for SAI functions */
 102:../../libDaisy/src/per/sai.h ****     enum class Result
 103:../../libDaisy/src/per/sai.h ****     {
 104:../../libDaisy/src/per/sai.h ****         OK,
 105:../../libDaisy/src/per/sai.h ****         ERR,
 106:../../libDaisy/src/per/sai.h ****     };
 107:../../libDaisy/src/per/sai.h **** 
 108:../../libDaisy/src/per/sai.h ****     SaiHandle() : pimpl_(nullptr) {}
 962              		.loc 12 108 5 is_stmt 1 view .LVU238
 963              	.LBB265:
 964              	.LBB266:
 965              		.loc 12 108 33 is_stmt 0 view .LVU239
 966 000e C363     		str	r3, [r0, #60]
 967              	.LVL50:
 968              		.loc 12 108 33 view .LVU240
 969              	.LBE266:
 970              	.LBE265:
 971              	.LBE264:
 972              	.LBE267:
 973              	.LBE268:
   6:TinyUsbCdcHidExternal.cpp **** static uint32_t blink_interval_ms = 250;
 974              		.loc 6 6 11 view .LVU241
 975 0010 FFF7FEBF 		b	__aeabi_atexit
 976              	.LVL51:
 977              	.L61:
 978              		.align	2
 979              	.L60:
 980 0014 00000000 		.word	.LANCHOR1
 981 0018 00000000 		.word	__dso_handle
 982 001c 00000000 		.word	_ZN5daisy9DaisySeedD1Ev
 983              	.LBE246:
 984              	.LBE245:
 985              		.cfi_endproc
ARM GAS  /tmp/cc5paFFJ.s 			page 43


 986              	.LFE2704:
 988              		.section	.init_array,"aw",%init_array
 989              		.align	2
 990 0000 00000000 		.word	_GLOBAL__sub_I_hw(target1)
 991              		.global	hw
 992              		.section	.rodata
 993              		.align	2
 994              		.set	.LANCHOR2,. + 0
 995              	.LC0:
 996 0000 01       		.byte	1
 997 0001 AA       		.byte	-86
 998 0002 0000     		.space	2
 999              	.LC2:
 1000 0004 04000000 		.ascii	"\004\000\000\000\000\000"
 1000      0000
 1001              		.section	.bss._ZZL8hid_taskvE7pressed,"aw",%nobits
 1002              		.set	.LANCHOR6,. + 0
 1005              	_ZZL8hid_taskvE7pressed:
 1006 0000 00       		.space	1
 1007              		.section	.bss._ZZL8hid_taskvE8start_ms,"aw",%nobits
 1008              		.align	2
 1009              		.set	.LANCHOR5,. + 0
 1012              	_ZZL8hid_taskvE8start_ms:
 1013 0000 00000000 		.space	4
 1014              		.section	.bss._ZZL8led_taskvE8start_ms,"aw",%nobits
 1015              		.align	2
 1016              		.set	.LANCHOR3,. + 0
 1019              	_ZZL8led_taskvE8start_ms:
 1020 0000 00000000 		.space	4
 1021              		.section	.bss._ZZL8led_taskvE9led_state,"aw",%nobits
 1022              		.set	.LANCHOR4,. + 0
 1025              	_ZZL8led_taskvE9led_state:
 1026 0000 00       		.space	1
 1027              		.section	.bss.hw,"aw",%nobits
 1028              		.align	2
 1029              		.set	.LANCHOR1,. + 0
 1032              	hw:
 1033 0000 00000000 		.space	64
 1033      00000000 
 1033      00000000 
 1033      00000000 
 1033      00000000 
 1034              		.section	.data._ZL17blink_interval_ms,"aw"
 1035              		.align	2
 1036              		.set	.LANCHOR0,. + 0
 1039              	_ZL17blink_interval_ms:
 1040 0000 FA000000 		.word	250
 1041              		.text
 1042              	.Letext0:
 1043              		.file 13 "/home/pi/Developer/gcc-arm-none-eabi-10-2020-q4-major/arm-none-eabi/include/machine/_def
 1044              		.file 14 "/home/pi/Developer/gcc-arm-none-eabi-10-2020-q4-major/arm-none-eabi/include/sys/_stdint.
 1045              		.file 15 "/home/pi/Developer/gcc-arm-none-eabi-10-2020-q4-major/arm-none-eabi/include/stdint.h"
 1046              		.file 16 "/home/pi/Developer/gcc-arm-none-eabi-10-2020-q4-major/lib/gcc/arm-none-eabi/10.2.1/inclu
 1047              		.file 17 "/home/pi/Developer/gcc-arm-none-eabi-10-2020-q4-major/arm-none-eabi/include/c++/10.2.1/c
 1048              		.file 18 "/home/pi/Developer/gcc-arm-none-eabi-10-2020-q4-major/arm-none-eabi/include/c++/10.2.1/b
 1049              		.file 19 "/home/pi/Developer/gcc-arm-none-eabi-10-2020-q4-major/arm-none-eabi/include/c++/10.2.1/c
 1050              		.file 20 "/home/pi/Developer/gcc-arm-none-eabi-10-2020-q4-major/arm-none-eabi/include/c++/10.2.1/c
ARM GAS  /tmp/cc5paFFJ.s 			page 44


 1051              		.file 21 "/home/pi/Developer/gcc-arm-none-eabi-10-2020-q4-major/arm-none-eabi/include/c++/10.2.1/t
 1052              		.file 22 "/home/pi/Developer/gcc-arm-none-eabi-10-2020-q4-major/arm-none-eabi/include/c++/10.2.1/d
 1053              		.file 23 "/home/pi/Developer/gcc-arm-none-eabi-10-2020-q4-major/arm-none-eabi/include/c++/10.2.1/a
 1054              		.file 24 "/home/pi/Developer/gcc-arm-none-eabi-10-2020-q4-major/arm-none-eabi/include/c++/10.2.1/b
 1055              		.file 25 "/home/pi/Developer/gcc-arm-none-eabi-10-2020-q4-major/arm-none-eabi/include/c++/10.2.1/b
 1056              		.file 26 "/home/pi/Developer/gcc-arm-none-eabi-10-2020-q4-major/arm-none-eabi/include/c++/10.2.1/b
 1057              		.file 27 "/home/pi/Developer/gcc-arm-none-eabi-10-2020-q4-major/arm-none-eabi/include/c++/10.2.1/c
 1058              		.file 28 "/home/pi/Developer/gcc-arm-none-eabi-10-2020-q4-major/arm-none-eabi/include/c++/10.2.1/c
 1059              		.file 29 "/home/pi/Developer/gcc-arm-none-eabi-10-2020-q4-major/arm-none-eabi/include/c++/10.2.1/c
 1060              		.file 30 "/home/pi/Developer/gcc-arm-none-eabi-10-2020-q4-major/arm-none-eabi/include/c++/10.2.1/b
 1061              		.file 31 "/home/pi/Developer/gcc-arm-none-eabi-10-2020-q4-major/arm-none-eabi/include/sys/_types.h
 1062              		.file 32 "/home/pi/Developer/gcc-arm-none-eabi-10-2020-q4-major/arm-none-eabi/include/sys/reent.h"
 1063              		.file 33 "/home/pi/Developer/gcc-arm-none-eabi-10-2020-q4-major/arm-none-eabi/include/sys/lock.h"
 1064              		.file 34 "/home/pi/Developer/gcc-arm-none-eabi-10-2020-q4-major/arm-none-eabi/include/math.h"
 1065              		.file 35 "/home/pi/Developer/gcc-arm-none-eabi-10-2020-q4-major/arm-none-eabi/include/stdlib.h"
 1066              		.file 36 "/home/pi/Developer/gcc-arm-none-eabi-10-2020-q4-major/arm-none-eabi/include/c++/10.2.1/m
 1067              		.file 37 "/home/pi/Developer/gcc-arm-none-eabi-10-2020-q4-major/arm-none-eabi/include/c++/10.2.1/s
 1068              		.file 38 "../../libDaisy/src/daisy_core.h"
 1069              		.file 39 "../../libDaisy/src/per/tim.h"
 1070              		.file 40 "../../libDaisy/src/util/wav_format.h"
 1071              		.file 41 "../../libDaisy/src/dev/max11300.h"
 1072              		.file 42 "../../libDaisy/src/per/gpio.h"
 1073              		.file 43 "../../libDaisy/src/dev/sdram.h"
 1074              		.file 44 "/home/pi/Developer/gcc-arm-none-eabi-10-2020-q4-major/lib/gcc/arm-none-eabi/10.2.1/inclu
 1075              		.file 45 "/home/pi/Developer/gcc-arm-none-eabi-10-2020-q4-major/arm-none-eabi/include/stdio.h"
 1076              		.file 46 "/home/pi/Developer/gcc-arm-none-eabi-10-2020-q4-major/arm-none-eabi/include/string.h"
 1077              		.file 47 "/home/pi/Developer/tinyusb/src/common/tusb_types.h"
 1078              		.file 48 "/home/pi/Developer/tinyusb/src/class/hid/hid.h"
 1079              		.file 49 "../../libDaisy/src/dev/sr_595.h"
 1080              		.file 50 "/home/pi/Developer/tinyusb/src/tusb.h"
 1081              		.file 51 "<built-in>"
ARM GAS  /tmp/cc5paFFJ.s 			page 45

