ARM GAS  /tmp/ccrixPyT.s 			page 1


   1              		.cpu cortex-m7
   2              		.eabi_attribute 28, 1
   3              		.eabi_attribute 20, 1
   4              		.eabi_attribute 21, 1
   5              		.eabi_attribute 23, 3
   6              		.eabi_attribute 24, 1
   7              		.eabi_attribute 25, 1
   8              		.eabi_attribute 26, 1
   9              		.eabi_attribute 30, 2
  10              		.eabi_attribute 34, 1
  11              		.eabi_attribute 18, 4
  12              		.file	"tusb.c"
  13              		.text
  14              	.Ltext0:
  15              		.cfi_sections	.debug_frame
  16              		.section	.text.stream_xfer,"ax",%progbits
  17              		.align	1
  18              		.p2align 2,,3
  19              		.arch armv7e-m
  20              		.syntax unified
  21              		.thumb
  22              		.thumb_func
  23              		.fpu fpv5-d16
  25              	stream_xfer:
  26              	.LVL0:
  27              	.LFB461:
  28              		.file 1 "/home/pi/Developer/tinyusb/src/tusb.c"
   1:/home/pi/Developer/tinyusb/src/tusb.c **** /*
   2:/home/pi/Developer/tinyusb/src/tusb.c ****  * The MIT License (MIT)
   3:/home/pi/Developer/tinyusb/src/tusb.c ****  *
   4:/home/pi/Developer/tinyusb/src/tusb.c ****  * Copyright (c) 2019 Ha Thach (tinyusb.org)
   5:/home/pi/Developer/tinyusb/src/tusb.c ****  *
   6:/home/pi/Developer/tinyusb/src/tusb.c ****  * Permission is hereby granted, free of charge, to any person obtaining a copy
   7:/home/pi/Developer/tinyusb/src/tusb.c ****  * of this software and associated documentation files (the "Software"), to deal
   8:/home/pi/Developer/tinyusb/src/tusb.c ****  * in the Software without restriction, including without limitation the rights
   9:/home/pi/Developer/tinyusb/src/tusb.c ****  * to use, copy, modify, merge, publish, distribute, sublicense, and/or sell
  10:/home/pi/Developer/tinyusb/src/tusb.c ****  * copies of the Software, and to permit persons to whom the Software is
  11:/home/pi/Developer/tinyusb/src/tusb.c ****  * furnished to do so, subject to the following conditions:
  12:/home/pi/Developer/tinyusb/src/tusb.c ****  *
  13:/home/pi/Developer/tinyusb/src/tusb.c ****  * The above copyright notice and this permission notice shall be included in
  14:/home/pi/Developer/tinyusb/src/tusb.c ****  * all copies or substantial portions of the Software.
  15:/home/pi/Developer/tinyusb/src/tusb.c ****  *
  16:/home/pi/Developer/tinyusb/src/tusb.c ****  * THE SOFTWARE IS PROVIDED "AS IS", WITHOUT WARRANTY OF ANY KIND, EXPRESS OR
  17:/home/pi/Developer/tinyusb/src/tusb.c ****  * IMPLIED, INCLUDING BUT NOT LIMITED TO THE WARRANTIES OF MERCHANTABILITY,
  18:/home/pi/Developer/tinyusb/src/tusb.c ****  * FITNESS FOR A PARTICULAR PURPOSE AND NONINFRINGEMENT. IN NO EVENT SHALL THE
  19:/home/pi/Developer/tinyusb/src/tusb.c ****  * AUTHORS OR COPYRIGHT HOLDERS BE LIABLE FOR ANY CLAIM, DAMAGES OR OTHER
  20:/home/pi/Developer/tinyusb/src/tusb.c ****  * LIABILITY, WHETHER IN AN ACTION OF CONTRACT, TORT OR OTHERWISE, ARISING FROM,
  21:/home/pi/Developer/tinyusb/src/tusb.c ****  * OUT OF OR IN CONNECTION WITH THE SOFTWARE OR THE USE OR OTHER DEALINGS IN
  22:/home/pi/Developer/tinyusb/src/tusb.c ****  * THE SOFTWARE.
  23:/home/pi/Developer/tinyusb/src/tusb.c ****  *
  24:/home/pi/Developer/tinyusb/src/tusb.c ****  * This file is part of the TinyUSB stack.
  25:/home/pi/Developer/tinyusb/src/tusb.c ****  */
  26:/home/pi/Developer/tinyusb/src/tusb.c **** 
  27:/home/pi/Developer/tinyusb/src/tusb.c **** #include "tusb_option.h"
  28:/home/pi/Developer/tinyusb/src/tusb.c **** 
  29:/home/pi/Developer/tinyusb/src/tusb.c **** #if CFG_TUH_ENABLED || CFG_TUD_ENABLED
  30:/home/pi/Developer/tinyusb/src/tusb.c **** 
ARM GAS  /tmp/ccrixPyT.s 			page 2


  31:/home/pi/Developer/tinyusb/src/tusb.c **** #include "tusb.h"
  32:/home/pi/Developer/tinyusb/src/tusb.c **** #include "common/tusb_private.h"
  33:/home/pi/Developer/tinyusb/src/tusb.c **** 
  34:/home/pi/Developer/tinyusb/src/tusb.c **** #if CFG_TUD_ENABLED
  35:/home/pi/Developer/tinyusb/src/tusb.c **** #include "device/usbd_pvt.h"
  36:/home/pi/Developer/tinyusb/src/tusb.c **** #endif
  37:/home/pi/Developer/tinyusb/src/tusb.c **** 
  38:/home/pi/Developer/tinyusb/src/tusb.c **** #if CFG_TUH_ENABLED
  39:/home/pi/Developer/tinyusb/src/tusb.c **** #include "host/usbh_pvt.h"
  40:/home/pi/Developer/tinyusb/src/tusb.c **** #endif
  41:/home/pi/Developer/tinyusb/src/tusb.c **** 
  42:/home/pi/Developer/tinyusb/src/tusb.c **** // Suppress IAR warning
  43:/home/pi/Developer/tinyusb/src/tusb.c **** // Warning[Pe111]: statement is unreachable
  44:/home/pi/Developer/tinyusb/src/tusb.c **** #if defined(__ICCARM__)
  45:/home/pi/Developer/tinyusb/src/tusb.c **** #pragma diag_suppress = Pe111
  46:/home/pi/Developer/tinyusb/src/tusb.c **** #endif
  47:/home/pi/Developer/tinyusb/src/tusb.c **** 
  48:/home/pi/Developer/tinyusb/src/tusb.c **** tusb_role_t _tusb_rhport_role[TUP_USBIP_CONTROLLER_NUM] = { TUSB_ROLE_INVALID };
  49:/home/pi/Developer/tinyusb/src/tusb.c **** 
  50:/home/pi/Developer/tinyusb/src/tusb.c **** //--------------------------------------------------------------------
  51:/home/pi/Developer/tinyusb/src/tusb.c **** // Weak/Default API, can be overwritten by Application
  52:/home/pi/Developer/tinyusb/src/tusb.c **** //--------------------------------------------------------------------
  53:/home/pi/Developer/tinyusb/src/tusb.c **** 
  54:/home/pi/Developer/tinyusb/src/tusb.c **** #if CFG_TUSB_OS != OPT_OS_NONE
  55:/home/pi/Developer/tinyusb/src/tusb.c **** TU_ATTR_WEAK uint32_t tusb_time_millis_api(void) {
  56:/home/pi/Developer/tinyusb/src/tusb.c ****   return osal_time_millis();
  57:/home/pi/Developer/tinyusb/src/tusb.c **** }
  58:/home/pi/Developer/tinyusb/src/tusb.c **** 
  59:/home/pi/Developer/tinyusb/src/tusb.c **** TU_ATTR_WEAK void tusb_time_delay_ms_api(uint32_t ms) {
  60:/home/pi/Developer/tinyusb/src/tusb.c ****   osal_task_delay(ms);
  61:/home/pi/Developer/tinyusb/src/tusb.c **** }
  62:/home/pi/Developer/tinyusb/src/tusb.c **** 
  63:/home/pi/Developer/tinyusb/src/tusb.c **** #else
  64:/home/pi/Developer/tinyusb/src/tusb.c **** // tusb_time_millis_api() must be implemented by user application.
  65:/home/pi/Developer/tinyusb/src/tusb.c **** 
  66:/home/pi/Developer/tinyusb/src/tusb.c **** TU_ATTR_WEAK void tusb_time_delay_ms_api(uint32_t ms) {
  67:/home/pi/Developer/tinyusb/src/tusb.c ****   // delay using millis()
  68:/home/pi/Developer/tinyusb/src/tusb.c ****   const uint32_t time_ms = tusb_time_millis_api();
  69:/home/pi/Developer/tinyusb/src/tusb.c ****   while ((tusb_time_millis_api() - time_ms) < ms) {}
  70:/home/pi/Developer/tinyusb/src/tusb.c **** }
  71:/home/pi/Developer/tinyusb/src/tusb.c **** #endif
  72:/home/pi/Developer/tinyusb/src/tusb.c **** 
  73:/home/pi/Developer/tinyusb/src/tusb.c **** TU_ATTR_WEAK void *tusb_app_virt_to_phys(void *virt_addr) {
  74:/home/pi/Developer/tinyusb/src/tusb.c ****   return virt_addr;
  75:/home/pi/Developer/tinyusb/src/tusb.c **** }
  76:/home/pi/Developer/tinyusb/src/tusb.c **** 
  77:/home/pi/Developer/tinyusb/src/tusb.c **** TU_ATTR_WEAK void* tusb_app_phys_to_virt(void *phys_addr) {
  78:/home/pi/Developer/tinyusb/src/tusb.c ****   return phys_addr;
  79:/home/pi/Developer/tinyusb/src/tusb.c **** }
  80:/home/pi/Developer/tinyusb/src/tusb.c **** 
  81:/home/pi/Developer/tinyusb/src/tusb.c **** //--------------------------------------------------------------------+
  82:/home/pi/Developer/tinyusb/src/tusb.c **** // Public API
  83:/home/pi/Developer/tinyusb/src/tusb.c **** //--------------------------------------------------------------------+
  84:/home/pi/Developer/tinyusb/src/tusb.c **** bool tusb_rhport_init(uint8_t rhport, const tusb_rhport_init_t* rh_init) {
  85:/home/pi/Developer/tinyusb/src/tusb.c ****   //  backward compatible called with tusb_init(void)
  86:/home/pi/Developer/tinyusb/src/tusb.c ****   #if defined(TUD_OPT_RHPORT) || defined(TUH_OPT_RHPORT)
  87:/home/pi/Developer/tinyusb/src/tusb.c ****   if (rh_init == NULL) {
ARM GAS  /tmp/ccrixPyT.s 			page 3


  88:/home/pi/Developer/tinyusb/src/tusb.c ****     #if CFG_TUD_ENABLED && defined(TUD_OPT_RHPORT)
  89:/home/pi/Developer/tinyusb/src/tusb.c ****     // init device stack CFG_TUSB_RHPORTx_MODE must be defined
  90:/home/pi/Developer/tinyusb/src/tusb.c ****     const tusb_rhport_init_t dev_init = {
  91:/home/pi/Developer/tinyusb/src/tusb.c ****       .role = TUSB_ROLE_DEVICE,
  92:/home/pi/Developer/tinyusb/src/tusb.c ****       .speed = TUD_OPT_HIGH_SPEED ? TUSB_SPEED_HIGH : TUSB_SPEED_FULL
  93:/home/pi/Developer/tinyusb/src/tusb.c ****     };
  94:/home/pi/Developer/tinyusb/src/tusb.c ****     TU_ASSERT ( tud_rhport_init(TUD_OPT_RHPORT, &dev_init) );
  95:/home/pi/Developer/tinyusb/src/tusb.c ****     _tusb_rhport_role[TUD_OPT_RHPORT] = TUSB_ROLE_DEVICE;
  96:/home/pi/Developer/tinyusb/src/tusb.c ****     #endif
  97:/home/pi/Developer/tinyusb/src/tusb.c **** 
  98:/home/pi/Developer/tinyusb/src/tusb.c ****     #if CFG_TUH_ENABLED && defined(TUH_OPT_RHPORT)
  99:/home/pi/Developer/tinyusb/src/tusb.c ****     // init host stack CFG_TUSB_RHPORTx_MODE must be defined
 100:/home/pi/Developer/tinyusb/src/tusb.c ****     const tusb_rhport_init_t host_init = {
 101:/home/pi/Developer/tinyusb/src/tusb.c ****       .role = TUSB_ROLE_HOST,
 102:/home/pi/Developer/tinyusb/src/tusb.c ****       .speed = TUH_OPT_HIGH_SPEED ? TUSB_SPEED_HIGH : TUSB_SPEED_FULL
 103:/home/pi/Developer/tinyusb/src/tusb.c ****     };
 104:/home/pi/Developer/tinyusb/src/tusb.c ****     TU_ASSERT( tuh_rhport_init(TUH_OPT_RHPORT, &host_init) );
 105:/home/pi/Developer/tinyusb/src/tusb.c ****     _tusb_rhport_role[TUH_OPT_RHPORT] = TUSB_ROLE_HOST;
 106:/home/pi/Developer/tinyusb/src/tusb.c ****     #endif
 107:/home/pi/Developer/tinyusb/src/tusb.c **** 
 108:/home/pi/Developer/tinyusb/src/tusb.c ****     return true;
 109:/home/pi/Developer/tinyusb/src/tusb.c ****   }
 110:/home/pi/Developer/tinyusb/src/tusb.c ****   #endif
 111:/home/pi/Developer/tinyusb/src/tusb.c **** 
 112:/home/pi/Developer/tinyusb/src/tusb.c ****   // new API with explicit rhport and role
 113:/home/pi/Developer/tinyusb/src/tusb.c ****   TU_ASSERT(rhport < TUP_USBIP_CONTROLLER_NUM && rh_init->role != TUSB_ROLE_INVALID);
 114:/home/pi/Developer/tinyusb/src/tusb.c ****   _tusb_rhport_role[rhport] = rh_init->role;
 115:/home/pi/Developer/tinyusb/src/tusb.c **** 
 116:/home/pi/Developer/tinyusb/src/tusb.c ****   #if CFG_TUD_ENABLED
 117:/home/pi/Developer/tinyusb/src/tusb.c ****   if (rh_init->role == TUSB_ROLE_DEVICE) {
 118:/home/pi/Developer/tinyusb/src/tusb.c ****     TU_ASSERT(tud_rhport_init(rhport, rh_init));
 119:/home/pi/Developer/tinyusb/src/tusb.c ****   }
 120:/home/pi/Developer/tinyusb/src/tusb.c ****   #endif
 121:/home/pi/Developer/tinyusb/src/tusb.c **** 
 122:/home/pi/Developer/tinyusb/src/tusb.c ****   #if CFG_TUH_ENABLED
 123:/home/pi/Developer/tinyusb/src/tusb.c ****   if (rh_init->role == TUSB_ROLE_HOST) {
 124:/home/pi/Developer/tinyusb/src/tusb.c ****     TU_ASSERT(tuh_rhport_init(rhport, rh_init));
 125:/home/pi/Developer/tinyusb/src/tusb.c ****   }
 126:/home/pi/Developer/tinyusb/src/tusb.c ****   #endif
 127:/home/pi/Developer/tinyusb/src/tusb.c **** 
 128:/home/pi/Developer/tinyusb/src/tusb.c ****   return true;
 129:/home/pi/Developer/tinyusb/src/tusb.c **** }
 130:/home/pi/Developer/tinyusb/src/tusb.c **** 
 131:/home/pi/Developer/tinyusb/src/tusb.c **** bool tusb_inited(void) {
 132:/home/pi/Developer/tinyusb/src/tusb.c ****   bool ret = false;
 133:/home/pi/Developer/tinyusb/src/tusb.c **** 
 134:/home/pi/Developer/tinyusb/src/tusb.c ****   #if CFG_TUD_ENABLED
 135:/home/pi/Developer/tinyusb/src/tusb.c ****   if (tud_inited()) {
 136:/home/pi/Developer/tinyusb/src/tusb.c ****     ret = true;
 137:/home/pi/Developer/tinyusb/src/tusb.c ****   }
 138:/home/pi/Developer/tinyusb/src/tusb.c ****   #endif
 139:/home/pi/Developer/tinyusb/src/tusb.c **** 
 140:/home/pi/Developer/tinyusb/src/tusb.c ****   #if CFG_TUH_ENABLED
 141:/home/pi/Developer/tinyusb/src/tusb.c ****   if (tuh_inited()) {
 142:/home/pi/Developer/tinyusb/src/tusb.c ****     ret = true;
 143:/home/pi/Developer/tinyusb/src/tusb.c ****   }
 144:/home/pi/Developer/tinyusb/src/tusb.c ****   #endif
ARM GAS  /tmp/ccrixPyT.s 			page 4


 145:/home/pi/Developer/tinyusb/src/tusb.c **** 
 146:/home/pi/Developer/tinyusb/src/tusb.c ****   return ret;
 147:/home/pi/Developer/tinyusb/src/tusb.c **** }
 148:/home/pi/Developer/tinyusb/src/tusb.c **** 
 149:/home/pi/Developer/tinyusb/src/tusb.c **** void tusb_int_handler(uint8_t rhport, bool in_isr) {
 150:/home/pi/Developer/tinyusb/src/tusb.c ****   TU_VERIFY(rhport < TUP_USBIP_CONTROLLER_NUM,);
 151:/home/pi/Developer/tinyusb/src/tusb.c **** 
 152:/home/pi/Developer/tinyusb/src/tusb.c ****   #if CFG_TUD_ENABLED
 153:/home/pi/Developer/tinyusb/src/tusb.c ****   if (_tusb_rhport_role[rhport] == TUSB_ROLE_DEVICE) {
 154:/home/pi/Developer/tinyusb/src/tusb.c ****     (void) in_isr;
 155:/home/pi/Developer/tinyusb/src/tusb.c ****     dcd_int_handler(rhport);
 156:/home/pi/Developer/tinyusb/src/tusb.c ****   }
 157:/home/pi/Developer/tinyusb/src/tusb.c ****   #endif
 158:/home/pi/Developer/tinyusb/src/tusb.c **** 
 159:/home/pi/Developer/tinyusb/src/tusb.c ****   #if CFG_TUH_ENABLED
 160:/home/pi/Developer/tinyusb/src/tusb.c ****   if (_tusb_rhport_role[rhport] == TUSB_ROLE_HOST) {
 161:/home/pi/Developer/tinyusb/src/tusb.c ****     hcd_int_handler(rhport, in_isr);
 162:/home/pi/Developer/tinyusb/src/tusb.c ****   }
 163:/home/pi/Developer/tinyusb/src/tusb.c ****   #endif
 164:/home/pi/Developer/tinyusb/src/tusb.c **** }
 165:/home/pi/Developer/tinyusb/src/tusb.c **** 
 166:/home/pi/Developer/tinyusb/src/tusb.c **** bool tusb_deinit(uint8_t rhport) {
 167:/home/pi/Developer/tinyusb/src/tusb.c ****   TU_VERIFY(rhport < TUP_USBIP_CONTROLLER_NUM);
 168:/home/pi/Developer/tinyusb/src/tusb.c ****   bool ret = false;
 169:/home/pi/Developer/tinyusb/src/tusb.c **** 
 170:/home/pi/Developer/tinyusb/src/tusb.c ****   #if CFG_TUD_ENABLED
 171:/home/pi/Developer/tinyusb/src/tusb.c ****   if (_tusb_rhport_role[rhport] == TUSB_ROLE_DEVICE) {
 172:/home/pi/Developer/tinyusb/src/tusb.c ****     TU_ASSERT(tud_deinit(rhport));
 173:/home/pi/Developer/tinyusb/src/tusb.c ****     _tusb_rhport_role[rhport] = TUSB_ROLE_INVALID;
 174:/home/pi/Developer/tinyusb/src/tusb.c ****     ret = true;
 175:/home/pi/Developer/tinyusb/src/tusb.c ****   }
 176:/home/pi/Developer/tinyusb/src/tusb.c ****   #endif
 177:/home/pi/Developer/tinyusb/src/tusb.c **** 
 178:/home/pi/Developer/tinyusb/src/tusb.c ****   #if CFG_TUH_ENABLED
 179:/home/pi/Developer/tinyusb/src/tusb.c ****   if (_tusb_rhport_role[rhport] == TUSB_ROLE_HOST) {
 180:/home/pi/Developer/tinyusb/src/tusb.c ****     TU_ASSERT(tuh_deinit(rhport));
 181:/home/pi/Developer/tinyusb/src/tusb.c ****     _tusb_rhport_role[rhport] = TUSB_ROLE_INVALID;
 182:/home/pi/Developer/tinyusb/src/tusb.c ****     ret = true;
 183:/home/pi/Developer/tinyusb/src/tusb.c ****   }
 184:/home/pi/Developer/tinyusb/src/tusb.c ****   #endif
 185:/home/pi/Developer/tinyusb/src/tusb.c **** 
 186:/home/pi/Developer/tinyusb/src/tusb.c ****   return ret;
 187:/home/pi/Developer/tinyusb/src/tusb.c **** }
 188:/home/pi/Developer/tinyusb/src/tusb.c **** 
 189:/home/pi/Developer/tinyusb/src/tusb.c **** //--------------------------------------------------------------------+
 190:/home/pi/Developer/tinyusb/src/tusb.c **** // Descriptor helper
 191:/home/pi/Developer/tinyusb/src/tusb.c **** //--------------------------------------------------------------------+
 192:/home/pi/Developer/tinyusb/src/tusb.c **** 
 193:/home/pi/Developer/tinyusb/src/tusb.c **** uint8_t const* tu_desc_find(uint8_t const* desc, uint8_t const* end, uint8_t byte1) {
 194:/home/pi/Developer/tinyusb/src/tusb.c ****   while (desc + 1 < end) {
 195:/home/pi/Developer/tinyusb/src/tusb.c ****     if (desc[1] == byte1) {
 196:/home/pi/Developer/tinyusb/src/tusb.c ****       return desc;
 197:/home/pi/Developer/tinyusb/src/tusb.c ****     }
 198:/home/pi/Developer/tinyusb/src/tusb.c ****     desc += desc[DESC_OFFSET_LEN];
 199:/home/pi/Developer/tinyusb/src/tusb.c ****   }
 200:/home/pi/Developer/tinyusb/src/tusb.c ****   return NULL;
 201:/home/pi/Developer/tinyusb/src/tusb.c **** }
ARM GAS  /tmp/ccrixPyT.s 			page 5


 202:/home/pi/Developer/tinyusb/src/tusb.c **** 
 203:/home/pi/Developer/tinyusb/src/tusb.c **** uint8_t const* tu_desc_find2(uint8_t const* desc, uint8_t const* end, uint8_t byte1, uint8_t byte2)
 204:/home/pi/Developer/tinyusb/src/tusb.c ****   while (desc + 2 < end) {
 205:/home/pi/Developer/tinyusb/src/tusb.c ****     if (desc[1] == byte1 && desc[2] == byte2) {
 206:/home/pi/Developer/tinyusb/src/tusb.c ****       return desc;
 207:/home/pi/Developer/tinyusb/src/tusb.c ****     }
 208:/home/pi/Developer/tinyusb/src/tusb.c ****     desc += desc[DESC_OFFSET_LEN];
 209:/home/pi/Developer/tinyusb/src/tusb.c ****   }
 210:/home/pi/Developer/tinyusb/src/tusb.c ****   return NULL;
 211:/home/pi/Developer/tinyusb/src/tusb.c **** }
 212:/home/pi/Developer/tinyusb/src/tusb.c **** 
 213:/home/pi/Developer/tinyusb/src/tusb.c **** uint8_t const* tu_desc_find3(uint8_t const* desc, uint8_t const* end, uint8_t byte1, uint8_t byte2,
 214:/home/pi/Developer/tinyusb/src/tusb.c ****   while (desc + 3 < end) {
 215:/home/pi/Developer/tinyusb/src/tusb.c ****     if (desc[1] == byte1 && desc[2] == byte2 && desc[3] == byte3) {
 216:/home/pi/Developer/tinyusb/src/tusb.c ****       return desc;
 217:/home/pi/Developer/tinyusb/src/tusb.c ****     }
 218:/home/pi/Developer/tinyusb/src/tusb.c ****     desc += desc[DESC_OFFSET_LEN];
 219:/home/pi/Developer/tinyusb/src/tusb.c ****   }
 220:/home/pi/Developer/tinyusb/src/tusb.c ****   return NULL;
 221:/home/pi/Developer/tinyusb/src/tusb.c **** }
 222:/home/pi/Developer/tinyusb/src/tusb.c **** 
 223:/home/pi/Developer/tinyusb/src/tusb.c **** //--------------------------------------------------------------------+
 224:/home/pi/Developer/tinyusb/src/tusb.c **** // Endpoint Helper for both Host and Device stack
 225:/home/pi/Developer/tinyusb/src/tusb.c **** //--------------------------------------------------------------------+
 226:/home/pi/Developer/tinyusb/src/tusb.c **** 
 227:/home/pi/Developer/tinyusb/src/tusb.c **** bool tu_edpt_claim(volatile uint8_t* ep_state, osal_mutex_t mutex) {
 228:/home/pi/Developer/tinyusb/src/tusb.c ****   (void) mutex;
 229:/home/pi/Developer/tinyusb/src/tusb.c **** 
 230:/home/pi/Developer/tinyusb/src/tusb.c ****   // pre-check to help reducing mutex lock
 231:/home/pi/Developer/tinyusb/src/tusb.c ****   TU_VERIFY((*ep_state & (TU_EDPT_STATE_BUSY | TU_EDPT_STATE_CLAIMED)) == 0);
 232:/home/pi/Developer/tinyusb/src/tusb.c ****   (void) osal_mutex_lock(mutex, OSAL_TIMEOUT_WAIT_FOREVER);
 233:/home/pi/Developer/tinyusb/src/tusb.c **** 
 234:/home/pi/Developer/tinyusb/src/tusb.c ****   // can only claim the endpoint if it is not busy and not claimed yet.
 235:/home/pi/Developer/tinyusb/src/tusb.c ****   bool const available = (*ep_state & (TU_EDPT_STATE_BUSY | TU_EDPT_STATE_CLAIMED)) == 0;
 236:/home/pi/Developer/tinyusb/src/tusb.c ****   if (available) {
 237:/home/pi/Developer/tinyusb/src/tusb.c ****     *ep_state |= TU_EDPT_STATE_CLAIMED;
 238:/home/pi/Developer/tinyusb/src/tusb.c ****   }
 239:/home/pi/Developer/tinyusb/src/tusb.c **** 
 240:/home/pi/Developer/tinyusb/src/tusb.c ****   (void) osal_mutex_unlock(mutex);
 241:/home/pi/Developer/tinyusb/src/tusb.c ****   return available;
 242:/home/pi/Developer/tinyusb/src/tusb.c **** }
 243:/home/pi/Developer/tinyusb/src/tusb.c **** 
 244:/home/pi/Developer/tinyusb/src/tusb.c **** bool tu_edpt_release(volatile uint8_t* ep_state, osal_mutex_t mutex) {
 245:/home/pi/Developer/tinyusb/src/tusb.c ****   (void) mutex;
 246:/home/pi/Developer/tinyusb/src/tusb.c ****   (void) osal_mutex_lock(mutex, OSAL_TIMEOUT_WAIT_FOREVER);
 247:/home/pi/Developer/tinyusb/src/tusb.c **** 
 248:/home/pi/Developer/tinyusb/src/tusb.c ****   // can only release the endpoint if it is claimed and not busy
 249:/home/pi/Developer/tinyusb/src/tusb.c ****   bool const ret = (*ep_state & (TU_EDPT_STATE_CLAIMED | TU_EDPT_STATE_BUSY)) == TU_EDPT_STATE_CLAI
 250:/home/pi/Developer/tinyusb/src/tusb.c ****   if (ret) {
 251:/home/pi/Developer/tinyusb/src/tusb.c ****     *ep_state &= (uint8_t) ~TU_EDPT_STATE_CLAIMED;
 252:/home/pi/Developer/tinyusb/src/tusb.c ****   }
 253:/home/pi/Developer/tinyusb/src/tusb.c **** 
 254:/home/pi/Developer/tinyusb/src/tusb.c ****   (void) osal_mutex_unlock(mutex);
 255:/home/pi/Developer/tinyusb/src/tusb.c ****   return ret;
 256:/home/pi/Developer/tinyusb/src/tusb.c **** }
 257:/home/pi/Developer/tinyusb/src/tusb.c **** 
 258:/home/pi/Developer/tinyusb/src/tusb.c **** #if CFG_TUSB_DEBUG
ARM GAS  /tmp/ccrixPyT.s 			page 6


 259:/home/pi/Developer/tinyusb/src/tusb.c **** bool tu_edpt_validate(const tusb_desc_endpoint_t *desc_ep, tusb_speed_t speed) {
 260:/home/pi/Developer/tinyusb/src/tusb.c ****   const uint16_t max_packet_size = tu_edpt_packet_size(desc_ep);
 261:/home/pi/Developer/tinyusb/src/tusb.c ****   TU_LOG2("  Open EP %02X with Size = %u\r\n", desc_ep->bEndpointAddress, max_packet_size);
 262:/home/pi/Developer/tinyusb/src/tusb.c ****   TU_ASSERT(max_packet_size > 0);
 263:/home/pi/Developer/tinyusb/src/tusb.c **** 
 264:/home/pi/Developer/tinyusb/src/tusb.c ****   switch (desc_ep->bmAttributes.xfer) {
 265:/home/pi/Developer/tinyusb/src/tusb.c ****     case TUSB_XFER_ISOCHRONOUS: {
 266:/home/pi/Developer/tinyusb/src/tusb.c ****       const uint16_t spec_size = (speed == TUSB_SPEED_HIGH ? 1024 : 1023);
 267:/home/pi/Developer/tinyusb/src/tusb.c ****       TU_ASSERT(max_packet_size <= spec_size);
 268:/home/pi/Developer/tinyusb/src/tusb.c ****       break;
 269:/home/pi/Developer/tinyusb/src/tusb.c ****     }
 270:/home/pi/Developer/tinyusb/src/tusb.c **** 
 271:/home/pi/Developer/tinyusb/src/tusb.c ****     case TUSB_XFER_BULK:
 272:/home/pi/Developer/tinyusb/src/tusb.c ****       if (speed == TUSB_SPEED_HIGH) {
 273:/home/pi/Developer/tinyusb/src/tusb.c ****         // Bulk highspeed must be EXACTLY 512
 274:/home/pi/Developer/tinyusb/src/tusb.c ****         TU_ASSERT(max_packet_size == 512);
 275:/home/pi/Developer/tinyusb/src/tusb.c ****       } else {
 276:/home/pi/Developer/tinyusb/src/tusb.c ****         // Bulk fullspeed can only be 8, 16, 32, 64
 277:/home/pi/Developer/tinyusb/src/tusb.c ****         TU_ASSERT(max_packet_size == 8 || max_packet_size == 16 || max_packet_size == 32 || max_pac
 278:/home/pi/Developer/tinyusb/src/tusb.c ****       }
 279:/home/pi/Developer/tinyusb/src/tusb.c ****       break;
 280:/home/pi/Developer/tinyusb/src/tusb.c **** 
 281:/home/pi/Developer/tinyusb/src/tusb.c ****     case TUSB_XFER_INTERRUPT: {
 282:/home/pi/Developer/tinyusb/src/tusb.c ****       const uint16_t spec_size = (speed == TUSB_SPEED_HIGH ? 1024 : 64);
 283:/home/pi/Developer/tinyusb/src/tusb.c ****       TU_ASSERT(max_packet_size <= spec_size);
 284:/home/pi/Developer/tinyusb/src/tusb.c ****       break;
 285:/home/pi/Developer/tinyusb/src/tusb.c ****     }
 286:/home/pi/Developer/tinyusb/src/tusb.c **** 
 287:/home/pi/Developer/tinyusb/src/tusb.c ****     default:
 288:/home/pi/Developer/tinyusb/src/tusb.c ****       return false;
 289:/home/pi/Developer/tinyusb/src/tusb.c ****   }
 290:/home/pi/Developer/tinyusb/src/tusb.c **** 
 291:/home/pi/Developer/tinyusb/src/tusb.c ****   return true;
 292:/home/pi/Developer/tinyusb/src/tusb.c **** }
 293:/home/pi/Developer/tinyusb/src/tusb.c **** #endif
 294:/home/pi/Developer/tinyusb/src/tusb.c **** 
 295:/home/pi/Developer/tinyusb/src/tusb.c **** bool tu_bind_driver_to_ep_itf(uint8_t driver_id, uint8_t ep2drv[][2], uint8_t itf2drv[], uint8_t it
 296:/home/pi/Developer/tinyusb/src/tusb.c ****                               const uint8_t *p_desc, uint16_t desc_len) {
 297:/home/pi/Developer/tinyusb/src/tusb.c ****   const uint8_t *desc_end = p_desc + desc_len;
 298:/home/pi/Developer/tinyusb/src/tusb.c ****   while (tu_desc_in_bounds(p_desc, desc_end)) {
 299:/home/pi/Developer/tinyusb/src/tusb.c ****     const uint8_t desc_type = tu_desc_type(p_desc);
 300:/home/pi/Developer/tinyusb/src/tusb.c **** 
 301:/home/pi/Developer/tinyusb/src/tusb.c ****     if (desc_type == TUSB_DESC_ENDPOINT) {
 302:/home/pi/Developer/tinyusb/src/tusb.c ****       const uint8_t ep_addr  = ((const tusb_desc_endpoint_t *)p_desc)->bEndpointAddress;
 303:/home/pi/Developer/tinyusb/src/tusb.c ****       const uint8_t ep_num   = tu_edpt_number(ep_addr);
 304:/home/pi/Developer/tinyusb/src/tusb.c ****       const uint8_t ep_dir   = tu_edpt_dir(ep_addr);
 305:/home/pi/Developer/tinyusb/src/tusb.c ****       ep2drv[ep_num][ep_dir] = driver_id;
 306:/home/pi/Developer/tinyusb/src/tusb.c ****     } else if (desc_type == TUSB_DESC_INTERFACE) {
 307:/home/pi/Developer/tinyusb/src/tusb.c ****       const tusb_desc_interface_t *desc_itf = (const tusb_desc_interface_t *)p_desc;
 308:/home/pi/Developer/tinyusb/src/tusb.c ****       if (desc_itf->bAlternateSetting == 0) {
 309:/home/pi/Developer/tinyusb/src/tusb.c ****         TU_ASSERT(desc_itf->bInterfaceNumber < itf_max);
 310:/home/pi/Developer/tinyusb/src/tusb.c ****         itf2drv[desc_itf->bInterfaceNumber] = driver_id;
 311:/home/pi/Developer/tinyusb/src/tusb.c ****       }
 312:/home/pi/Developer/tinyusb/src/tusb.c ****     }
 313:/home/pi/Developer/tinyusb/src/tusb.c **** 
 314:/home/pi/Developer/tinyusb/src/tusb.c ****     p_desc = tu_desc_next(p_desc);
 315:/home/pi/Developer/tinyusb/src/tusb.c ****   }
ARM GAS  /tmp/ccrixPyT.s 			page 7


 316:/home/pi/Developer/tinyusb/src/tusb.c ****   return true;
 317:/home/pi/Developer/tinyusb/src/tusb.c **** }
 318:/home/pi/Developer/tinyusb/src/tusb.c **** 
 319:/home/pi/Developer/tinyusb/src/tusb.c **** //--------------------------------------------------------------------+
 320:/home/pi/Developer/tinyusb/src/tusb.c **** // Endpoint Stream Helper for both Host and Device stack
 321:/home/pi/Developer/tinyusb/src/tusb.c **** //--------------------------------------------------------------------+
 322:/home/pi/Developer/tinyusb/src/tusb.c **** 
 323:/home/pi/Developer/tinyusb/src/tusb.c **** bool tu_edpt_stream_init(tu_edpt_stream_t *s, bool is_host, bool is_tx, bool overwritable, void *ff
 324:/home/pi/Developer/tinyusb/src/tusb.c ****                          uint16_t ff_bufsize, uint8_t *ep_buf) {
 325:/home/pi/Developer/tinyusb/src/tusb.c ****   (void) is_tx;
 326:/home/pi/Developer/tinyusb/src/tusb.c **** 
 327:/home/pi/Developer/tinyusb/src/tusb.c ****   if (ff_buf == NULL || ff_bufsize == 0) {
 328:/home/pi/Developer/tinyusb/src/tusb.c ****     return false;
 329:/home/pi/Developer/tinyusb/src/tusb.c ****   }
 330:/home/pi/Developer/tinyusb/src/tusb.c **** 
 331:/home/pi/Developer/tinyusb/src/tusb.c ****   s->is_host = is_host;
 332:/home/pi/Developer/tinyusb/src/tusb.c ****   tu_fifo_config(&s->ff, ff_buf, ff_bufsize, overwritable);
 333:/home/pi/Developer/tinyusb/src/tusb.c **** 
 334:/home/pi/Developer/tinyusb/src/tusb.c ****   #if OSAL_MUTEX_REQUIRED
 335:/home/pi/Developer/tinyusb/src/tusb.c ****   if (ff_buf != NULL && ff_bufsize > 0) {
 336:/home/pi/Developer/tinyusb/src/tusb.c ****     osal_mutex_t new_mutex = osal_mutex_create(&s->ff_mutexdef);
 337:/home/pi/Developer/tinyusb/src/tusb.c ****     tu_fifo_config_mutex(&s->ff, is_tx ? new_mutex : NULL, is_tx ? NULL : new_mutex);
 338:/home/pi/Developer/tinyusb/src/tusb.c ****   }
 339:/home/pi/Developer/tinyusb/src/tusb.c ****   #endif
 340:/home/pi/Developer/tinyusb/src/tusb.c **** 
 341:/home/pi/Developer/tinyusb/src/tusb.c ****   s->ep_buf = ep_buf;
 342:/home/pi/Developer/tinyusb/src/tusb.c **** 
 343:/home/pi/Developer/tinyusb/src/tusb.c ****   return true;
 344:/home/pi/Developer/tinyusb/src/tusb.c **** }
 345:/home/pi/Developer/tinyusb/src/tusb.c **** 
 346:/home/pi/Developer/tinyusb/src/tusb.c **** static bool stream_claim(tu_edpt_stream_t *s) {
 347:/home/pi/Developer/tinyusb/src/tusb.c ****   TU_VERIFY(s->ep_addr != 0); // must be opened
 348:/home/pi/Developer/tinyusb/src/tusb.c ****   if (s->is_host) {
 349:/home/pi/Developer/tinyusb/src/tusb.c ****     #if CFG_TUH_ENABLED
 350:/home/pi/Developer/tinyusb/src/tusb.c ****     return usbh_edpt_claim(s->hwid, s->ep_addr);
 351:/home/pi/Developer/tinyusb/src/tusb.c ****   #endif
 352:/home/pi/Developer/tinyusb/src/tusb.c ****   } else {
 353:/home/pi/Developer/tinyusb/src/tusb.c ****     #if CFG_TUD_ENABLED
 354:/home/pi/Developer/tinyusb/src/tusb.c ****     return usbd_edpt_claim(s->hwid, s->ep_addr);
 355:/home/pi/Developer/tinyusb/src/tusb.c ****   #endif
 356:/home/pi/Developer/tinyusb/src/tusb.c ****   }
 357:/home/pi/Developer/tinyusb/src/tusb.c ****   return false;
 358:/home/pi/Developer/tinyusb/src/tusb.c **** }
 359:/home/pi/Developer/tinyusb/src/tusb.c **** 
 360:/home/pi/Developer/tinyusb/src/tusb.c **** static bool stream_xfer(tu_edpt_stream_t *s, uint16_t count) {
  29              		.loc 1 360 62 view -0
  30              		.cfi_startproc
  31              		@ args = 0, pretend = 0, frame = 0
  32              		@ frame_needed = 0, uses_anonymous_args = 0
 361:/home/pi/Developer/tinyusb/src/tusb.c ****   if (s->is_host) {
  33              		.loc 1 361 3 view .LVU1
 360:/home/pi/Developer/tinyusb/src/tusb.c ****   if (s->is_host) {
  34              		.loc 1 360 62 is_stmt 0 view .LVU2
  35 0000 30B5     		push	{r4, r5, lr}
  36              		.cfi_def_cfa_offset 12
  37              		.cfi_offset 4, -12
  38              		.cfi_offset 5, -8
ARM GAS  /tmp/ccrixPyT.s 			page 8


  39              		.cfi_offset 14, -4
  40              		.loc 1 361 6 view .LVU3
  41 0002 4478     		ldrb	r4, [r0, #1]	@ zero_extendqisi2
 360:/home/pi/Developer/tinyusb/src/tusb.c ****   if (s->is_host) {
  42              		.loc 1 360 62 view .LVU4
  43 0004 83B0     		sub	sp, sp, #12
  44              		.cfi_def_cfa_offset 24
  45              		.loc 1 361 6 view .LVU5
  46 0006 6CB9     		cbnz	r4, .L5
 362:/home/pi/Developer/tinyusb/src/tusb.c ****     #if CFG_TUH_ENABLED
 363:/home/pi/Developer/tinyusb/src/tusb.c ****     return usbh_edpt_xfer(s->hwid, s->ep_addr, count ? s->ep_buf : NULL, count);
 364:/home/pi/Developer/tinyusb/src/tusb.c ****   #endif
 365:/home/pi/Developer/tinyusb/src/tusb.c ****   } else {
 366:/home/pi/Developer/tinyusb/src/tusb.c ****     #if CFG_TUD_ENABLED
 367:/home/pi/Developer/tinyusb/src/tusb.c ****     if (s->ep_buf == NULL) {
  47              		.loc 1 367 5 is_stmt 1 view .LVU6
  48              		.loc 1 367 10 is_stmt 0 view .LVU7
  49 0008 8568     		ldr	r5, [r0, #8]
  50              		.loc 1 367 8 view .LVU8
  51 000a 75B1     		cbz	r5, .L9
 368:/home/pi/Developer/tinyusb/src/tusb.c ****       return usbd_edpt_xfer_fifo(s->hwid, s->ep_addr, &s->ff, count, false);
 369:/home/pi/Developer/tinyusb/src/tusb.c ****     } else {
 370:/home/pi/Developer/tinyusb/src/tusb.c ****       return usbd_edpt_xfer(s->hwid, s->ep_addr, count ? s->ep_buf : NULL, count, false);
  52              		.loc 1 370 7 is_stmt 1 view .LVU9
  53              		.loc 1 370 14 is_stmt 0 view .LVU10
  54 000c 0029     		cmp	r1, #0
  55 000e 0B46     		mov	r3, r1
  56 0010 8178     		ldrb	r1, [r0, #2]	@ zero_extendqisi2
  57              	.LVL1:
  58              		.loc 1 370 14 view .LVU11
  59 0012 14BF     		ite	ne
  60 0014 2A46     		movne	r2, r5
  61 0016 0022     		moveq	r2, #0
  62 0018 0078     		ldrb	r0, [r0]	@ zero_extendqisi2
  63              	.LVL2:
  64              		.loc 1 370 14 view .LVU12
  65 001a 0094     		str	r4, [sp]
  66 001c FFF7FEFF 		bl	usbd_edpt_xfer
  67              	.LVL3:
 371:/home/pi/Developer/tinyusb/src/tusb.c ****     }
 372:/home/pi/Developer/tinyusb/src/tusb.c ****   #endif
 373:/home/pi/Developer/tinyusb/src/tusb.c ****   }
 374:/home/pi/Developer/tinyusb/src/tusb.c ****   return false;
 375:/home/pi/Developer/tinyusb/src/tusb.c **** }
  68              		.loc 1 375 1 view .LVU13
  69 0020 03B0     		add	sp, sp, #12
  70              		.cfi_remember_state
  71              		.cfi_def_cfa_offset 12
  72              		@ sp needed
  73 0022 30BD     		pop	{r4, r5, pc}
  74              	.LVL4:
  75              	.L5:
  76              		.cfi_restore_state
 374:/home/pi/Developer/tinyusb/src/tusb.c **** }
  77              		.loc 1 374 10 view .LVU14
  78 0024 0020     		movs	r0, #0
  79              	.LVL5:
ARM GAS  /tmp/ccrixPyT.s 			page 9


  80              	.L2:
  81              		.loc 1 375 1 view .LVU15
  82 0026 03B0     		add	sp, sp, #12
  83              		.cfi_remember_state
  84              		.cfi_def_cfa_offset 12
  85              		@ sp needed
  86 0028 30BD     		pop	{r4, r5, pc}
  87              	.LVL6:
  88              	.L9:
  89              		.cfi_restore_state
  90              	.LBB115:
  91              	.LBI115:
 360:/home/pi/Developer/tinyusb/src/tusb.c ****   if (s->is_host) {
  92              		.loc 1 360 13 is_stmt 1 view .LVU16
  93              	.LBB116:
 368:/home/pi/Developer/tinyusb/src/tusb.c ****     } else {
  94              		.loc 1 368 7 view .LVU17
 368:/home/pi/Developer/tinyusb/src/tusb.c ****     } else {
  95              		.loc 1 368 14 is_stmt 0 view .LVU18
  96 002a 0B46     		mov	r3, r1
  97 002c 00F10C02 		add	r2, r0, #12
  98 0030 8178     		ldrb	r1, [r0, #2]	@ zero_extendqisi2
  99              	.LVL7:
 368:/home/pi/Developer/tinyusb/src/tusb.c ****     } else {
 100              		.loc 1 368 14 view .LVU19
 101 0032 0078     		ldrb	r0, [r0]	@ zero_extendqisi2
 102              	.LVL8:
 368:/home/pi/Developer/tinyusb/src/tusb.c ****     } else {
 103              		.loc 1 368 14 view .LVU20
 104 0034 0095     		str	r5, [sp]
 105 0036 FFF7FEFF 		bl	usbd_edpt_xfer_fifo
 106              	.LVL9:
 368:/home/pi/Developer/tinyusb/src/tusb.c ****     } else {
 107              		.loc 1 368 14 view .LVU21
 108 003a F4E7     		b	.L2
 109              	.LBE116:
 110              	.LBE115:
 111              		.cfi_endproc
 112              	.LFE461:
 114              		.section	.text.tu_edpt_stream_read_xfer.part.0,"ax",%progbits
 115              		.align	1
 116              		.p2align 2,,3
 117              		.syntax unified
 118              		.thumb
 119              		.thumb_func
 120              		.fpu fpv5-d16
 122              	tu_edpt_stream_read_xfer.part.0:
 123              	.LVL10:
 124              	.LFB472:
 376:/home/pi/Developer/tinyusb/src/tusb.c **** 
 377:/home/pi/Developer/tinyusb/src/tusb.c **** static bool stream_release(tu_edpt_stream_t *s) {
 378:/home/pi/Developer/tinyusb/src/tusb.c ****   if (s->is_host) {
 379:/home/pi/Developer/tinyusb/src/tusb.c ****     #if CFG_TUH_ENABLED
 380:/home/pi/Developer/tinyusb/src/tusb.c ****     return usbh_edpt_release(s->hwid, s->ep_addr);
 381:/home/pi/Developer/tinyusb/src/tusb.c ****   #endif
 382:/home/pi/Developer/tinyusb/src/tusb.c ****   } else {
 383:/home/pi/Developer/tinyusb/src/tusb.c ****     #if CFG_TUD_ENABLED
ARM GAS  /tmp/ccrixPyT.s 			page 10


 384:/home/pi/Developer/tinyusb/src/tusb.c ****     return usbd_edpt_release(s->hwid, s->ep_addr);
 385:/home/pi/Developer/tinyusb/src/tusb.c ****   #endif
 386:/home/pi/Developer/tinyusb/src/tusb.c ****   }
 387:/home/pi/Developer/tinyusb/src/tusb.c ****   return false;
 388:/home/pi/Developer/tinyusb/src/tusb.c **** }
 389:/home/pi/Developer/tinyusb/src/tusb.c **** 
 390:/home/pi/Developer/tinyusb/src/tusb.c **** //--------------------------------------------------------------------+
 391:/home/pi/Developer/tinyusb/src/tusb.c **** // Stream Write
 392:/home/pi/Developer/tinyusb/src/tusb.c **** //--------------------------------------------------------------------+
 393:/home/pi/Developer/tinyusb/src/tusb.c **** bool tu_edpt_stream_write_zlp_if_needed(tu_edpt_stream_t *s, uint32_t last_xferred_bytes) {
 394:/home/pi/Developer/tinyusb/src/tusb.c ****   // ZLP condition: no pending data, last transferred bytes is multiple of packet size
 395:/home/pi/Developer/tinyusb/src/tusb.c ****   TU_VERIFY(tu_fifo_empty(&s->ff) && last_xferred_bytes > 0 && (0 == (last_xferred_bytes & (s->mps 
 396:/home/pi/Developer/tinyusb/src/tusb.c ****   TU_VERIFY(stream_claim(s));
 397:/home/pi/Developer/tinyusb/src/tusb.c ****   TU_ASSERT(stream_xfer(s, 0));
 398:/home/pi/Developer/tinyusb/src/tusb.c ****   return true;
 399:/home/pi/Developer/tinyusb/src/tusb.c **** }
 400:/home/pi/Developer/tinyusb/src/tusb.c **** 
 401:/home/pi/Developer/tinyusb/src/tusb.c **** uint32_t tu_edpt_stream_write_xfer(tu_edpt_stream_t *s) {
 402:/home/pi/Developer/tinyusb/src/tusb.c ****   const uint16_t ff_count = tu_fifo_count(&s->ff);
 403:/home/pi/Developer/tinyusb/src/tusb.c ****   TU_VERIFY(ff_count > 0, 0); // skip if no data
 404:/home/pi/Developer/tinyusb/src/tusb.c ****   TU_VERIFY(stream_claim(s), 0);
 405:/home/pi/Developer/tinyusb/src/tusb.c **** 
 406:/home/pi/Developer/tinyusb/src/tusb.c ****   // Pull data from FIFO -> EP buf
 407:/home/pi/Developer/tinyusb/src/tusb.c ****   uint16_t count;
 408:/home/pi/Developer/tinyusb/src/tusb.c ****   if (s->ep_buf == NULL) {
 409:/home/pi/Developer/tinyusb/src/tusb.c ****     count = tu_fifo_count(&s->ff); // re-get count since fifo can be changed
 410:/home/pi/Developer/tinyusb/src/tusb.c ****   } else {
 411:/home/pi/Developer/tinyusb/src/tusb.c ****     count = tu_fifo_read_n(&s->ff, s->ep_buf, s->xfer_len);
 412:/home/pi/Developer/tinyusb/src/tusb.c ****   }
 413:/home/pi/Developer/tinyusb/src/tusb.c **** 
 414:/home/pi/Developer/tinyusb/src/tusb.c ****   if (count > 0) {
 415:/home/pi/Developer/tinyusb/src/tusb.c ****     TU_ASSERT(stream_xfer(s, count), 0);
 416:/home/pi/Developer/tinyusb/src/tusb.c ****     return count;
 417:/home/pi/Developer/tinyusb/src/tusb.c ****   } else {
 418:/home/pi/Developer/tinyusb/src/tusb.c ****     // Release endpoint since we don't make any transfer
 419:/home/pi/Developer/tinyusb/src/tusb.c ****     // Note: data is dropped if terminal is not connected
 420:/home/pi/Developer/tinyusb/src/tusb.c ****     stream_release(s);
 421:/home/pi/Developer/tinyusb/src/tusb.c ****     return 0;
 422:/home/pi/Developer/tinyusb/src/tusb.c ****   }
 423:/home/pi/Developer/tinyusb/src/tusb.c **** }
 424:/home/pi/Developer/tinyusb/src/tusb.c **** 
 425:/home/pi/Developer/tinyusb/src/tusb.c **** uint32_t tu_edpt_stream_write(tu_edpt_stream_t *s, const void *buffer, uint32_t bufsize) {
 426:/home/pi/Developer/tinyusb/src/tusb.c ****   TU_VERIFY(bufsize > 0);
 427:/home/pi/Developer/tinyusb/src/tusb.c ****   const uint16_t ret = tu_fifo_write_n(&s->ff, buffer, (uint16_t) bufsize);
 428:/home/pi/Developer/tinyusb/src/tusb.c **** 
 429:/home/pi/Developer/tinyusb/src/tusb.c ****   // flush if fifo has more than packet size or
 430:/home/pi/Developer/tinyusb/src/tusb.c ****   // in rare case: fifo depth is configured too small (which never reach packet size)
 431:/home/pi/Developer/tinyusb/src/tusb.c ****   if ((tu_fifo_count(&s->ff) >= s->mps) || (tu_fifo_depth(&s->ff) < s->mps)) {
 432:/home/pi/Developer/tinyusb/src/tusb.c ****     tu_edpt_stream_write_xfer(s);
 433:/home/pi/Developer/tinyusb/src/tusb.c ****   }
 434:/home/pi/Developer/tinyusb/src/tusb.c ****   return ret;
 435:/home/pi/Developer/tinyusb/src/tusb.c **** }
 436:/home/pi/Developer/tinyusb/src/tusb.c **** 
 437:/home/pi/Developer/tinyusb/src/tusb.c **** uint32_t tu_edpt_stream_write_available(tu_edpt_stream_t *s) {
 438:/home/pi/Developer/tinyusb/src/tusb.c ****   return (uint32_t)tu_fifo_remaining(&s->ff);
 439:/home/pi/Developer/tinyusb/src/tusb.c **** }
 440:/home/pi/Developer/tinyusb/src/tusb.c **** 
ARM GAS  /tmp/ccrixPyT.s 			page 11


 441:/home/pi/Developer/tinyusb/src/tusb.c **** //--------------------------------------------------------------------+
 442:/home/pi/Developer/tinyusb/src/tusb.c **** // Stream Read
 443:/home/pi/Developer/tinyusb/src/tusb.c **** //--------------------------------------------------------------------+
 444:/home/pi/Developer/tinyusb/src/tusb.c **** uint32_t tu_edpt_stream_read_xfer(tu_edpt_stream_t *s) {
 125              		.loc 1 444 10 is_stmt 1 view -0
 126              		.cfi_startproc
 127              		@ args = 0, pretend = 0, frame = 0
 128              		@ frame_needed = 0, uses_anonymous_args = 0
 445:/home/pi/Developer/tinyusb/src/tusb.c ****   uint16_t available = tu_fifo_remaining(&s->ff);
 446:/home/pi/Developer/tinyusb/src/tusb.c **** 
 447:/home/pi/Developer/tinyusb/src/tusb.c ****   // Prepare for incoming data but only allow what we can store in the ring buffer.
 448:/home/pi/Developer/tinyusb/src/tusb.c ****   // TODO Actually we can still carry out the transfer, keeping count of received bytes
 449:/home/pi/Developer/tinyusb/src/tusb.c ****   // and slowly move it to the FIFO when read().
 450:/home/pi/Developer/tinyusb/src/tusb.c ****   // This pre-check reduces endpoint claiming
 451:/home/pi/Developer/tinyusb/src/tusb.c ****   TU_VERIFY(available >= s->mps);
 129              		.loc 1 451 3 view .LVU23
 452:/home/pi/Developer/tinyusb/src/tusb.c ****   TU_VERIFY(stream_claim(s), 0);
 130              		.loc 1 452 3 view .LVU24
 131              		.loc 1 452 3 view .LVU25
 132              	.LBB139:
 133              	.LBI139:
 346:/home/pi/Developer/tinyusb/src/tusb.c ****   TU_VERIFY(s->ep_addr != 0); // must be opened
 134              		.loc 1 346 13 view .LVU26
 135              	.LBB140:
 347:/home/pi/Developer/tinyusb/src/tusb.c ****   if (s->is_host) {
 136              		.loc 1 347 3 view .LVU27
 347:/home/pi/Developer/tinyusb/src/tusb.c ****   if (s->is_host) {
 137              		.loc 1 347 3 view .LVU28
 138 0000 8178     		ldrb	r1, [r0, #2]	@ zero_extendqisi2
 139 0002 29B1     		cbz	r1, .L29
 347:/home/pi/Developer/tinyusb/src/tusb.c ****   if (s->is_host) {
 140              		.loc 1 347 3 view .LVU29
 348:/home/pi/Developer/tinyusb/src/tusb.c ****     #if CFG_TUH_ENABLED
 141              		.loc 1 348 3 view .LVU30
 142              	.LBE140:
 143              	.LBE139:
 444:/home/pi/Developer/tinyusb/src/tusb.c ****   uint16_t available = tu_fifo_remaining(&s->ff);
 144              		.loc 1 444 10 is_stmt 0 view .LVU31
 145 0004 38B5     		push	{r3, r4, r5, lr}
 146              		.cfi_def_cfa_offset 16
 147              		.cfi_offset 3, -16
 148              		.cfi_offset 4, -12
 149              		.cfi_offset 5, -8
 150              		.cfi_offset 14, -4
 151              	.LBB143:
 152              	.LBB141:
 348:/home/pi/Developer/tinyusb/src/tusb.c ****     #if CFG_TUH_ENABLED
 153              		.loc 1 348 6 view .LVU32
 154 0006 4378     		ldrb	r3, [r0, #1]	@ zero_extendqisi2
 155 0008 0446     		mov	r4, r0
 156 000a 1BB1     		cbz	r3, .L30
 157              	.LVL11:
 158              	.L13:
 348:/home/pi/Developer/tinyusb/src/tusb.c ****     #if CFG_TUH_ENABLED
 159              		.loc 1 348 6 view .LVU33
 160              	.LBE141:
 161              	.LBE143:
ARM GAS  /tmp/ccrixPyT.s 			page 12


 162              		.loc 1 452 3 view .LVU34
 163 000c 0020     		movs	r0, #0
 453:/home/pi/Developer/tinyusb/src/tusb.c ****   available = tu_fifo_remaining(&s->ff); // re-get available since fifo can be changed
 454:/home/pi/Developer/tinyusb/src/tusb.c **** 
 455:/home/pi/Developer/tinyusb/src/tusb.c ****   if (available >= s->mps) {
 456:/home/pi/Developer/tinyusb/src/tusb.c ****     // multiple of packet size limit by ep bufsize
 457:/home/pi/Developer/tinyusb/src/tusb.c ****     uint16_t count = (uint16_t) (available & ~(s->mps - 1));
 458:/home/pi/Developer/tinyusb/src/tusb.c ****     count = tu_min16(count, s->xfer_len);
 459:/home/pi/Developer/tinyusb/src/tusb.c ****     TU_ASSERT(stream_xfer(s, count), 0);
 460:/home/pi/Developer/tinyusb/src/tusb.c ****     return count;
 461:/home/pi/Developer/tinyusb/src/tusb.c ****   } else {
 462:/home/pi/Developer/tinyusb/src/tusb.c ****     // Release endpoint since we don't make any transfer
 463:/home/pi/Developer/tinyusb/src/tusb.c ****     stream_release(s);
 464:/home/pi/Developer/tinyusb/src/tusb.c ****     return 0;
 465:/home/pi/Developer/tinyusb/src/tusb.c ****   }
 466:/home/pi/Developer/tinyusb/src/tusb.c **** }
 164              		.loc 1 466 1 view .LVU35
 165 000e 38BD     		pop	{r3, r4, r5, pc}
 166              	.LVL12:
 167              	.L29:
 168              		.cfi_def_cfa_offset 0
 169              		.cfi_restore 3
 170              		.cfi_restore 4
 171              		.cfi_restore 5
 172              		.cfi_restore 14
 452:/home/pi/Developer/tinyusb/src/tusb.c ****   available = tu_fifo_remaining(&s->ff); // re-get available since fifo can be changed
 173              		.loc 1 452 3 view .LVU36
 174 0010 0020     		movs	r0, #0
 175              	.LVL13:
 176              		.loc 1 466 1 view .LVU37
 177 0012 7047     		bx	lr
 178              	.LVL14:
 179              	.L30:
 180              		.cfi_def_cfa_offset 16
 181              		.cfi_offset 3, -16
 182              		.cfi_offset 4, -12
 183              		.cfi_offset 5, -8
 184              		.cfi_offset 14, -4
 185              	.LBB144:
 186              	.LBB142:
 354:/home/pi/Developer/tinyusb/src/tusb.c ****   #endif
 187              		.loc 1 354 5 is_stmt 1 view .LVU38
 354:/home/pi/Developer/tinyusb/src/tusb.c ****   #endif
 188              		.loc 1 354 12 is_stmt 0 view .LVU39
 189 0014 0078     		ldrb	r0, [r0]	@ zero_extendqisi2
 190              	.LVL15:
 354:/home/pi/Developer/tinyusb/src/tusb.c ****   #endif
 191              		.loc 1 354 12 view .LVU40
 192 0016 FFF7FEFF 		bl	usbd_edpt_claim
 193              	.LVL16:
 354:/home/pi/Developer/tinyusb/src/tusb.c ****   #endif
 194              		.loc 1 354 12 view .LVU41
 195              	.LBE142:
 196              	.LBE144:
 452:/home/pi/Developer/tinyusb/src/tusb.c ****   available = tu_fifo_remaining(&s->ff); // re-get available since fifo can be changed
 197              		.loc 1 452 3 view .LVU42
 198 001a 0028     		cmp	r0, #0
ARM GAS  /tmp/ccrixPyT.s 			page 13


 199 001c F6D0     		beq	.L13
 452:/home/pi/Developer/tinyusb/src/tusb.c ****   available = tu_fifo_remaining(&s->ff); // re-get available since fifo can be changed
 200              		.loc 1 452 3 is_stmt 1 view .LVU43
 453:/home/pi/Developer/tinyusb/src/tusb.c ****   available = tu_fifo_remaining(&s->ff); // re-get available since fifo can be changed
 201              		.loc 1 453 3 view .LVU44
 202              	.LVL17:
 203              	.LBB145:
 204              	.LBI145:
 205              		.file 2 "/home/pi/Developer/tinyusb/src/common/tusb_fifo.h"
   1:/home/pi/Developer/tinyusb/src/common/tusb_fifo.h **** /*
   2:/home/pi/Developer/tinyusb/src/common/tusb_fifo.h ****  * The MIT License (MIT)
   3:/home/pi/Developer/tinyusb/src/common/tusb_fifo.h ****  *
   4:/home/pi/Developer/tinyusb/src/common/tusb_fifo.h ****  * Copyright (c) 2019 Ha Thach (tinyusb.org)
   5:/home/pi/Developer/tinyusb/src/common/tusb_fifo.h ****  * Copyright (c) 2020 Reinhard Panhuber - rework to unmasked pointers
   6:/home/pi/Developer/tinyusb/src/common/tusb_fifo.h ****  *
   7:/home/pi/Developer/tinyusb/src/common/tusb_fifo.h ****  * Permission is hereby granted, free of charge, to any person obtaining a copy
   8:/home/pi/Developer/tinyusb/src/common/tusb_fifo.h ****  * of this software and associated documentation files (the "Software"), to deal
   9:/home/pi/Developer/tinyusb/src/common/tusb_fifo.h ****  * in the Software without restriction, including without limitation the rights
  10:/home/pi/Developer/tinyusb/src/common/tusb_fifo.h ****  * to use, copy, modify, merge, publish, distribute, sublicense, and/or sell
  11:/home/pi/Developer/tinyusb/src/common/tusb_fifo.h ****  * copies of the Software, and to permit persons to whom the Software is
  12:/home/pi/Developer/tinyusb/src/common/tusb_fifo.h ****  * furnished to do so, subject to the following conditions:
  13:/home/pi/Developer/tinyusb/src/common/tusb_fifo.h ****  *
  14:/home/pi/Developer/tinyusb/src/common/tusb_fifo.h ****  * The above copyright notice and this permission notice shall be included in
  15:/home/pi/Developer/tinyusb/src/common/tusb_fifo.h ****  * all copies or substantial portions of the Software.
  16:/home/pi/Developer/tinyusb/src/common/tusb_fifo.h ****  *
  17:/home/pi/Developer/tinyusb/src/common/tusb_fifo.h ****  * THE SOFTWARE IS PROVIDED "AS IS", WITHOUT WARRANTY OF ANY KIND, EXPRESS OR
  18:/home/pi/Developer/tinyusb/src/common/tusb_fifo.h ****  * IMPLIED, INCLUDING BUT NOT LIMITED TO THE WARRANTIES OF MERCHANTABILITY,
  19:/home/pi/Developer/tinyusb/src/common/tusb_fifo.h ****  * FITNESS FOR A PARTICULAR PURPOSE AND NONINFRINGEMENT. IN NO EVENT SHALL THE
  20:/home/pi/Developer/tinyusb/src/common/tusb_fifo.h ****  * AUTHORS OR COPYRIGHT HOLDERS BE LIABLE FOR ANY CLAIM, DAMAGES OR OTHER
  21:/home/pi/Developer/tinyusb/src/common/tusb_fifo.h ****  * LIABILITY, WHETHER IN AN ACTION OF CONTRACT, TORT OR OTHERWISE, ARISING FROM,
  22:/home/pi/Developer/tinyusb/src/common/tusb_fifo.h ****  * OUT OF OR IN CONNECTION WITH THE SOFTWARE OR THE USE OR OTHER DEALINGS IN
  23:/home/pi/Developer/tinyusb/src/common/tusb_fifo.h ****  * THE SOFTWARE.
  24:/home/pi/Developer/tinyusb/src/common/tusb_fifo.h ****  *
  25:/home/pi/Developer/tinyusb/src/common/tusb_fifo.h ****  * This file is part of the TinyUSB stack.
  26:/home/pi/Developer/tinyusb/src/common/tusb_fifo.h ****  */
  27:/home/pi/Developer/tinyusb/src/common/tusb_fifo.h **** 
  28:/home/pi/Developer/tinyusb/src/common/tusb_fifo.h **** #ifndef TUSB_FIFO_H_
  29:/home/pi/Developer/tinyusb/src/common/tusb_fifo.h **** #define TUSB_FIFO_H_
  30:/home/pi/Developer/tinyusb/src/common/tusb_fifo.h **** 
  31:/home/pi/Developer/tinyusb/src/common/tusb_fifo.h **** #ifdef __cplusplus
  32:/home/pi/Developer/tinyusb/src/common/tusb_fifo.h **** extern "C" {
  33:/home/pi/Developer/tinyusb/src/common/tusb_fifo.h **** #endif
  34:/home/pi/Developer/tinyusb/src/common/tusb_fifo.h **** 
  35:/home/pi/Developer/tinyusb/src/common/tusb_fifo.h **** #include "common/tusb_common.h"
  36:/home/pi/Developer/tinyusb/src/common/tusb_fifo.h **** #include "osal/osal.h"
  37:/home/pi/Developer/tinyusb/src/common/tusb_fifo.h **** 
  38:/home/pi/Developer/tinyusb/src/common/tusb_fifo.h **** //--------------------------------------------------------------------+
  39:/home/pi/Developer/tinyusb/src/common/tusb_fifo.h **** // Configuration
  40:/home/pi/Developer/tinyusb/src/common/tusb_fifo.h **** //--------------------------------------------------------------------+
  41:/home/pi/Developer/tinyusb/src/common/tusb_fifo.h **** // mutex is only needed for RTOS. For OS None, we don't get preempted
  42:/home/pi/Developer/tinyusb/src/common/tusb_fifo.h **** #define CFG_FIFO_MUTEX      OSAL_MUTEX_REQUIRED
  43:/home/pi/Developer/tinyusb/src/common/tusb_fifo.h **** 
  44:/home/pi/Developer/tinyusb/src/common/tusb_fifo.h **** #define CFG_TUSB_FIFO_HWFIFO_API (CFG_TUD_EDPT_DEDICATED_HWFIFO || CFG_TUH_EDPT_DEDICATED_HWFIFO)
  45:/home/pi/Developer/tinyusb/src/common/tusb_fifo.h **** 
  46:/home/pi/Developer/tinyusb/src/common/tusb_fifo.h **** #ifndef CFG_TUSB_FIFO_HWFIFO_DATA_STRIDE
  47:/home/pi/Developer/tinyusb/src/common/tusb_fifo.h ****   #define CFG_TUSB_FIFO_HWFIFO_DATA_STRIDE 0
  48:/home/pi/Developer/tinyusb/src/common/tusb_fifo.h **** #endif
ARM GAS  /tmp/ccrixPyT.s 			page 14


  49:/home/pi/Developer/tinyusb/src/common/tusb_fifo.h **** 
  50:/home/pi/Developer/tinyusb/src/common/tusb_fifo.h **** #ifndef CFG_TUSB_FIFO_HWFIFO_ADDR_STRIDE
  51:/home/pi/Developer/tinyusb/src/common/tusb_fifo.h ****   #define CFG_TUSB_FIFO_HWFIFO_ADDR_STRIDE 0
  52:/home/pi/Developer/tinyusb/src/common/tusb_fifo.h **** #endif
  53:/home/pi/Developer/tinyusb/src/common/tusb_fifo.h **** 
  54:/home/pi/Developer/tinyusb/src/common/tusb_fifo.h **** // Due to the use of unmasked pointers, this FIFO does not suffer from losing
  55:/home/pi/Developer/tinyusb/src/common/tusb_fifo.h **** // one item slice. Furthermore, write and read operations are completely
  56:/home/pi/Developer/tinyusb/src/common/tusb_fifo.h **** // decoupled as write and read functions do not modify a common state. Henceforth,
  57:/home/pi/Developer/tinyusb/src/common/tusb_fifo.h **** // writing or reading from the FIFO within an ISR is safe as long as no other
  58:/home/pi/Developer/tinyusb/src/common/tusb_fifo.h **** // process (thread or ISR) interferes.
  59:/home/pi/Developer/tinyusb/src/common/tusb_fifo.h **** // Also, this FIFO is ready to be used in combination with a DMA as the write and
  60:/home/pi/Developer/tinyusb/src/common/tusb_fifo.h **** // read pointers can be updated from within a DMA ISR. Overflows are detectable
  61:/home/pi/Developer/tinyusb/src/common/tusb_fifo.h **** // within a certain number (see tu_fifo_overflow()).
  62:/home/pi/Developer/tinyusb/src/common/tusb_fifo.h **** 
  63:/home/pi/Developer/tinyusb/src/common/tusb_fifo.h **** /* Write/Read "pointer" is in the range of: 0 .. depth - 1, and is used to get the fifo data.
  64:/home/pi/Developer/tinyusb/src/common/tusb_fifo.h ****  * Write/Read "index" is always in the range of: 0 .. 2*depth-1
  65:/home/pi/Developer/tinyusb/src/common/tusb_fifo.h ****  *
  66:/home/pi/Developer/tinyusb/src/common/tusb_fifo.h ****  * The extra window allow us to determine the fifo state of empty or full with only 2 indices
  67:/home/pi/Developer/tinyusb/src/common/tusb_fifo.h ****  * Following are examples with depth = 3
  68:/home/pi/Developer/tinyusb/src/common/tusb_fifo.h ****  *
  69:/home/pi/Developer/tinyusb/src/common/tusb_fifo.h ****  * - empty: W = R
  70:/home/pi/Developer/tinyusb/src/common/tusb_fifo.h ****  *                |
  71:/home/pi/Developer/tinyusb/src/common/tusb_fifo.h ****  *    -------------------------
  72:/home/pi/Developer/tinyusb/src/common/tusb_fifo.h ****  *    | 0 | RW| 2 | 3 | 4 | 5 |
  73:/home/pi/Developer/tinyusb/src/common/tusb_fifo.h ****  *
  74:/home/pi/Developer/tinyusb/src/common/tusb_fifo.h ****  * - full 1: W > R
  75:/home/pi/Developer/tinyusb/src/common/tusb_fifo.h ****  *                |
  76:/home/pi/Developer/tinyusb/src/common/tusb_fifo.h ****  *    -------------------------
  77:/home/pi/Developer/tinyusb/src/common/tusb_fifo.h ****  *    | 0 | R | 2 | 3 | W | 5 |
  78:/home/pi/Developer/tinyusb/src/common/tusb_fifo.h ****  *
  79:/home/pi/Developer/tinyusb/src/common/tusb_fifo.h ****  * - full 2: W < R
  80:/home/pi/Developer/tinyusb/src/common/tusb_fifo.h ****  *                |
  81:/home/pi/Developer/tinyusb/src/common/tusb_fifo.h ****  *    -------------------------
  82:/home/pi/Developer/tinyusb/src/common/tusb_fifo.h ****  *    | 0 | 1 | W | 3 | 4 | R |
  83:/home/pi/Developer/tinyusb/src/common/tusb_fifo.h ****  *
  84:/home/pi/Developer/tinyusb/src/common/tusb_fifo.h ****  * - Number of items in the fifo can be determined in either cases:
  85:/home/pi/Developer/tinyusb/src/common/tusb_fifo.h ****  *    - case W >= R: Count = W - R
  86:/home/pi/Developer/tinyusb/src/common/tusb_fifo.h ****  *    - case W <  R: Count = 2*depth - (R - W)
  87:/home/pi/Developer/tinyusb/src/common/tusb_fifo.h ****  *
  88:/home/pi/Developer/tinyusb/src/common/tusb_fifo.h ****  * In non-overwritable mode, computed Count (in above 2 cases) is at most equal to depth.
  89:/home/pi/Developer/tinyusb/src/common/tusb_fifo.h ****  * However, in over-writable mode, write index can be repeatedly increased and count can be
  90:/home/pi/Developer/tinyusb/src/common/tusb_fifo.h ****  * temporarily larger than depth (overflowed condition) e.g
  91:/home/pi/Developer/tinyusb/src/common/tusb_fifo.h ****  *
  92:/home/pi/Developer/tinyusb/src/common/tusb_fifo.h ****  *  - Overflowed 1: write(3), write(1)
  93:/home/pi/Developer/tinyusb/src/common/tusb_fifo.h ****  *    In this case we will adjust Read index when read()/peek() is called so that count = depth.
  94:/home/pi/Developer/tinyusb/src/common/tusb_fifo.h ****  *                  |
  95:/home/pi/Developer/tinyusb/src/common/tusb_fifo.h ****  *      -------------------------
  96:/home/pi/Developer/tinyusb/src/common/tusb_fifo.h ****  *      | R | 1 | 2 | 3 | W | 5 |
  97:/home/pi/Developer/tinyusb/src/common/tusb_fifo.h ****  *
  98:/home/pi/Developer/tinyusb/src/common/tusb_fifo.h ****  *  - Double Overflowed i.e index is out of allowed range [0,2*depth)
  99:/home/pi/Developer/tinyusb/src/common/tusb_fifo.h ****  *    This occurs when we continue to write after 1st overflowed to 2nd overflowed. e.g:
 100:/home/pi/Developer/tinyusb/src/common/tusb_fifo.h ****  *      write(3), write(1), write(2)
 101:/home/pi/Developer/tinyusb/src/common/tusb_fifo.h ****  *    This must be prevented since it will cause unrecoverable state, in above example
 102:/home/pi/Developer/tinyusb/src/common/tusb_fifo.h ****  *    if not handled the fifo will be empty instead of continue-to-be full. Since we must not modif
 103:/home/pi/Developer/tinyusb/src/common/tusb_fifo.h ****  *    read index in write() function, which cause race condition. We will re-position write index s
 104:/home/pi/Developer/tinyusb/src/common/tusb_fifo.h ****  *    after data is written it is a full fifo i.e W = depth - R
 105:/home/pi/Developer/tinyusb/src/common/tusb_fifo.h ****  *
ARM GAS  /tmp/ccrixPyT.s 			page 15


 106:/home/pi/Developer/tinyusb/src/common/tusb_fifo.h ****  *      re-position W = 1 before write(2)
 107:/home/pi/Developer/tinyusb/src/common/tusb_fifo.h ****  *      Note: we should also move data from mem[3] to read index as well, but deliberately skipped 
 108:/home/pi/Developer/tinyusb/src/common/tusb_fifo.h ****  *      since it is an expensive operation !!!
 109:/home/pi/Developer/tinyusb/src/common/tusb_fifo.h ****  *                  |
 110:/home/pi/Developer/tinyusb/src/common/tusb_fifo.h ****  *      -------------------------
 111:/home/pi/Developer/tinyusb/src/common/tusb_fifo.h ****  *      | R | W | 2 | 3 | 4 | 5 |
 112:/home/pi/Developer/tinyusb/src/common/tusb_fifo.h ****  *
 113:/home/pi/Developer/tinyusb/src/common/tusb_fifo.h ****  *      perform write(2), result is still a full fifo.
 114:/home/pi/Developer/tinyusb/src/common/tusb_fifo.h ****  *
 115:/home/pi/Developer/tinyusb/src/common/tusb_fifo.h ****  *                  |
 116:/home/pi/Developer/tinyusb/src/common/tusb_fifo.h ****  *      -------------------------
 117:/home/pi/Developer/tinyusb/src/common/tusb_fifo.h ****  *      | R | 1 | 2 | W | 4 | 5 |
 118:/home/pi/Developer/tinyusb/src/common/tusb_fifo.h ****  */
 119:/home/pi/Developer/tinyusb/src/common/tusb_fifo.h **** typedef struct {
 120:/home/pi/Developer/tinyusb/src/common/tusb_fifo.h ****   uint8_t *buffer;              // buffer pointer
 121:/home/pi/Developer/tinyusb/src/common/tusb_fifo.h ****   uint16_t depth;               // max items
 122:/home/pi/Developer/tinyusb/src/common/tusb_fifo.h ****   bool     overwritable;        // overwritable when full
 123:/home/pi/Developer/tinyusb/src/common/tusb_fifo.h ****   // 1 byte padding here
 124:/home/pi/Developer/tinyusb/src/common/tusb_fifo.h **** 
 125:/home/pi/Developer/tinyusb/src/common/tusb_fifo.h ****   volatile uint16_t wr_idx;     // write index
 126:/home/pi/Developer/tinyusb/src/common/tusb_fifo.h ****   volatile uint16_t rd_idx;     // read index
 127:/home/pi/Developer/tinyusb/src/common/tusb_fifo.h **** 
 128:/home/pi/Developer/tinyusb/src/common/tusb_fifo.h **** #if OSAL_MUTEX_REQUIRED
 129:/home/pi/Developer/tinyusb/src/common/tusb_fifo.h ****   osal_mutex_t mutex_wr;
 130:/home/pi/Developer/tinyusb/src/common/tusb_fifo.h ****   osal_mutex_t mutex_rd;
 131:/home/pi/Developer/tinyusb/src/common/tusb_fifo.h **** #endif
 132:/home/pi/Developer/tinyusb/src/common/tusb_fifo.h **** } tu_fifo_t;
 133:/home/pi/Developer/tinyusb/src/common/tusb_fifo.h **** 
 134:/home/pi/Developer/tinyusb/src/common/tusb_fifo.h **** typedef struct {
 135:/home/pi/Developer/tinyusb/src/common/tusb_fifo.h ****   struct {
 136:/home/pi/Developer/tinyusb/src/common/tusb_fifo.h ****     uint16_t len; // length
 137:/home/pi/Developer/tinyusb/src/common/tusb_fifo.h ****     uint8_t *ptr; // buffer pointer
 138:/home/pi/Developer/tinyusb/src/common/tusb_fifo.h ****   } linear, wrapped;
 139:/home/pi/Developer/tinyusb/src/common/tusb_fifo.h **** } tu_fifo_buffer_info_t;
 140:/home/pi/Developer/tinyusb/src/common/tusb_fifo.h **** 
 141:/home/pi/Developer/tinyusb/src/common/tusb_fifo.h **** // Access mode for hardware fifo read/write
 142:/home/pi/Developer/tinyusb/src/common/tusb_fifo.h **** typedef struct {
 143:/home/pi/Developer/tinyusb/src/common/tusb_fifo.h ****   uint8_t   data_stride;
 144:/home/pi/Developer/tinyusb/src/common/tusb_fifo.h ****   uintptr_t param;
 145:/home/pi/Developer/tinyusb/src/common/tusb_fifo.h **** } tu_hwfifo_access_t;
 146:/home/pi/Developer/tinyusb/src/common/tusb_fifo.h **** 
 147:/home/pi/Developer/tinyusb/src/common/tusb_fifo.h **** #define TU_FIFO_INIT(_buffer, _depth, _overwritable) \
 148:/home/pi/Developer/tinyusb/src/common/tusb_fifo.h ****   {                                                  \
 149:/home/pi/Developer/tinyusb/src/common/tusb_fifo.h ****     .buffer       = _buffer,                         \
 150:/home/pi/Developer/tinyusb/src/common/tusb_fifo.h ****     .depth        = _depth,                          \
 151:/home/pi/Developer/tinyusb/src/common/tusb_fifo.h ****     .overwritable = _overwritable,                   \
 152:/home/pi/Developer/tinyusb/src/common/tusb_fifo.h ****   }
 153:/home/pi/Developer/tinyusb/src/common/tusb_fifo.h **** 
 154:/home/pi/Developer/tinyusb/src/common/tusb_fifo.h **** #define TU_FIFO_DEF(_name, _depth, _overwritable)                    \
 155:/home/pi/Developer/tinyusb/src/common/tusb_fifo.h ****   uint8_t   _name##_buf[_depth];                                     \
 156:/home/pi/Developer/tinyusb/src/common/tusb_fifo.h ****   tu_fifo_t _name = TU_FIFO_INIT(_name##_buf, _depth, _overwritable)
 157:/home/pi/Developer/tinyusb/src/common/tusb_fifo.h **** 
 158:/home/pi/Developer/tinyusb/src/common/tusb_fifo.h **** // Moving data from tusb_fifo <-> USB hardware FIFOs e.g. STM32s need to use a special stride mode 
 159:/home/pi/Developer/tinyusb/src/common/tusb_fifo.h **** // data in 2/4 byte chunks from/to a fixed address (USB FIFO register) instead of incrementing the 
 160:/home/pi/Developer/tinyusb/src/common/tusb_fifo.h **** // read/write access_mode with stride_mode = true. The STRIDE DATA and ADDR stride must be configur
 161:/home/pi/Developer/tinyusb/src/common/tusb_fifo.h **** // CFG_TUSB_FIFO_HWFIFO_DATA_STRIDE and CFG_TUSB_FIFO_HWFIFO_ADDR_STRIDE
 162:/home/pi/Developer/tinyusb/src/common/tusb_fifo.h **** 
ARM GAS  /tmp/ccrixPyT.s 			page 16


 163:/home/pi/Developer/tinyusb/src/common/tusb_fifo.h **** //--------------------------------------------------------------------+
 164:/home/pi/Developer/tinyusb/src/common/tusb_fifo.h **** // Setup API
 165:/home/pi/Developer/tinyusb/src/common/tusb_fifo.h **** //--------------------------------------------------------------------+
 166:/home/pi/Developer/tinyusb/src/common/tusb_fifo.h **** bool tu_fifo_config(tu_fifo_t *f, void *buffer, uint16_t depth, bool overwritable);
 167:/home/pi/Developer/tinyusb/src/common/tusb_fifo.h **** void tu_fifo_set_overwritable(tu_fifo_t *f, bool overwritable);
 168:/home/pi/Developer/tinyusb/src/common/tusb_fifo.h **** void tu_fifo_clear(tu_fifo_t *f);
 169:/home/pi/Developer/tinyusb/src/common/tusb_fifo.h **** 
 170:/home/pi/Developer/tinyusb/src/common/tusb_fifo.h **** #if OSAL_MUTEX_REQUIRED
 171:/home/pi/Developer/tinyusb/src/common/tusb_fifo.h **** TU_ATTR_ALWAYS_INLINE static inline
 172:/home/pi/Developer/tinyusb/src/common/tusb_fifo.h **** void tu_fifo_config_mutex(tu_fifo_t *f, osal_mutex_t wr_mutex, osal_mutex_t rd_mutex) {
 173:/home/pi/Developer/tinyusb/src/common/tusb_fifo.h ****   f->mutex_wr = wr_mutex;
 174:/home/pi/Developer/tinyusb/src/common/tusb_fifo.h ****   f->mutex_rd = rd_mutex;
 175:/home/pi/Developer/tinyusb/src/common/tusb_fifo.h **** }
 176:/home/pi/Developer/tinyusb/src/common/tusb_fifo.h **** #else
 177:/home/pi/Developer/tinyusb/src/common/tusb_fifo.h **** #define tu_fifo_config_mutex(_f, _wr_mutex, _rd_mutex)
 178:/home/pi/Developer/tinyusb/src/common/tusb_fifo.h **** #endif
 179:/home/pi/Developer/tinyusb/src/common/tusb_fifo.h **** 
 180:/home/pi/Developer/tinyusb/src/common/tusb_fifo.h **** //--------------------------------------------------------------------+
 181:/home/pi/Developer/tinyusb/src/common/tusb_fifo.h **** // Index API
 182:/home/pi/Developer/tinyusb/src/common/tusb_fifo.h **** //--------------------------------------------------------------------+
 183:/home/pi/Developer/tinyusb/src/common/tusb_fifo.h **** void tu_fifo_correct_read_pointer(tu_fifo_t *f);
 184:/home/pi/Developer/tinyusb/src/common/tusb_fifo.h **** 
 185:/home/pi/Developer/tinyusb/src/common/tusb_fifo.h **** // Pointer modifications intended to be used in combinations with DMAs.
 186:/home/pi/Developer/tinyusb/src/common/tusb_fifo.h **** // USE WITH CARE - NO SAFETY CHECKS CONDUCTED HERE! NOT MUTEX PROTECTED!
 187:/home/pi/Developer/tinyusb/src/common/tusb_fifo.h **** void tu_fifo_advance_write_pointer(tu_fifo_t *f, uint16_t n);
 188:/home/pi/Developer/tinyusb/src/common/tusb_fifo.h **** void tu_fifo_advance_read_pointer(tu_fifo_t *f, uint16_t n);
 189:/home/pi/Developer/tinyusb/src/common/tusb_fifo.h **** 
 190:/home/pi/Developer/tinyusb/src/common/tusb_fifo.h **** // If you want to read/write from/to the FIFO by use of a DMA, you may need to conduct two copies
 191:/home/pi/Developer/tinyusb/src/common/tusb_fifo.h **** // to handle a possible wrapping part. These functions deliver a pointer to start
 192:/home/pi/Developer/tinyusb/src/common/tusb_fifo.h **** // reading/writing from/to and a valid linear length along which no wrap occurs.
 193:/home/pi/Developer/tinyusb/src/common/tusb_fifo.h **** void tu_fifo_get_read_info(tu_fifo_t *f, tu_fifo_buffer_info_t *info);
 194:/home/pi/Developer/tinyusb/src/common/tusb_fifo.h **** void tu_fifo_get_write_info(tu_fifo_t *f, tu_fifo_buffer_info_t *info);
 195:/home/pi/Developer/tinyusb/src/common/tusb_fifo.h **** 
 196:/home/pi/Developer/tinyusb/src/common/tusb_fifo.h **** //--------------------------------------------------------------------+
 197:/home/pi/Developer/tinyusb/src/common/tusb_fifo.h **** // Peek API
 198:/home/pi/Developer/tinyusb/src/common/tusb_fifo.h **** // peek() will correct/re-index read pointer in case of an overflowed fifo to form a full fifo
 199:/home/pi/Developer/tinyusb/src/common/tusb_fifo.h **** //--------------------------------------------------------------------+
 200:/home/pi/Developer/tinyusb/src/common/tusb_fifo.h **** uint16_t tu_fifo_peek_n_access_mode(tu_fifo_t *f, void *p_buffer, uint16_t n, uint16_t wr_idx, uint
 201:/home/pi/Developer/tinyusb/src/common/tusb_fifo.h ****                                     const tu_hwfifo_access_t *access_mode);
 202:/home/pi/Developer/tinyusb/src/common/tusb_fifo.h **** bool     tu_fifo_peek(tu_fifo_t *f, void *p_buffer);
 203:/home/pi/Developer/tinyusb/src/common/tusb_fifo.h **** uint16_t tu_fifo_peek_n(tu_fifo_t *f, void *p_buffer, uint16_t n);
 204:/home/pi/Developer/tinyusb/src/common/tusb_fifo.h **** 
 205:/home/pi/Developer/tinyusb/src/common/tusb_fifo.h **** //--------------------------------------------------------------------+
 206:/home/pi/Developer/tinyusb/src/common/tusb_fifo.h **** // Read API
 207:/home/pi/Developer/tinyusb/src/common/tusb_fifo.h **** // peek() + advance read index
 208:/home/pi/Developer/tinyusb/src/common/tusb_fifo.h **** //--------------------------------------------------------------------+
 209:/home/pi/Developer/tinyusb/src/common/tusb_fifo.h **** uint16_t tu_fifo_read_n_access_mode(tu_fifo_t *f, void *buffer, uint16_t n, const tu_hwfifo_access_
 210:/home/pi/Developer/tinyusb/src/common/tusb_fifo.h **** bool     tu_fifo_read(tu_fifo_t *f, void *buffer);
 211:/home/pi/Developer/tinyusb/src/common/tusb_fifo.h **** TU_ATTR_ALWAYS_INLINE static inline uint16_t tu_fifo_read_n(tu_fifo_t *f, void *buffer, uint16_t n)
 212:/home/pi/Developer/tinyusb/src/common/tusb_fifo.h ****   return tu_fifo_read_n_access_mode(f, buffer, n, NULL);
 213:/home/pi/Developer/tinyusb/src/common/tusb_fifo.h **** }
 214:/home/pi/Developer/tinyusb/src/common/tusb_fifo.h **** 
 215:/home/pi/Developer/tinyusb/src/common/tusb_fifo.h **** // discard first n items from fifo i.e advance read pointer by n with mutex
 216:/home/pi/Developer/tinyusb/src/common/tusb_fifo.h **** // return number of discarded items
 217:/home/pi/Developer/tinyusb/src/common/tusb_fifo.h **** uint16_t tu_fifo_discard_n(tu_fifo_t *f, uint16_t n);
 218:/home/pi/Developer/tinyusb/src/common/tusb_fifo.h **** 
 219:/home/pi/Developer/tinyusb/src/common/tusb_fifo.h **** //--------------------------------------------------------------------+
ARM GAS  /tmp/ccrixPyT.s 			page 17


 220:/home/pi/Developer/tinyusb/src/common/tusb_fifo.h **** // Write API
 221:/home/pi/Developer/tinyusb/src/common/tusb_fifo.h **** //--------------------------------------------------------------------+
 222:/home/pi/Developer/tinyusb/src/common/tusb_fifo.h **** uint16_t tu_fifo_write_n_access_mode(tu_fifo_t *f, const void *data, uint16_t n, const tu_hwfifo_ac
 223:/home/pi/Developer/tinyusb/src/common/tusb_fifo.h **** bool     tu_fifo_write(tu_fifo_t *f, const void *data);
 224:/home/pi/Developer/tinyusb/src/common/tusb_fifo.h **** TU_ATTR_ALWAYS_INLINE static inline uint16_t tu_fifo_write_n(tu_fifo_t *f, const void *data, uint16
 225:/home/pi/Developer/tinyusb/src/common/tusb_fifo.h ****   return tu_fifo_write_n_access_mode(f, data, n, NULL);
 226:/home/pi/Developer/tinyusb/src/common/tusb_fifo.h **** }
 227:/home/pi/Developer/tinyusb/src/common/tusb_fifo.h **** 
 228:/home/pi/Developer/tinyusb/src/common/tusb_fifo.h **** //--------------------------------------------------------------------+
 229:/home/pi/Developer/tinyusb/src/common/tusb_fifo.h **** // Hardware FIFO API
 230:/home/pi/Developer/tinyusb/src/common/tusb_fifo.h **** // Special hardware FIFO/Buffer to hold USB data, usually requires certain access method these can 
 231:/home/pi/Developer/tinyusb/src/common/tusb_fifo.h **** // CFG_TUSB_FIFO_HWFIFO_DATA_STRIDE (data width) and CFG_TUSB_FIFO_HWFIFO_ADDR_STRIDE (address incr
 232:/home/pi/Developer/tinyusb/src/common/tusb_fifo.h **** // Note: these usually has opposite direction (read/write) to/from our software FIFO  (tu_fifo_t)
 233:/home/pi/Developer/tinyusb/src/common/tusb_fifo.h **** //--------------------------------------------------------------------+
 234:/home/pi/Developer/tinyusb/src/common/tusb_fifo.h **** TU_ATTR_ALWAYS_INLINE static inline uint16_t tu_hwfifo_write_from_fifo(volatile void *hwfifo, tu_fi
 235:/home/pi/Developer/tinyusb/src/common/tusb_fifo.h ****                                                                        const tu_hwfifo_access_t *ac
 236:/home/pi/Developer/tinyusb/src/common/tusb_fifo.h ****   const tu_hwfifo_access_t default_access = {.data_stride = CFG_TUSB_FIFO_HWFIFO_DATA_STRIDE, .para
 237:/home/pi/Developer/tinyusb/src/common/tusb_fifo.h ****   return tu_fifo_read_n_access_mode(f, (void *)(uintptr_t)hwfifo, n,
 238:/home/pi/Developer/tinyusb/src/common/tusb_fifo.h ****                                     (access_mode != NULL) ? access_mode : &default_access);
 239:/home/pi/Developer/tinyusb/src/common/tusb_fifo.h **** }
 240:/home/pi/Developer/tinyusb/src/common/tusb_fifo.h **** 
 241:/home/pi/Developer/tinyusb/src/common/tusb_fifo.h **** TU_ATTR_ALWAYS_INLINE static inline uint16_t tu_hwfifo_read_to_fifo(const volatile void *hwfifo, tu
 242:/home/pi/Developer/tinyusb/src/common/tusb_fifo.h ****                                                                     uint16_t n, const tu_hwfifo_acc
 243:/home/pi/Developer/tinyusb/src/common/tusb_fifo.h ****   const tu_hwfifo_access_t default_access = {.data_stride = CFG_TUSB_FIFO_HWFIFO_DATA_STRIDE, .para
 244:/home/pi/Developer/tinyusb/src/common/tusb_fifo.h ****   return tu_fifo_write_n_access_mode(f, (const void *)(uintptr_t)hwfifo, n,
 245:/home/pi/Developer/tinyusb/src/common/tusb_fifo.h ****                                      (access_mode != NULL) ? access_mode : &default_access);
 246:/home/pi/Developer/tinyusb/src/common/tusb_fifo.h **** }
 247:/home/pi/Developer/tinyusb/src/common/tusb_fifo.h **** 
 248:/home/pi/Developer/tinyusb/src/common/tusb_fifo.h **** #if CFG_TUSB_FIFO_HWFIFO_API
 249:/home/pi/Developer/tinyusb/src/common/tusb_fifo.h **** // read from hwfifo to buffer
 250:/home/pi/Developer/tinyusb/src/common/tusb_fifo.h **** void tu_hwfifo_read(const volatile void *hwfifo, uint8_t *dest, uint16_t len, const tu_hwfifo_acces
 251:/home/pi/Developer/tinyusb/src/common/tusb_fifo.h **** 
 252:/home/pi/Developer/tinyusb/src/common/tusb_fifo.h **** // write to hwfifo from buffer with access mode
 253:/home/pi/Developer/tinyusb/src/common/tusb_fifo.h **** void tu_hwfifo_write(volatile void *hwfifo, const uint8_t *src, uint16_t len, const tu_hwfifo_acces
 254:/home/pi/Developer/tinyusb/src/common/tusb_fifo.h **** 
 255:/home/pi/Developer/tinyusb/src/common/tusb_fifo.h **** #endif
 256:/home/pi/Developer/tinyusb/src/common/tusb_fifo.h **** 
 257:/home/pi/Developer/tinyusb/src/common/tusb_fifo.h **** //--------------------------------------------------------------------+
 258:/home/pi/Developer/tinyusb/src/common/tusb_fifo.h **** // Internal Helper Local
 259:/home/pi/Developer/tinyusb/src/common/tusb_fifo.h **** // work on local copies of read/write indices in order to only access them once for re-entrancy
 260:/home/pi/Developer/tinyusb/src/common/tusb_fifo.h **** //--------------------------------------------------------------------+
 261:/home/pi/Developer/tinyusb/src/common/tusb_fifo.h **** // return overflowable count (index difference), which can be used to determine both fifo count and
 262:/home/pi/Developer/tinyusb/src/common/tusb_fifo.h **** TU_ATTR_ALWAYS_INLINE static inline uint16_t tu_ff_overflow_count(uint16_t depth, uint16_t wr_idx, 
 263:/home/pi/Developer/tinyusb/src/common/tusb_fifo.h ****   const int32_t diff = (int32_t)wr_idx - (int32_t)rd_idx;
 264:/home/pi/Developer/tinyusb/src/common/tusb_fifo.h ****   if (diff >= 0) {
 265:/home/pi/Developer/tinyusb/src/common/tusb_fifo.h ****     return (uint16_t)diff;
 266:/home/pi/Developer/tinyusb/src/common/tusb_fifo.h ****   } else {
 267:/home/pi/Developer/tinyusb/src/common/tusb_fifo.h ****     return (uint16_t)(2 * depth + diff);
 268:/home/pi/Developer/tinyusb/src/common/tusb_fifo.h ****   }
 269:/home/pi/Developer/tinyusb/src/common/tusb_fifo.h **** }
 270:/home/pi/Developer/tinyusb/src/common/tusb_fifo.h **** 
 271:/home/pi/Developer/tinyusb/src/common/tusb_fifo.h **** // return remaining slot in fifo
 272:/home/pi/Developer/tinyusb/src/common/tusb_fifo.h **** TU_ATTR_ALWAYS_INLINE static inline uint16_t tu_ff_remaining_local(uint16_t depth, uint16_t wr_idx,
 273:/home/pi/Developer/tinyusb/src/common/tusb_fifo.h ****   const uint16_t ovf_count = tu_ff_overflow_count(depth, wr_idx, rd_idx);
 274:/home/pi/Developer/tinyusb/src/common/tusb_fifo.h ****   return (depth > ovf_count) ? (depth - ovf_count) : 0;
 275:/home/pi/Developer/tinyusb/src/common/tusb_fifo.h **** }
 276:/home/pi/Developer/tinyusb/src/common/tusb_fifo.h **** 
ARM GAS  /tmp/ccrixPyT.s 			page 18


 277:/home/pi/Developer/tinyusb/src/common/tusb_fifo.h **** //--------------------------------------------------------------------+
 278:/home/pi/Developer/tinyusb/src/common/tusb_fifo.h **** // State API
 279:/home/pi/Developer/tinyusb/src/common/tusb_fifo.h **** // Following functions are reentrant since they only access read/write indices once, therefore can 
 280:/home/pi/Developer/tinyusb/src/common/tusb_fifo.h **** // ISRs context without the need of mutexes
 281:/home/pi/Developer/tinyusb/src/common/tusb_fifo.h **** //--------------------------------------------------------------------+
 282:/home/pi/Developer/tinyusb/src/common/tusb_fifo.h **** TU_ATTR_ALWAYS_INLINE static inline uint16_t tu_fifo_depth(const tu_fifo_t *f) {
 283:/home/pi/Developer/tinyusb/src/common/tusb_fifo.h ****   return f->depth;
 284:/home/pi/Developer/tinyusb/src/common/tusb_fifo.h **** }
 285:/home/pi/Developer/tinyusb/src/common/tusb_fifo.h **** 
 286:/home/pi/Developer/tinyusb/src/common/tusb_fifo.h **** TU_ATTR_ALWAYS_INLINE static inline bool tu_fifo_empty(const tu_fifo_t *f) {
 287:/home/pi/Developer/tinyusb/src/common/tusb_fifo.h ****   const uint16_t wr_idx = f->wr_idx;
 288:/home/pi/Developer/tinyusb/src/common/tusb_fifo.h ****   const uint16_t rd_idx = f->rd_idx;
 289:/home/pi/Developer/tinyusb/src/common/tusb_fifo.h ****   return wr_idx == rd_idx;
 290:/home/pi/Developer/tinyusb/src/common/tusb_fifo.h **** }
 291:/home/pi/Developer/tinyusb/src/common/tusb_fifo.h **** 
 292:/home/pi/Developer/tinyusb/src/common/tusb_fifo.h **** // return number of items in fifo, capped to fifo's depth
 293:/home/pi/Developer/tinyusb/src/common/tusb_fifo.h **** TU_ATTR_ALWAYS_INLINE static inline uint16_t tu_fifo_count(const tu_fifo_t *f) {
 294:/home/pi/Developer/tinyusb/src/common/tusb_fifo.h ****   const uint16_t wr_idx = f->wr_idx;
 295:/home/pi/Developer/tinyusb/src/common/tusb_fifo.h ****   const uint16_t rd_idx = f->rd_idx;
 296:/home/pi/Developer/tinyusb/src/common/tusb_fifo.h ****   return tu_min16(tu_ff_overflow_count(f->depth, wr_idx, rd_idx), f->depth);
 297:/home/pi/Developer/tinyusb/src/common/tusb_fifo.h **** }
 298:/home/pi/Developer/tinyusb/src/common/tusb_fifo.h **** 
 299:/home/pi/Developer/tinyusb/src/common/tusb_fifo.h **** // check if fifo is full
 300:/home/pi/Developer/tinyusb/src/common/tusb_fifo.h **** TU_ATTR_ALWAYS_INLINE static inline bool tu_fifo_full(const tu_fifo_t *f) {
 301:/home/pi/Developer/tinyusb/src/common/tusb_fifo.h ****   const uint16_t wr_idx = f->wr_idx;
 302:/home/pi/Developer/tinyusb/src/common/tusb_fifo.h ****   const uint16_t rd_idx = f->rd_idx;
 303:/home/pi/Developer/tinyusb/src/common/tusb_fifo.h ****   return tu_ff_overflow_count(f->depth, wr_idx, rd_idx) >= f->depth;
 304:/home/pi/Developer/tinyusb/src/common/tusb_fifo.h **** }
 305:/home/pi/Developer/tinyusb/src/common/tusb_fifo.h **** 
 306:/home/pi/Developer/tinyusb/src/common/tusb_fifo.h **** TU_ATTR_ALWAYS_INLINE static inline uint16_t tu_fifo_remaining(const tu_fifo_t *f) {
 206              		.loc 2 306 46 view .LVU45
 207              	.LBB146:
 307:/home/pi/Developer/tinyusb/src/common/tusb_fifo.h ****   const uint16_t wr_idx = f->wr_idx;
 208              		.loc 2 307 3 view .LVU46
 209              		.loc 2 307 18 is_stmt 0 view .LVU47
 210 001e A28A     		ldrh	r2, [r4, #20]
 308:/home/pi/Developer/tinyusb/src/common/tusb_fifo.h ****   const uint16_t rd_idx = f->rd_idx;
 211              		.loc 2 308 18 view .LVU48
 212 0020 E08A     		ldrh	r0, [r4, #22]
 307:/home/pi/Developer/tinyusb/src/common/tusb_fifo.h ****   const uint16_t wr_idx = f->wr_idx;
 213              		.loc 2 307 18 view .LVU49
 214 0022 92B2     		uxth	r2, r2
 215              	.LVL18:
 216              		.loc 2 308 3 is_stmt 1 view .LVU50
 309:/home/pi/Developer/tinyusb/src/common/tusb_fifo.h ****   return tu_ff_remaining_local(f->depth, wr_idx, rd_idx);
 217              		.loc 2 309 10 is_stmt 0 view .LVU51
 218 0024 238A     		ldrh	r3, [r4, #16]
 308:/home/pi/Developer/tinyusb/src/common/tusb_fifo.h ****   const uint16_t rd_idx = f->rd_idx;
 219              		.loc 2 308 18 view .LVU52
 220 0026 80B2     		uxth	r0, r0
 221              	.LVL19:
 222              		.loc 2 309 3 is_stmt 1 view .LVU53
 223              	.LBB147:
 224              	.LBI147:
 272:/home/pi/Developer/tinyusb/src/common/tusb_fifo.h ****   const uint16_t ovf_count = tu_ff_overflow_count(depth, wr_idx, rd_idx);
 225              		.loc 2 272 46 view .LVU54
 226              	.LBB148:
ARM GAS  /tmp/ccrixPyT.s 			page 19


 273:/home/pi/Developer/tinyusb/src/common/tusb_fifo.h ****   return (depth > ovf_count) ? (depth - ovf_count) : 0;
 227              		.loc 2 273 3 view .LVU55
 228              	.LBB149:
 229              	.LBI149:
 262:/home/pi/Developer/tinyusb/src/common/tusb_fifo.h ****   const int32_t diff = (int32_t)wr_idx - (int32_t)rd_idx;
 230              		.loc 2 262 46 view .LVU56
 231              	.LBB150:
 263:/home/pi/Developer/tinyusb/src/common/tusb_fifo.h ****   if (diff >= 0) {
 232              		.loc 2 263 3 view .LVU57
 264:/home/pi/Developer/tinyusb/src/common/tusb_fifo.h ****     return (uint16_t)diff;
 233              		.loc 2 264 3 view .LVU58
 264:/home/pi/Developer/tinyusb/src/common/tusb_fifo.h ****     return (uint16_t)diff;
 234              		.loc 2 264 6 is_stmt 0 view .LVU59
 235 0028 111A     		subs	r1, r2, r0
 236 002a 28D4     		bmi	.L14
 265:/home/pi/Developer/tinyusb/src/common/tusb_fifo.h ****   } else {
 237              		.loc 2 265 5 is_stmt 1 view .LVU60
 265:/home/pi/Developer/tinyusb/src/common/tusb_fifo.h ****   } else {
 238              		.loc 2 265 12 is_stmt 0 view .LVU61
 239 002c 8AB2     		uxth	r2, r1
 240              	.LVL20:
 241              	.L15:
 265:/home/pi/Developer/tinyusb/src/common/tusb_fifo.h ****   } else {
 242              		.loc 2 265 12 view .LVU62
 243              	.LBE150:
 244              	.LBE149:
 274:/home/pi/Developer/tinyusb/src/common/tusb_fifo.h **** }
 245              		.loc 2 274 3 is_stmt 1 view .LVU63
 274:/home/pi/Developer/tinyusb/src/common/tusb_fifo.h **** }
 246              		.loc 2 274 52 is_stmt 0 view .LVU64
 247 002e 9342     		cmp	r3, r2
 248 0030 18D9     		bls	.L19
 249 0032 9B1A     		subs	r3, r3, r2
 250              	.LVL21:
 274:/home/pi/Developer/tinyusb/src/common/tusb_fifo.h **** }
 251              		.loc 2 274 52 view .LVU65
 252 0034 99B2     		uxth	r1, r3
 253              	.LVL22:
 274:/home/pi/Developer/tinyusb/src/common/tusb_fifo.h **** }
 254              		.loc 2 274 52 view .LVU66
 255              	.LBE148:
 256              	.LBE147:
 257              	.LBE146:
 258              	.LBE145:
 455:/home/pi/Developer/tinyusb/src/tusb.c ****     // multiple of packet size limit by ep bufsize
 259              		.loc 1 455 3 is_stmt 1 view .LVU67
 455:/home/pi/Developer/tinyusb/src/tusb.c ****     // multiple of packet size limit by ep bufsize
 260              		.loc 1 455 21 is_stmt 0 view .LVU68
 261 0036 A388     		ldrh	r3, [r4, #4]
 455:/home/pi/Developer/tinyusb/src/tusb.c ****     // multiple of packet size limit by ep bufsize
 262              		.loc 1 455 6 view .LVU69
 263 0038 8B42     		cmp	r3, r1
 264 003a 17D8     		bhi	.L17
 265              	.L31:
 266              	.LBB159:
 457:/home/pi/Developer/tinyusb/src/tusb.c ****     count = tu_min16(count, s->xfer_len);
 267              		.loc 1 457 5 is_stmt 1 view .LVU70
ARM GAS  /tmp/ccrixPyT.s 			page 20


 268              	.LVL23:
 458:/home/pi/Developer/tinyusb/src/tusb.c ****     TU_ASSERT(stream_xfer(s, count), 0);
 269              		.loc 1 458 5 view .LVU71
 270              	.LBB160:
 271              	.LBI160:
 272              		.file 3 "/home/pi/Developer/tinyusb/src/common/tusb_common.h"
   1:/home/pi/Developer/tinyusb/src/common/tusb_common.h **** /*
   2:/home/pi/Developer/tinyusb/src/common/tusb_common.h ****  * The MIT License (MIT)
   3:/home/pi/Developer/tinyusb/src/common/tusb_common.h ****  *
   4:/home/pi/Developer/tinyusb/src/common/tusb_common.h ****  * Copyright (c) 2019 Ha Thach (tinyusb.org)
   5:/home/pi/Developer/tinyusb/src/common/tusb_common.h ****  *
   6:/home/pi/Developer/tinyusb/src/common/tusb_common.h ****  * Permission is hereby granted, free of charge, to any person obtaining a copy
   7:/home/pi/Developer/tinyusb/src/common/tusb_common.h ****  * of this software and associated documentation files (the "Software"), to deal
   8:/home/pi/Developer/tinyusb/src/common/tusb_common.h ****  * in the Software without restriction, including without limitation the rights
   9:/home/pi/Developer/tinyusb/src/common/tusb_common.h ****  * to use, copy, modify, merge, publish, distribute, sublicense, and/or sell
  10:/home/pi/Developer/tinyusb/src/common/tusb_common.h ****  * copies of the Software, and to permit persons to whom the Software is
  11:/home/pi/Developer/tinyusb/src/common/tusb_common.h ****  * furnished to do so, subject to the following conditions:
  12:/home/pi/Developer/tinyusb/src/common/tusb_common.h ****  *
  13:/home/pi/Developer/tinyusb/src/common/tusb_common.h ****  * The above copyright notice and this permission notice shall be included in
  14:/home/pi/Developer/tinyusb/src/common/tusb_common.h ****  * all copies or substantial portions of the Software.
  15:/home/pi/Developer/tinyusb/src/common/tusb_common.h ****  *
  16:/home/pi/Developer/tinyusb/src/common/tusb_common.h ****  * THE SOFTWARE IS PROVIDED "AS IS", WITHOUT WARRANTY OF ANY KIND, EXPRESS OR
  17:/home/pi/Developer/tinyusb/src/common/tusb_common.h ****  * IMPLIED, INCLUDING BUT NOT LIMITED TO THE WARRANTIES OF MERCHANTABILITY,
  18:/home/pi/Developer/tinyusb/src/common/tusb_common.h ****  * FITNESS FOR A PARTICULAR PURPOSE AND NONINFRINGEMENT. IN NO EVENT SHALL THE
  19:/home/pi/Developer/tinyusb/src/common/tusb_common.h ****  * AUTHORS OR COPYRIGHT HOLDERS BE LIABLE FOR ANY CLAIM, DAMAGES OR OTHER
  20:/home/pi/Developer/tinyusb/src/common/tusb_common.h ****  * LIABILITY, WHETHER IN AN ACTION OF CONTRACT, TORT OR OTHERWISE, ARISING FROM,
  21:/home/pi/Developer/tinyusb/src/common/tusb_common.h ****  * OUT OF OR IN CONNECTION WITH THE SOFTWARE OR THE USE OR OTHER DEALINGS IN
  22:/home/pi/Developer/tinyusb/src/common/tusb_common.h ****  * THE SOFTWARE.
  23:/home/pi/Developer/tinyusb/src/common/tusb_common.h ****  *
  24:/home/pi/Developer/tinyusb/src/common/tusb_common.h ****  * This file is part of the TinyUSB stack.
  25:/home/pi/Developer/tinyusb/src/common/tusb_common.h ****  */
  26:/home/pi/Developer/tinyusb/src/common/tusb_common.h **** 
  27:/home/pi/Developer/tinyusb/src/common/tusb_common.h **** #ifndef TUSB_COMMON_H_
  28:/home/pi/Developer/tinyusb/src/common/tusb_common.h **** #define TUSB_COMMON_H_
  29:/home/pi/Developer/tinyusb/src/common/tusb_common.h **** 
  30:/home/pi/Developer/tinyusb/src/common/tusb_common.h **** #ifdef __cplusplus
  31:/home/pi/Developer/tinyusb/src/common/tusb_common.h ****  extern "C" {
  32:/home/pi/Developer/tinyusb/src/common/tusb_common.h **** #endif
  33:/home/pi/Developer/tinyusb/src/common/tusb_common.h **** 
  34:/home/pi/Developer/tinyusb/src/common/tusb_common.h **** //--------------------------------------------------------------------+
  35:/home/pi/Developer/tinyusb/src/common/tusb_common.h **** // Macros Helper
  36:/home/pi/Developer/tinyusb/src/common/tusb_common.h **** //--------------------------------------------------------------------+
  37:/home/pi/Developer/tinyusb/src/common/tusb_common.h **** #define TU_ARRAY_SIZE(_arr)           ( sizeof(_arr) / sizeof(_arr[0]) )
  38:/home/pi/Developer/tinyusb/src/common/tusb_common.h **** #define TU_FIELD_SIZE(_type, _field)  (sizeof(((_type *)0)->_field))
  39:/home/pi/Developer/tinyusb/src/common/tusb_common.h **** #define TU_MIN(_x, _y)                ( ( (_x) < (_y) ) ? (_x) : (_y) )
  40:/home/pi/Developer/tinyusb/src/common/tusb_common.h **** #define TU_MAX(_x, _y)                ( ( (_x) > (_y) ) ? (_x) : (_y) )
  41:/home/pi/Developer/tinyusb/src/common/tusb_common.h **** #define TU_DIV_CEIL(n, d)             (((n) + (d) - 1) / (d))
  42:/home/pi/Developer/tinyusb/src/common/tusb_common.h **** #define TU_DIV_ROUND_NEAREST(v, d)    (((v) + (d)/2) / (d) ) // round to nearest integer
  43:/home/pi/Developer/tinyusb/src/common/tusb_common.h **** 
  44:/home/pi/Developer/tinyusb/src/common/tusb_common.h **** #define TU_U16(_high, _low)           ((uint16_t) ((((uint16_t) (_high)) << 8) | ((uint16_t) (_low)
  45:/home/pi/Developer/tinyusb/src/common/tusb_common.h **** #define TU_U16_HIGH(_u16)             ((uint8_t) (((uint16_t) (_u16) >> 8) & 0x00ffu))
  46:/home/pi/Developer/tinyusb/src/common/tusb_common.h **** #define TU_U16_LOW(_u16)              ((uint8_t) ((uint16_t) (_u16) & 0x00ffu))
  47:/home/pi/Developer/tinyusb/src/common/tusb_common.h **** #define U16_TO_U8S_BE(_u16)           TU_U16_HIGH(_u16), TU_U16_LOW(_u16)
  48:/home/pi/Developer/tinyusb/src/common/tusb_common.h **** #define U16_TO_U8S_LE(_u16)           TU_U16_LOW(_u16), TU_U16_HIGH(_u16)
  49:/home/pi/Developer/tinyusb/src/common/tusb_common.h **** 
  50:/home/pi/Developer/tinyusb/src/common/tusb_common.h **** #define TU_U24(_high, _mid, _low)     ((uint32_t) ((((uint32_t) (_high)) << 16) | (((uint32_t) (_mi
  51:/home/pi/Developer/tinyusb/src/common/tusb_common.h **** #define TU_U24_HIGH(_u24)             ((uint8_t) (((uint32_t) (_u24) >> 16) & 0x0000ffu))
ARM GAS  /tmp/ccrixPyT.s 			page 21


  52:/home/pi/Developer/tinyusb/src/common/tusb_common.h **** #define TU_U24_MID(_u24)              ((uint8_t) (((uint32_t) (_u24) >>  8) & 0x0000ffu))
  53:/home/pi/Developer/tinyusb/src/common/tusb_common.h **** #define TU_U24_LOW(_u24)              ((uint8_t) ((uint32_t) (_u24) & 0x0000ffu))
  54:/home/pi/Developer/tinyusb/src/common/tusb_common.h **** #define U24_TO_U8S_BE(_u24)           TU_U24_HIGH(_u24), TU_U24_MID(_u24), TU_U24_LOW(_u24)
  55:/home/pi/Developer/tinyusb/src/common/tusb_common.h **** #define U24_TO_U8S_LE(_u24)           TU_U24_LOW(_u24), TU_U24_MID(_u24), TU_U24_HIGH(_u24)
  56:/home/pi/Developer/tinyusb/src/common/tusb_common.h **** 
  57:/home/pi/Developer/tinyusb/src/common/tusb_common.h **** #define TU_U32_BYTE3(_u32)            ((uint8_t) ((((uint32_t) _u32) >> 24) & 0x000000ff)) // MSB
  58:/home/pi/Developer/tinyusb/src/common/tusb_common.h **** #define TU_U32_BYTE2(_u32)            ((uint8_t) ((((uint32_t) _u32) >> 16) & 0x000000ff))
  59:/home/pi/Developer/tinyusb/src/common/tusb_common.h **** #define TU_U32_BYTE1(_u32)            ((uint8_t) ((((uint32_t) _u32) >>  8) & 0x000000ff))
  60:/home/pi/Developer/tinyusb/src/common/tusb_common.h **** #define TU_U32_BYTE0(_u32)            ((uint8_t) (((uint32_t)  _u32)        & 0x000000ff)) // LSB
  61:/home/pi/Developer/tinyusb/src/common/tusb_common.h **** 
  62:/home/pi/Developer/tinyusb/src/common/tusb_common.h **** #define U32_TO_U8S_BE(_u32)           TU_U32_BYTE3(_u32), TU_U32_BYTE2(_u32), TU_U32_BYTE1(_u32), T
  63:/home/pi/Developer/tinyusb/src/common/tusb_common.h **** #define U32_TO_U8S_LE(_u32)           TU_U32_BYTE0(_u32), TU_U32_BYTE1(_u32), TU_U32_BYTE2(_u32), T
  64:/home/pi/Developer/tinyusb/src/common/tusb_common.h **** 
  65:/home/pi/Developer/tinyusb/src/common/tusb_common.h **** #define TU_BIT(n)                     (1UL << (n))
  66:/home/pi/Developer/tinyusb/src/common/tusb_common.h **** 
  67:/home/pi/Developer/tinyusb/src/common/tusb_common.h **** // Generate a mask with bit from high (31) to low (0) set, e.g TU_GENMASK(3, 0) = 0b1111
  68:/home/pi/Developer/tinyusb/src/common/tusb_common.h **** #define TU_GENMASK(h, l)              ( (UINT32_MAX << (l)) & (UINT32_MAX >> (31 - (h))) )
  69:/home/pi/Developer/tinyusb/src/common/tusb_common.h **** 
  70:/home/pi/Developer/tinyusb/src/common/tusb_common.h **** //--------------------------------------------------------------------+
  71:/home/pi/Developer/tinyusb/src/common/tusb_common.h **** // Includes
  72:/home/pi/Developer/tinyusb/src/common/tusb_common.h **** //--------------------------------------------------------------------+
  73:/home/pi/Developer/tinyusb/src/common/tusb_common.h **** 
  74:/home/pi/Developer/tinyusb/src/common/tusb_common.h **** // Standard Headers
  75:/home/pi/Developer/tinyusb/src/common/tusb_common.h **** #include <stdbool.h>
  76:/home/pi/Developer/tinyusb/src/common/tusb_common.h **** #include <stdint.h>
  77:/home/pi/Developer/tinyusb/src/common/tusb_common.h **** #include <inttypes.h>
  78:/home/pi/Developer/tinyusb/src/common/tusb_common.h **** #include <stddef.h>
  79:/home/pi/Developer/tinyusb/src/common/tusb_common.h **** #include <string.h>
  80:/home/pi/Developer/tinyusb/src/common/tusb_common.h **** 
  81:/home/pi/Developer/tinyusb/src/common/tusb_common.h **** // Tinyusb Common Headers
  82:/home/pi/Developer/tinyusb/src/common/tusb_common.h **** #include "tusb_option.h"
  83:/home/pi/Developer/tinyusb/src/common/tusb_common.h **** #include "tusb_compiler.h"
  84:/home/pi/Developer/tinyusb/src/common/tusb_common.h **** #include "tusb_verify.h"
  85:/home/pi/Developer/tinyusb/src/common/tusb_common.h **** #include "tusb_types.h"
  86:/home/pi/Developer/tinyusb/src/common/tusb_common.h **** #include "tusb_debug.h"
  87:/home/pi/Developer/tinyusb/src/common/tusb_common.h **** 
  88:/home/pi/Developer/tinyusb/src/common/tusb_common.h **** //--------------------------------------------------------------------+
  89:/home/pi/Developer/tinyusb/src/common/tusb_common.h **** // API implemented by application if needed
  90:/home/pi/Developer/tinyusb/src/common/tusb_common.h **** // TODO move to a more obvious place/file
  91:/home/pi/Developer/tinyusb/src/common/tusb_common.h **** //--------------------------------------------------------------------+
  92:/home/pi/Developer/tinyusb/src/common/tusb_common.h **** 
  93:/home/pi/Developer/tinyusb/src/common/tusb_common.h **** // Get current milliseconds, required by some port/configuration without RTOS
  94:/home/pi/Developer/tinyusb/src/common/tusb_common.h **** extern uint32_t tusb_time_millis_api(void);
  95:/home/pi/Developer/tinyusb/src/common/tusb_common.h **** 
  96:/home/pi/Developer/tinyusb/src/common/tusb_common.h **** // Delay in milliseconds, use tusb_time_millis_api() by default. required by some port/configuratio
  97:/home/pi/Developer/tinyusb/src/common/tusb_common.h **** extern void tusb_time_delay_ms_api(uint32_t ms);
  98:/home/pi/Developer/tinyusb/src/common/tusb_common.h **** 
  99:/home/pi/Developer/tinyusb/src/common/tusb_common.h **** // flush data cache
 100:/home/pi/Developer/tinyusb/src/common/tusb_common.h **** extern void tusb_app_dcache_flush(uintptr_t addr, uint32_t data_size);
 101:/home/pi/Developer/tinyusb/src/common/tusb_common.h **** 
 102:/home/pi/Developer/tinyusb/src/common/tusb_common.h **** // invalidate data cache
 103:/home/pi/Developer/tinyusb/src/common/tusb_common.h **** extern void tusb_app_dcache_invalidate(uintptr_t addr, uint32_t data_size);
 104:/home/pi/Developer/tinyusb/src/common/tusb_common.h **** 
 105:/home/pi/Developer/tinyusb/src/common/tusb_common.h **** // Optional physical <-> virtual address translation
 106:/home/pi/Developer/tinyusb/src/common/tusb_common.h **** extern void* tusb_app_virt_to_phys(void *virt_addr);
 107:/home/pi/Developer/tinyusb/src/common/tusb_common.h **** extern void* tusb_app_phys_to_virt(void *phys_addr);
 108:/home/pi/Developer/tinyusb/src/common/tusb_common.h **** 
ARM GAS  /tmp/ccrixPyT.s 			page 22


 109:/home/pi/Developer/tinyusb/src/common/tusb_common.h **** //--------------------------------------------------------------------+
 110:/home/pi/Developer/tinyusb/src/common/tusb_common.h **** // Internal Inline Functions
 111:/home/pi/Developer/tinyusb/src/common/tusb_common.h **** //--------------------------------------------------------------------+
 112:/home/pi/Developer/tinyusb/src/common/tusb_common.h **** 
 113:/home/pi/Developer/tinyusb/src/common/tusb_common.h **** //------------- Mem -------------//
 114:/home/pi/Developer/tinyusb/src/common/tusb_common.h **** #define tu_memclr(buffer, size)  (void) memset((buffer), 0, (size))
 115:/home/pi/Developer/tinyusb/src/common/tusb_common.h **** #define tu_varclr(_var)          tu_memclr(_var, sizeof(*(_var)))
 116:/home/pi/Developer/tinyusb/src/common/tusb_common.h **** 
 117:/home/pi/Developer/tinyusb/src/common/tusb_common.h **** // This is a backport of memset_s from c11
 118:/home/pi/Developer/tinyusb/src/common/tusb_common.h **** TU_ATTR_ALWAYS_INLINE static inline int tu_memset_s(void *dest, size_t destsz, int ch, size_t count
 119:/home/pi/Developer/tinyusb/src/common/tusb_common.h ****   // Validate parameters
 120:/home/pi/Developer/tinyusb/src/common/tusb_common.h ****   if (dest == NULL) {
 121:/home/pi/Developer/tinyusb/src/common/tusb_common.h ****     return -1;
 122:/home/pi/Developer/tinyusb/src/common/tusb_common.h ****   }
 123:/home/pi/Developer/tinyusb/src/common/tusb_common.h **** 
 124:/home/pi/Developer/tinyusb/src/common/tusb_common.h ****   if (count == 0u) {
 125:/home/pi/Developer/tinyusb/src/common/tusb_common.h ****     return 0;
 126:/home/pi/Developer/tinyusb/src/common/tusb_common.h ****   }
 127:/home/pi/Developer/tinyusb/src/common/tusb_common.h **** 
 128:/home/pi/Developer/tinyusb/src/common/tusb_common.h ****   if (count > destsz) {
 129:/home/pi/Developer/tinyusb/src/common/tusb_common.h ****     return -1;
 130:/home/pi/Developer/tinyusb/src/common/tusb_common.h ****   }
 131:/home/pi/Developer/tinyusb/src/common/tusb_common.h **** 
 132:/home/pi/Developer/tinyusb/src/common/tusb_common.h ****   (void) memset(dest, ch, count);
 133:/home/pi/Developer/tinyusb/src/common/tusb_common.h ****   return 0;
 134:/home/pi/Developer/tinyusb/src/common/tusb_common.h **** }
 135:/home/pi/Developer/tinyusb/src/common/tusb_common.h **** 
 136:/home/pi/Developer/tinyusb/src/common/tusb_common.h **** // This is a backport of memcpy_s from c11
 137:/home/pi/Developer/tinyusb/src/common/tusb_common.h **** TU_ATTR_ALWAYS_INLINE static inline int tu_memcpy_s(void *dest, size_t destsz, const void *src, siz
 138:/home/pi/Developer/tinyusb/src/common/tusb_common.h ****   if (dest == NULL) {
 139:/home/pi/Developer/tinyusb/src/common/tusb_common.h ****     return -1;
 140:/home/pi/Developer/tinyusb/src/common/tusb_common.h ****   }
 141:/home/pi/Developer/tinyusb/src/common/tusb_common.h **** 
 142:/home/pi/Developer/tinyusb/src/common/tusb_common.h ****   if (count == 0u) {
 143:/home/pi/Developer/tinyusb/src/common/tusb_common.h ****     return 0;
 144:/home/pi/Developer/tinyusb/src/common/tusb_common.h ****   }
 145:/home/pi/Developer/tinyusb/src/common/tusb_common.h **** 
 146:/home/pi/Developer/tinyusb/src/common/tusb_common.h ****   if (src == NULL) {
 147:/home/pi/Developer/tinyusb/src/common/tusb_common.h ****     return -1;
 148:/home/pi/Developer/tinyusb/src/common/tusb_common.h ****   }
 149:/home/pi/Developer/tinyusb/src/common/tusb_common.h **** 
 150:/home/pi/Developer/tinyusb/src/common/tusb_common.h ****   if (count > destsz) {
 151:/home/pi/Developer/tinyusb/src/common/tusb_common.h ****     return -1;
 152:/home/pi/Developer/tinyusb/src/common/tusb_common.h ****   }
 153:/home/pi/Developer/tinyusb/src/common/tusb_common.h **** 
 154:/home/pi/Developer/tinyusb/src/common/tusb_common.h ****   (void) memcpy(dest, src, count);
 155:/home/pi/Developer/tinyusb/src/common/tusb_common.h ****   return 0;
 156:/home/pi/Developer/tinyusb/src/common/tusb_common.h **** }
 157:/home/pi/Developer/tinyusb/src/common/tusb_common.h **** 
 158:/home/pi/Developer/tinyusb/src/common/tusb_common.h **** TU_ATTR_ALWAYS_INLINE static inline bool tu_mem_is_zero(const void *buffer, size_t size) {
 159:/home/pi/Developer/tinyusb/src/common/tusb_common.h ****   const uint8_t* buf8 = (const uint8_t*) buffer;
 160:/home/pi/Developer/tinyusb/src/common/tusb_common.h ****   for (size_t i = 0; i < size; i++) {
 161:/home/pi/Developer/tinyusb/src/common/tusb_common.h ****     if (buf8[i] != 0) { return false; }
 162:/home/pi/Developer/tinyusb/src/common/tusb_common.h ****   }
 163:/home/pi/Developer/tinyusb/src/common/tusb_common.h ****   return true;
 164:/home/pi/Developer/tinyusb/src/common/tusb_common.h **** }
 165:/home/pi/Developer/tinyusb/src/common/tusb_common.h **** 
ARM GAS  /tmp/ccrixPyT.s 			page 23


 166:/home/pi/Developer/tinyusb/src/common/tusb_common.h **** TU_ATTR_ALWAYS_INLINE static inline bool tu_mem_is_ff(const void *buffer, size_t size) {
 167:/home/pi/Developer/tinyusb/src/common/tusb_common.h ****   const uint8_t* buf8 = (const uint8_t*) buffer;
 168:/home/pi/Developer/tinyusb/src/common/tusb_common.h ****   for (size_t i = 0; i < size; i++) {
 169:/home/pi/Developer/tinyusb/src/common/tusb_common.h ****     if (buf8[i] != 0xff) { return false; }
 170:/home/pi/Developer/tinyusb/src/common/tusb_common.h ****   }
 171:/home/pi/Developer/tinyusb/src/common/tusb_common.h ****   return true;
 172:/home/pi/Developer/tinyusb/src/common/tusb_common.h **** }
 173:/home/pi/Developer/tinyusb/src/common/tusb_common.h **** 
 174:/home/pi/Developer/tinyusb/src/common/tusb_common.h **** 
 175:/home/pi/Developer/tinyusb/src/common/tusb_common.h **** //------------- Bytes -------------//
 176:/home/pi/Developer/tinyusb/src/common/tusb_common.h **** TU_ATTR_ALWAYS_INLINE static inline uint32_t tu_u32(uint8_t b3, uint8_t b2, uint8_t b1, uint8_t b0)
 177:/home/pi/Developer/tinyusb/src/common/tusb_common.h ****   return (((uint32_t)b3) << 24) | (((uint32_t)b2) << 16) | (((uint32_t)b1) << 8) | b0;
 178:/home/pi/Developer/tinyusb/src/common/tusb_common.h **** }
 179:/home/pi/Developer/tinyusb/src/common/tusb_common.h **** 
 180:/home/pi/Developer/tinyusb/src/common/tusb_common.h **** TU_ATTR_ALWAYS_INLINE static inline uint32_t tu_u32_from_u16(uint16_t high, uint16_t low) {
 181:/home/pi/Developer/tinyusb/src/common/tusb_common.h ****   return (((uint32_t)high) << 16) | low;
 182:/home/pi/Developer/tinyusb/src/common/tusb_common.h **** }
 183:/home/pi/Developer/tinyusb/src/common/tusb_common.h **** 
 184:/home/pi/Developer/tinyusb/src/common/tusb_common.h **** TU_ATTR_ALWAYS_INLINE static inline uint16_t tu_u16(uint8_t high, uint8_t low) {
 185:/home/pi/Developer/tinyusb/src/common/tusb_common.h ****   return (uint16_t)((((uint16_t)high) << 8) | low);
 186:/home/pi/Developer/tinyusb/src/common/tusb_common.h **** }
 187:/home/pi/Developer/tinyusb/src/common/tusb_common.h **** 
 188:/home/pi/Developer/tinyusb/src/common/tusb_common.h **** TU_ATTR_ALWAYS_INLINE static inline uint8_t tu_u32_byte3(uint32_t ui32) { return TU_U32_BYTE3(ui32)
 189:/home/pi/Developer/tinyusb/src/common/tusb_common.h **** TU_ATTR_ALWAYS_INLINE static inline uint8_t tu_u32_byte2(uint32_t ui32) { return TU_U32_BYTE2(ui32)
 190:/home/pi/Developer/tinyusb/src/common/tusb_common.h **** TU_ATTR_ALWAYS_INLINE static inline uint8_t tu_u32_byte1(uint32_t ui32) { return TU_U32_BYTE1(ui32)
 191:/home/pi/Developer/tinyusb/src/common/tusb_common.h **** TU_ATTR_ALWAYS_INLINE static inline uint8_t tu_u32_byte0(uint32_t ui32) { return TU_U32_BYTE0(ui32)
 192:/home/pi/Developer/tinyusb/src/common/tusb_common.h **** 
 193:/home/pi/Developer/tinyusb/src/common/tusb_common.h **** TU_ATTR_ALWAYS_INLINE static inline uint16_t tu_u32_high16(uint32_t ui32) { return (uint16_t) (ui32
 194:/home/pi/Developer/tinyusb/src/common/tusb_common.h **** TU_ATTR_ALWAYS_INLINE static inline uint16_t tu_u32_low16 (uint32_t ui32) { return (uint16_t) (ui32
 195:/home/pi/Developer/tinyusb/src/common/tusb_common.h **** 
 196:/home/pi/Developer/tinyusb/src/common/tusb_common.h **** TU_ATTR_ALWAYS_INLINE static inline uint8_t tu_u16_high(uint16_t ui16) { return TU_U16_HIGH(ui16); 
 197:/home/pi/Developer/tinyusb/src/common/tusb_common.h **** TU_ATTR_ALWAYS_INLINE static inline uint8_t tu_u16_low (uint16_t ui16) { return TU_U16_LOW(ui16); }
 198:/home/pi/Developer/tinyusb/src/common/tusb_common.h **** 
 199:/home/pi/Developer/tinyusb/src/common/tusb_common.h **** //------------- Bits -------------//
 200:/home/pi/Developer/tinyusb/src/common/tusb_common.h **** TU_ATTR_ALWAYS_INLINE static inline uint32_t tu_bit_set  (uint32_t value, uint8_t pos) { return val
 201:/home/pi/Developer/tinyusb/src/common/tusb_common.h **** TU_ATTR_ALWAYS_INLINE static inline uint32_t tu_bit_clear(uint32_t value, uint8_t pos) { return val
 202:/home/pi/Developer/tinyusb/src/common/tusb_common.h **** TU_ATTR_ALWAYS_INLINE static inline bool     tu_bit_test (uint32_t value, uint8_t pos) { return (va
 203:/home/pi/Developer/tinyusb/src/common/tusb_common.h **** 
 204:/home/pi/Developer/tinyusb/src/common/tusb_common.h **** //------------- Min -------------//
 205:/home/pi/Developer/tinyusb/src/common/tusb_common.h **** TU_ATTR_ALWAYS_INLINE static inline uint8_t  tu_min8  (uint8_t  x, uint8_t y ) { return (x < y) ? x
 206:/home/pi/Developer/tinyusb/src/common/tusb_common.h **** TU_ATTR_ALWAYS_INLINE static inline uint16_t tu_min16 (uint16_t x, uint16_t y) { return (x < y) ? x
 273              		.loc 3 206 46 view .LVU72
 274              	.LBB161:
 275              		.loc 3 206 82 view .LVU73
 276              	.LBE161:
 277              	.LBE160:
 457:/home/pi/Developer/tinyusb/src/tusb.c ****     count = tu_min16(count, s->xfer_len);
 278              		.loc 1 457 44 is_stmt 0 view .LVU74
 279 003c 5B42     		rsbs	r3, r3, #0
 280              	.LVL24:
 281              	.LBB164:
 282              	.LBB162:
 283              		.loc 3 206 101 view .LVU75
 284 003e E288     		ldrh	r2, [r4, #6]
 285              	.LVL25:
 286              		.loc 3 206 101 view .LVU76
 287              	.LBE162:
ARM GAS  /tmp/ccrixPyT.s 			page 24


 288              	.LBE164:
 459:/home/pi/Developer/tinyusb/src/tusb.c ****     return count;
 289              		.loc 1 459 5 view .LVU77
 290 0040 2046     		mov	r0, r4
 291              	.LBB165:
 292              	.LBB163:
 293              		.loc 3 206 101 view .LVU78
 294 0042 03EA0104 		and	r4, r3, r1
 295              	.LVL26:
 296              		.loc 3 206 101 view .LVU79
 297 0046 9442     		cmp	r4, r2
 298 0048 28BF     		it	cs
 299 004a 1446     		movcs	r4, r2
 300              	.LVL27:
 301              		.loc 3 206 101 view .LVU80
 302              	.LBE163:
 303              	.LBE165:
 459:/home/pi/Developer/tinyusb/src/tusb.c ****     return count;
 304              		.loc 1 459 5 is_stmt 1 view .LVU81
 459:/home/pi/Developer/tinyusb/src/tusb.c ****     return count;
 305              		.loc 1 459 5 view .LVU82
 306 004c 2146     		mov	r1, r4
 307              	.LVL28:
 459:/home/pi/Developer/tinyusb/src/tusb.c ****     return count;
 308              		.loc 1 459 5 is_stmt 0 view .LVU83
 309 004e FFF7FEFF 		bl	stream_xfer
 310              	.LVL29:
 459:/home/pi/Developer/tinyusb/src/tusb.c ****     return count;
 311              		.loc 1 459 5 view .LVU84
 312 0052 C8B9     		cbnz	r0, .L18
 459:/home/pi/Developer/tinyusb/src/tusb.c ****     return count;
 313              		.loc 1 459 5 is_stmt 1 view .LVU85
 459:/home/pi/Developer/tinyusb/src/tusb.c ****     return count;
 314              		.loc 1 459 5 view .LVU86
 459:/home/pi/Developer/tinyusb/src/tusb.c ****     return count;
 315              		.loc 1 459 5 view .LVU87
 459:/home/pi/Developer/tinyusb/src/tusb.c ****     return count;
 316              		.loc 1 459 5 view .LVU88
 317              	.LBB166:
 459:/home/pi/Developer/tinyusb/src/tusb.c ****     return count;
 318              		.loc 1 459 5 view .LVU89
 319              	.LVL30:
 459:/home/pi/Developer/tinyusb/src/tusb.c ****     return count;
 320              		.loc 1 459 5 view .LVU90
 321 0054 4FF0E023 		mov	r3, #-536813568
 322 0058 D3F8F03D 		ldr	r3, [r3, #3568]
 323 005c DB07     		lsls	r3, r3, #31
 324 005e D5D5     		bpl	.L13
 459:/home/pi/Developer/tinyusb/src/tusb.c ****     return count;
 325              		.loc 1 459 5 view .LVU91
 326              		.syntax unified
 327              	@ 459 "/home/pi/Developer/tinyusb/src/tusb.c" 1
 328 0060 00BE     		BKPT #0
 329              	
 330              	@ 0 "" 2
 331              		.thumb
 332              		.syntax unified
ARM GAS  /tmp/ccrixPyT.s 			page 25


 333              	.LBE166:
 334              	.LBE159:
 335              		.loc 1 466 1 is_stmt 0 view .LVU92
 336 0062 38BD     		pop	{r3, r4, r5, pc}
 337              	.LVL31:
 338              	.L19:
 339              	.LBB167:
 340              	.LBB157:
 341              	.LBB155:
 342              	.LBB153:
 274:/home/pi/Developer/tinyusb/src/common/tusb_fifo.h **** }
 343              		.loc 2 274 52 view .LVU93
 344 0064 0021     		movs	r1, #0
 345              	.LVL32:
 274:/home/pi/Developer/tinyusb/src/common/tusb_fifo.h **** }
 346              		.loc 2 274 52 view .LVU94
 347              	.LBE153:
 348              	.LBE155:
 349              	.LBE157:
 350              	.LBE167:
 455:/home/pi/Developer/tinyusb/src/tusb.c ****     // multiple of packet size limit by ep bufsize
 351              		.loc 1 455 3 is_stmt 1 view .LVU95
 455:/home/pi/Developer/tinyusb/src/tusb.c ****     // multiple of packet size limit by ep bufsize
 352              		.loc 1 455 21 is_stmt 0 view .LVU96
 353 0066 A388     		ldrh	r3, [r4, #4]
 455:/home/pi/Developer/tinyusb/src/tusb.c ****     // multiple of packet size limit by ep bufsize
 354              		.loc 1 455 6 view .LVU97
 355 0068 8B42     		cmp	r3, r1
 356 006a E7D9     		bls	.L31
 357              	.L17:
 463:/home/pi/Developer/tinyusb/src/tusb.c ****     return 0;
 358              		.loc 1 463 5 is_stmt 1 view .LVU98
 359              	.LVL33:
 360              	.LBB168:
 361              	.LBI168:
 377:/home/pi/Developer/tinyusb/src/tusb.c ****   if (s->is_host) {
 362              		.loc 1 377 13 view .LVU99
 363              	.LBB169:
 378:/home/pi/Developer/tinyusb/src/tusb.c ****     #if CFG_TUH_ENABLED
 364              		.loc 1 378 3 view .LVU100
 378:/home/pi/Developer/tinyusb/src/tusb.c ****     #if CFG_TUH_ENABLED
 365              		.loc 1 378 6 is_stmt 0 view .LVU101
 366 006c 6578     		ldrb	r5, [r4, #1]	@ zero_extendqisi2
 367 006e 002D     		cmp	r5, #0
 368 0070 CCD1     		bne	.L13
 369              	.LVL34:
 370              	.LBB170:
 371              	.LBI170:
 377:/home/pi/Developer/tinyusb/src/tusb.c ****   if (s->is_host) {
 372              		.loc 1 377 13 is_stmt 1 view .LVU102
 373              	.LBB171:
 384:/home/pi/Developer/tinyusb/src/tusb.c ****   #endif
 374              		.loc 1 384 5 view .LVU103
 384:/home/pi/Developer/tinyusb/src/tusb.c ****   #endif
 375              		.loc 1 384 12 is_stmt 0 view .LVU104
 376 0072 A178     		ldrb	r1, [r4, #2]	@ zero_extendqisi2
 377              	.LVL35:
ARM GAS  /tmp/ccrixPyT.s 			page 26


 384:/home/pi/Developer/tinyusb/src/tusb.c ****   #endif
 378              		.loc 1 384 12 view .LVU105
 379 0074 2078     		ldrb	r0, [r4]	@ zero_extendqisi2
 380 0076 FFF7FEFF 		bl	usbd_edpt_release
 381              	.LVL36:
 384:/home/pi/Developer/tinyusb/src/tusb.c ****   #endif
 382              		.loc 1 384 12 view .LVU106
 383              	.LBE171:
 384              	.LBE170:
 385              	.LBE169:
 386              	.LBE168:
 464:/home/pi/Developer/tinyusb/src/tusb.c ****   }
 387              		.loc 1 464 12 view .LVU107
 388 007a 2846     		mov	r0, r5
 389              	.LVL37:
 390              		.loc 1 466 1 view .LVU108
 391 007c 38BD     		pop	{r3, r4, r5, pc}
 392              	.LVL38:
 393              	.L14:
 394              	.LBB172:
 395              	.LBB158:
 396              	.LBB156:
 397              	.LBB154:
 398              	.LBB152:
 399              	.LBB151:
 267:/home/pi/Developer/tinyusb/src/common/tusb_fifo.h ****   }
 400              		.loc 2 267 5 is_stmt 1 view .LVU109
 267:/home/pi/Developer/tinyusb/src/common/tusb_fifo.h ****   }
 401              		.loc 2 267 12 is_stmt 0 view .LVU110
 402 007e C0EB4300 		rsb	r0, r0, r3, lsl #1
 403              	.LVL39:
 267:/home/pi/Developer/tinyusb/src/common/tusb_fifo.h ****   }
 404              		.loc 2 267 12 view .LVU111
 405 0082 0244     		add	r2, r2, r0
 406              	.LVL40:
 267:/home/pi/Developer/tinyusb/src/common/tusb_fifo.h ****   }
 407              		.loc 2 267 12 view .LVU112
 408 0084 92B2     		uxth	r2, r2
 409 0086 D2E7     		b	.L15
 410              	.LVL41:
 411              	.L18:
 267:/home/pi/Developer/tinyusb/src/common/tusb_fifo.h ****   }
 412              		.loc 2 267 12 view .LVU113
 413              	.LBE151:
 414              	.LBE152:
 415              	.LBE154:
 416              	.LBE156:
 417              	.LBE158:
 418              	.LBE172:
 419              	.LBB173:
 459:/home/pi/Developer/tinyusb/src/tusb.c ****     return count;
 420              		.loc 1 459 5 is_stmt 1 view .LVU114
 460:/home/pi/Developer/tinyusb/src/tusb.c ****   } else {
 421              		.loc 1 460 5 view .LVU115
 460:/home/pi/Developer/tinyusb/src/tusb.c ****   } else {
 422              		.loc 1 460 12 is_stmt 0 view .LVU116
 423 0088 2046     		mov	r0, r4
ARM GAS  /tmp/ccrixPyT.s 			page 27


 424              	.LBE173:
 425              		.loc 1 466 1 view .LVU117
 426 008a 38BD     		pop	{r3, r4, r5, pc}
 427              		.loc 1 466 1 view .LVU118
 428              		.cfi_endproc
 429              	.LFE472:
 431              		.section	.text.tusb_time_delay_ms_api,"ax",%progbits
 432              		.align	1
 433              		.p2align 2,,3
 434              		.weak	tusb_time_delay_ms_api
 435              		.syntax unified
 436              		.thumb
 437              		.thumb_func
 438              		.fpu fpv5-d16
 440              	tusb_time_delay_ms_api:
 441              	.LVL42:
 442              	.LFB446:
  66:/home/pi/Developer/tinyusb/src/tusb.c ****   // delay using millis()
 443              		.loc 1 66 55 is_stmt 1 view -0
 444              		.cfi_startproc
 445              		@ args = 0, pretend = 0, frame = 0
 446              		@ frame_needed = 0, uses_anonymous_args = 0
  68:/home/pi/Developer/tinyusb/src/tusb.c ****   while ((tusb_time_millis_api() - time_ms) < ms) {}
 447              		.loc 1 68 3 view .LVU120
  66:/home/pi/Developer/tinyusb/src/tusb.c ****   // delay using millis()
 448              		.loc 1 66 55 is_stmt 0 view .LVU121
 449 0000 38B5     		push	{r3, r4, r5, lr}
 450              		.cfi_def_cfa_offset 16
 451              		.cfi_offset 3, -16
 452              		.cfi_offset 4, -12
 453              		.cfi_offset 5, -8
 454              		.cfi_offset 14, -4
  66:/home/pi/Developer/tinyusb/src/tusb.c ****   // delay using millis()
 455              		.loc 1 66 55 view .LVU122
 456 0002 0546     		mov	r5, r0
  68:/home/pi/Developer/tinyusb/src/tusb.c ****   while ((tusb_time_millis_api() - time_ms) < ms) {}
 457              		.loc 1 68 28 view .LVU123
 458 0004 FFF7FEFF 		bl	tusb_time_millis_api
 459              	.LVL43:
  68:/home/pi/Developer/tinyusb/src/tusb.c ****   while ((tusb_time_millis_api() - time_ms) < ms) {}
 460              		.loc 1 68 28 view .LVU124
 461 0008 0446     		mov	r4, r0
 462              	.LVL44:
  69:/home/pi/Developer/tinyusb/src/tusb.c **** }
 463              		.loc 1 69 3 is_stmt 1 view .LVU125
 464              	.L33:
  69:/home/pi/Developer/tinyusb/src/tusb.c **** }
 465              		.loc 1 69 52 discriminator 1 view .LVU126
  69:/home/pi/Developer/tinyusb/src/tusb.c **** }
 466              		.loc 1 69 9 discriminator 1 view .LVU127
  69:/home/pi/Developer/tinyusb/src/tusb.c **** }
 467              		.loc 1 69 11 is_stmt 0 discriminator 1 view .LVU128
 468 000a FFF7FEFF 		bl	tusb_time_millis_api
 469              	.LVL45:
  69:/home/pi/Developer/tinyusb/src/tusb.c **** }
 470              		.loc 1 69 34 discriminator 1 view .LVU129
 471 000e 031B     		subs	r3, r0, r4
ARM GAS  /tmp/ccrixPyT.s 			page 28


  69:/home/pi/Developer/tinyusb/src/tusb.c **** }
 472              		.loc 1 69 9 discriminator 1 view .LVU130
 473 0010 AB42     		cmp	r3, r5
 474 0012 FAD3     		bcc	.L33
  70:/home/pi/Developer/tinyusb/src/tusb.c **** #endif
 475              		.loc 1 70 1 view .LVU131
 476 0014 38BD     		pop	{r3, r4, r5, pc}
  70:/home/pi/Developer/tinyusb/src/tusb.c **** #endif
 477              		.loc 1 70 1 view .LVU132
 478              		.cfi_endproc
 479              	.LFE446:
 481 0016 00BF     		.section	.text.tusb_app_virt_to_phys,"ax",%progbits
 482              		.align	1
 483              		.p2align 2,,3
 484              		.weak	tusb_app_virt_to_phys
 485              		.syntax unified
 486              		.thumb
 487              		.thumb_func
 488              		.fpu fpv5-d16
 490              	tusb_app_virt_to_phys:
 491              	.LVL46:
 492              	.LFB447:
  73:/home/pi/Developer/tinyusb/src/tusb.c ****   return virt_addr;
 493              		.loc 1 73 59 is_stmt 1 view -0
 494              		.cfi_startproc
 495              		@ args = 0, pretend = 0, frame = 0
 496              		@ frame_needed = 0, uses_anonymous_args = 0
 497              		@ link register save eliminated.
  74:/home/pi/Developer/tinyusb/src/tusb.c **** }
 498              		.loc 1 74 3 view .LVU134
  75:/home/pi/Developer/tinyusb/src/tusb.c **** 
 499              		.loc 1 75 1 is_stmt 0 view .LVU135
 500 0000 7047     		bx	lr
 501              		.cfi_endproc
 502              	.LFE447:
 504 0002 00BF     		.section	.text.tusb_app_phys_to_virt,"ax",%progbits
 505              		.align	1
 506              		.p2align 2,,3
 507              		.weak	tusb_app_phys_to_virt
 508              		.syntax unified
 509              		.thumb
 510              		.thumb_func
 511              		.fpu fpv5-d16
 513              	tusb_app_phys_to_virt:
 514              	.LFB474:
 515              		.cfi_startproc
 516              		@ args = 0, pretend = 0, frame = 0
 517              		@ frame_needed = 0, uses_anonymous_args = 0
 518              		@ link register save eliminated.
 519 0000 7047     		bx	lr
 520              		.cfi_endproc
 521              	.LFE474:
 523 0002 00BF     		.section	.text.tusb_rhport_init,"ax",%progbits
 524              		.align	1
 525              		.p2align 2,,3
 526              		.global	tusb_rhport_init
 527              		.syntax unified
ARM GAS  /tmp/ccrixPyT.s 			page 29


 528              		.thumb
 529              		.thumb_func
 530              		.fpu fpv5-d16
 532              	tusb_rhport_init:
 533              	.LVL47:
 534              	.LFB449:
  84:/home/pi/Developer/tinyusb/src/tusb.c ****   //  backward compatible called with tusb_init(void)
 535              		.loc 1 84 74 is_stmt 1 view -0
 536              		.cfi_startproc
 537              		@ args = 0, pretend = 0, frame = 0
 538              		@ frame_needed = 0, uses_anonymous_args = 0
 113:/home/pi/Developer/tinyusb/src/tusb.c ****   _tusb_rhport_role[rhport] = rh_init->role;
 539              		.loc 1 113 3 view .LVU137
 113:/home/pi/Developer/tinyusb/src/tusb.c ****   _tusb_rhport_role[rhport] = rh_init->role;
 540              		.loc 1 113 3 view .LVU138
 541 0000 0128     		cmp	r0, #1
 542 0002 08D8     		bhi	.L39
 113:/home/pi/Developer/tinyusb/src/tusb.c ****   _tusb_rhport_role[rhport] = rh_init->role;
 543              		.loc 1 113 3 is_stmt 0 discriminator 2 view .LVU139
 544 0004 0A78     		ldrb	r2, [r1]	@ zero_extendqisi2
 545 0006 32B1     		cbz	r2, .L39
 113:/home/pi/Developer/tinyusb/src/tusb.c ****   _tusb_rhport_role[rhport] = rh_init->role;
 546              		.loc 1 113 3 is_stmt 1 discriminator 4 view .LVU140
 114:/home/pi/Developer/tinyusb/src/tusb.c **** 
 547              		.loc 1 114 3 discriminator 4 view .LVU141
 117:/home/pi/Developer/tinyusb/src/tusb.c ****     TU_ASSERT(tud_rhport_init(rhport, rh_init));
 548              		.loc 1 117 6 is_stmt 0 discriminator 4 view .LVU142
 549 0008 012A     		cmp	r2, #1
  84:/home/pi/Developer/tinyusb/src/tusb.c ****   //  backward compatible called with tusb_init(void)
 550              		.loc 1 84 74 discriminator 4 view .LVU143
 551 000a 10B5     		push	{r4, lr}
 552              		.cfi_def_cfa_offset 8
 553              		.cfi_offset 4, -8
 554              		.cfi_offset 14, -4
 114:/home/pi/Developer/tinyusb/src/tusb.c **** 
 555              		.loc 1 114 29 discriminator 4 view .LVU144
 556 000c 0E4C     		ldr	r4, .L54
 557 000e 2254     		strb	r2, [r4, r0]
 117:/home/pi/Developer/tinyusb/src/tusb.c ****     TU_ASSERT(tud_rhport_init(rhport, rh_init));
 558              		.loc 1 117 3 is_stmt 1 discriminator 4 view .LVU145
 117:/home/pi/Developer/tinyusb/src/tusb.c ****     TU_ASSERT(tud_rhport_init(rhport, rh_init));
 559              		.loc 1 117 6 is_stmt 0 discriminator 4 view .LVU146
 560 0010 0CD0     		beq	.L43
 561              	.LVL48:
 562              	.L44:
 128:/home/pi/Developer/tinyusb/src/tusb.c **** }
 563              		.loc 1 128 10 view .LVU147
 564 0012 0120     		movs	r0, #1
 129:/home/pi/Developer/tinyusb/src/tusb.c **** 
 565              		.loc 1 129 1 view .LVU148
 566 0014 10BD     		pop	{r4, pc}
 567              	.LVL49:
 568              	.L39:
 569              		.cfi_def_cfa_offset 0
 570              		.cfi_restore 4
 571              		.cfi_restore 14
 113:/home/pi/Developer/tinyusb/src/tusb.c ****   _tusb_rhport_role[rhport] = rh_init->role;
ARM GAS  /tmp/ccrixPyT.s 			page 30


 572              		.loc 1 113 3 is_stmt 1 discriminator 3 view .LVU149
 113:/home/pi/Developer/tinyusb/src/tusb.c ****   _tusb_rhport_role[rhport] = rh_init->role;
 573              		.loc 1 113 3 discriminator 3 view .LVU150
 113:/home/pi/Developer/tinyusb/src/tusb.c ****   _tusb_rhport_role[rhport] = rh_init->role;
 574              		.loc 1 113 3 discriminator 3 view .LVU151
 113:/home/pi/Developer/tinyusb/src/tusb.c ****   _tusb_rhport_role[rhport] = rh_init->role;
 575              		.loc 1 113 3 discriminator 3 view .LVU152
 576              	.LBB174:
 113:/home/pi/Developer/tinyusb/src/tusb.c ****   _tusb_rhport_role[rhport] = rh_init->role;
 577              		.loc 1 113 3 discriminator 3 view .LVU153
 113:/home/pi/Developer/tinyusb/src/tusb.c ****   _tusb_rhport_role[rhport] = rh_init->role;
 578              		.loc 1 113 3 discriminator 3 view .LVU154
 579 0016 4FF0E023 		mov	r3, #-536813568
 580 001a D3F8F03D 		ldr	r3, [r3, #3568]
 581 001e DA07     		lsls	r2, r3, #31
 582 0020 02D5     		bpl	.L53
 113:/home/pi/Developer/tinyusb/src/tusb.c ****   _tusb_rhport_role[rhport] = rh_init->role;
 583              		.loc 1 113 3 discriminator 5 view .LVU155
 584              		.syntax unified
 585              	@ 113 "/home/pi/Developer/tinyusb/src/tusb.c" 1
 586 0022 00BE     		BKPT #0
 587              	
 588              	@ 0 "" 2
 589              		.thumb
 590              		.syntax unified
 591              	.LBE174:
 592 0024 0020     		movs	r0, #0
 593              	.LVL50:
 113:/home/pi/Developer/tinyusb/src/tusb.c ****   _tusb_rhport_role[rhport] = rh_init->role;
 594              		.loc 1 113 3 is_stmt 0 discriminator 5 view .LVU156
 595 0026 7047     		bx	lr
 596              	.LVL51:
 597              	.L53:
 113:/home/pi/Developer/tinyusb/src/tusb.c ****   _tusb_rhport_role[rhport] = rh_init->role;
 598              		.loc 1 113 3 view .LVU157
 599 0028 0020     		movs	r0, #0
 600              	.LVL52:
 129:/home/pi/Developer/tinyusb/src/tusb.c **** 
 601              		.loc 1 129 1 view .LVU158
 602 002a 7047     		bx	lr
 603              	.LVL53:
 604              	.L43:
 605              		.cfi_def_cfa_offset 8
 606              		.cfi_offset 4, -8
 607              		.cfi_offset 14, -4
 118:/home/pi/Developer/tinyusb/src/tusb.c ****   }
 608              		.loc 1 118 5 is_stmt 1 view .LVU159
 118:/home/pi/Developer/tinyusb/src/tusb.c ****   }
 609              		.loc 1 118 5 view .LVU160
 610 002c FFF7FEFF 		bl	tud_rhport_init
 611              	.LVL54:
 118:/home/pi/Developer/tinyusb/src/tusb.c ****   }
 612              		.loc 1 118 5 is_stmt 0 view .LVU161
 613 0030 0028     		cmp	r0, #0
 614 0032 EED1     		bne	.L44
 118:/home/pi/Developer/tinyusb/src/tusb.c ****   }
 615              		.loc 1 118 5 is_stmt 1 discriminator 1 view .LVU162
ARM GAS  /tmp/ccrixPyT.s 			page 31


 118:/home/pi/Developer/tinyusb/src/tusb.c ****   }
 616              		.loc 1 118 5 discriminator 1 view .LVU163
 118:/home/pi/Developer/tinyusb/src/tusb.c ****   }
 617              		.loc 1 118 5 discriminator 1 view .LVU164
 118:/home/pi/Developer/tinyusb/src/tusb.c ****   }
 618              		.loc 1 118 5 discriminator 1 view .LVU165
 619              	.LBB175:
 118:/home/pi/Developer/tinyusb/src/tusb.c ****   }
 620              		.loc 1 118 5 discriminator 1 view .LVU166
 621              	.LVL55:
 118:/home/pi/Developer/tinyusb/src/tusb.c ****   }
 622              		.loc 1 118 5 discriminator 1 view .LVU167
 623 0034 4FF0E023 		mov	r3, #-536813568
 624 0038 D3F8F03D 		ldr	r3, [r3, #3568]
 625 003c DB07     		lsls	r3, r3, #31
 626 003e 01D5     		bpl	.L45
 118:/home/pi/Developer/tinyusb/src/tusb.c ****   }
 627              		.loc 1 118 5 discriminator 3 view .LVU168
 628              		.syntax unified
 629              	@ 118 "/home/pi/Developer/tinyusb/src/tusb.c" 1
 630 0040 00BE     		BKPT #0
 631              	
 632              	@ 0 "" 2
 633              		.thumb
 634              		.syntax unified
 635              	.LBE175:
 129:/home/pi/Developer/tinyusb/src/tusb.c **** 
 636              		.loc 1 129 1 is_stmt 0 discriminator 3 view .LVU169
 637 0042 10BD     		pop	{r4, pc}
 638              	.L45:
 113:/home/pi/Developer/tinyusb/src/tusb.c ****   _tusb_rhport_role[rhport] = rh_init->role;
 639              		.loc 1 113 3 view .LVU170
 640 0044 0020     		movs	r0, #0
 129:/home/pi/Developer/tinyusb/src/tusb.c **** 
 641              		.loc 1 129 1 view .LVU171
 642 0046 10BD     		pop	{r4, pc}
 643              	.L55:
 644              		.align	2
 645              	.L54:
 646 0048 00000000 		.word	.LANCHOR0
 647              		.cfi_endproc
 648              	.LFE449:
 650              		.section	.text.tusb_inited,"ax",%progbits
 651              		.align	1
 652              		.p2align 2,,3
 653              		.global	tusb_inited
 654              		.syntax unified
 655              		.thumb
 656              		.thumb_func
 657              		.fpu fpv5-d16
 659              	tusb_inited:
 660              	.LFB450:
 131:/home/pi/Developer/tinyusb/src/tusb.c ****   bool ret = false;
 661              		.loc 1 131 24 is_stmt 1 view -0
 662              		.cfi_startproc
 663              		@ args = 0, pretend = 0, frame = 0
 664              		@ frame_needed = 0, uses_anonymous_args = 0
ARM GAS  /tmp/ccrixPyT.s 			page 32


 665              		@ link register save eliminated.
 132:/home/pi/Developer/tinyusb/src/tusb.c **** 
 666              		.loc 1 132 3 view .LVU173
 667              	.LVL56:
 135:/home/pi/Developer/tinyusb/src/tusb.c ****     ret = true;
 668              		.loc 1 135 3 view .LVU174
 135:/home/pi/Developer/tinyusb/src/tusb.c ****     ret = true;
 669              		.loc 1 135 7 is_stmt 0 view .LVU175
 670 0000 FFF7FEBF 		b	tud_inited
 671              	.LVL57:
 672              		.cfi_endproc
 673              	.LFE450:
 675              		.section	.text.tusb_int_handler,"ax",%progbits
 676              		.align	1
 677              		.p2align 2,,3
 678              		.global	tusb_int_handler
 679              		.syntax unified
 680              		.thumb
 681              		.thumb_func
 682              		.fpu fpv5-d16
 684              	tusb_int_handler:
 685              	.LVL58:
 686              	.LFB451:
 149:/home/pi/Developer/tinyusb/src/tusb.c ****   TU_VERIFY(rhport < TUP_USBIP_CONTROLLER_NUM,);
 687              		.loc 1 149 52 is_stmt 1 view -0
 688              		.cfi_startproc
 689              		@ args = 0, pretend = 0, frame = 0
 690              		@ frame_needed = 0, uses_anonymous_args = 0
 691              		@ link register save eliminated.
 150:/home/pi/Developer/tinyusb/src/tusb.c **** 
 692              		.loc 1 150 3 view .LVU177
 150:/home/pi/Developer/tinyusb/src/tusb.c **** 
 693              		.loc 1 150 3 view .LVU178
 694 0000 0128     		cmp	r0, #1
 695 0002 03D8     		bhi	.L57
 150:/home/pi/Developer/tinyusb/src/tusb.c **** 
 696              		.loc 1 150 3 discriminator 2 view .LVU179
 153:/home/pi/Developer/tinyusb/src/tusb.c ****     (void) in_isr;
 697              		.loc 1 153 3 discriminator 2 view .LVU180
 153:/home/pi/Developer/tinyusb/src/tusb.c ****     (void) in_isr;
 698              		.loc 1 153 24 is_stmt 0 discriminator 2 view .LVU181
 699 0004 034A     		ldr	r2, .L60
 153:/home/pi/Developer/tinyusb/src/tusb.c ****     (void) in_isr;
 700              		.loc 1 153 6 discriminator 2 view .LVU182
 701 0006 135C     		ldrb	r3, [r2, r0]	@ zero_extendqisi2
 702 0008 012B     		cmp	r3, #1
 703 000a 00D0     		beq	.L59
 704              	.L57:
 164:/home/pi/Developer/tinyusb/src/tusb.c **** 
 705              		.loc 1 164 1 view .LVU183
 706 000c 7047     		bx	lr
 707              	.L59:
 154:/home/pi/Developer/tinyusb/src/tusb.c ****     dcd_int_handler(rhport);
 708              		.loc 1 154 5 is_stmt 1 view .LVU184
 155:/home/pi/Developer/tinyusb/src/tusb.c ****   }
 709              		.loc 1 155 5 view .LVU185
 710 000e FFF7FEBF 		b	dcd_int_handler
ARM GAS  /tmp/ccrixPyT.s 			page 33


 711              	.LVL59:
 712              	.L61:
 155:/home/pi/Developer/tinyusb/src/tusb.c ****   }
 713              		.loc 1 155 5 is_stmt 0 view .LVU186
 714 0012 00BF     		.align	2
 715              	.L60:
 716 0014 00000000 		.word	.LANCHOR0
 717              		.cfi_endproc
 718              	.LFE451:
 720              		.section	.text.tusb_deinit,"ax",%progbits
 721              		.align	1
 722              		.p2align 2,,3
 723              		.global	tusb_deinit
 724              		.syntax unified
 725              		.thumb
 726              		.thumb_func
 727              		.fpu fpv5-d16
 729              	tusb_deinit:
 730              	.LVL60:
 731              	.LFB452:
 166:/home/pi/Developer/tinyusb/src/tusb.c ****   TU_VERIFY(rhport < TUP_USBIP_CONTROLLER_NUM);
 732              		.loc 1 166 34 is_stmt 1 view -0
 733              		.cfi_startproc
 734              		@ args = 0, pretend = 0, frame = 0
 735              		@ frame_needed = 0, uses_anonymous_args = 0
 167:/home/pi/Developer/tinyusb/src/tusb.c ****   bool ret = false;
 736              		.loc 1 167 3 view .LVU188
 167:/home/pi/Developer/tinyusb/src/tusb.c ****   bool ret = false;
 737              		.loc 1 167 3 view .LVU189
 738 0000 0128     		cmp	r0, #1
 739 0002 07D8     		bhi	.L73
 166:/home/pi/Developer/tinyusb/src/tusb.c ****   TU_VERIFY(rhport < TUP_USBIP_CONTROLLER_NUM);
 740              		.loc 1 166 34 is_stmt 0 discriminator 2 view .LVU190
 741 0004 38B5     		push	{r3, r4, r5, lr}
 742              		.cfi_def_cfa_offset 16
 743              		.cfi_offset 3, -16
 744              		.cfi_offset 4, -12
 745              		.cfi_offset 5, -8
 746              		.cfi_offset 14, -4
 171:/home/pi/Developer/tinyusb/src/tusb.c ****     TU_ASSERT(tud_deinit(rhport));
 747              		.loc 1 171 24 discriminator 2 view .LVU191
 748 0006 0B4D     		ldr	r5, .L76
 749 0008 0446     		mov	r4, r0
 167:/home/pi/Developer/tinyusb/src/tusb.c ****   bool ret = false;
 750              		.loc 1 167 3 is_stmt 1 discriminator 2 view .LVU192
 168:/home/pi/Developer/tinyusb/src/tusb.c **** 
 751              		.loc 1 168 3 discriminator 2 view .LVU193
 752              	.LVL61:
 171:/home/pi/Developer/tinyusb/src/tusb.c ****     TU_ASSERT(tud_deinit(rhport));
 753              		.loc 1 171 3 discriminator 2 view .LVU194
 171:/home/pi/Developer/tinyusb/src/tusb.c ****     TU_ASSERT(tud_deinit(rhport));
 754              		.loc 1 171 6 is_stmt 0 discriminator 2 view .LVU195
 755 000a 2B5C     		ldrb	r3, [r5, r0]	@ zero_extendqisi2
 756 000c 012B     		cmp	r3, #1
 757 000e 03D0     		beq	.L74
 758              	.LVL62:
 759              	.L65:
ARM GAS  /tmp/ccrixPyT.s 			page 34


 167:/home/pi/Developer/tinyusb/src/tusb.c ****   bool ret = false;
 760              		.loc 1 167 3 view .LVU196
 761 0010 0020     		movs	r0, #0
 762              	.LVL63:
 187:/home/pi/Developer/tinyusb/src/tusb.c **** 
 763              		.loc 1 187 1 view .LVU197
 764 0012 38BD     		pop	{r3, r4, r5, pc}
 765              	.LVL64:
 766              	.L73:
 767              		.cfi_def_cfa_offset 0
 768              		.cfi_restore 3
 769              		.cfi_restore 4
 770              		.cfi_restore 5
 771              		.cfi_restore 14
 167:/home/pi/Developer/tinyusb/src/tusb.c ****   bool ret = false;
 772              		.loc 1 167 3 view .LVU198
 773 0014 0020     		movs	r0, #0
 774              	.LVL65:
 187:/home/pi/Developer/tinyusb/src/tusb.c **** 
 775              		.loc 1 187 1 view .LVU199
 776 0016 7047     		bx	lr
 777              	.LVL66:
 778              	.L74:
 779              		.cfi_def_cfa_offset 16
 780              		.cfi_offset 3, -16
 781              		.cfi_offset 4, -12
 782              		.cfi_offset 5, -8
 783              		.cfi_offset 14, -4
 172:/home/pi/Developer/tinyusb/src/tusb.c ****     _tusb_rhport_role[rhport] = TUSB_ROLE_INVALID;
 784              		.loc 1 172 5 is_stmt 1 view .LVU200
 172:/home/pi/Developer/tinyusb/src/tusb.c ****     _tusb_rhport_role[rhport] = TUSB_ROLE_INVALID;
 785              		.loc 1 172 5 view .LVU201
 786 0018 FFF7FEFF 		bl	tud_deinit
 787              	.LVL67:
 172:/home/pi/Developer/tinyusb/src/tusb.c ****     _tusb_rhport_role[rhport] = TUSB_ROLE_INVALID;
 788              		.loc 1 172 5 is_stmt 0 view .LVU202
 789 001c 10B1     		cbz	r0, .L75
 172:/home/pi/Developer/tinyusb/src/tusb.c ****     _tusb_rhport_role[rhport] = TUSB_ROLE_INVALID;
 790              		.loc 1 172 5 is_stmt 1 discriminator 2 view .LVU203
 173:/home/pi/Developer/tinyusb/src/tusb.c ****     ret = true;
 791              		.loc 1 173 5 discriminator 2 view .LVU204
 173:/home/pi/Developer/tinyusb/src/tusb.c ****     ret = true;
 792              		.loc 1 173 31 is_stmt 0 discriminator 2 view .LVU205
 793 001e 0023     		movs	r3, #0
 794 0020 2B55     		strb	r3, [r5, r4]
 174:/home/pi/Developer/tinyusb/src/tusb.c ****   }
 795              		.loc 1 174 5 is_stmt 1 discriminator 2 view .LVU206
 796              	.LVL68:
 187:/home/pi/Developer/tinyusb/src/tusb.c **** 
 797              		.loc 1 187 1 is_stmt 0 discriminator 2 view .LVU207
 798 0022 38BD     		pop	{r3, r4, r5, pc}
 799              	.LVL69:
 800              	.L75:
 172:/home/pi/Developer/tinyusb/src/tusb.c ****     _tusb_rhport_role[rhport] = TUSB_ROLE_INVALID;
 801              		.loc 1 172 5 is_stmt 1 discriminator 1 view .LVU208
 172:/home/pi/Developer/tinyusb/src/tusb.c ****     _tusb_rhport_role[rhport] = TUSB_ROLE_INVALID;
 802              		.loc 1 172 5 discriminator 1 view .LVU209
ARM GAS  /tmp/ccrixPyT.s 			page 35


 172:/home/pi/Developer/tinyusb/src/tusb.c ****     _tusb_rhport_role[rhport] = TUSB_ROLE_INVALID;
 803              		.loc 1 172 5 discriminator 1 view .LVU210
 172:/home/pi/Developer/tinyusb/src/tusb.c ****     _tusb_rhport_role[rhport] = TUSB_ROLE_INVALID;
 804              		.loc 1 172 5 discriminator 1 view .LVU211
 805              	.LBB176:
 172:/home/pi/Developer/tinyusb/src/tusb.c ****     _tusb_rhport_role[rhport] = TUSB_ROLE_INVALID;
 806              		.loc 1 172 5 discriminator 1 view .LVU212
 172:/home/pi/Developer/tinyusb/src/tusb.c ****     _tusb_rhport_role[rhport] = TUSB_ROLE_INVALID;
 807              		.loc 1 172 5 discriminator 1 view .LVU213
 808 0024 4FF0E023 		mov	r3, #-536813568
 809 0028 D3F8F03D 		ldr	r3, [r3, #3568]
 810 002c DB07     		lsls	r3, r3, #31
 811 002e EFD5     		bpl	.L65
 172:/home/pi/Developer/tinyusb/src/tusb.c ****     _tusb_rhport_role[rhport] = TUSB_ROLE_INVALID;
 812              		.loc 1 172 5 discriminator 3 view .LVU214
 813              		.syntax unified
 814              	@ 172 "/home/pi/Developer/tinyusb/src/tusb.c" 1
 815 0030 00BE     		BKPT #0
 816              	
 817              	@ 0 "" 2
 818              	.LVL70:
 172:/home/pi/Developer/tinyusb/src/tusb.c ****     _tusb_rhport_role[rhport] = TUSB_ROLE_INVALID;
 819              		.loc 1 172 5 is_stmt 0 discriminator 3 view .LVU215
 820              		.thumb
 821              		.syntax unified
 822              	.LBE176:
 187:/home/pi/Developer/tinyusb/src/tusb.c **** 
 823              		.loc 1 187 1 discriminator 3 view .LVU216
 824 0032 38BD     		pop	{r3, r4, r5, pc}
 825              	.L77:
 826              		.align	2
 827              	.L76:
 828 0034 00000000 		.word	.LANCHOR0
 829              		.cfi_endproc
 830              	.LFE452:
 832              		.section	.text.tu_desc_find,"ax",%progbits
 833              		.align	1
 834              		.p2align 2,,3
 835              		.global	tu_desc_find
 836              		.syntax unified
 837              		.thumb
 838              		.thumb_func
 839              		.fpu fpv5-d16
 841              	tu_desc_find:
 842              	.LVL71:
 843              	.LFB453:
 193:/home/pi/Developer/tinyusb/src/tusb.c ****   while (desc + 1 < end) {
 844              		.loc 1 193 85 is_stmt 1 view -0
 845              		.cfi_startproc
 846              		@ args = 0, pretend = 0, frame = 0
 847              		@ frame_needed = 0, uses_anonymous_args = 0
 848              		@ link register save eliminated.
 193:/home/pi/Developer/tinyusb/src/tusb.c ****   while (desc + 1 < end) {
 849              		.loc 1 193 85 is_stmt 0 view .LVU218
 850 0000 04E0     		b	.L84
 851              	.L80:
 195:/home/pi/Developer/tinyusb/src/tusb.c ****       return desc;
ARM GAS  /tmp/ccrixPyT.s 			page 36


 852              		.loc 1 195 5 is_stmt 1 view .LVU219
 198:/home/pi/Developer/tinyusb/src/tusb.c ****   }
 853              		.loc 1 198 5 view .LVU220
 195:/home/pi/Developer/tinyusb/src/tusb.c ****       return desc;
 854              		.loc 1 195 8 is_stmt 0 view .LVU221
 855 0002 4378     		ldrb	r3, [r0, #1]	@ zero_extendqisi2
 856 0004 9342     		cmp	r3, r2
 857 0006 05D0     		beq	.L78
 198:/home/pi/Developer/tinyusb/src/tusb.c ****   }
 858              		.loc 1 198 17 view .LVU222
 859 0008 0378     		ldrb	r3, [r0]	@ zero_extendqisi2
 198:/home/pi/Developer/tinyusb/src/tusb.c ****   }
 860              		.loc 1 198 10 view .LVU223
 861 000a 1844     		add	r0, r0, r3
 862              	.LVL72:
 863              	.L84:
 194:/home/pi/Developer/tinyusb/src/tusb.c ****     if (desc[1] == byte1) {
 864              		.loc 1 194 9 is_stmt 1 view .LVU224
 194:/home/pi/Developer/tinyusb/src/tusb.c ****     if (desc[1] == byte1) {
 865              		.loc 1 194 15 is_stmt 0 view .LVU225
 866 000c 431C     		adds	r3, r0, #1
 194:/home/pi/Developer/tinyusb/src/tusb.c ****     if (desc[1] == byte1) {
 867              		.loc 1 194 9 view .LVU226
 868 000e 9942     		cmp	r1, r3
 869 0010 F7D8     		bhi	.L80
 200:/home/pi/Developer/tinyusb/src/tusb.c **** }
 870              		.loc 1 200 10 view .LVU227
 871 0012 0020     		movs	r0, #0
 872              	.LVL73:
 873              	.L78:
 201:/home/pi/Developer/tinyusb/src/tusb.c **** 
 874              		.loc 1 201 1 view .LVU228
 875 0014 7047     		bx	lr
 876              		.cfi_endproc
 877              	.LFE453:
 879 0016 00BF     		.section	.text.tu_desc_find2,"ax",%progbits
 880              		.align	1
 881              		.p2align 2,,3
 882              		.global	tu_desc_find2
 883              		.syntax unified
 884              		.thumb
 885              		.thumb_func
 886              		.fpu fpv5-d16
 888              	tu_desc_find2:
 889              	.LVL74:
 890              	.LFB454:
 203:/home/pi/Developer/tinyusb/src/tusb.c ****   while (desc + 2 < end) {
 891              		.loc 1 203 101 is_stmt 1 view -0
 892              		.cfi_startproc
 893              		@ args = 0, pretend = 0, frame = 0
 894              		@ frame_needed = 0, uses_anonymous_args = 0
 895              		@ link register save eliminated.
 203:/home/pi/Developer/tinyusb/src/tusb.c ****   while (desc + 2 < end) {
 896              		.loc 1 203 101 is_stmt 0 view .LVU230
 897 0000 02E0     		b	.L92
 898              	.L87:
 208:/home/pi/Developer/tinyusb/src/tusb.c ****   }
ARM GAS  /tmp/ccrixPyT.s 			page 37


 899              		.loc 1 208 17 view .LVU231
 900 0002 90F800C0 		ldrb	ip, [r0]	@ zero_extendqisi2
 208:/home/pi/Developer/tinyusb/src/tusb.c ****   }
 901              		.loc 1 208 10 view .LVU232
 902 0006 6044     		add	r0, r0, ip
 903              	.LVL75:
 904              	.L92:
 204:/home/pi/Developer/tinyusb/src/tusb.c ****     if (desc[1] == byte1 && desc[2] == byte2) {
 905              		.loc 1 204 9 is_stmt 1 view .LVU233
 204:/home/pi/Developer/tinyusb/src/tusb.c ****     if (desc[1] == byte1 && desc[2] == byte2) {
 906              		.loc 1 204 15 is_stmt 0 view .LVU234
 907 0008 00F1020C 		add	ip, r0, #2
 204:/home/pi/Developer/tinyusb/src/tusb.c ****     if (desc[1] == byte1 && desc[2] == byte2) {
 908              		.loc 1 204 9 view .LVU235
 909 000c 6145     		cmp	r1, ip
 910 000e 08D9     		bls	.L93
 205:/home/pi/Developer/tinyusb/src/tusb.c ****       return desc;
 911              		.loc 1 205 5 is_stmt 1 view .LVU236
 208:/home/pi/Developer/tinyusb/src/tusb.c ****   }
 912              		.loc 1 208 5 view .LVU237
 205:/home/pi/Developer/tinyusb/src/tusb.c ****       return desc;
 913              		.loc 1 205 8 is_stmt 0 view .LVU238
 914 0010 90F801C0 		ldrb	ip, [r0, #1]	@ zero_extendqisi2
 915 0014 9445     		cmp	ip, r2
 916 0016 F4D1     		bne	.L87
 205:/home/pi/Developer/tinyusb/src/tusb.c ****       return desc;
 917              		.loc 1 205 26 discriminator 1 view .LVU239
 918 0018 90F802C0 		ldrb	ip, [r0, #2]	@ zero_extendqisi2
 919 001c 9C45     		cmp	ip, r3
 920 001e F0D1     		bne	.L87
 211:/home/pi/Developer/tinyusb/src/tusb.c **** 
 921              		.loc 1 211 1 view .LVU240
 922 0020 7047     		bx	lr
 923              	.L93:
 210:/home/pi/Developer/tinyusb/src/tusb.c **** }
 924              		.loc 1 210 10 view .LVU241
 925 0022 0020     		movs	r0, #0
 926              	.LVL76:
 211:/home/pi/Developer/tinyusb/src/tusb.c **** 
 927              		.loc 1 211 1 view .LVU242
 928 0024 7047     		bx	lr
 929              		.cfi_endproc
 930              	.LFE454:
 932 0026 00BF     		.section	.text.tu_desc_find3,"ax",%progbits
 933              		.align	1
 934              		.p2align 2,,3
 935              		.global	tu_desc_find3
 936              		.syntax unified
 937              		.thumb
 938              		.thumb_func
 939              		.fpu fpv5-d16
 941              	tu_desc_find3:
 942              	.LVL77:
 943              	.LFB455:
 213:/home/pi/Developer/tinyusb/src/tusb.c ****   while (desc + 3 < end) {
 944              		.loc 1 213 116 is_stmt 1 view -0
 945              		.cfi_startproc
ARM GAS  /tmp/ccrixPyT.s 			page 38


 946              		@ args = 4, pretend = 0, frame = 0
 947              		@ frame_needed = 0, uses_anonymous_args = 0
 214:/home/pi/Developer/tinyusb/src/tusb.c ****     if (desc[1] == byte1 && desc[2] == byte2 && desc[3] == byte3) {
 948              		.loc 1 214 3 view .LVU244
 214:/home/pi/Developer/tinyusb/src/tusb.c ****     if (desc[1] == byte1 && desc[2] == byte2 && desc[3] == byte3) {
 949              		.loc 1 214 9 view .LVU245
 214:/home/pi/Developer/tinyusb/src/tusb.c ****     if (desc[1] == byte1 && desc[2] == byte2 && desc[3] == byte3) {
 950              		.loc 1 214 15 is_stmt 0 view .LVU246
 951 0000 00F1030C 		add	ip, r0, #3
 214:/home/pi/Developer/tinyusb/src/tusb.c ****     if (desc[1] == byte1 && desc[2] == byte2 && desc[3] == byte3) {
 952              		.loc 1 214 9 view .LVU247
 953 0004 6145     		cmp	r1, ip
 213:/home/pi/Developer/tinyusb/src/tusb.c ****   while (desc + 3 < end) {
 954              		.loc 1 213 116 view .LVU248
 955 0006 00B5     		push	{lr}
 956              		.cfi_def_cfa_offset 4
 957              		.cfi_offset 14, -4
 213:/home/pi/Developer/tinyusb/src/tusb.c ****   while (desc + 3 < end) {
 958              		.loc 1 213 116 view .LVU249
 959 0008 9DF804E0 		ldrb	lr, [sp, #4]	@ zero_extendqisi2
 214:/home/pi/Developer/tinyusb/src/tusb.c ****     if (desc[1] == byte1 && desc[2] == byte2 && desc[3] == byte3) {
 960              		.loc 1 214 9 view .LVU250
 961 000c 07D8     		bhi	.L97
 962 000e 14E0     		b	.L98
 963              	.L96:
 218:/home/pi/Developer/tinyusb/src/tusb.c ****   }
 964              		.loc 1 218 17 view .LVU251
 965 0010 90F800C0 		ldrb	ip, [r0]	@ zero_extendqisi2
 218:/home/pi/Developer/tinyusb/src/tusb.c ****   }
 966              		.loc 1 218 10 view .LVU252
 967 0014 6044     		add	r0, r0, ip
 968              	.LVL78:
 214:/home/pi/Developer/tinyusb/src/tusb.c ****     if (desc[1] == byte1 && desc[2] == byte2 && desc[3] == byte3) {
 969              		.loc 1 214 9 is_stmt 1 view .LVU253
 214:/home/pi/Developer/tinyusb/src/tusb.c ****     if (desc[1] == byte1 && desc[2] == byte2 && desc[3] == byte3) {
 970              		.loc 1 214 15 is_stmt 0 view .LVU254
 971 0016 00F1030C 		add	ip, r0, #3
 214:/home/pi/Developer/tinyusb/src/tusb.c ****     if (desc[1] == byte1 && desc[2] == byte2 && desc[3] == byte3) {
 972              		.loc 1 214 9 view .LVU255
 973 001a 6145     		cmp	r1, ip
 974 001c 0DD9     		bls	.L98
 975              	.L97:
 215:/home/pi/Developer/tinyusb/src/tusb.c ****       return desc;
 976              		.loc 1 215 5 is_stmt 1 view .LVU256
 218:/home/pi/Developer/tinyusb/src/tusb.c ****   }
 977              		.loc 1 218 5 view .LVU257
 215:/home/pi/Developer/tinyusb/src/tusb.c ****       return desc;
 978              		.loc 1 215 8 is_stmt 0 view .LVU258
 979 001e 90F801C0 		ldrb	ip, [r0, #1]	@ zero_extendqisi2
 980 0022 9445     		cmp	ip, r2
 981 0024 F4D1     		bne	.L96
 215:/home/pi/Developer/tinyusb/src/tusb.c ****       return desc;
 982              		.loc 1 215 26 discriminator 1 view .LVU259
 983 0026 90F802C0 		ldrb	ip, [r0, #2]	@ zero_extendqisi2
 984 002a 9C45     		cmp	ip, r3
 985 002c F0D1     		bne	.L96
 215:/home/pi/Developer/tinyusb/src/tusb.c ****       return desc;
ARM GAS  /tmp/ccrixPyT.s 			page 39


 986              		.loc 1 215 46 discriminator 2 view .LVU260
 987 002e 90F803C0 		ldrb	ip, [r0, #3]	@ zero_extendqisi2
 988 0032 F445     		cmp	ip, lr
 989 0034 ECD1     		bne	.L96
 221:/home/pi/Developer/tinyusb/src/tusb.c **** 
 990              		.loc 1 221 1 view .LVU261
 991 0036 5DF804FB 		ldr	pc, [sp], #4
 992              	.LVL79:
 993              	.L98:
 220:/home/pi/Developer/tinyusb/src/tusb.c **** }
 994              		.loc 1 220 10 view .LVU262
 995 003a 0020     		movs	r0, #0
 996              	.LVL80:
 221:/home/pi/Developer/tinyusb/src/tusb.c **** 
 997              		.loc 1 221 1 view .LVU263
 998 003c 5DF804FB 		ldr	pc, [sp], #4
 221:/home/pi/Developer/tinyusb/src/tusb.c **** 
 999              		.loc 1 221 1 view .LVU264
 1000              		.cfi_endproc
 1001              	.LFE455:
 1003              		.section	.text.tu_edpt_claim,"ax",%progbits
 1004              		.align	1
 1005              		.p2align 2,,3
 1006              		.global	tu_edpt_claim
 1007              		.syntax unified
 1008              		.thumb
 1009              		.thumb_func
 1010              		.fpu fpv5-d16
 1012              	tu_edpt_claim:
 1013              	.LVL81:
 1014              	.LFB456:
 227:/home/pi/Developer/tinyusb/src/tusb.c ****   (void) mutex;
 1015              		.loc 1 227 68 is_stmt 1 view -0
 1016              		.cfi_startproc
 1017              		@ args = 0, pretend = 0, frame = 0
 1018              		@ frame_needed = 0, uses_anonymous_args = 0
 1019              		@ link register save eliminated.
 228:/home/pi/Developer/tinyusb/src/tusb.c **** 
 1020              		.loc 1 228 3 view .LVU266
 231:/home/pi/Developer/tinyusb/src/tusb.c ****   (void) osal_mutex_lock(mutex, OSAL_TIMEOUT_WAIT_FOREVER);
 1021              		.loc 1 231 3 view .LVU267
 231:/home/pi/Developer/tinyusb/src/tusb.c ****   (void) osal_mutex_lock(mutex, OSAL_TIMEOUT_WAIT_FOREVER);
 1022              		.loc 1 231 3 view .LVU268
 1023 0000 0378     		ldrb	r3, [r0]	@ zero_extendqisi2
 227:/home/pi/Developer/tinyusb/src/tusb.c ****   (void) mutex;
 1024              		.loc 1 227 68 is_stmt 0 view .LVU269
 1025 0002 0246     		mov	r2, r0
 231:/home/pi/Developer/tinyusb/src/tusb.c ****   (void) osal_mutex_lock(mutex, OSAL_TIMEOUT_WAIT_FOREVER);
 1026              		.loc 1 231 3 view .LVU270
 1027 0004 13F00503 		ands	r3, r3, #5
 1028 0008 09D1     		bne	.L104
 231:/home/pi/Developer/tinyusb/src/tusb.c ****   (void) osal_mutex_lock(mutex, OSAL_TIMEOUT_WAIT_FOREVER);
 1029              		.loc 1 231 3 is_stmt 1 discriminator 2 view .LVU271
 232:/home/pi/Developer/tinyusb/src/tusb.c **** 
 1030              		.loc 1 232 3 discriminator 2 view .LVU272
 235:/home/pi/Developer/tinyusb/src/tusb.c ****   if (available) {
 1031              		.loc 1 235 3 discriminator 2 view .LVU273
ARM GAS  /tmp/ccrixPyT.s 			page 40


 235:/home/pi/Developer/tinyusb/src/tusb.c ****   if (available) {
 1032              		.loc 1 235 27 is_stmt 0 discriminator 2 view .LVU274
 1033 000a 0178     		ldrb	r1, [r0]	@ zero_extendqisi2
 1034              	.LVL82:
 236:/home/pi/Developer/tinyusb/src/tusb.c ****     *ep_state |= TU_EDPT_STATE_CLAIMED;
 1035              		.loc 1 236 3 is_stmt 1 discriminator 2 view .LVU275
 236:/home/pi/Developer/tinyusb/src/tusb.c ****     *ep_state |= TU_EDPT_STATE_CLAIMED;
 1036              		.loc 1 236 6 is_stmt 0 discriminator 2 view .LVU276
 1037 000c 11F0050F 		tst	r1, #5
 1038 0010 05D1     		bne	.L104
 237:/home/pi/Developer/tinyusb/src/tusb.c ****   }
 1039              		.loc 1 237 5 is_stmt 1 view .LVU277
 237:/home/pi/Developer/tinyusb/src/tusb.c ****   }
 1040              		.loc 1 237 15 is_stmt 0 view .LVU278
 1041 0012 0378     		ldrb	r3, [r0]	@ zero_extendqisi2
 241:/home/pi/Developer/tinyusb/src/tusb.c **** }
 1042              		.loc 1 241 10 view .LVU279
 1043 0014 0120     		movs	r0, #1
 1044              	.LVL83:
 237:/home/pi/Developer/tinyusb/src/tusb.c ****   }
 1045              		.loc 1 237 15 view .LVU280
 1046 0016 43F00403 		orr	r3, r3, #4
 1047 001a 1370     		strb	r3, [r2]
 1048 001c 7047     		bx	lr
 1049              	.LVL84:
 1050              	.L104:
 231:/home/pi/Developer/tinyusb/src/tusb.c ****   (void) osal_mutex_lock(mutex, OSAL_TIMEOUT_WAIT_FOREVER);
 1051              		.loc 1 231 3 view .LVU281
 1052 001e 0020     		movs	r0, #0
 1053              	.LVL85:
 231:/home/pi/Developer/tinyusb/src/tusb.c ****   (void) osal_mutex_lock(mutex, OSAL_TIMEOUT_WAIT_FOREVER);
 1054              		.loc 1 231 3 view .LVU282
 1055 0020 7047     		bx	lr
 1056              		.cfi_endproc
 1057              	.LFE456:
 1059 0022 00BF     		.section	.text.tu_edpt_release,"ax",%progbits
 1060              		.align	1
 1061              		.p2align 2,,3
 1062              		.global	tu_edpt_release
 1063              		.syntax unified
 1064              		.thumb
 1065              		.thumb_func
 1066              		.fpu fpv5-d16
 1068              	tu_edpt_release:
 1069              	.LVL86:
 1070              	.LFB457:
 244:/home/pi/Developer/tinyusb/src/tusb.c ****   (void) mutex;
 1071              		.loc 1 244 70 is_stmt 1 view -0
 1072              		.cfi_startproc
 1073              		@ args = 0, pretend = 0, frame = 0
 1074              		@ frame_needed = 0, uses_anonymous_args = 0
 1075              		@ link register save eliminated.
 245:/home/pi/Developer/tinyusb/src/tusb.c ****   (void) osal_mutex_lock(mutex, OSAL_TIMEOUT_WAIT_FOREVER);
 1076              		.loc 1 245 3 view .LVU284
 246:/home/pi/Developer/tinyusb/src/tusb.c **** 
 1077              		.loc 1 246 3 view .LVU285
 249:/home/pi/Developer/tinyusb/src/tusb.c ****   if (ret) {
ARM GAS  /tmp/ccrixPyT.s 			page 41


 1078              		.loc 1 249 3 view .LVU286
 249:/home/pi/Developer/tinyusb/src/tusb.c ****   if (ret) {
 1079              		.loc 1 249 21 is_stmt 0 view .LVU287
 1080 0000 0278     		ldrb	r2, [r0]	@ zero_extendqisi2
 244:/home/pi/Developer/tinyusb/src/tusb.c ****   (void) mutex;
 1081              		.loc 1 244 70 view .LVU288
 1082 0002 0346     		mov	r3, r0
 1083 0004 02F00502 		and	r2, r2, #5
 249:/home/pi/Developer/tinyusb/src/tusb.c ****   if (ret) {
 1084              		.loc 1 249 14 view .LVU289
 1085 0008 042A     		cmp	r2, #4
 1086 000a 0CBF     		ite	eq
 1087 000c 0120     		moveq	r0, #1
 1088              	.LVL87:
 249:/home/pi/Developer/tinyusb/src/tusb.c ****   if (ret) {
 1089              		.loc 1 249 14 view .LVU290
 1090 000e 0020     		movne	r0, #0
 1091              	.LVL88:
 250:/home/pi/Developer/tinyusb/src/tusb.c ****     *ep_state &= (uint8_t) ~TU_EDPT_STATE_CLAIMED;
 1092              		.loc 1 250 3 is_stmt 1 view .LVU291
 250:/home/pi/Developer/tinyusb/src/tusb.c ****     *ep_state &= (uint8_t) ~TU_EDPT_STATE_CLAIMED;
 1093              		.loc 1 250 6 is_stmt 0 view .LVU292
 1094 0010 03D1     		bne	.L107
 251:/home/pi/Developer/tinyusb/src/tusb.c ****   }
 1095              		.loc 1 251 5 is_stmt 1 view .LVU293
 251:/home/pi/Developer/tinyusb/src/tusb.c ****   }
 1096              		.loc 1 251 15 is_stmt 0 view .LVU294
 1097 0012 1A78     		ldrb	r2, [r3]	@ zero_extendqisi2
 1098 0014 02F0FB02 		and	r2, r2, #251
 1099 0018 1A70     		strb	r2, [r3]
 1100              	.L107:
 254:/home/pi/Developer/tinyusb/src/tusb.c ****   return ret;
 1101              		.loc 1 254 3 is_stmt 1 view .LVU295
 255:/home/pi/Developer/tinyusb/src/tusb.c **** }
 1102              		.loc 1 255 3 view .LVU296
 256:/home/pi/Developer/tinyusb/src/tusb.c **** 
 1103              		.loc 1 256 1 is_stmt 0 view .LVU297
 1104 001a 7047     		bx	lr
 1105              		.cfi_endproc
 1106              	.LFE457:
 1108              		.section	.text.tu_bind_driver_to_ep_itf,"ax",%progbits
 1109              		.align	1
 1110              		.p2align 2,,3
 1111              		.global	tu_bind_driver_to_ep_itf
 1112              		.syntax unified
 1113              		.thumb
 1114              		.thumb_func
 1115              		.fpu fpv5-d16
 1117              	tu_bind_driver_to_ep_itf:
 1118              	.LVL89:
 1119              	.LFB458:
 296:/home/pi/Developer/tinyusb/src/tusb.c ****   const uint8_t *desc_end = p_desc + desc_len;
 1120              		.loc 1 296 73 is_stmt 1 view -0
 1121              		.cfi_startproc
 1122              		@ args = 8, pretend = 0, frame = 0
 1123              		@ frame_needed = 0, uses_anonymous_args = 0
 297:/home/pi/Developer/tinyusb/src/tusb.c ****   while (tu_desc_in_bounds(p_desc, desc_end)) {
ARM GAS  /tmp/ccrixPyT.s 			page 42


 1124              		.loc 1 297 3 view .LVU299
 296:/home/pi/Developer/tinyusb/src/tusb.c ****   const uint8_t *desc_end = p_desc + desc_len;
 1125              		.loc 1 296 73 is_stmt 0 view .LVU300
 1126 0000 30B5     		push	{r4, r5, lr}
 1127              		.cfi_def_cfa_offset 12
 1128              		.cfi_offset 4, -12
 1129              		.cfi_offset 5, -8
 1130              		.cfi_offset 14, -4
 296:/home/pi/Developer/tinyusb/src/tusb.c ****   const uint8_t *desc_end = p_desc + desc_len;
 1131              		.loc 1 296 73 view .LVU301
 1132 0002 039C     		ldr	r4, [sp, #12]
 1133 0004 BDF810E0 		ldrh	lr, [sp, #16]
 297:/home/pi/Developer/tinyusb/src/tusb.c ****   while (tu_desc_in_bounds(p_desc, desc_end)) {
 1134              		.loc 1 297 18 view .LVU302
 1135 0008 A644     		add	lr, lr, r4
 1136              	.LVL90:
 298:/home/pi/Developer/tinyusb/src/tusb.c ****     const uint8_t desc_type = tu_desc_type(p_desc);
 1137              		.loc 1 298 3 is_stmt 1 view .LVU303
 298:/home/pi/Developer/tinyusb/src/tusb.c ****     const uint8_t desc_type = tu_desc_type(p_desc);
 1138              		.loc 1 298 9 view .LVU304
 1139              	.LBB177:
 1140              	.LBI177:
 207:/home/pi/Developer/tinyusb/src/common/tusb_common.h **** TU_ATTR_ALWAYS_INLINE static inline uint32_t tu_min32 (uint32_t x, uint32_t y) { return (x < y) ? x
 208:/home/pi/Developer/tinyusb/src/common/tusb_common.h **** 
 209:/home/pi/Developer/tinyusb/src/common/tusb_common.h **** //------------- Max -------------//
 210:/home/pi/Developer/tinyusb/src/common/tusb_common.h **** TU_ATTR_ALWAYS_INLINE static inline uint8_t  tu_max8  (uint8_t  x, uint8_t y ) { return (x > y) ? x
 211:/home/pi/Developer/tinyusb/src/common/tusb_common.h **** TU_ATTR_ALWAYS_INLINE static inline uint16_t tu_max16 (uint16_t x, uint16_t y) { return (x > y) ? x
 212:/home/pi/Developer/tinyusb/src/common/tusb_common.h **** TU_ATTR_ALWAYS_INLINE static inline uint32_t tu_max32 (uint32_t x, uint32_t y) { return (x > y) ? x
 213:/home/pi/Developer/tinyusb/src/common/tusb_common.h **** 
 214:/home/pi/Developer/tinyusb/src/common/tusb_common.h **** //------------- Align -------------//
 215:/home/pi/Developer/tinyusb/src/common/tusb_common.h **** TU_ATTR_ALWAYS_INLINE static inline uint32_t tu_align(uint32_t value, uint32_t alignment) {
 216:/home/pi/Developer/tinyusb/src/common/tusb_common.h ****   return value & ((uint32_t) ~(alignment-1));
 217:/home/pi/Developer/tinyusb/src/common/tusb_common.h **** }
 218:/home/pi/Developer/tinyusb/src/common/tusb_common.h **** 
 219:/home/pi/Developer/tinyusb/src/common/tusb_common.h **** TU_ATTR_ALWAYS_INLINE static inline uint32_t tu_align4  (uint32_t value) { return (value & 0xFFFFFF
 220:/home/pi/Developer/tinyusb/src/common/tusb_common.h **** TU_ATTR_ALWAYS_INLINE static inline uint32_t tu_align8  (uint32_t value) { return (value & 0xFFFFFF
 221:/home/pi/Developer/tinyusb/src/common/tusb_common.h **** TU_ATTR_ALWAYS_INLINE static inline uint32_t tu_align16 (uint32_t value) { return (value & 0xFFFFFF
 222:/home/pi/Developer/tinyusb/src/common/tusb_common.h **** TU_ATTR_ALWAYS_INLINE static inline uint32_t tu_align32 (uint32_t value) { return (value & 0xFFFFFF
 223:/home/pi/Developer/tinyusb/src/common/tusb_common.h **** TU_ATTR_ALWAYS_INLINE static inline uint32_t tu_align4k (uint32_t value) { return (value & 0xFFFFF0
 224:/home/pi/Developer/tinyusb/src/common/tusb_common.h **** TU_ATTR_ALWAYS_INLINE static inline uint32_t tu_offset4k(uint32_t value) { return (value & 0xFFFUL)
 225:/home/pi/Developer/tinyusb/src/common/tusb_common.h **** 
 226:/home/pi/Developer/tinyusb/src/common/tusb_common.h **** TU_ATTR_ALWAYS_INLINE static inline bool tu_is_aligned32(uint32_t value) { return (value & 0x1FUL) 
 227:/home/pi/Developer/tinyusb/src/common/tusb_common.h **** TU_ATTR_ALWAYS_INLINE static inline bool tu_is_aligned64(uint64_t value) { return (value & 0x3FUL) 
 228:/home/pi/Developer/tinyusb/src/common/tusb_common.h **** 
 229:/home/pi/Developer/tinyusb/src/common/tusb_common.h **** //------------- Mathematics -------------//
 230:/home/pi/Developer/tinyusb/src/common/tusb_common.h **** TU_ATTR_ALWAYS_INLINE static inline uint32_t tu_div_ceil(uint32_t v, uint32_t d) { return TU_DIV_CE
 231:/home/pi/Developer/tinyusb/src/common/tusb_common.h **** TU_ATTR_ALWAYS_INLINE static inline uint32_t tu_div_round_nearest(uint32_t v, uint32_t d) { return 
 232:/home/pi/Developer/tinyusb/src/common/tusb_common.h **** 
 233:/home/pi/Developer/tinyusb/src/common/tusb_common.h **** TU_ATTR_ALWAYS_INLINE static inline uint32_t tu_round_up(uint32_t v, uint32_t f) { return tu_div_ce
 234:/home/pi/Developer/tinyusb/src/common/tusb_common.h **** 
 235:/home/pi/Developer/tinyusb/src/common/tusb_common.h **** // log2 of a value is its MSB's position
 236:/home/pi/Developer/tinyusb/src/common/tusb_common.h **** // TODO use clz TODO remove
 237:/home/pi/Developer/tinyusb/src/common/tusb_common.h **** TU_ATTR_ALWAYS_INLINE static inline uint8_t tu_log2(uint32_t value) {
 238:/home/pi/Developer/tinyusb/src/common/tusb_common.h ****   uint8_t result = 0;
 239:/home/pi/Developer/tinyusb/src/common/tusb_common.h ****   while ((value >>= 1u) != 0u) {
 240:/home/pi/Developer/tinyusb/src/common/tusb_common.h ****     result++;
 241:/home/pi/Developer/tinyusb/src/common/tusb_common.h ****   }
ARM GAS  /tmp/ccrixPyT.s 			page 43


 242:/home/pi/Developer/tinyusb/src/common/tusb_common.h ****   return result;
 243:/home/pi/Developer/tinyusb/src/common/tusb_common.h **** }
 244:/home/pi/Developer/tinyusb/src/common/tusb_common.h **** 
 245:/home/pi/Developer/tinyusb/src/common/tusb_common.h **** //static inline uint8_t tu_log2(uint32_t value)
 246:/home/pi/Developer/tinyusb/src/common/tusb_common.h **** //{
 247:/home/pi/Developer/tinyusb/src/common/tusb_common.h **** //   return sizeof(uint32_t) * CHAR_BIT - __builtin_clz(x) - 1;
 248:/home/pi/Developer/tinyusb/src/common/tusb_common.h **** //}
 249:/home/pi/Developer/tinyusb/src/common/tusb_common.h **** 
 250:/home/pi/Developer/tinyusb/src/common/tusb_common.h **** TU_ATTR_ALWAYS_INLINE static inline bool tu_is_power_of_two(uint32_t value) {
 251:/home/pi/Developer/tinyusb/src/common/tusb_common.h ****    return (value != 0) && ((value & (value - 1)) == 0);
 252:/home/pi/Developer/tinyusb/src/common/tusb_common.h **** }
 253:/home/pi/Developer/tinyusb/src/common/tusb_common.h **** 
 254:/home/pi/Developer/tinyusb/src/common/tusb_common.h **** //------------- Unaligned Access -------------//
 255:/home/pi/Developer/tinyusb/src/common/tusb_common.h **** #if TUP_ARCH_STRICT_ALIGN
 256:/home/pi/Developer/tinyusb/src/common/tusb_common.h **** 
 257:/home/pi/Developer/tinyusb/src/common/tusb_common.h **** // Rely on compiler to generate correct code for unaligned access
 258:/home/pi/Developer/tinyusb/src/common/tusb_common.h **** typedef struct { uint16_t val; } TU_ATTR_PACKED tu_unaligned_uint16_t;
 259:/home/pi/Developer/tinyusb/src/common/tusb_common.h **** typedef struct { uint32_t val; } TU_ATTR_PACKED tu_unaligned_uint32_t;
 260:/home/pi/Developer/tinyusb/src/common/tusb_common.h **** 
 261:/home/pi/Developer/tinyusb/src/common/tusb_common.h **** TU_ATTR_ALWAYS_INLINE static inline uint32_t tu_unaligned_read32(const void *mem) {
 262:/home/pi/Developer/tinyusb/src/common/tusb_common.h ****   tu_unaligned_uint32_t const *ua32 = (tu_unaligned_uint32_t const *) mem;
 263:/home/pi/Developer/tinyusb/src/common/tusb_common.h ****   return ua32->val;
 264:/home/pi/Developer/tinyusb/src/common/tusb_common.h **** }
 265:/home/pi/Developer/tinyusb/src/common/tusb_common.h **** 
 266:/home/pi/Developer/tinyusb/src/common/tusb_common.h **** TU_ATTR_ALWAYS_INLINE static inline void tu_unaligned_write32(void *mem, uint32_t value) {
 267:/home/pi/Developer/tinyusb/src/common/tusb_common.h ****   tu_unaligned_uint32_t *ua32 = (tu_unaligned_uint32_t *) mem;
 268:/home/pi/Developer/tinyusb/src/common/tusb_common.h ****   ua32->val = value;
 269:/home/pi/Developer/tinyusb/src/common/tusb_common.h **** }
 270:/home/pi/Developer/tinyusb/src/common/tusb_common.h **** 
 271:/home/pi/Developer/tinyusb/src/common/tusb_common.h **** TU_ATTR_ALWAYS_INLINE static inline uint16_t tu_unaligned_read16(const void *mem) {
 272:/home/pi/Developer/tinyusb/src/common/tusb_common.h ****   tu_unaligned_uint16_t const *ua16 = (tu_unaligned_uint16_t const *) mem;
 273:/home/pi/Developer/tinyusb/src/common/tusb_common.h ****   return ua16->val;
 274:/home/pi/Developer/tinyusb/src/common/tusb_common.h **** }
 275:/home/pi/Developer/tinyusb/src/common/tusb_common.h **** 
 276:/home/pi/Developer/tinyusb/src/common/tusb_common.h **** TU_ATTR_ALWAYS_INLINE static inline void tu_unaligned_write16(void *mem, uint16_t value) {
 277:/home/pi/Developer/tinyusb/src/common/tusb_common.h ****   tu_unaligned_uint16_t *ua16 = (tu_unaligned_uint16_t *) mem;
 278:/home/pi/Developer/tinyusb/src/common/tusb_common.h ****   ua16->val = value;
 279:/home/pi/Developer/tinyusb/src/common/tusb_common.h **** }
 280:/home/pi/Developer/tinyusb/src/common/tusb_common.h **** 
 281:/home/pi/Developer/tinyusb/src/common/tusb_common.h **** #elif TUP_MCU_STRICT_ALIGN
 282:/home/pi/Developer/tinyusb/src/common/tusb_common.h **** 
 283:/home/pi/Developer/tinyusb/src/common/tusb_common.h **** // MCU such as LPC_IP3511 Highspeed cannot access unaligned memory on USB_RAM although it is ARM M4
 284:/home/pi/Developer/tinyusb/src/common/tusb_common.h **** // We have to manually pick up bytes since tu_unaligned_uint32_t will still generate unaligned code
 285:/home/pi/Developer/tinyusb/src/common/tusb_common.h **** // NOTE: volatile cast to memory to prevent compiler to optimize and generate unaligned code
 286:/home/pi/Developer/tinyusb/src/common/tusb_common.h **** // TODO Big Endian may need minor changes
 287:/home/pi/Developer/tinyusb/src/common/tusb_common.h **** TU_ATTR_ALWAYS_INLINE static inline uint32_t tu_unaligned_read32(const void* mem) {
 288:/home/pi/Developer/tinyusb/src/common/tusb_common.h ****   volatile uint8_t const* buf8 = (uint8_t const*) mem;
 289:/home/pi/Developer/tinyusb/src/common/tusb_common.h ****   return tu_u32(buf8[3], buf8[2], buf8[1], buf8[0]);
 290:/home/pi/Developer/tinyusb/src/common/tusb_common.h **** }
 291:/home/pi/Developer/tinyusb/src/common/tusb_common.h **** 
 292:/home/pi/Developer/tinyusb/src/common/tusb_common.h **** TU_ATTR_ALWAYS_INLINE static inline void tu_unaligned_write32(void* mem, uint32_t value) {
 293:/home/pi/Developer/tinyusb/src/common/tusb_common.h ****   volatile uint8_t* buf8 = (uint8_t*) mem;
 294:/home/pi/Developer/tinyusb/src/common/tusb_common.h ****   buf8[0] = tu_u32_byte0(value);
 295:/home/pi/Developer/tinyusb/src/common/tusb_common.h ****   buf8[1] = tu_u32_byte1(value);
 296:/home/pi/Developer/tinyusb/src/common/tusb_common.h ****   buf8[2] = tu_u32_byte2(value);
 297:/home/pi/Developer/tinyusb/src/common/tusb_common.h ****   buf8[3] = tu_u32_byte3(value);
 298:/home/pi/Developer/tinyusb/src/common/tusb_common.h **** }
ARM GAS  /tmp/ccrixPyT.s 			page 44


 299:/home/pi/Developer/tinyusb/src/common/tusb_common.h **** 
 300:/home/pi/Developer/tinyusb/src/common/tusb_common.h **** TU_ATTR_ALWAYS_INLINE static inline uint16_t tu_unaligned_read16(const void* mem) {
 301:/home/pi/Developer/tinyusb/src/common/tusb_common.h ****   volatile uint8_t const* buf8 = (uint8_t const*) mem;
 302:/home/pi/Developer/tinyusb/src/common/tusb_common.h ****   return tu_u16(buf8[1], buf8[0]);
 303:/home/pi/Developer/tinyusb/src/common/tusb_common.h **** }
 304:/home/pi/Developer/tinyusb/src/common/tusb_common.h **** 
 305:/home/pi/Developer/tinyusb/src/common/tusb_common.h **** TU_ATTR_ALWAYS_INLINE static inline void tu_unaligned_write16(void* mem, uint16_t value) {
 306:/home/pi/Developer/tinyusb/src/common/tusb_common.h ****   volatile uint8_t* buf8 = (uint8_t*) mem;
 307:/home/pi/Developer/tinyusb/src/common/tusb_common.h ****   buf8[0] = tu_u16_low(value);
 308:/home/pi/Developer/tinyusb/src/common/tusb_common.h ****   buf8[1] = tu_u16_high(value);
 309:/home/pi/Developer/tinyusb/src/common/tusb_common.h **** }
 310:/home/pi/Developer/tinyusb/src/common/tusb_common.h **** 
 311:/home/pi/Developer/tinyusb/src/common/tusb_common.h **** #else
 312:/home/pi/Developer/tinyusb/src/common/tusb_common.h **** 
 313:/home/pi/Developer/tinyusb/src/common/tusb_common.h **** // MCU that could access unaligned memory natively
 314:/home/pi/Developer/tinyusb/src/common/tusb_common.h **** TU_ATTR_ALWAYS_INLINE static inline uint32_t tu_unaligned_read32(const void *mem) {
 315:/home/pi/Developer/tinyusb/src/common/tusb_common.h ****   return *((uint32_t const *) mem);
 316:/home/pi/Developer/tinyusb/src/common/tusb_common.h **** }
 317:/home/pi/Developer/tinyusb/src/common/tusb_common.h **** 
 318:/home/pi/Developer/tinyusb/src/common/tusb_common.h **** TU_ATTR_ALWAYS_INLINE static inline uint16_t tu_unaligned_read16(const void *mem) {
 319:/home/pi/Developer/tinyusb/src/common/tusb_common.h ****   return *((uint16_t const *) mem);
 320:/home/pi/Developer/tinyusb/src/common/tusb_common.h **** }
 321:/home/pi/Developer/tinyusb/src/common/tusb_common.h **** 
 322:/home/pi/Developer/tinyusb/src/common/tusb_common.h **** TU_ATTR_ALWAYS_INLINE static inline void tu_unaligned_write32(void *mem, uint32_t value) {
 323:/home/pi/Developer/tinyusb/src/common/tusb_common.h ****   *((uint32_t *) mem) = value;
 324:/home/pi/Developer/tinyusb/src/common/tusb_common.h **** }
 325:/home/pi/Developer/tinyusb/src/common/tusb_common.h **** 
 326:/home/pi/Developer/tinyusb/src/common/tusb_common.h **** TU_ATTR_ALWAYS_INLINE static inline void tu_unaligned_write16(void *mem, uint16_t value) {
 327:/home/pi/Developer/tinyusb/src/common/tusb_common.h ****   *((uint16_t *) mem) = value;
 328:/home/pi/Developer/tinyusb/src/common/tusb_common.h **** }
 329:/home/pi/Developer/tinyusb/src/common/tusb_common.h **** 
 330:/home/pi/Developer/tinyusb/src/common/tusb_common.h **** #endif
 331:/home/pi/Developer/tinyusb/src/common/tusb_common.h **** 
 332:/home/pi/Developer/tinyusb/src/common/tusb_common.h **** // scatter read 4 bytes from two buffers (LE). Parameter are not checked
 333:/home/pi/Developer/tinyusb/src/common/tusb_common.h **** TU_ATTR_ALWAYS_INLINE static inline uint32_t tu_scatter_read32(const uint8_t *buf1, uint8_t len1, c
 334:/home/pi/Developer/tinyusb/src/common/tusb_common.h ****                                                                uint8_t len2) {
 335:/home/pi/Developer/tinyusb/src/common/tusb_common.h ****   uint32_t result = 0;
 336:/home/pi/Developer/tinyusb/src/common/tusb_common.h ****   uint8_t  shift  = 0;
 337:/home/pi/Developer/tinyusb/src/common/tusb_common.h **** 
 338:/home/pi/Developer/tinyusb/src/common/tusb_common.h ****   for (uint8_t i = 0; i < len1; ++i) {
 339:/home/pi/Developer/tinyusb/src/common/tusb_common.h ****     result |= ((uint32_t)buf1[i]) << shift;
 340:/home/pi/Developer/tinyusb/src/common/tusb_common.h ****     shift += 8;
 341:/home/pi/Developer/tinyusb/src/common/tusb_common.h ****   }
 342:/home/pi/Developer/tinyusb/src/common/tusb_common.h **** 
 343:/home/pi/Developer/tinyusb/src/common/tusb_common.h ****   for (uint8_t i = 0; i < len2; ++i) {
 344:/home/pi/Developer/tinyusb/src/common/tusb_common.h ****     result |= ((uint32_t)buf2[i]) << shift;
 345:/home/pi/Developer/tinyusb/src/common/tusb_common.h ****     shift += 8;
 346:/home/pi/Developer/tinyusb/src/common/tusb_common.h ****   }
 347:/home/pi/Developer/tinyusb/src/common/tusb_common.h **** 
 348:/home/pi/Developer/tinyusb/src/common/tusb_common.h ****   return result;
 349:/home/pi/Developer/tinyusb/src/common/tusb_common.h **** }
 350:/home/pi/Developer/tinyusb/src/common/tusb_common.h **** 
 351:/home/pi/Developer/tinyusb/src/common/tusb_common.h **** // scatter write 4 bytes (LE) to two buffers. Parameter are not checked
 352:/home/pi/Developer/tinyusb/src/common/tusb_common.h **** TU_ATTR_ALWAYS_INLINE static inline void tu_scatter_write32(uint32_t value, uint8_t *buf1, uint8_t 
 353:/home/pi/Developer/tinyusb/src/common/tusb_common.h ****                                                             uint8_t *buf2, uint8_t len2) {
 354:/home/pi/Developer/tinyusb/src/common/tusb_common.h ****   for (uint8_t i = 0; i < len1; ++i) {
 355:/home/pi/Developer/tinyusb/src/common/tusb_common.h ****     buf1[i] = (uint8_t)(value & 0xFF);
ARM GAS  /tmp/ccrixPyT.s 			page 45


 356:/home/pi/Developer/tinyusb/src/common/tusb_common.h ****     value >>= 8;
 357:/home/pi/Developer/tinyusb/src/common/tusb_common.h ****   }
 358:/home/pi/Developer/tinyusb/src/common/tusb_common.h **** 
 359:/home/pi/Developer/tinyusb/src/common/tusb_common.h ****   for (uint8_t i = 0; i < len2; ++i) {
 360:/home/pi/Developer/tinyusb/src/common/tusb_common.h ****     buf2[i] = (uint8_t)(value & 0xFF);
 361:/home/pi/Developer/tinyusb/src/common/tusb_common.h ****     value >>= 8;
 362:/home/pi/Developer/tinyusb/src/common/tusb_common.h ****   }
 363:/home/pi/Developer/tinyusb/src/common/tusb_common.h **** }
 364:/home/pi/Developer/tinyusb/src/common/tusb_common.h **** 
 365:/home/pi/Developer/tinyusb/src/common/tusb_common.h **** //--------------------------------------------------------------------+
 366:/home/pi/Developer/tinyusb/src/common/tusb_common.h **** // Descriptor helper
 367:/home/pi/Developer/tinyusb/src/common/tusb_common.h **** //--------------------------------------------------------------------+
 368:/home/pi/Developer/tinyusb/src/common/tusb_common.h **** 
 369:/home/pi/Developer/tinyusb/src/common/tusb_common.h **** // return next descriptor
 370:/home/pi/Developer/tinyusb/src/common/tusb_common.h **** TU_ATTR_ALWAYS_INLINE static inline uint8_t const * tu_desc_next(void const* desc) {
 371:/home/pi/Developer/tinyusb/src/common/tusb_common.h ****   uint8_t const* desc8 = (uint8_t const*) desc;
 372:/home/pi/Developer/tinyusb/src/common/tusb_common.h ****   return desc8 + desc8[DESC_OFFSET_LEN];
 373:/home/pi/Developer/tinyusb/src/common/tusb_common.h **** }
 374:/home/pi/Developer/tinyusb/src/common/tusb_common.h **** 
 375:/home/pi/Developer/tinyusb/src/common/tusb_common.h **** // get descriptor length
 376:/home/pi/Developer/tinyusb/src/common/tusb_common.h **** TU_ATTR_ALWAYS_INLINE static inline uint8_t tu_desc_len(void const* desc) {
 377:/home/pi/Developer/tinyusb/src/common/tusb_common.h ****   return ((uint8_t const*) desc)[DESC_OFFSET_LEN];
 378:/home/pi/Developer/tinyusb/src/common/tusb_common.h **** }
 379:/home/pi/Developer/tinyusb/src/common/tusb_common.h **** 
 380:/home/pi/Developer/tinyusb/src/common/tusb_common.h **** // get descriptor type
 381:/home/pi/Developer/tinyusb/src/common/tusb_common.h **** TU_ATTR_ALWAYS_INLINE static inline uint8_t tu_desc_type(void const* desc) {
 382:/home/pi/Developer/tinyusb/src/common/tusb_common.h ****   return ((uint8_t const*) desc)[DESC_OFFSET_TYPE];
 383:/home/pi/Developer/tinyusb/src/common/tusb_common.h **** }
 384:/home/pi/Developer/tinyusb/src/common/tusb_common.h **** 
 385:/home/pi/Developer/tinyusb/src/common/tusb_common.h **** // get descriptor subtype
 386:/home/pi/Developer/tinyusb/src/common/tusb_common.h **** TU_ATTR_ALWAYS_INLINE static inline uint8_t tu_desc_subtype(void const* desc) {
 387:/home/pi/Developer/tinyusb/src/common/tusb_common.h ****   return ((uint8_t const*) desc)[DESC_OFFSET_SUBTYPE];
 388:/home/pi/Developer/tinyusb/src/common/tusb_common.h **** }
 389:/home/pi/Developer/tinyusb/src/common/tusb_common.h **** 
 390:/home/pi/Developer/tinyusb/src/common/tusb_common.h **** TU_ATTR_ALWAYS_INLINE static inline bool tu_desc_in_bounds(const uint8_t *p_desc, const uint8_t *de
 1141              		.loc 3 390 42 view .LVU305
 1142              	.LBB178:
 391:/home/pi/Developer/tinyusb/src/common/tusb_common.h ****   return p_desc < desc_end && tu_desc_next(p_desc) <= desc_end;
 1143              		.loc 3 391 3 view .LVU306
 1144              		.loc 3 391 28 is_stmt 0 view .LVU307
 1145 000a 7445     		cmp	r4, lr
 1146 000c 15D2     		bcs	.L109
 1147              	.LVL91:
 1148              	.LBB179:
 1149              	.LBI179:
 370:/home/pi/Developer/tinyusb/src/common/tusb_common.h ****   uint8_t const* desc8 = (uint8_t const*) desc;
 1150              		.loc 3 370 53 is_stmt 1 view .LVU308
 1151              	.LBB180:
 371:/home/pi/Developer/tinyusb/src/common/tusb_common.h ****   return desc8 + desc8[DESC_OFFSET_LEN];
 1152              		.loc 3 371 3 view .LVU309
 372:/home/pi/Developer/tinyusb/src/common/tusb_common.h **** }
 1153              		.loc 3 372 3 view .LVU310
 372:/home/pi/Developer/tinyusb/src/common/tusb_common.h **** }
 1154              		.loc 3 372 23 is_stmt 0 view .LVU311
 1155 000e 2578     		ldrb	r5, [r4]	@ zero_extendqisi2
 372:/home/pi/Developer/tinyusb/src/common/tusb_common.h **** }
 1156              		.loc 3 372 16 view .LVU312
ARM GAS  /tmp/ccrixPyT.s 			page 46


 1157 0010 2544     		add	r5, r5, r4
 1158              	.LBE180:
 1159              	.LBE179:
 1160              		.loc 3 391 28 view .LVU313
 1161 0012 AE45     		cmp	lr, r5
 1162 0014 11D3     		bcc	.L109
 1163              	.L110:
 1164              		.loc 3 391 28 view .LVU314
 1165              	.LBE178:
 1166              	.LBE177:
 1167              	.LBB186:
 306:/home/pi/Developer/tinyusb/src/tusb.c ****       const tusb_desc_interface_t *desc_itf = (const tusb_desc_interface_t *)p_desc;
 1168              		.loc 1 306 12 is_stmt 1 view .LVU315
 1169              	.LVL92:
 299:/home/pi/Developer/tinyusb/src/tusb.c **** 
 1170              		.loc 1 299 5 view .LVU316
 1171              	.LBB187:
 1172              	.LBI187:
 381:/home/pi/Developer/tinyusb/src/common/tusb_common.h ****   return ((uint8_t const*) desc)[DESC_OFFSET_TYPE];
 1173              		.loc 3 381 45 view .LVU317
 1174              	.LBB188:
 382:/home/pi/Developer/tinyusb/src/common/tusb_common.h **** }
 1175              		.loc 3 382 3 view .LVU318
 382:/home/pi/Developer/tinyusb/src/common/tusb_common.h **** }
 1176              		.loc 3 382 33 is_stmt 0 view .LVU319
 1177 0016 94F801C0 		ldrb	ip, [r4, #1]	@ zero_extendqisi2
 1178              	.LVL93:
 382:/home/pi/Developer/tinyusb/src/common/tusb_common.h **** }
 1179              		.loc 3 382 33 view .LVU320
 1180              	.LBE188:
 1181              	.LBE187:
 301:/home/pi/Developer/tinyusb/src/tusb.c ****       const uint8_t ep_addr  = ((const tusb_desc_endpoint_t *)p_desc)->bEndpointAddress;
 1182              		.loc 1 301 5 is_stmt 1 view .LVU321
 301:/home/pi/Developer/tinyusb/src/tusb.c ****       const uint8_t ep_addr  = ((const tusb_desc_endpoint_t *)p_desc)->bEndpointAddress;
 1183              		.loc 1 301 8 is_stmt 0 view .LVU322
 1184 001a BCF1050F 		cmp	ip, #5
 1185 001e 0ED0     		beq	.L122
 306:/home/pi/Developer/tinyusb/src/tusb.c ****       const tusb_desc_interface_t *desc_itf = (const tusb_desc_interface_t *)p_desc;
 1186              		.loc 1 306 15 view .LVU323
 1187 0020 BCF1040F 		cmp	ip, #4
 1188 0024 16D0     		beq	.L123
 1189              	.LVL94:
 1190              	.L111:
 314:/home/pi/Developer/tinyusb/src/tusb.c ****   }
 1191              		.loc 1 314 5 is_stmt 1 view .LVU324
 1192              	.LBB189:
 1193              	.LBI189:
 370:/home/pi/Developer/tinyusb/src/common/tusb_common.h ****   uint8_t const* desc8 = (uint8_t const*) desc;
 1194              		.loc 3 370 53 view .LVU325
 1195              	.LBB190:
 371:/home/pi/Developer/tinyusb/src/common/tusb_common.h ****   return desc8 + desc8[DESC_OFFSET_LEN];
 1196              		.loc 3 371 3 view .LVU326
 372:/home/pi/Developer/tinyusb/src/common/tusb_common.h **** }
 1197              		.loc 3 372 3 view .LVU327
 372:/home/pi/Developer/tinyusb/src/common/tusb_common.h **** }
 1198              		.loc 3 372 23 is_stmt 0 view .LVU328
 1199 0026 94F800C0 		ldrb	ip, [r4]	@ zero_extendqisi2
ARM GAS  /tmp/ccrixPyT.s 			page 47


 372:/home/pi/Developer/tinyusb/src/common/tusb_common.h **** }
 1200              		.loc 3 372 16 view .LVU329
 1201 002a 6444     		add	r4, r4, ip
 1202              	.LVL95:
 372:/home/pi/Developer/tinyusb/src/common/tusb_common.h **** }
 1203              		.loc 3 372 16 view .LVU330
 1204              	.LBE190:
 1205              	.LBE189:
 1206              	.LBE186:
 298:/home/pi/Developer/tinyusb/src/tusb.c ****     const uint8_t desc_type = tu_desc_type(p_desc);
 1207              		.loc 1 298 9 is_stmt 1 view .LVU331
 1208              	.LBB198:
 390:/home/pi/Developer/tinyusb/src/common/tusb_common.h ****   return p_desc < desc_end && tu_desc_next(p_desc) <= desc_end;
 1209              		.loc 3 390 42 view .LVU332
 1210              	.LBB185:
 1211              		.loc 3 391 3 view .LVU333
 1212              	.LBB183:
 370:/home/pi/Developer/tinyusb/src/common/tusb_common.h ****   uint8_t const* desc8 = (uint8_t const*) desc;
 1213              		.loc 3 370 53 view .LVU334
 1214              	.LBB181:
 371:/home/pi/Developer/tinyusb/src/common/tusb_common.h ****   return desc8 + desc8[DESC_OFFSET_LEN];
 1215              		.loc 3 371 3 view .LVU335
 372:/home/pi/Developer/tinyusb/src/common/tusb_common.h **** }
 1216              		.loc 3 372 3 view .LVU336
 372:/home/pi/Developer/tinyusb/src/common/tusb_common.h **** }
 1217              		.loc 3 372 3 is_stmt 0 view .LVU337
 1218              	.LBE181:
 1219              	.LBE183:
 1220              		.loc 3 391 28 view .LVU338
 1221 002c A645     		cmp	lr, r4
 1222 002e 04D9     		bls	.L109
 1223              	.LBB184:
 1224              	.LBB182:
 372:/home/pi/Developer/tinyusb/src/common/tusb_common.h **** }
 1225              		.loc 3 372 23 view .LVU339
 1226 0030 94F800C0 		ldrb	ip, [r4]	@ zero_extendqisi2
 372:/home/pi/Developer/tinyusb/src/common/tusb_common.h **** }
 1227              		.loc 3 372 16 view .LVU340
 1228 0034 A444     		add	ip, ip, r4
 1229              	.LBE182:
 1230              	.LBE184:
 1231              		.loc 3 391 28 view .LVU341
 1232 0036 E645     		cmp	lr, ip
 1233 0038 EDD2     		bcs	.L110
 1234              	.LVL96:
 1235              	.L109:
 1236              		.loc 3 391 28 view .LVU342
 1237              	.LBE185:
 1238              	.LBE198:
 316:/home/pi/Developer/tinyusb/src/tusb.c **** }
 1239              		.loc 1 316 10 view .LVU343
 1240 003a 0120     		movs	r0, #1
 1241              	.LVL97:
 1242              	.L119:
 317:/home/pi/Developer/tinyusb/src/tusb.c **** 
 1243              		.loc 1 317 1 view .LVU344
 1244 003c 30BD     		pop	{r4, r5, pc}
ARM GAS  /tmp/ccrixPyT.s 			page 48


 1245              	.LVL98:
 1246              	.L122:
 1247              	.LBB199:
 1248              	.LBB191:
 302:/home/pi/Developer/tinyusb/src/tusb.c ****       const uint8_t ep_num   = tu_edpt_number(ep_addr);
 1249              		.loc 1 302 7 is_stmt 1 view .LVU345
 302:/home/pi/Developer/tinyusb/src/tusb.c ****       const uint8_t ep_num   = tu_edpt_number(ep_addr);
 1250              		.loc 1 302 21 is_stmt 0 view .LVU346
 1251 003e 94F802C0 		ldrb	ip, [r4, #2]	@ zero_extendqisi2
 1252              	.LVL99:
 303:/home/pi/Developer/tinyusb/src/tusb.c ****       const uint8_t ep_dir   = tu_edpt_dir(ep_addr);
 1253              		.loc 1 303 7 is_stmt 1 view .LVU347
 1254              	.LBB192:
 1255              	.LBI192:
 1256              		.file 4 "/home/pi/Developer/tinyusb/src/common/tusb_types.h"
   1:/home/pi/Developer/tinyusb/src/common/tusb_types.h **** /*
   2:/home/pi/Developer/tinyusb/src/common/tusb_types.h ****  * The MIT License (MIT)
   3:/home/pi/Developer/tinyusb/src/common/tusb_types.h ****  *
   4:/home/pi/Developer/tinyusb/src/common/tusb_types.h ****  * Copyright (c) 2019 Ha Thach (tinyusb.org)
   5:/home/pi/Developer/tinyusb/src/common/tusb_types.h ****  *
   6:/home/pi/Developer/tinyusb/src/common/tusb_types.h ****  * Permission is hereby granted, free of charge, to any person obtaining a copy
   7:/home/pi/Developer/tinyusb/src/common/tusb_types.h ****  * of this software and associated documentation files (the "Software"), to deal
   8:/home/pi/Developer/tinyusb/src/common/tusb_types.h ****  * in the Software without restriction, including without limitation the rights
   9:/home/pi/Developer/tinyusb/src/common/tusb_types.h ****  * to use, copy, modify, merge, publish, distribute, sublicense, and/or sell
  10:/home/pi/Developer/tinyusb/src/common/tusb_types.h ****  * copies of the Software, and to permit persons to whom the Software is
  11:/home/pi/Developer/tinyusb/src/common/tusb_types.h ****  * furnished to do so, subject to the following conditions:
  12:/home/pi/Developer/tinyusb/src/common/tusb_types.h ****  *
  13:/home/pi/Developer/tinyusb/src/common/tusb_types.h ****  * The above copyright notice and this permission notice shall be included in
  14:/home/pi/Developer/tinyusb/src/common/tusb_types.h ****  * all copies or substantial portions of the Software.
  15:/home/pi/Developer/tinyusb/src/common/tusb_types.h ****  *
  16:/home/pi/Developer/tinyusb/src/common/tusb_types.h ****  * THE SOFTWARE IS PROVIDED "AS IS", WITHOUT WARRANTY OF ANY KIND, EXPRESS OR
  17:/home/pi/Developer/tinyusb/src/common/tusb_types.h ****  * IMPLIED, INCLUDING BUT NOT LIMITED TO THE WARRANTIES OF MERCHANTABILITY,
  18:/home/pi/Developer/tinyusb/src/common/tusb_types.h ****  * FITNESS FOR A PARTICULAR PURPOSE AND NONINFRINGEMENT. IN NO EVENT SHALL THE
  19:/home/pi/Developer/tinyusb/src/common/tusb_types.h ****  * AUTHORS OR COPYRIGHT HOLDERS BE LIABLE FOR ANY CLAIM, DAMAGES OR OTHER
  20:/home/pi/Developer/tinyusb/src/common/tusb_types.h ****  * LIABILITY, WHETHER IN AN ACTION OF CONTRACT, TORT OR OTHERWISE, ARISING FROM,
  21:/home/pi/Developer/tinyusb/src/common/tusb_types.h ****  * OUT OF OR IN CONNECTION WITH THE SOFTWARE OR THE USE OR OTHER DEALINGS IN
  22:/home/pi/Developer/tinyusb/src/common/tusb_types.h ****  * THE SOFTWARE.
  23:/home/pi/Developer/tinyusb/src/common/tusb_types.h ****  *
  24:/home/pi/Developer/tinyusb/src/common/tusb_types.h ****  * This file is part of the TinyUSB stack.
  25:/home/pi/Developer/tinyusb/src/common/tusb_types.h ****  */
  26:/home/pi/Developer/tinyusb/src/common/tusb_types.h **** 
  27:/home/pi/Developer/tinyusb/src/common/tusb_types.h **** #ifndef TUSB_TYPES_H_
  28:/home/pi/Developer/tinyusb/src/common/tusb_types.h **** #define TUSB_TYPES_H_
  29:/home/pi/Developer/tinyusb/src/common/tusb_types.h **** 
  30:/home/pi/Developer/tinyusb/src/common/tusb_types.h **** #include <stdbool.h>
  31:/home/pi/Developer/tinyusb/src/common/tusb_types.h **** #include <stdint.h>
  32:/home/pi/Developer/tinyusb/src/common/tusb_types.h **** #include "tusb_compiler.h"
  33:/home/pi/Developer/tinyusb/src/common/tusb_types.h **** 
  34:/home/pi/Developer/tinyusb/src/common/tusb_types.h **** #ifdef __cplusplus
  35:/home/pi/Developer/tinyusb/src/common/tusb_types.h ****  extern "C" {
  36:/home/pi/Developer/tinyusb/src/common/tusb_types.h **** #endif
  37:/home/pi/Developer/tinyusb/src/common/tusb_types.h **** 
  38:/home/pi/Developer/tinyusb/src/common/tusb_types.h **** //------------- Device DCache declaration -------------//
  39:/home/pi/Developer/tinyusb/src/common/tusb_types.h **** #define TUD_EPBUF_DCACHE_SIZE(_size) (CFG_TUD_MEM_DCACHE_ENABLE ? \
  40:/home/pi/Developer/tinyusb/src/common/tusb_types.h ****   (TU_DIV_CEIL(_size, CFG_TUD_MEM_DCACHE_LINE_SIZE) * CFG_TUD_MEM_DCACHE_LINE_SIZE) : (_size))
  41:/home/pi/Developer/tinyusb/src/common/tusb_types.h **** 
  42:/home/pi/Developer/tinyusb/src/common/tusb_types.h **** // Declare an endpoint buffer with uint8_t[size]
ARM GAS  /tmp/ccrixPyT.s 			page 49


  43:/home/pi/Developer/tinyusb/src/common/tusb_types.h **** #define TUD_EPBUF_DEF(_name, _size) \
  44:/home/pi/Developer/tinyusb/src/common/tusb_types.h ****   union { \
  45:/home/pi/Developer/tinyusb/src/common/tusb_types.h ****     CFG_TUD_MEM_ALIGN uint8_t _name[_size]; \
  46:/home/pi/Developer/tinyusb/src/common/tusb_types.h ****     TU_ATTR_ALIGNED(CFG_TUD_MEM_DCACHE_ENABLE ? CFG_TUD_MEM_DCACHE_LINE_SIZE : 1) uint8_t _name##_d
  47:/home/pi/Developer/tinyusb/src/common/tusb_types.h ****   }
  48:/home/pi/Developer/tinyusb/src/common/tusb_types.h **** 
  49:/home/pi/Developer/tinyusb/src/common/tusb_types.h **** // Declare an endpoint buffer with a type
  50:/home/pi/Developer/tinyusb/src/common/tusb_types.h **** #define TUD_EPBUF_TYPE_DEF(_type, _name) \
  51:/home/pi/Developer/tinyusb/src/common/tusb_types.h ****   union { \
  52:/home/pi/Developer/tinyusb/src/common/tusb_types.h ****     CFG_TUD_MEM_ALIGN _type _name; \
  53:/home/pi/Developer/tinyusb/src/common/tusb_types.h ****     TU_ATTR_ALIGNED(CFG_TUD_MEM_DCACHE_ENABLE ? CFG_TUD_MEM_DCACHE_LINE_SIZE : 1) uint8_t _name##_d
  54:/home/pi/Developer/tinyusb/src/common/tusb_types.h ****   }
  55:/home/pi/Developer/tinyusb/src/common/tusb_types.h **** 
  56:/home/pi/Developer/tinyusb/src/common/tusb_types.h **** //------------- Host DCache declaration -------------//
  57:/home/pi/Developer/tinyusb/src/common/tusb_types.h **** #define TUH_EPBUF_DCACHE_SIZE(_size) (CFG_TUH_MEM_DCACHE_ENABLE ? \
  58:/home/pi/Developer/tinyusb/src/common/tusb_types.h ****   (TU_DIV_CEIL(_size, CFG_TUH_MEM_DCACHE_LINE_SIZE) * CFG_TUH_MEM_DCACHE_LINE_SIZE) : (_size))
  59:/home/pi/Developer/tinyusb/src/common/tusb_types.h **** 
  60:/home/pi/Developer/tinyusb/src/common/tusb_types.h **** // Declare an endpoint buffer with uint8_t[size]
  61:/home/pi/Developer/tinyusb/src/common/tusb_types.h **** #define TUH_EPBUF_DEF(_name, _size) \
  62:/home/pi/Developer/tinyusb/src/common/tusb_types.h ****   union { \
  63:/home/pi/Developer/tinyusb/src/common/tusb_types.h ****     CFG_TUH_MEM_ALIGN uint8_t _name[_size]; \
  64:/home/pi/Developer/tinyusb/src/common/tusb_types.h ****     TU_ATTR_ALIGNED(CFG_TUH_MEM_DCACHE_ENABLE ? CFG_TUH_MEM_DCACHE_LINE_SIZE : 1) uint8_t _name##_d
  65:/home/pi/Developer/tinyusb/src/common/tusb_types.h ****   }
  66:/home/pi/Developer/tinyusb/src/common/tusb_types.h **** 
  67:/home/pi/Developer/tinyusb/src/common/tusb_types.h **** // Declare an endpoint buffer with a type
  68:/home/pi/Developer/tinyusb/src/common/tusb_types.h **** #define TUH_EPBUF_TYPE_DEF(_type, _name) \
  69:/home/pi/Developer/tinyusb/src/common/tusb_types.h ****   union { \
  70:/home/pi/Developer/tinyusb/src/common/tusb_types.h ****     CFG_TUH_MEM_ALIGN _type _name; \
  71:/home/pi/Developer/tinyusb/src/common/tusb_types.h ****     TU_ATTR_ALIGNED(CFG_TUH_MEM_DCACHE_ENABLE ? CFG_TUH_MEM_DCACHE_LINE_SIZE : 1) uint8_t _name##_d
  72:/home/pi/Developer/tinyusb/src/common/tusb_types.h ****   }
  73:/home/pi/Developer/tinyusb/src/common/tusb_types.h **** 
  74:/home/pi/Developer/tinyusb/src/common/tusb_types.h **** 
  75:/home/pi/Developer/tinyusb/src/common/tusb_types.h **** /*------------------------------------------------------------------*/
  76:/home/pi/Developer/tinyusb/src/common/tusb_types.h **** /* CONSTANTS
  77:/home/pi/Developer/tinyusb/src/common/tusb_types.h ****  *------------------------------------------------------------------*/
  78:/home/pi/Developer/tinyusb/src/common/tusb_types.h **** 
  79:/home/pi/Developer/tinyusb/src/common/tusb_types.h **** typedef enum {
  80:/home/pi/Developer/tinyusb/src/common/tusb_types.h ****   TUSB_ROLE_INVALID = 0u,
  81:/home/pi/Developer/tinyusb/src/common/tusb_types.h ****   TUSB_ROLE_DEVICE  = 0x1,
  82:/home/pi/Developer/tinyusb/src/common/tusb_types.h ****   TUSB_ROLE_HOST    = 0x2,
  83:/home/pi/Developer/tinyusb/src/common/tusb_types.h **** } tusb_role_t;
  84:/home/pi/Developer/tinyusb/src/common/tusb_types.h **** 
  85:/home/pi/Developer/tinyusb/src/common/tusb_types.h **** /// defined base on EHCI specs value for Endpoint Speed
  86:/home/pi/Developer/tinyusb/src/common/tusb_types.h **** typedef enum {
  87:/home/pi/Developer/tinyusb/src/common/tusb_types.h ****   TUSB_SPEED_FULL = 0,
  88:/home/pi/Developer/tinyusb/src/common/tusb_types.h ****   TUSB_SPEED_LOW  = 1,
  89:/home/pi/Developer/tinyusb/src/common/tusb_types.h ****   TUSB_SPEED_HIGH = 2,
  90:/home/pi/Developer/tinyusb/src/common/tusb_types.h ****   TUSB_SPEED_AUTO = 0xaa,
  91:/home/pi/Developer/tinyusb/src/common/tusb_types.h ****   TUSB_SPEED_INVALID = 0xff,
  92:/home/pi/Developer/tinyusb/src/common/tusb_types.h **** } tusb_speed_t;
  93:/home/pi/Developer/tinyusb/src/common/tusb_types.h **** 
  94:/home/pi/Developer/tinyusb/src/common/tusb_types.h **** /// defined base on USB Specs Endpoint's bmAttributes
  95:/home/pi/Developer/tinyusb/src/common/tusb_types.h **** typedef enum {
  96:/home/pi/Developer/tinyusb/src/common/tusb_types.h ****   TUSB_XFER_CONTROL     = 0,
  97:/home/pi/Developer/tinyusb/src/common/tusb_types.h ****   TUSB_XFER_ISOCHRONOUS = 1,
  98:/home/pi/Developer/tinyusb/src/common/tusb_types.h ****   TUSB_XFER_BULK        = 2,
  99:/home/pi/Developer/tinyusb/src/common/tusb_types.h ****   TUSB_XFER_INTERRUPT   = 3
ARM GAS  /tmp/ccrixPyT.s 			page 50


 100:/home/pi/Developer/tinyusb/src/common/tusb_types.h **** } tusb_xfer_type_t;
 101:/home/pi/Developer/tinyusb/src/common/tusb_types.h **** 
 102:/home/pi/Developer/tinyusb/src/common/tusb_types.h **** typedef enum {
 103:/home/pi/Developer/tinyusb/src/common/tusb_types.h ****   TUSB_DIR_OUT = 0u,
 104:/home/pi/Developer/tinyusb/src/common/tusb_types.h ****   TUSB_DIR_IN  = 1u,
 105:/home/pi/Developer/tinyusb/src/common/tusb_types.h **** } tusb_dir_t;
 106:/home/pi/Developer/tinyusb/src/common/tusb_types.h **** 
 107:/home/pi/Developer/tinyusb/src/common/tusb_types.h **** enum {
 108:/home/pi/Developer/tinyusb/src/common/tusb_types.h ****   TUSB_EPNUM_MASK  = 0x0F,
 109:/home/pi/Developer/tinyusb/src/common/tusb_types.h ****   TUSB_DIR_IN_MASK = 0x80
 110:/home/pi/Developer/tinyusb/src/common/tusb_types.h **** };
 111:/home/pi/Developer/tinyusb/src/common/tusb_types.h **** 
 112:/home/pi/Developer/tinyusb/src/common/tusb_types.h **** enum {
 113:/home/pi/Developer/tinyusb/src/common/tusb_types.h ****   TUSB_EPSIZE_BULK_FS = 64,
 114:/home/pi/Developer/tinyusb/src/common/tusb_types.h ****   TUSB_EPSIZE_BULK_HS = 512,
 115:/home/pi/Developer/tinyusb/src/common/tusb_types.h **** 
 116:/home/pi/Developer/tinyusb/src/common/tusb_types.h ****   TUSB_EPSIZE_ISO_FS_MAX = 1023,
 117:/home/pi/Developer/tinyusb/src/common/tusb_types.h ****   TUSB_EPSIZE_ISO_HS_MAX = 1024,
 118:/home/pi/Developer/tinyusb/src/common/tusb_types.h **** };
 119:/home/pi/Developer/tinyusb/src/common/tusb_types.h **** 
 120:/home/pi/Developer/tinyusb/src/common/tusb_types.h **** // Endpoint Bulk size depending on host/device max speed
 121:/home/pi/Developer/tinyusb/src/common/tusb_types.h **** #define TUD_EPSIZE_BULK_MAX   (TUD_OPT_HIGH_SPEED ? 512 : 64)
 122:/home/pi/Developer/tinyusb/src/common/tusb_types.h **** #define TUH_EPSIZE_BULK_MAX   (TUH_OPT_HIGH_SPEED ? 512 : 64)
 123:/home/pi/Developer/tinyusb/src/common/tusb_types.h **** 
 124:/home/pi/Developer/tinyusb/src/common/tusb_types.h **** /// Isochronous Endpoint Attributes
 125:/home/pi/Developer/tinyusb/src/common/tusb_types.h **** typedef enum {
 126:/home/pi/Developer/tinyusb/src/common/tusb_types.h ****   TUSB_ISO_EP_ATT_NO_SYNC         = 0x00,
 127:/home/pi/Developer/tinyusb/src/common/tusb_types.h ****   TUSB_ISO_EP_ATT_ASYNCHRONOUS    = 0x04,
 128:/home/pi/Developer/tinyusb/src/common/tusb_types.h ****   TUSB_ISO_EP_ATT_ADAPTIVE        = 0x08,
 129:/home/pi/Developer/tinyusb/src/common/tusb_types.h ****   TUSB_ISO_EP_ATT_SYNCHRONOUS     = 0x0C,
 130:/home/pi/Developer/tinyusb/src/common/tusb_types.h ****   TUSB_ISO_EP_ATT_DATA            = 0x00, ///< Data End Point
 131:/home/pi/Developer/tinyusb/src/common/tusb_types.h ****   TUSB_ISO_EP_ATT_EXPLICIT_FB     = 0x10, ///< Feedback End Point
 132:/home/pi/Developer/tinyusb/src/common/tusb_types.h ****   TUSB_ISO_EP_ATT_IMPLICIT_FB     = 0x20, ///< Data endpoint that also serves as an implicit feedba
 133:/home/pi/Developer/tinyusb/src/common/tusb_types.h **** } tusb_iso_ep_attribute_t;
 134:/home/pi/Developer/tinyusb/src/common/tusb_types.h **** 
 135:/home/pi/Developer/tinyusb/src/common/tusb_types.h **** /// USB Descriptor Types
 136:/home/pi/Developer/tinyusb/src/common/tusb_types.h **** typedef enum {
 137:/home/pi/Developer/tinyusb/src/common/tusb_types.h ****   TUSB_DESC_DEVICE                = 0x01,
 138:/home/pi/Developer/tinyusb/src/common/tusb_types.h ****   TUSB_DESC_CONFIGURATION         = 0x02,
 139:/home/pi/Developer/tinyusb/src/common/tusb_types.h ****   TUSB_DESC_STRING                = 0x03,
 140:/home/pi/Developer/tinyusb/src/common/tusb_types.h ****   TUSB_DESC_INTERFACE             = 0x04,
 141:/home/pi/Developer/tinyusb/src/common/tusb_types.h ****   TUSB_DESC_ENDPOINT              = 0x05,
 142:/home/pi/Developer/tinyusb/src/common/tusb_types.h ****   TUSB_DESC_DEVICE_QUALIFIER      = 0x06,
 143:/home/pi/Developer/tinyusb/src/common/tusb_types.h ****   TUSB_DESC_OTHER_SPEED_CONFIG    = 0x07,
 144:/home/pi/Developer/tinyusb/src/common/tusb_types.h ****   TUSB_DESC_INTERFACE_POWER       = 0x08,
 145:/home/pi/Developer/tinyusb/src/common/tusb_types.h ****   TUSB_DESC_OTG                   = 0x09,
 146:/home/pi/Developer/tinyusb/src/common/tusb_types.h ****   TUSB_DESC_DEBUG                 = 0x0A,
 147:/home/pi/Developer/tinyusb/src/common/tusb_types.h ****   TUSB_DESC_INTERFACE_ASSOCIATION = 0x0B,
 148:/home/pi/Developer/tinyusb/src/common/tusb_types.h **** 
 149:/home/pi/Developer/tinyusb/src/common/tusb_types.h ****   TUSB_DESC_BOS                   = 0x0F,
 150:/home/pi/Developer/tinyusb/src/common/tusb_types.h ****   TUSB_DESC_DEVICE_CAPABILITY     = 0x10,
 151:/home/pi/Developer/tinyusb/src/common/tusb_types.h **** 
 152:/home/pi/Developer/tinyusb/src/common/tusb_types.h ****   TUSB_DESC_FUNCTIONAL            = 0x21,
 153:/home/pi/Developer/tinyusb/src/common/tusb_types.h **** 
 154:/home/pi/Developer/tinyusb/src/common/tusb_types.h ****   // Class Specific Descriptor
 155:/home/pi/Developer/tinyusb/src/common/tusb_types.h ****   TUSB_DESC_CS_DEVICE             = 0x21,
 156:/home/pi/Developer/tinyusb/src/common/tusb_types.h ****   TUSB_DESC_CS_CONFIGURATION      = 0x22,
ARM GAS  /tmp/ccrixPyT.s 			page 51


 157:/home/pi/Developer/tinyusb/src/common/tusb_types.h ****   TUSB_DESC_CS_STRING             = 0x23,
 158:/home/pi/Developer/tinyusb/src/common/tusb_types.h ****   TUSB_DESC_CS_INTERFACE          = 0x24,
 159:/home/pi/Developer/tinyusb/src/common/tusb_types.h ****   TUSB_DESC_CS_ENDPOINT           = 0x25,
 160:/home/pi/Developer/tinyusb/src/common/tusb_types.h **** 
 161:/home/pi/Developer/tinyusb/src/common/tusb_types.h ****   TUSB_DESC_SUPERSPEED_ENDPOINT_COMPANION     = 0x30,
 162:/home/pi/Developer/tinyusb/src/common/tusb_types.h ****   TUSB_DESC_SUPERSPEED_ISO_ENDPOINT_COMPANION = 0x31
 163:/home/pi/Developer/tinyusb/src/common/tusb_types.h **** } tusb_desc_type_t;
 164:/home/pi/Developer/tinyusb/src/common/tusb_types.h **** 
 165:/home/pi/Developer/tinyusb/src/common/tusb_types.h **** typedef enum {
 166:/home/pi/Developer/tinyusb/src/common/tusb_types.h ****   TUSB_REQ_GET_STATUS        = 0  ,
 167:/home/pi/Developer/tinyusb/src/common/tusb_types.h ****   TUSB_REQ_CLEAR_FEATURE     = 1  ,
 168:/home/pi/Developer/tinyusb/src/common/tusb_types.h ****   TUSB_REQ_RESERVED          = 2  ,
 169:/home/pi/Developer/tinyusb/src/common/tusb_types.h ****   TUSB_REQ_SET_FEATURE       = 3  ,
 170:/home/pi/Developer/tinyusb/src/common/tusb_types.h ****   TUSB_REQ_RESERVED2         = 4  ,
 171:/home/pi/Developer/tinyusb/src/common/tusb_types.h ****   TUSB_REQ_SET_ADDRESS       = 5  ,
 172:/home/pi/Developer/tinyusb/src/common/tusb_types.h ****   TUSB_REQ_GET_DESCRIPTOR    = 6  ,
 173:/home/pi/Developer/tinyusb/src/common/tusb_types.h ****   TUSB_REQ_SET_DESCRIPTOR    = 7  ,
 174:/home/pi/Developer/tinyusb/src/common/tusb_types.h ****   TUSB_REQ_GET_CONFIGURATION = 8  ,
 175:/home/pi/Developer/tinyusb/src/common/tusb_types.h ****   TUSB_REQ_SET_CONFIGURATION = 9  ,
 176:/home/pi/Developer/tinyusb/src/common/tusb_types.h ****   TUSB_REQ_GET_INTERFACE     = 10 ,
 177:/home/pi/Developer/tinyusb/src/common/tusb_types.h ****   TUSB_REQ_SET_INTERFACE     = 11 ,
 178:/home/pi/Developer/tinyusb/src/common/tusb_types.h ****   TUSB_REQ_SYNCH_FRAME       = 12
 179:/home/pi/Developer/tinyusb/src/common/tusb_types.h **** } tusb_request_code_t;
 180:/home/pi/Developer/tinyusb/src/common/tusb_types.h **** 
 181:/home/pi/Developer/tinyusb/src/common/tusb_types.h **** typedef enum {
 182:/home/pi/Developer/tinyusb/src/common/tusb_types.h ****   TUSB_REQ_FEATURE_EDPT_HALT     = 0,
 183:/home/pi/Developer/tinyusb/src/common/tusb_types.h ****   TUSB_REQ_FEATURE_REMOTE_WAKEUP = 1,
 184:/home/pi/Developer/tinyusb/src/common/tusb_types.h ****   TUSB_REQ_FEATURE_TEST_MODE     = 2
 185:/home/pi/Developer/tinyusb/src/common/tusb_types.h **** } tusb_request_feature_selector_t;
 186:/home/pi/Developer/tinyusb/src/common/tusb_types.h **** 
 187:/home/pi/Developer/tinyusb/src/common/tusb_types.h **** typedef enum {
 188:/home/pi/Developer/tinyusb/src/common/tusb_types.h ****   TUSB_REQ_TYPE_STANDARD = 0u,
 189:/home/pi/Developer/tinyusb/src/common/tusb_types.h ****   TUSB_REQ_TYPE_CLASS,
 190:/home/pi/Developer/tinyusb/src/common/tusb_types.h ****   TUSB_REQ_TYPE_VENDOR,
 191:/home/pi/Developer/tinyusb/src/common/tusb_types.h ****   TUSB_REQ_TYPE_INVALID
 192:/home/pi/Developer/tinyusb/src/common/tusb_types.h **** } tusb_request_type_t;
 193:/home/pi/Developer/tinyusb/src/common/tusb_types.h **** 
 194:/home/pi/Developer/tinyusb/src/common/tusb_types.h **** typedef enum {
 195:/home/pi/Developer/tinyusb/src/common/tusb_types.h ****   TUSB_REQ_RCPT_DEVICE =0,
 196:/home/pi/Developer/tinyusb/src/common/tusb_types.h ****   TUSB_REQ_RCPT_INTERFACE,
 197:/home/pi/Developer/tinyusb/src/common/tusb_types.h ****   TUSB_REQ_RCPT_ENDPOINT,
 198:/home/pi/Developer/tinyusb/src/common/tusb_types.h ****   TUSB_REQ_RCPT_OTHER
 199:/home/pi/Developer/tinyusb/src/common/tusb_types.h **** } tusb_request_recipient_t;
 200:/home/pi/Developer/tinyusb/src/common/tusb_types.h **** 
 201:/home/pi/Developer/tinyusb/src/common/tusb_types.h **** // https://www.usb.org/defined-class-codes
 202:/home/pi/Developer/tinyusb/src/common/tusb_types.h **** typedef enum {
 203:/home/pi/Developer/tinyusb/src/common/tusb_types.h ****   TUSB_CLASS_UNSPECIFIED          = 0    ,
 204:/home/pi/Developer/tinyusb/src/common/tusb_types.h ****   TUSB_CLASS_AUDIO                = 1    ,
 205:/home/pi/Developer/tinyusb/src/common/tusb_types.h ****   TUSB_CLASS_CDC                  = 2    ,
 206:/home/pi/Developer/tinyusb/src/common/tusb_types.h ****   TUSB_CLASS_HID                  = 3    ,
 207:/home/pi/Developer/tinyusb/src/common/tusb_types.h ****   TUSB_CLASS_RESERVED_4           = 4    ,
 208:/home/pi/Developer/tinyusb/src/common/tusb_types.h ****   TUSB_CLASS_PHYSICAL             = 5    ,
 209:/home/pi/Developer/tinyusb/src/common/tusb_types.h ****   TUSB_CLASS_IMAGE                = 6    ,
 210:/home/pi/Developer/tinyusb/src/common/tusb_types.h ****   TUSB_CLASS_PRINTER              = 7    ,
 211:/home/pi/Developer/tinyusb/src/common/tusb_types.h ****   TUSB_CLASS_MSC                  = 8    ,
 212:/home/pi/Developer/tinyusb/src/common/tusb_types.h ****   TUSB_CLASS_HUB                  = 9    ,
 213:/home/pi/Developer/tinyusb/src/common/tusb_types.h ****   TUSB_CLASS_CDC_DATA             = 10   ,
ARM GAS  /tmp/ccrixPyT.s 			page 52


 214:/home/pi/Developer/tinyusb/src/common/tusb_types.h ****   TUSB_CLASS_SMART_CARD           = 11   ,
 215:/home/pi/Developer/tinyusb/src/common/tusb_types.h ****   TUSB_CLASS_RESERVED_12          = 12   ,
 216:/home/pi/Developer/tinyusb/src/common/tusb_types.h ****   TUSB_CLASS_CONTENT_SECURITY     = 13   ,
 217:/home/pi/Developer/tinyusb/src/common/tusb_types.h ****   TUSB_CLASS_VIDEO                = 14   ,
 218:/home/pi/Developer/tinyusb/src/common/tusb_types.h ****   TUSB_CLASS_PERSONAL_HEALTHCARE  = 15   ,
 219:/home/pi/Developer/tinyusb/src/common/tusb_types.h ****   TUSB_CLASS_AUDIO_VIDEO          = 16   ,
 220:/home/pi/Developer/tinyusb/src/common/tusb_types.h **** 
 221:/home/pi/Developer/tinyusb/src/common/tusb_types.h ****   TUSB_CLASS_DIAGNOSTIC           = 0xDC ,
 222:/home/pi/Developer/tinyusb/src/common/tusb_types.h ****   TUSB_CLASS_WIRELESS_CONTROLLER  = 0xE0 ,
 223:/home/pi/Developer/tinyusb/src/common/tusb_types.h ****   TUSB_CLASS_MISC                 = 0xEF ,
 224:/home/pi/Developer/tinyusb/src/common/tusb_types.h ****   TUSB_CLASS_APPLICATION_SPECIFIC = 0xFE ,
 225:/home/pi/Developer/tinyusb/src/common/tusb_types.h ****   TUSB_CLASS_VENDOR_SPECIFIC      = 0xFF
 226:/home/pi/Developer/tinyusb/src/common/tusb_types.h **** } tusb_class_code_t;
 227:/home/pi/Developer/tinyusb/src/common/tusb_types.h **** 
 228:/home/pi/Developer/tinyusb/src/common/tusb_types.h **** typedef enum
 229:/home/pi/Developer/tinyusb/src/common/tusb_types.h **** {
 230:/home/pi/Developer/tinyusb/src/common/tusb_types.h ****   MISC_SUBCLASS_COMMON = 2
 231:/home/pi/Developer/tinyusb/src/common/tusb_types.h **** }misc_subclass_type_t;
 232:/home/pi/Developer/tinyusb/src/common/tusb_types.h **** 
 233:/home/pi/Developer/tinyusb/src/common/tusb_types.h **** typedef enum {
 234:/home/pi/Developer/tinyusb/src/common/tusb_types.h ****   MISC_PROTOCOL_IAD = 1
 235:/home/pi/Developer/tinyusb/src/common/tusb_types.h **** } misc_protocol_type_t;
 236:/home/pi/Developer/tinyusb/src/common/tusb_types.h **** 
 237:/home/pi/Developer/tinyusb/src/common/tusb_types.h **** typedef enum {
 238:/home/pi/Developer/tinyusb/src/common/tusb_types.h ****   APP_SUBCLASS_USBTMC = 0x03,
 239:/home/pi/Developer/tinyusb/src/common/tusb_types.h ****   APP_SUBCLASS_DFU_RUNTIME = 0x01
 240:/home/pi/Developer/tinyusb/src/common/tusb_types.h **** } app_subclass_type_t;
 241:/home/pi/Developer/tinyusb/src/common/tusb_types.h **** 
 242:/home/pi/Developer/tinyusb/src/common/tusb_types.h **** typedef enum {
 243:/home/pi/Developer/tinyusb/src/common/tusb_types.h ****   DEVICE_CAPABILITY_WIRELESS_USB               = 0x01,
 244:/home/pi/Developer/tinyusb/src/common/tusb_types.h ****   DEVICE_CAPABILITY_USB20_EXTENSION            = 0x02,
 245:/home/pi/Developer/tinyusb/src/common/tusb_types.h ****   DEVICE_CAPABILITY_SUPERSPEED_USB             = 0x03,
 246:/home/pi/Developer/tinyusb/src/common/tusb_types.h ****   DEVICE_CAPABILITY_CONTAINER_id               = 0x04,
 247:/home/pi/Developer/tinyusb/src/common/tusb_types.h ****   DEVICE_CAPABILITY_PLATFORM                   = 0x05,
 248:/home/pi/Developer/tinyusb/src/common/tusb_types.h ****   DEVICE_CAPABILITY_POWER_DELIVERY             = 0x06,
 249:/home/pi/Developer/tinyusb/src/common/tusb_types.h ****   DEVICE_CAPABILITY_BATTERY_INFO               = 0x07,
 250:/home/pi/Developer/tinyusb/src/common/tusb_types.h ****   DEVICE_CAPABILITY_PD_CONSUMER_PORT           = 0x08,
 251:/home/pi/Developer/tinyusb/src/common/tusb_types.h ****   DEVICE_CAPABILITY_PD_PROVIDER_PORT           = 0x09,
 252:/home/pi/Developer/tinyusb/src/common/tusb_types.h ****   DEVICE_CAPABILITY_SUPERSPEED_PLUS            = 0x0A,
 253:/home/pi/Developer/tinyusb/src/common/tusb_types.h ****   DEVICE_CAPABILITY_PRECESION_TIME_MEASUREMENT = 0x0B,
 254:/home/pi/Developer/tinyusb/src/common/tusb_types.h ****   DEVICE_CAPABILITY_WIRELESS_USB_EXT           = 0x0C,
 255:/home/pi/Developer/tinyusb/src/common/tusb_types.h ****   DEVICE_CAPABILITY_BILLBOARD                  = 0x0D,
 256:/home/pi/Developer/tinyusb/src/common/tusb_types.h ****   DEVICE_CAPABILITY_AUTHENTICATION             = 0x0E,
 257:/home/pi/Developer/tinyusb/src/common/tusb_types.h ****   DEVICE_CAPABILITY_BILLBOARD_EX               = 0x0F,
 258:/home/pi/Developer/tinyusb/src/common/tusb_types.h ****   DEVICE_CAPABILITY_CONFIGURATION_SUMMARY      = 0x10
 259:/home/pi/Developer/tinyusb/src/common/tusb_types.h **** } device_capability_type_t;
 260:/home/pi/Developer/tinyusb/src/common/tusb_types.h **** 
 261:/home/pi/Developer/tinyusb/src/common/tusb_types.h **** enum {
 262:/home/pi/Developer/tinyusb/src/common/tusb_types.h ****   TUSB_DESC_CONFIG_ATT_REMOTE_WAKEUP = 1 << 5,
 263:/home/pi/Developer/tinyusb/src/common/tusb_types.h ****   TUSB_DESC_CONFIG_ATT_SELF_POWERED  = 1 << 6,
 264:/home/pi/Developer/tinyusb/src/common/tusb_types.h **** };
 265:/home/pi/Developer/tinyusb/src/common/tusb_types.h **** 
 266:/home/pi/Developer/tinyusb/src/common/tusb_types.h **** #define TUSB_DESC_CONFIG_POWER_MA(x)  ((x)/2)
 267:/home/pi/Developer/tinyusb/src/common/tusb_types.h **** 
 268:/home/pi/Developer/tinyusb/src/common/tusb_types.h **** // USB 2.0 Spec Table 9-7: Test Mode Selectors
 269:/home/pi/Developer/tinyusb/src/common/tusb_types.h **** typedef enum {
 270:/home/pi/Developer/tinyusb/src/common/tusb_types.h ****   TUSB_FEATURE_TEST_J = 1,
ARM GAS  /tmp/ccrixPyT.s 			page 53


 271:/home/pi/Developer/tinyusb/src/common/tusb_types.h ****   TUSB_FEATURE_TEST_K = 2,
 272:/home/pi/Developer/tinyusb/src/common/tusb_types.h ****   TUSB_FEATURE_TEST_SE0_NAK = 3,
 273:/home/pi/Developer/tinyusb/src/common/tusb_types.h ****   TUSB_FEATURE_TEST_PACKET = 4,
 274:/home/pi/Developer/tinyusb/src/common/tusb_types.h ****   TUSB_FEATURE_TEST_FORCE_ENABLE = 5,
 275:/home/pi/Developer/tinyusb/src/common/tusb_types.h **** } tusb_feature_test_mode_t;
 276:/home/pi/Developer/tinyusb/src/common/tusb_types.h **** 
 277:/home/pi/Developer/tinyusb/src/common/tusb_types.h **** //--------------------------------------------------------------------+
 278:/home/pi/Developer/tinyusb/src/common/tusb_types.h **** //
 279:/home/pi/Developer/tinyusb/src/common/tusb_types.h **** //--------------------------------------------------------------------+
 280:/home/pi/Developer/tinyusb/src/common/tusb_types.h **** typedef enum {
 281:/home/pi/Developer/tinyusb/src/common/tusb_types.h ****   XFER_RESULT_SUCCESS = 0,
 282:/home/pi/Developer/tinyusb/src/common/tusb_types.h ****   XFER_RESULT_FAILED,
 283:/home/pi/Developer/tinyusb/src/common/tusb_types.h ****   XFER_RESULT_STALLED,
 284:/home/pi/Developer/tinyusb/src/common/tusb_types.h ****   XFER_RESULT_TIMEOUT,
 285:/home/pi/Developer/tinyusb/src/common/tusb_types.h ****   XFER_RESULT_INVALID
 286:/home/pi/Developer/tinyusb/src/common/tusb_types.h **** } xfer_result_t;
 287:/home/pi/Developer/tinyusb/src/common/tusb_types.h **** 
 288:/home/pi/Developer/tinyusb/src/common/tusb_types.h **** #define tusb_xfer_result_t xfer_result_t
 289:/home/pi/Developer/tinyusb/src/common/tusb_types.h **** 
 290:/home/pi/Developer/tinyusb/src/common/tusb_types.h **** // TODO remove
 291:/home/pi/Developer/tinyusb/src/common/tusb_types.h **** enum {
 292:/home/pi/Developer/tinyusb/src/common/tusb_types.h ****   DESC_OFFSET_LEN  = 0,
 293:/home/pi/Developer/tinyusb/src/common/tusb_types.h ****   DESC_OFFSET_TYPE = 1,
 294:/home/pi/Developer/tinyusb/src/common/tusb_types.h ****   DESC_OFFSET_SUBTYPE = 2
 295:/home/pi/Developer/tinyusb/src/common/tusb_types.h **** };
 296:/home/pi/Developer/tinyusb/src/common/tusb_types.h **** 
 297:/home/pi/Developer/tinyusb/src/common/tusb_types.h **** enum {
 298:/home/pi/Developer/tinyusb/src/common/tusb_types.h ****   INTERFACE_INVALID_NUMBER = 0xff
 299:/home/pi/Developer/tinyusb/src/common/tusb_types.h **** };
 300:/home/pi/Developer/tinyusb/src/common/tusb_types.h **** 
 301:/home/pi/Developer/tinyusb/src/common/tusb_types.h **** typedef enum {
 302:/home/pi/Developer/tinyusb/src/common/tusb_types.h ****   MS_OS_20_SET_HEADER_DESCRIPTOR       = 0x00,
 303:/home/pi/Developer/tinyusb/src/common/tusb_types.h ****   MS_OS_20_SUBSET_HEADER_CONFIGURATION = 0x01,
 304:/home/pi/Developer/tinyusb/src/common/tusb_types.h ****   MS_OS_20_SUBSET_HEADER_FUNCTION      = 0x02,
 305:/home/pi/Developer/tinyusb/src/common/tusb_types.h ****   MS_OS_20_FEATURE_COMPATBLE_ID        = 0x03,
 306:/home/pi/Developer/tinyusb/src/common/tusb_types.h ****   MS_OS_20_FEATURE_REG_PROPERTY        = 0x04,
 307:/home/pi/Developer/tinyusb/src/common/tusb_types.h ****   MS_OS_20_FEATURE_MIN_RESUME_TIME     = 0x05,
 308:/home/pi/Developer/tinyusb/src/common/tusb_types.h ****   MS_OS_20_FEATURE_MODEL_ID            = 0x06,
 309:/home/pi/Developer/tinyusb/src/common/tusb_types.h ****   MS_OS_20_FEATURE_CCGP_DEVICE         = 0x07,
 310:/home/pi/Developer/tinyusb/src/common/tusb_types.h ****   MS_OS_20_FEATURE_VENDOR_REVISION     = 0x08
 311:/home/pi/Developer/tinyusb/src/common/tusb_types.h **** } microsoft_os_20_type_t;
 312:/home/pi/Developer/tinyusb/src/common/tusb_types.h **** 
 313:/home/pi/Developer/tinyusb/src/common/tusb_types.h **** enum {
 314:/home/pi/Developer/tinyusb/src/common/tusb_types.h ****   CONTROL_STAGE_IDLE = 0,
 315:/home/pi/Developer/tinyusb/src/common/tusb_types.h ****   CONTROL_STAGE_SETUP, // 1
 316:/home/pi/Developer/tinyusb/src/common/tusb_types.h ****   CONTROL_STAGE_DATA,  // 2
 317:/home/pi/Developer/tinyusb/src/common/tusb_types.h ****   CONTROL_STAGE_ACK    // 3
 318:/home/pi/Developer/tinyusb/src/common/tusb_types.h **** };
 319:/home/pi/Developer/tinyusb/src/common/tusb_types.h **** 
 320:/home/pi/Developer/tinyusb/src/common/tusb_types.h **** enum {
 321:/home/pi/Developer/tinyusb/src/common/tusb_types.h ****   TUSB_INDEX_INVALID_8 = 0xFF
 322:/home/pi/Developer/tinyusb/src/common/tusb_types.h **** };
 323:/home/pi/Developer/tinyusb/src/common/tusb_types.h **** 
 324:/home/pi/Developer/tinyusb/src/common/tusb_types.h **** enum {
 325:/home/pi/Developer/tinyusb/src/common/tusb_types.h ****  TU_EP0_OUT = 0x00,
 326:/home/pi/Developer/tinyusb/src/common/tusb_types.h ****  TU_EP0_IN = 0x80
 327:/home/pi/Developer/tinyusb/src/common/tusb_types.h **** };
ARM GAS  /tmp/ccrixPyT.s 			page 54


 328:/home/pi/Developer/tinyusb/src/common/tusb_types.h **** 
 329:/home/pi/Developer/tinyusb/src/common/tusb_types.h **** 
 330:/home/pi/Developer/tinyusb/src/common/tusb_types.h **** //--------------------------------------------------------------------+
 331:/home/pi/Developer/tinyusb/src/common/tusb_types.h **** //
 332:/home/pi/Developer/tinyusb/src/common/tusb_types.h **** //--------------------------------------------------------------------+
 333:/home/pi/Developer/tinyusb/src/common/tusb_types.h **** typedef struct {
 334:/home/pi/Developer/tinyusb/src/common/tusb_types.h ****   tusb_role_t role;
 335:/home/pi/Developer/tinyusb/src/common/tusb_types.h ****   tusb_speed_t speed;
 336:/home/pi/Developer/tinyusb/src/common/tusb_types.h **** } tusb_rhport_init_t;
 337:/home/pi/Developer/tinyusb/src/common/tusb_types.h **** 
 338:/home/pi/Developer/tinyusb/src/common/tusb_types.h **** typedef struct {
 339:/home/pi/Developer/tinyusb/src/common/tusb_types.h ****   uint16_t len;
 340:/home/pi/Developer/tinyusb/src/common/tusb_types.h ****   uint8_t *buffer;
 341:/home/pi/Developer/tinyusb/src/common/tusb_types.h **** } tusb_buffer_t;
 342:/home/pi/Developer/tinyusb/src/common/tusb_types.h **** 
 343:/home/pi/Developer/tinyusb/src/common/tusb_types.h **** //--------------------------------------------------------------------+
 344:/home/pi/Developer/tinyusb/src/common/tusb_types.h **** // USB Descriptors
 345:/home/pi/Developer/tinyusb/src/common/tusb_types.h **** //--------------------------------------------------------------------+
 346:/home/pi/Developer/tinyusb/src/common/tusb_types.h **** 
 347:/home/pi/Developer/tinyusb/src/common/tusb_types.h **** // Start of all packed definitions for compiler without per-type packed
 348:/home/pi/Developer/tinyusb/src/common/tusb_types.h **** TU_ATTR_PACKED_BEGIN
 349:/home/pi/Developer/tinyusb/src/common/tusb_types.h **** TU_ATTR_BIT_FIELD_ORDER_BEGIN
 350:/home/pi/Developer/tinyusb/src/common/tusb_types.h **** 
 351:/home/pi/Developer/tinyusb/src/common/tusb_types.h **** /// USB Device Descriptor
 352:/home/pi/Developer/tinyusb/src/common/tusb_types.h **** typedef struct TU_ATTR_PACKED {
 353:/home/pi/Developer/tinyusb/src/common/tusb_types.h ****   uint8_t  bLength            ; ///< Size of this descriptor in bytes.
 354:/home/pi/Developer/tinyusb/src/common/tusb_types.h ****   uint8_t  bDescriptorType    ; ///< DEVICE Descriptor Type.
 355:/home/pi/Developer/tinyusb/src/common/tusb_types.h ****   uint16_t bcdUSB             ; ///< BUSB Specification Release Number in Binary-Coded Decimal (i.e
 356:/home/pi/Developer/tinyusb/src/common/tusb_types.h ****   uint8_t  bDeviceClass       ; ///< Class code (assigned by the USB-IF).
 357:/home/pi/Developer/tinyusb/src/common/tusb_types.h ****   uint8_t  bDeviceSubClass    ; ///< Subclass code (assigned by the USB-IF).
 358:/home/pi/Developer/tinyusb/src/common/tusb_types.h ****   uint8_t  bDeviceProtocol    ; ///< Protocol code (assigned by the USB-IF).
 359:/home/pi/Developer/tinyusb/src/common/tusb_types.h ****   uint8_t  bMaxPacketSize0    ; ///< Maximum packet size for endpoint zero (only 8, 16, 32, or 64 a
 360:/home/pi/Developer/tinyusb/src/common/tusb_types.h ****   uint16_t idVendor           ; ///< Vendor ID (assigned by the USB-IF).
 361:/home/pi/Developer/tinyusb/src/common/tusb_types.h ****   uint16_t idProduct          ; ///< Product ID (assigned by the manufacturer).
 362:/home/pi/Developer/tinyusb/src/common/tusb_types.h ****   uint16_t bcdDevice          ; ///< Device release number in binary-coded decimal.
 363:/home/pi/Developer/tinyusb/src/common/tusb_types.h ****   uint8_t  iManufacturer      ; ///< Index of string descriptor describing manufacturer.
 364:/home/pi/Developer/tinyusb/src/common/tusb_types.h ****   uint8_t  iProduct           ; ///< Index of string descriptor describing product.
 365:/home/pi/Developer/tinyusb/src/common/tusb_types.h ****   uint8_t  iSerialNumber      ; ///< Index of string descriptor describing the device's serial numb
 366:/home/pi/Developer/tinyusb/src/common/tusb_types.h ****   uint8_t  bNumConfigurations ; ///< Number of possible configurations.
 367:/home/pi/Developer/tinyusb/src/common/tusb_types.h **** } tusb_desc_device_t;
 368:/home/pi/Developer/tinyusb/src/common/tusb_types.h **** 
 369:/home/pi/Developer/tinyusb/src/common/tusb_types.h **** TU_VERIFY_STATIC( sizeof(tusb_desc_device_t) == 18u, "size is not correct");
 370:/home/pi/Developer/tinyusb/src/common/tusb_types.h **** 
 371:/home/pi/Developer/tinyusb/src/common/tusb_types.h **** // USB Binary Device Object Store (BOS) Descriptor
 372:/home/pi/Developer/tinyusb/src/common/tusb_types.h **** typedef struct TU_ATTR_PACKED {
 373:/home/pi/Developer/tinyusb/src/common/tusb_types.h ****   uint8_t  bLength         ; ///< Size of this descriptor in bytes
 374:/home/pi/Developer/tinyusb/src/common/tusb_types.h ****   uint8_t  bDescriptorType ; ///< CONFIGURATION Descriptor Type
 375:/home/pi/Developer/tinyusb/src/common/tusb_types.h ****   uint16_t wTotalLength    ; ///< Total length of data returned for this descriptor
 376:/home/pi/Developer/tinyusb/src/common/tusb_types.h ****   uint8_t  bNumDeviceCaps  ; ///< Number of device capability descriptors in the BOS
 377:/home/pi/Developer/tinyusb/src/common/tusb_types.h **** } tusb_desc_bos_t;
 378:/home/pi/Developer/tinyusb/src/common/tusb_types.h **** 
 379:/home/pi/Developer/tinyusb/src/common/tusb_types.h **** TU_VERIFY_STATIC( sizeof(tusb_desc_bos_t) == 5u, "size is not correct");
 380:/home/pi/Developer/tinyusb/src/common/tusb_types.h **** 
 381:/home/pi/Developer/tinyusb/src/common/tusb_types.h **** /// USB Configuration Descriptor
 382:/home/pi/Developer/tinyusb/src/common/tusb_types.h **** typedef struct TU_ATTR_PACKED {
 383:/home/pi/Developer/tinyusb/src/common/tusb_types.h ****   uint8_t  bLength             ; ///< Size of this descriptor in bytes
 384:/home/pi/Developer/tinyusb/src/common/tusb_types.h ****   uint8_t  bDescriptorType     ; ///< CONFIGURATION Descriptor Type
ARM GAS  /tmp/ccrixPyT.s 			page 55


 385:/home/pi/Developer/tinyusb/src/common/tusb_types.h ****   uint16_t wTotalLength        ; ///< Total length of data returned for this configuration. Include
 386:/home/pi/Developer/tinyusb/src/common/tusb_types.h **** 
 387:/home/pi/Developer/tinyusb/src/common/tusb_types.h ****   uint8_t  bNumInterfaces      ; ///< Number of interfaces supported by this configuration
 388:/home/pi/Developer/tinyusb/src/common/tusb_types.h ****   uint8_t  bConfigurationValue ; ///< Value to use as an argument to the SetConfiguration() request
 389:/home/pi/Developer/tinyusb/src/common/tusb_types.h ****   uint8_t  iConfiguration      ; ///< Index of string descriptor describing this configuration
 390:/home/pi/Developer/tinyusb/src/common/tusb_types.h ****   uint8_t  bmAttributes        ; ///< Configuration characteristics \n D7: Reserved (set to one)\n 
 391:/home/pi/Developer/tinyusb/src/common/tusb_types.h ****   uint8_t  bMaxPower           ; ///< Maximum power consumption of the USB device from the bus in t
 392:/home/pi/Developer/tinyusb/src/common/tusb_types.h **** } tusb_desc_configuration_t;
 393:/home/pi/Developer/tinyusb/src/common/tusb_types.h **** 
 394:/home/pi/Developer/tinyusb/src/common/tusb_types.h **** TU_VERIFY_STATIC( sizeof(tusb_desc_configuration_t) == 9u, "size is not correct");
 395:/home/pi/Developer/tinyusb/src/common/tusb_types.h **** 
 396:/home/pi/Developer/tinyusb/src/common/tusb_types.h **** /// USB Interface Descriptor
 397:/home/pi/Developer/tinyusb/src/common/tusb_types.h **** typedef struct TU_ATTR_PACKED {
 398:/home/pi/Developer/tinyusb/src/common/tusb_types.h ****   uint8_t  bLength            ; ///< Size of this descriptor in bytes
 399:/home/pi/Developer/tinyusb/src/common/tusb_types.h ****   uint8_t  bDescriptorType    ; ///< INTERFACE Descriptor Type
 400:/home/pi/Developer/tinyusb/src/common/tusb_types.h **** 
 401:/home/pi/Developer/tinyusb/src/common/tusb_types.h ****   uint8_t  bInterfaceNumber   ; ///< Number of this interface. Zero-based value identifying the ind
 402:/home/pi/Developer/tinyusb/src/common/tusb_types.h ****   uint8_t  bAlternateSetting  ; ///< Value used to select this alternate setting for the interface 
 403:/home/pi/Developer/tinyusb/src/common/tusb_types.h ****   uint8_t  bNumEndpoints      ; ///< Number of endpoints used by this interface (excluding endpoint
 404:/home/pi/Developer/tinyusb/src/common/tusb_types.h ****   uint8_t  bInterfaceClass    ; ///< Class code (assigned by the USB-IF). \li A value of zero is re
 405:/home/pi/Developer/tinyusb/src/common/tusb_types.h ****   uint8_t  bInterfaceSubClass ; ///< Subclass code (assigned by the USB-IF). \n These codes are qua
 406:/home/pi/Developer/tinyusb/src/common/tusb_types.h ****   uint8_t  bInterfaceProtocol ; ///< Protocol code (assigned by the USB). \n These codes are qualif
 407:/home/pi/Developer/tinyusb/src/common/tusb_types.h ****   uint8_t  iInterface         ; ///< Index of string descriptor describing this interface
 408:/home/pi/Developer/tinyusb/src/common/tusb_types.h **** } tusb_desc_interface_t;
 409:/home/pi/Developer/tinyusb/src/common/tusb_types.h **** 
 410:/home/pi/Developer/tinyusb/src/common/tusb_types.h **** TU_VERIFY_STATIC( sizeof(tusb_desc_interface_t) == 9u, "size is not correct");
 411:/home/pi/Developer/tinyusb/src/common/tusb_types.h **** 
 412:/home/pi/Developer/tinyusb/src/common/tusb_types.h **** /// USB Endpoint Descriptor
 413:/home/pi/Developer/tinyusb/src/common/tusb_types.h **** typedef struct TU_ATTR_PACKED {
 414:/home/pi/Developer/tinyusb/src/common/tusb_types.h ****   uint8_t  bLength          ; // Size of this descriptor in bytes
 415:/home/pi/Developer/tinyusb/src/common/tusb_types.h ****   uint8_t  bDescriptorType  ; // ENDPOINT Descriptor Type
 416:/home/pi/Developer/tinyusb/src/common/tusb_types.h **** 
 417:/home/pi/Developer/tinyusb/src/common/tusb_types.h ****   uint8_t  bEndpointAddress ; // The address of the endpoint
 418:/home/pi/Developer/tinyusb/src/common/tusb_types.h **** 
 419:/home/pi/Developer/tinyusb/src/common/tusb_types.h ****   struct TU_ATTR_PACKED {
 420:/home/pi/Developer/tinyusb/src/common/tusb_types.h **** #if (TU_BITFIELD_ORDER == TU_BITFIELD_LE)
 421:/home/pi/Developer/tinyusb/src/common/tusb_types.h ****     uint8_t xfer  : 2;        // Control, ISO, Bulk, Interrupt
 422:/home/pi/Developer/tinyusb/src/common/tusb_types.h ****     uint8_t sync  : 2;        // None, Asynchronous, Adaptive, Synchronous
 423:/home/pi/Developer/tinyusb/src/common/tusb_types.h ****     uint8_t usage : 2;        // Data, Feedback, Implicit feedback
 424:/home/pi/Developer/tinyusb/src/common/tusb_types.h ****     uint8_t       : 2;
 425:/home/pi/Developer/tinyusb/src/common/tusb_types.h **** #elif (TU_BITFIELD_ORDER == TU_BITFIELD_BE)
 426:/home/pi/Developer/tinyusb/src/common/tusb_types.h ****     uint8_t       : 2;
 427:/home/pi/Developer/tinyusb/src/common/tusb_types.h ****     uint8_t usage : 2;
 428:/home/pi/Developer/tinyusb/src/common/tusb_types.h ****     uint8_t sync  : 2;
 429:/home/pi/Developer/tinyusb/src/common/tusb_types.h ****     uint8_t xfer  : 2;
 430:/home/pi/Developer/tinyusb/src/common/tusb_types.h **** #else
 431:/home/pi/Developer/tinyusb/src/common/tusb_types.h ****   #error "Please define TU_BITFIELD_ORDER as TU_BITFIELD_LE or TU_BITFIELD_BE"
 432:/home/pi/Developer/tinyusb/src/common/tusb_types.h **** #endif
 433:/home/pi/Developer/tinyusb/src/common/tusb_types.h ****   } bmAttributes;
 434:/home/pi/Developer/tinyusb/src/common/tusb_types.h **** 
 435:/home/pi/Developer/tinyusb/src/common/tusb_types.h ****   uint16_t wMaxPacketSize   ; // Bit 10..0 : max packet size, bit 12..11 additional transaction per
 436:/home/pi/Developer/tinyusb/src/common/tusb_types.h ****   uint8_t  bInterval        ; // Polling interval, in frames or microframes depending on the operat
 437:/home/pi/Developer/tinyusb/src/common/tusb_types.h **** } tusb_desc_endpoint_t;
 438:/home/pi/Developer/tinyusb/src/common/tusb_types.h **** 
 439:/home/pi/Developer/tinyusb/src/common/tusb_types.h **** TU_VERIFY_STATIC( sizeof(tusb_desc_endpoint_t) == 7u, "size is not correct");
 440:/home/pi/Developer/tinyusb/src/common/tusb_types.h **** 
 441:/home/pi/Developer/tinyusb/src/common/tusb_types.h **** /// USB Other Speed Configuration Descriptor
ARM GAS  /tmp/ccrixPyT.s 			page 56


 442:/home/pi/Developer/tinyusb/src/common/tusb_types.h **** typedef struct TU_ATTR_PACKED {
 443:/home/pi/Developer/tinyusb/src/common/tusb_types.h ****   uint8_t  bLength             ; ///< Size of descriptor
 444:/home/pi/Developer/tinyusb/src/common/tusb_types.h ****   uint8_t  bDescriptorType     ; ///< Other_speed_Configuration Type
 445:/home/pi/Developer/tinyusb/src/common/tusb_types.h ****   uint16_t wTotalLength        ; ///< Total length of data returned
 446:/home/pi/Developer/tinyusb/src/common/tusb_types.h **** 
 447:/home/pi/Developer/tinyusb/src/common/tusb_types.h ****   uint8_t  bNumInterfaces      ; ///< Number of interfaces supported by this speed configuration
 448:/home/pi/Developer/tinyusb/src/common/tusb_types.h ****   uint8_t  bConfigurationValue ; ///< Value to use to select configuration
 449:/home/pi/Developer/tinyusb/src/common/tusb_types.h ****   uint8_t  iConfiguration      ; ///< Index of string descriptor
 450:/home/pi/Developer/tinyusb/src/common/tusb_types.h ****   uint8_t  bmAttributes        ; ///< Same as Configuration descriptor
 451:/home/pi/Developer/tinyusb/src/common/tusb_types.h ****   uint8_t  bMaxPower           ; ///< Same as Configuration descriptor
 452:/home/pi/Developer/tinyusb/src/common/tusb_types.h **** } tusb_desc_other_speed_t;
 453:/home/pi/Developer/tinyusb/src/common/tusb_types.h **** 
 454:/home/pi/Developer/tinyusb/src/common/tusb_types.h **** /// USB Device Qualifier Descriptor
 455:/home/pi/Developer/tinyusb/src/common/tusb_types.h **** typedef struct TU_ATTR_PACKED {
 456:/home/pi/Developer/tinyusb/src/common/tusb_types.h ****   uint8_t  bLength            ; ///< Size of descriptor
 457:/home/pi/Developer/tinyusb/src/common/tusb_types.h ****   uint8_t  bDescriptorType    ; ///< Device Qualifier Type
 458:/home/pi/Developer/tinyusb/src/common/tusb_types.h ****   uint16_t bcdUSB             ; ///< USB specification version number (e.g., 0200H for V2.00)
 459:/home/pi/Developer/tinyusb/src/common/tusb_types.h **** 
 460:/home/pi/Developer/tinyusb/src/common/tusb_types.h ****   uint8_t  bDeviceClass       ; ///< Class Code
 461:/home/pi/Developer/tinyusb/src/common/tusb_types.h ****   uint8_t  bDeviceSubClass    ; ///< SubClass Code
 462:/home/pi/Developer/tinyusb/src/common/tusb_types.h ****   uint8_t  bDeviceProtocol    ; ///< Protocol Code
 463:/home/pi/Developer/tinyusb/src/common/tusb_types.h **** 
 464:/home/pi/Developer/tinyusb/src/common/tusb_types.h ****   uint8_t  bMaxPacketSize0    ; ///< Maximum packet size for other speed
 465:/home/pi/Developer/tinyusb/src/common/tusb_types.h ****   uint8_t  bNumConfigurations ; ///< Number of Other-speed Configurations
 466:/home/pi/Developer/tinyusb/src/common/tusb_types.h ****   uint8_t  bReserved          ; ///< Reserved for future use, must be zero
 467:/home/pi/Developer/tinyusb/src/common/tusb_types.h **** } tusb_desc_device_qualifier_t;
 468:/home/pi/Developer/tinyusb/src/common/tusb_types.h **** 
 469:/home/pi/Developer/tinyusb/src/common/tusb_types.h **** TU_VERIFY_STATIC( sizeof(tusb_desc_device_qualifier_t) == 10u, "size is not correct");
 470:/home/pi/Developer/tinyusb/src/common/tusb_types.h **** 
 471:/home/pi/Developer/tinyusb/src/common/tusb_types.h **** /// USB Interface Association Descriptor (IAD ECN)
 472:/home/pi/Developer/tinyusb/src/common/tusb_types.h **** typedef struct TU_ATTR_PACKED {
 473:/home/pi/Developer/tinyusb/src/common/tusb_types.h ****   uint8_t bLength           ; ///< Size of descriptor
 474:/home/pi/Developer/tinyusb/src/common/tusb_types.h ****   uint8_t bDescriptorType   ; ///< Other_speed_Configuration Type
 475:/home/pi/Developer/tinyusb/src/common/tusb_types.h **** 
 476:/home/pi/Developer/tinyusb/src/common/tusb_types.h ****   uint8_t bFirstInterface   ; ///< Index of the first associated interface.
 477:/home/pi/Developer/tinyusb/src/common/tusb_types.h ****   uint8_t bInterfaceCount   ; ///< Total number of associated interfaces.
 478:/home/pi/Developer/tinyusb/src/common/tusb_types.h **** 
 479:/home/pi/Developer/tinyusb/src/common/tusb_types.h ****   uint8_t bFunctionClass    ; ///< Interface class ID.
 480:/home/pi/Developer/tinyusb/src/common/tusb_types.h ****   uint8_t bFunctionSubClass ; ///< Interface subclass ID.
 481:/home/pi/Developer/tinyusb/src/common/tusb_types.h ****   uint8_t bFunctionProtocol ; ///< Interface protocol ID.
 482:/home/pi/Developer/tinyusb/src/common/tusb_types.h **** 
 483:/home/pi/Developer/tinyusb/src/common/tusb_types.h ****   uint8_t iFunction         ; ///< Index of the string descriptor describing the interface associat
 484:/home/pi/Developer/tinyusb/src/common/tusb_types.h **** } tusb_desc_interface_assoc_t;
 485:/home/pi/Developer/tinyusb/src/common/tusb_types.h **** 
 486:/home/pi/Developer/tinyusb/src/common/tusb_types.h **** TU_VERIFY_STATIC( sizeof(tusb_desc_interface_assoc_t) == 8u, "size is not correct");
 487:/home/pi/Developer/tinyusb/src/common/tusb_types.h **** 
 488:/home/pi/Developer/tinyusb/src/common/tusb_types.h **** // USB String Descriptor
 489:/home/pi/Developer/tinyusb/src/common/tusb_types.h **** typedef struct TU_ATTR_PACKED {
 490:/home/pi/Developer/tinyusb/src/common/tusb_types.h ****   uint8_t  bLength         ; ///< Size of this descriptor in bytes
 491:/home/pi/Developer/tinyusb/src/common/tusb_types.h ****   uint8_t  bDescriptorType ; ///< Descriptor Type
 492:/home/pi/Developer/tinyusb/src/common/tusb_types.h ****   uint16_t utf16le[];
 493:/home/pi/Developer/tinyusb/src/common/tusb_types.h **** } tusb_desc_string_t;
 494:/home/pi/Developer/tinyusb/src/common/tusb_types.h **** 
 495:/home/pi/Developer/tinyusb/src/common/tusb_types.h **** // USB Binary Device Object Store (BOS)
 496:/home/pi/Developer/tinyusb/src/common/tusb_types.h **** typedef struct TU_ATTR_PACKED {
 497:/home/pi/Developer/tinyusb/src/common/tusb_types.h ****   uint8_t bLength;
 498:/home/pi/Developer/tinyusb/src/common/tusb_types.h ****   uint8_t bDescriptorType ;
ARM GAS  /tmp/ccrixPyT.s 			page 57


 499:/home/pi/Developer/tinyusb/src/common/tusb_types.h ****   uint8_t bDevCapabilityType;
 500:/home/pi/Developer/tinyusb/src/common/tusb_types.h ****   uint8_t bReserved;
 501:/home/pi/Developer/tinyusb/src/common/tusb_types.h ****   uint8_t PlatformCapabilityUUID[16];
 502:/home/pi/Developer/tinyusb/src/common/tusb_types.h ****   uint8_t CapabilityData[];
 503:/home/pi/Developer/tinyusb/src/common/tusb_types.h **** } tusb_desc_bos_platform_t;
 504:/home/pi/Developer/tinyusb/src/common/tusb_types.h **** 
 505:/home/pi/Developer/tinyusb/src/common/tusb_types.h **** // USB WebUSB URL Descriptor
 506:/home/pi/Developer/tinyusb/src/common/tusb_types.h **** typedef struct TU_ATTR_PACKED {
 507:/home/pi/Developer/tinyusb/src/common/tusb_types.h ****   uint8_t bLength;
 508:/home/pi/Developer/tinyusb/src/common/tusb_types.h ****   uint8_t bDescriptorType;
 509:/home/pi/Developer/tinyusb/src/common/tusb_types.h ****   uint8_t bScheme;
 510:/home/pi/Developer/tinyusb/src/common/tusb_types.h ****   char    url[];
 511:/home/pi/Developer/tinyusb/src/common/tusb_types.h **** } tusb_desc_webusb_url_t;
 512:/home/pi/Developer/tinyusb/src/common/tusb_types.h **** 
 513:/home/pi/Developer/tinyusb/src/common/tusb_types.h **** // DFU Functional Descriptor
 514:/home/pi/Developer/tinyusb/src/common/tusb_types.h **** typedef struct TU_ATTR_PACKED {
 515:/home/pi/Developer/tinyusb/src/common/tusb_types.h ****   uint8_t  bLength;
 516:/home/pi/Developer/tinyusb/src/common/tusb_types.h ****   uint8_t  bDescriptorType;
 517:/home/pi/Developer/tinyusb/src/common/tusb_types.h **** 
 518:/home/pi/Developer/tinyusb/src/common/tusb_types.h ****   union {
 519:/home/pi/Developer/tinyusb/src/common/tusb_types.h ****     struct TU_ATTR_PACKED {
 520:/home/pi/Developer/tinyusb/src/common/tusb_types.h ****       uint8_t bitCanDnload             : 1;
 521:/home/pi/Developer/tinyusb/src/common/tusb_types.h ****       uint8_t bitCanUpload             : 1;
 522:/home/pi/Developer/tinyusb/src/common/tusb_types.h ****       uint8_t bitManifestationTolerant : 1;
 523:/home/pi/Developer/tinyusb/src/common/tusb_types.h ****       uint8_t bitWillDetach            : 1;
 524:/home/pi/Developer/tinyusb/src/common/tusb_types.h ****       uint8_t reserved                 : 4;
 525:/home/pi/Developer/tinyusb/src/common/tusb_types.h ****     } bmAttributes;
 526:/home/pi/Developer/tinyusb/src/common/tusb_types.h **** 
 527:/home/pi/Developer/tinyusb/src/common/tusb_types.h ****     uint8_t bAttributes;
 528:/home/pi/Developer/tinyusb/src/common/tusb_types.h ****   };
 529:/home/pi/Developer/tinyusb/src/common/tusb_types.h **** 
 530:/home/pi/Developer/tinyusb/src/common/tusb_types.h ****   uint16_t wDetachTimeOut;
 531:/home/pi/Developer/tinyusb/src/common/tusb_types.h ****   uint16_t wTransferSize;
 532:/home/pi/Developer/tinyusb/src/common/tusb_types.h ****   uint16_t bcdDFUVersion;
 533:/home/pi/Developer/tinyusb/src/common/tusb_types.h **** } tusb_desc_dfu_functional_t;
 534:/home/pi/Developer/tinyusb/src/common/tusb_types.h **** 
 535:/home/pi/Developer/tinyusb/src/common/tusb_types.h **** //--------------------------------------------------------------------+
 536:/home/pi/Developer/tinyusb/src/common/tusb_types.h **** //
 537:/home/pi/Developer/tinyusb/src/common/tusb_types.h **** //--------------------------------------------------------------------+
 538:/home/pi/Developer/tinyusb/src/common/tusb_types.h **** 
 539:/home/pi/Developer/tinyusb/src/common/tusb_types.h **** typedef struct TU_ATTR_PACKED {
 540:/home/pi/Developer/tinyusb/src/common/tusb_types.h ****   union {
 541:/home/pi/Developer/tinyusb/src/common/tusb_types.h ****     struct TU_ATTR_PACKED {
 542:/home/pi/Developer/tinyusb/src/common/tusb_types.h **** #if (TU_BITFIELD_ORDER == TU_BITFIELD_LE)
 543:/home/pi/Developer/tinyusb/src/common/tusb_types.h ****       uint8_t recipient :  5; ///< Recipient type tusb_request_recipient_t.
 544:/home/pi/Developer/tinyusb/src/common/tusb_types.h ****       uint8_t type      :  2; ///< Request type tusb_request_type_t.
 545:/home/pi/Developer/tinyusb/src/common/tusb_types.h ****       uint8_t direction :  1; ///< Direction type. tusb_dir_t
 546:/home/pi/Developer/tinyusb/src/common/tusb_types.h **** #elif (TU_BITFIELD_ORDER == TU_BITFIELD_BE)
 547:/home/pi/Developer/tinyusb/src/common/tusb_types.h ****       uint8_t direction :  1; ///< Direction type. tusb_dir_t
 548:/home/pi/Developer/tinyusb/src/common/tusb_types.h ****       uint8_t type      :  2; ///< Request type tusb_request_type_t.
 549:/home/pi/Developer/tinyusb/src/common/tusb_types.h ****       uint8_t recipient :  5; ///< Recipient type tusb_request_recipient_t.
 550:/home/pi/Developer/tinyusb/src/common/tusb_types.h **** #else
 551:/home/pi/Developer/tinyusb/src/common/tusb_types.h ****   #error "Please define TU_BITFIELD_ORDER as TU_BITFIELD_LE or TU_BITFIELD_BE"
 552:/home/pi/Developer/tinyusb/src/common/tusb_types.h **** #endif
 553:/home/pi/Developer/tinyusb/src/common/tusb_types.h ****     } bmRequestType_bit;
 554:/home/pi/Developer/tinyusb/src/common/tusb_types.h **** 
 555:/home/pi/Developer/tinyusb/src/common/tusb_types.h ****     uint8_t bmRequestType;
ARM GAS  /tmp/ccrixPyT.s 			page 58


 556:/home/pi/Developer/tinyusb/src/common/tusb_types.h ****   };
 557:/home/pi/Developer/tinyusb/src/common/tusb_types.h **** 
 558:/home/pi/Developer/tinyusb/src/common/tusb_types.h ****   uint8_t  bRequest;
 559:/home/pi/Developer/tinyusb/src/common/tusb_types.h ****   uint16_t wValue;
 560:/home/pi/Developer/tinyusb/src/common/tusb_types.h ****   uint16_t wIndex;
 561:/home/pi/Developer/tinyusb/src/common/tusb_types.h ****   uint16_t wLength;
 562:/home/pi/Developer/tinyusb/src/common/tusb_types.h **** } tusb_control_request_t;
 563:/home/pi/Developer/tinyusb/src/common/tusb_types.h **** 
 564:/home/pi/Developer/tinyusb/src/common/tusb_types.h **** TU_VERIFY_STATIC( sizeof(tusb_control_request_t) == 8u, "size is not correct");
 565:/home/pi/Developer/tinyusb/src/common/tusb_types.h **** 
 566:/home/pi/Developer/tinyusb/src/common/tusb_types.h **** TU_ATTR_PACKED_END  // End of all packed definitions
 567:/home/pi/Developer/tinyusb/src/common/tusb_types.h **** TU_ATTR_BIT_FIELD_ORDER_END
 568:/home/pi/Developer/tinyusb/src/common/tusb_types.h **** 
 569:/home/pi/Developer/tinyusb/src/common/tusb_types.h **** //--------------------------------------------------------------------+
 570:/home/pi/Developer/tinyusb/src/common/tusb_types.h **** // Endpoint helper
 571:/home/pi/Developer/tinyusb/src/common/tusb_types.h **** //--------------------------------------------------------------------+
 572:/home/pi/Developer/tinyusb/src/common/tusb_types.h **** 
 573:/home/pi/Developer/tinyusb/src/common/tusb_types.h **** // Get direction from Endpoint address
 574:/home/pi/Developer/tinyusb/src/common/tusb_types.h **** TU_ATTR_ALWAYS_INLINE static inline tusb_dir_t tu_edpt_dir(uint8_t addr) {
 575:/home/pi/Developer/tinyusb/src/common/tusb_types.h ****   return (addr & TUSB_DIR_IN_MASK) ? TUSB_DIR_IN : TUSB_DIR_OUT;
 576:/home/pi/Developer/tinyusb/src/common/tusb_types.h **** }
 577:/home/pi/Developer/tinyusb/src/common/tusb_types.h **** 
 578:/home/pi/Developer/tinyusb/src/common/tusb_types.h **** // Get Endpoint number from address
 579:/home/pi/Developer/tinyusb/src/common/tusb_types.h **** TU_ATTR_ALWAYS_INLINE static inline uint8_t tu_edpt_number(uint8_t addr) {
 1257              		.loc 4 579 45 view .LVU348
 1258              	.LBB193:
 580:/home/pi/Developer/tinyusb/src/common/tusb_types.h ****   return (uint8_t) (addr & TUSB_EPNUM_MASK);
 1259              		.loc 4 580 3 view .LVU349
 1260              		.loc 4 580 3 is_stmt 0 view .LVU350
 1261              	.LBE193:
 1262              	.LBE192:
 304:/home/pi/Developer/tinyusb/src/tusb.c ****       ep2drv[ep_num][ep_dir] = driver_id;
 1263              		.loc 1 304 7 is_stmt 1 view .LVU351
 1264              	.LBB194:
 1265              	.LBI194:
 574:/home/pi/Developer/tinyusb/src/common/tusb_types.h ****   return (addr & TUSB_DIR_IN_MASK) ? TUSB_DIR_IN : TUSB_DIR_OUT;
 1266              		.loc 4 574 48 view .LVU352
 1267              	.LBB195:
 575:/home/pi/Developer/tinyusb/src/common/tusb_types.h **** }
 1268              		.loc 4 575 3 view .LVU353
 575:/home/pi/Developer/tinyusb/src/common/tusb_types.h **** }
 1269              		.loc 4 575 3 is_stmt 0 view .LVU354
 1270              	.LBE195:
 1271              	.LBE194:
 305:/home/pi/Developer/tinyusb/src/tusb.c ****     } else if (desc_type == TUSB_DESC_INTERFACE) {
 1272              		.loc 1 305 7 is_stmt 1 view .LVU355
 305:/home/pi/Developer/tinyusb/src/tusb.c ****     } else if (desc_type == TUSB_DESC_INTERFACE) {
 1273              		.loc 1 305 13 is_stmt 0 view .LVU356
 1274 0042 0CF00F05 		and	r5, ip, #15
 305:/home/pi/Developer/tinyusb/src/tusb.c ****     } else if (desc_type == TUSB_DESC_INTERFACE) {
 1275              		.loc 1 305 21 view .LVU357
 1276 0046 4FEADC1C 		lsr	ip, ip, #7
 1277              	.LVL100:
 305:/home/pi/Developer/tinyusb/src/tusb.c ****     } else if (desc_type == TUSB_DESC_INTERFACE) {
 1278              		.loc 1 305 30 view .LVU358
 1279 004a 01EB4505 		add	r5, r1, r5, lsl #1
 1280 004e 05F80C00 		strb	r0, [r5, ip]
ARM GAS  /tmp/ccrixPyT.s 			page 59


 1281              	.LVL101:
 305:/home/pi/Developer/tinyusb/src/tusb.c ****     } else if (desc_type == TUSB_DESC_INTERFACE) {
 1282              		.loc 1 305 30 view .LVU359
 1283              	.LBE191:
 1284 0052 E8E7     		b	.L111
 1285              	.LVL102:
 1286              	.L123:
 1287              	.LBB196:
 307:/home/pi/Developer/tinyusb/src/tusb.c ****       if (desc_itf->bAlternateSetting == 0) {
 1288              		.loc 1 307 7 is_stmt 1 view .LVU360
 308:/home/pi/Developer/tinyusb/src/tusb.c ****         TU_ASSERT(desc_itf->bInterfaceNumber < itf_max);
 1289              		.loc 1 308 7 view .LVU361
 309:/home/pi/Developer/tinyusb/src/tusb.c ****         itf2drv[desc_itf->bInterfaceNumber] = driver_id;
 1290              		.loc 1 309 9 view .LVU362
 309:/home/pi/Developer/tinyusb/src/tusb.c ****         itf2drv[desc_itf->bInterfaceNumber] = driver_id;
 1291              		.loc 1 309 9 view .LVU363
 309:/home/pi/Developer/tinyusb/src/tusb.c ****         itf2drv[desc_itf->bInterfaceNumber] = driver_id;
 1292              		.loc 1 309 9 view .LVU364
 310:/home/pi/Developer/tinyusb/src/tusb.c ****       }
 1293              		.loc 1 310 9 view .LVU365
 308:/home/pi/Developer/tinyusb/src/tusb.c ****         TU_ASSERT(desc_itf->bInterfaceNumber < itf_max);
 1294              		.loc 1 308 10 is_stmt 0 view .LVU366
 1295 0054 E578     		ldrb	r5, [r4, #3]	@ zero_extendqisi2
 1296 0056 002D     		cmp	r5, #0
 1297 0058 E5D1     		bne	.L111
 309:/home/pi/Developer/tinyusb/src/tusb.c ****         itf2drv[desc_itf->bInterfaceNumber] = driver_id;
 1298              		.loc 1 309 9 view .LVU367
 1299 005a 94F802C0 		ldrb	ip, [r4, #2]	@ zero_extendqisi2
 1300              	.LVL103:
 309:/home/pi/Developer/tinyusb/src/tusb.c ****         itf2drv[desc_itf->bInterfaceNumber] = driver_id;
 1301              		.loc 1 309 9 view .LVU368
 1302 005e 9C45     		cmp	ip, r3
 1303 0060 02D2     		bcs	.L124
 310:/home/pi/Developer/tinyusb/src/tusb.c ****       }
 1304              		.loc 1 310 45 discriminator 2 view .LVU369
 1305 0062 02F80C00 		strb	r0, [r2, ip]
 1306              	.LVL104:
 310:/home/pi/Developer/tinyusb/src/tusb.c ****       }
 1307              		.loc 1 310 45 discriminator 2 view .LVU370
 1308 0066 DEE7     		b	.L111
 1309              	.LVL105:
 1310              	.L124:
 309:/home/pi/Developer/tinyusb/src/tusb.c ****         itf2drv[desc_itf->bInterfaceNumber] = driver_id;
 1311              		.loc 1 309 9 is_stmt 1 discriminator 1 view .LVU371
 309:/home/pi/Developer/tinyusb/src/tusb.c ****         itf2drv[desc_itf->bInterfaceNumber] = driver_id;
 1312              		.loc 1 309 9 discriminator 1 view .LVU372
 309:/home/pi/Developer/tinyusb/src/tusb.c ****         itf2drv[desc_itf->bInterfaceNumber] = driver_id;
 1313              		.loc 1 309 9 discriminator 1 view .LVU373
 309:/home/pi/Developer/tinyusb/src/tusb.c ****         itf2drv[desc_itf->bInterfaceNumber] = driver_id;
 1314              		.loc 1 309 9 discriminator 1 view .LVU374
 1315              	.LBB197:
 309:/home/pi/Developer/tinyusb/src/tusb.c ****         itf2drv[desc_itf->bInterfaceNumber] = driver_id;
 1316              		.loc 1 309 9 discriminator 1 view .LVU375
 309:/home/pi/Developer/tinyusb/src/tusb.c ****         itf2drv[desc_itf->bInterfaceNumber] = driver_id;
 1317              		.loc 1 309 9 discriminator 1 view .LVU376
 1318 0068 4FF0E023 		mov	r3, #-536813568
 1319              	.LVL106:
ARM GAS  /tmp/ccrixPyT.s 			page 60


 309:/home/pi/Developer/tinyusb/src/tusb.c ****         itf2drv[desc_itf->bInterfaceNumber] = driver_id;
 1320              		.loc 1 309 9 is_stmt 0 discriminator 1 view .LVU377
 1321 006c D3F8F00D 		ldr	r0, [r3, #3568]
 1322              	.LVL107:
 309:/home/pi/Developer/tinyusb/src/tusb.c ****         itf2drv[desc_itf->bInterfaceNumber] = driver_id;
 1323              		.loc 1 309 9 discriminator 1 view .LVU378
 1324 0070 10F00100 		ands	r0, r0, #1
 1325 0074 E2D0     		beq	.L119
 309:/home/pi/Developer/tinyusb/src/tusb.c ****         itf2drv[desc_itf->bInterfaceNumber] = driver_id;
 1326              		.loc 1 309 9 is_stmt 1 discriminator 3 view .LVU379
 1327              		.syntax unified
 1328              	@ 309 "/home/pi/Developer/tinyusb/src/tusb.c" 1
 1329 0076 00BE     		BKPT #0
 1330              	
 1331              	@ 0 "" 2
 1332              		.thumb
 1333              		.syntax unified
 1334              	.LBE197:
 1335 0078 2846     		mov	r0, r5
 1336              	.LBE196:
 1337              	.LBE199:
 317:/home/pi/Developer/tinyusb/src/tusb.c **** 
 1338              		.loc 1 317 1 is_stmt 0 discriminator 3 view .LVU380
 1339 007a 30BD     		pop	{r4, r5, pc}
 317:/home/pi/Developer/tinyusb/src/tusb.c **** 
 1340              		.loc 1 317 1 discriminator 3 view .LVU381
 1341              		.cfi_endproc
 1342              	.LFE458:
 1344              		.section	.text.tu_edpt_stream_init,"ax",%progbits
 1345              		.align	1
 1346              		.p2align 2,,3
 1347              		.global	tu_edpt_stream_init
 1348              		.syntax unified
 1349              		.thumb
 1350              		.thumb_func
 1351              		.fpu fpv5-d16
 1353              	tu_edpt_stream_init:
 1354              	.LVL108:
 1355              	.LFB459:
 324:/home/pi/Developer/tinyusb/src/tusb.c ****   (void) is_tx;
 1356              		.loc 1 324 64 is_stmt 1 view -0
 1357              		.cfi_startproc
 1358              		@ args = 12, pretend = 0, frame = 0
 1359              		@ frame_needed = 0, uses_anonymous_args = 0
 325:/home/pi/Developer/tinyusb/src/tusb.c **** 
 1360              		.loc 1 325 3 view .LVU383
 327:/home/pi/Developer/tinyusb/src/tusb.c ****     return false;
 1361              		.loc 1 327 3 view .LVU384
 324:/home/pi/Developer/tinyusb/src/tusb.c ****   (void) is_tx;
 1362              		.loc 1 324 64 is_stmt 0 view .LVU385
 1363 0000 38B5     		push	{r3, r4, r5, lr}
 1364              		.cfi_def_cfa_offset 16
 1365              		.cfi_offset 3, -16
 1366              		.cfi_offset 4, -12
 1367              		.cfi_offset 5, -8
 1368              		.cfi_offset 14, -4
 324:/home/pi/Developer/tinyusb/src/tusb.c ****   (void) is_tx;
ARM GAS  /tmp/ccrixPyT.s 			page 61


 1369              		.loc 1 324 64 view .LVU386
 1370 0002 049D     		ldr	r5, [sp, #16]
 1371 0004 BDF81420 		ldrh	r2, [sp, #20]
 1372              	.LVL109:
 327:/home/pi/Developer/tinyusb/src/tusb.c ****     return false;
 1373              		.loc 1 327 6 view .LVU387
 1374 0008 65B1     		cbz	r5, .L127
 1375 000a 5AB1     		cbz	r2, .L127
 331:/home/pi/Developer/tinyusb/src/tusb.c ****   tu_fifo_config(&s->ff, ff_buf, ff_bufsize, overwritable);
 1376              		.loc 1 331 3 is_stmt 1 view .LVU388
 1377 000c 0446     		mov	r4, r0
 1378 000e 0846     		mov	r0, r1
 1379              	.LVL110:
 332:/home/pi/Developer/tinyusb/src/tusb.c **** 
 1380              		.loc 1 332 3 is_stmt 0 view .LVU389
 1381 0010 2946     		mov	r1, r5
 1382              	.LVL111:
 331:/home/pi/Developer/tinyusb/src/tusb.c ****   tu_fifo_config(&s->ff, ff_buf, ff_bufsize, overwritable);
 1383              		.loc 1 331 14 view .LVU390
 1384 0012 6070     		strb	r0, [r4, #1]
 332:/home/pi/Developer/tinyusb/src/tusb.c **** 
 1385              		.loc 1 332 3 is_stmt 1 view .LVU391
 1386 0014 04F10C00 		add	r0, r4, #12
 1387 0018 FFF7FEFF 		bl	tu_fifo_config
 1388              	.LVL112:
 341:/home/pi/Developer/tinyusb/src/tusb.c **** 
 1389              		.loc 1 341 3 view .LVU392
 341:/home/pi/Developer/tinyusb/src/tusb.c **** 
 1390              		.loc 1 341 13 is_stmt 0 view .LVU393
 1391 001c 069B     		ldr	r3, [sp, #24]
 343:/home/pi/Developer/tinyusb/src/tusb.c **** }
 1392              		.loc 1 343 10 view .LVU394
 1393 001e 0120     		movs	r0, #1
 341:/home/pi/Developer/tinyusb/src/tusb.c **** 
 1394              		.loc 1 341 13 view .LVU395
 1395 0020 A360     		str	r3, [r4, #8]
 343:/home/pi/Developer/tinyusb/src/tusb.c **** }
 1396              		.loc 1 343 3 is_stmt 1 view .LVU396
 344:/home/pi/Developer/tinyusb/src/tusb.c **** 
 1397              		.loc 1 344 1 is_stmt 0 view .LVU397
 1398 0022 38BD     		pop	{r3, r4, r5, pc}
 1399              	.LVL113:
 1400              	.L127:
 328:/home/pi/Developer/tinyusb/src/tusb.c ****   }
 1401              		.loc 1 328 12 view .LVU398
 1402 0024 0020     		movs	r0, #0
 1403              	.LVL114:
 344:/home/pi/Developer/tinyusb/src/tusb.c **** 
 1404              		.loc 1 344 1 view .LVU399
 1405 0026 38BD     		pop	{r3, r4, r5, pc}
 344:/home/pi/Developer/tinyusb/src/tusb.c **** 
 1406              		.loc 1 344 1 view .LVU400
 1407              		.cfi_endproc
 1408              	.LFE459:
 1410              		.section	.text.tu_edpt_stream_write_zlp_if_needed,"ax",%progbits
 1411              		.align	1
 1412              		.p2align 2,,3
ARM GAS  /tmp/ccrixPyT.s 			page 62


 1413              		.global	tu_edpt_stream_write_zlp_if_needed
 1414              		.syntax unified
 1415              		.thumb
 1416              		.thumb_func
 1417              		.fpu fpv5-d16
 1419              	tu_edpt_stream_write_zlp_if_needed:
 1420              	.LVL115:
 1421              	.LFB463:
 393:/home/pi/Developer/tinyusb/src/tusb.c ****   // ZLP condition: no pending data, last transferred bytes is multiple of packet size
 1422              		.loc 1 393 91 is_stmt 1 view -0
 1423              		.cfi_startproc
 1424              		@ args = 0, pretend = 0, frame = 0
 1425              		@ frame_needed = 0, uses_anonymous_args = 0
 395:/home/pi/Developer/tinyusb/src/tusb.c ****   TU_VERIFY(stream_claim(s));
 1426              		.loc 1 395 3 view .LVU402
 395:/home/pi/Developer/tinyusb/src/tusb.c ****   TU_VERIFY(stream_claim(s));
 1427              		.loc 1 395 3 view .LVU403
 1428              	.LBB205:
 1429              	.LBI205:
 286:/home/pi/Developer/tinyusb/src/common/tusb_fifo.h ****   const uint16_t wr_idx = f->wr_idx;
 1430              		.loc 2 286 42 view .LVU404
 1431              	.LBB206:
 287:/home/pi/Developer/tinyusb/src/common/tusb_fifo.h ****   const uint16_t rd_idx = f->rd_idx;
 1432              		.loc 2 287 3 view .LVU405
 287:/home/pi/Developer/tinyusb/src/common/tusb_fifo.h ****   const uint16_t rd_idx = f->rd_idx;
 1433              		.loc 2 287 18 is_stmt 0 view .LVU406
 1434 0000 828A     		ldrh	r2, [r0, #20]
 1435              	.LBE206:
