ARM GAS  /tmp/cc4ocKfo.s 			page 1


   1              		.cpu cortex-m7
   2              		.eabi_attribute 28, 1
   3              		.eabi_attribute 20, 1
   4              		.eabi_attribute 21, 1
   5              		.eabi_attribute 23, 3
   6              		.eabi_attribute 24, 1
   7              		.eabi_attribute 25, 1
   8              		.eabi_attribute 26, 1
   9              		.eabi_attribute 30, 2
  10              		.eabi_attribute 34, 1
  11              		.eabi_attribute 18, 4
  12              		.file	"tusb_fifo.c"
  13              		.text
  14              	.Ltext0:
  15              		.cfi_sections	.debug_frame
  16              		.section	.text.tu_fifo_config,"ax",%progbits
  17              		.align	1
  18              		.p2align 2,,3
  19              		.global	tu_fifo_config
  20              		.arch armv7e-m
  21              		.syntax unified
  22              		.thumb
  23              		.thumb_func
  24              		.fpu fpv5-d16
  26              	tu_fifo_config:
  27              	.LVL0:
  28              	.LFB397:
  29              		.file 1 "/home/pi/Developer/tinyusb/src/common/tusb_fifo.c"
   1:/home/pi/Developer/tinyusb/src/common/tusb_fifo.c **** /*
   2:/home/pi/Developer/tinyusb/src/common/tusb_fifo.c ****  * The MIT License (MIT)
   3:/home/pi/Developer/tinyusb/src/common/tusb_fifo.c ****  *
   4:/home/pi/Developer/tinyusb/src/common/tusb_fifo.c ****  * Copyright (c) 2019 Ha Thach (tinyusb.org)
   5:/home/pi/Developer/tinyusb/src/common/tusb_fifo.c ****  * Copyright (c) 2020 Reinhard Panhuber - rework to unmasked pointers
   6:/home/pi/Developer/tinyusb/src/common/tusb_fifo.c ****  *
   7:/home/pi/Developer/tinyusb/src/common/tusb_fifo.c ****  * Permission is hereby granted, free of charge, to any person obtaining a copy
   8:/home/pi/Developer/tinyusb/src/common/tusb_fifo.c ****  * of this software and associated documentation files (the "Software"), to deal
   9:/home/pi/Developer/tinyusb/src/common/tusb_fifo.c ****  * in the Software without restriction, including without limitation the rights
  10:/home/pi/Developer/tinyusb/src/common/tusb_fifo.c ****  * to use, copy, modify, merge, publish, distribute, sublicense, and/or sell
  11:/home/pi/Developer/tinyusb/src/common/tusb_fifo.c ****  * copies of the Software, and to permit persons to whom the Software is
  12:/home/pi/Developer/tinyusb/src/common/tusb_fifo.c ****  * furnished to do so, subject to the following conditions:
  13:/home/pi/Developer/tinyusb/src/common/tusb_fifo.c ****  *
  14:/home/pi/Developer/tinyusb/src/common/tusb_fifo.c ****  * The above copyright notice and this permission notice shall be included in
  15:/home/pi/Developer/tinyusb/src/common/tusb_fifo.c ****  * all copies or substantial portions of the Software.
  16:/home/pi/Developer/tinyusb/src/common/tusb_fifo.c ****  *
  17:/home/pi/Developer/tinyusb/src/common/tusb_fifo.c ****  * THE SOFTWARE IS PROVIDED "AS IS", WITHOUT WARRANTY OF ANY KIND, EXPRESS OR
  18:/home/pi/Developer/tinyusb/src/common/tusb_fifo.c ****  * IMPLIED, INCLUDING BUT NOT LIMITED TO THE WARRANTIES OF MERCHANTABILITY,
  19:/home/pi/Developer/tinyusb/src/common/tusb_fifo.c ****  * FITNESS FOR A PARTICULAR PURPOSE AND NONINFRINGEMENT. IN NO EVENT SHALL THE
  20:/home/pi/Developer/tinyusb/src/common/tusb_fifo.c ****  * AUTHORS OR COPYRIGHT HOLDERS BE LIABLE FOR ANY CLAIM, DAMAGES OR OTHER
  21:/home/pi/Developer/tinyusb/src/common/tusb_fifo.c ****  * LIABILITY, WHETHER IN AN ACTION OF CONTRACT, TORT OR OTHERWISE, ARISING FROM,
  22:/home/pi/Developer/tinyusb/src/common/tusb_fifo.c ****  * OUT OF OR IN CONNECTION WITH THE SOFTWARE OR THE USE OR OTHER DEALINGS IN
  23:/home/pi/Developer/tinyusb/src/common/tusb_fifo.c ****  * THE SOFTWARE.
  24:/home/pi/Developer/tinyusb/src/common/tusb_fifo.c ****  *
  25:/home/pi/Developer/tinyusb/src/common/tusb_fifo.c ****  * This file is part of the TinyUSB stack.
  26:/home/pi/Developer/tinyusb/src/common/tusb_fifo.c ****  */
  27:/home/pi/Developer/tinyusb/src/common/tusb_fifo.c **** 
  28:/home/pi/Developer/tinyusb/src/common/tusb_fifo.c **** #include "osal/osal.h"
  29:/home/pi/Developer/tinyusb/src/common/tusb_fifo.c **** #include "tusb_fifo.h"
ARM GAS  /tmp/cc4ocKfo.s 			page 2


  30:/home/pi/Developer/tinyusb/src/common/tusb_fifo.c **** 
  31:/home/pi/Developer/tinyusb/src/common/tusb_fifo.c **** #define TU_FIFO_DBG 0
  32:/home/pi/Developer/tinyusb/src/common/tusb_fifo.c **** 
  33:/home/pi/Developer/tinyusb/src/common/tusb_fifo.c **** 
  34:/home/pi/Developer/tinyusb/src/common/tusb_fifo.c **** #if OSAL_MUTEX_REQUIRED
  35:/home/pi/Developer/tinyusb/src/common/tusb_fifo.c **** 
  36:/home/pi/Developer/tinyusb/src/common/tusb_fifo.c **** TU_ATTR_ALWAYS_INLINE static inline void ff_lock(osal_mutex_t mutex) {
  37:/home/pi/Developer/tinyusb/src/common/tusb_fifo.c ****   if (mutex != NULL) {
  38:/home/pi/Developer/tinyusb/src/common/tusb_fifo.c ****     osal_mutex_lock(mutex, OSAL_TIMEOUT_WAIT_FOREVER);
  39:/home/pi/Developer/tinyusb/src/common/tusb_fifo.c ****   }
  40:/home/pi/Developer/tinyusb/src/common/tusb_fifo.c **** }
  41:/home/pi/Developer/tinyusb/src/common/tusb_fifo.c **** 
  42:/home/pi/Developer/tinyusb/src/common/tusb_fifo.c **** TU_ATTR_ALWAYS_INLINE static inline void ff_unlock(osal_mutex_t mutex) {
  43:/home/pi/Developer/tinyusb/src/common/tusb_fifo.c ****   if (mutex != NULL) {
  44:/home/pi/Developer/tinyusb/src/common/tusb_fifo.c ****     osal_mutex_unlock(mutex);
  45:/home/pi/Developer/tinyusb/src/common/tusb_fifo.c ****   }
  46:/home/pi/Developer/tinyusb/src/common/tusb_fifo.c **** }
  47:/home/pi/Developer/tinyusb/src/common/tusb_fifo.c **** 
  48:/home/pi/Developer/tinyusb/src/common/tusb_fifo.c **** #else
  49:/home/pi/Developer/tinyusb/src/common/tusb_fifo.c ****   #define ff_lock(_mutex)
  50:/home/pi/Developer/tinyusb/src/common/tusb_fifo.c ****   #define ff_unlock(_mutex)
  51:/home/pi/Developer/tinyusb/src/common/tusb_fifo.c **** 
  52:/home/pi/Developer/tinyusb/src/common/tusb_fifo.c **** #endif
  53:/home/pi/Developer/tinyusb/src/common/tusb_fifo.c **** 
  54:/home/pi/Developer/tinyusb/src/common/tusb_fifo.c **** //--------------------------------------------------------------------+
  55:/home/pi/Developer/tinyusb/src/common/tusb_fifo.c **** // Setup API
  56:/home/pi/Developer/tinyusb/src/common/tusb_fifo.c **** //--------------------------------------------------------------------+
  57:/home/pi/Developer/tinyusb/src/common/tusb_fifo.c **** bool tu_fifo_config(tu_fifo_t *f, void *buffer, uint16_t depth, bool overwritable) {
  30              		.loc 1 57 84 view -0
  31              		.cfi_startproc
  32              		@ args = 0, pretend = 0, frame = 0
  33              		@ frame_needed = 0, uses_anonymous_args = 0
  58:/home/pi/Developer/tinyusb/src/common/tusb_fifo.c ****   // Limit index space to 2*depth - this allows for a fast "modulo" calculation
  59:/home/pi/Developer/tinyusb/src/common/tusb_fifo.c ****   // but limits the maximum depth to 2^16/2 = 2^15 and buffer overflows are detectable
  60:/home/pi/Developer/tinyusb/src/common/tusb_fifo.c ****   // only if overflow happens once (important for unsupervised DMA applications)
  61:/home/pi/Developer/tinyusb/src/common/tusb_fifo.c ****   if (depth > 0x8000) {
  34              		.loc 1 61 3 view .LVU1
  35              		.loc 1 61 6 is_stmt 0 view .LVU2
  36 0000 B2F5004F 		cmp	r2, #32768
  37 0004 0ED8     		bhi	.L3
  38 0006 8446     		mov	ip, r0
  62:/home/pi/Developer/tinyusb/src/common/tusb_fifo.c ****     return false;
  63:/home/pi/Developer/tinyusb/src/common/tusb_fifo.c ****   }
  64:/home/pi/Developer/tinyusb/src/common/tusb_fifo.c **** 
  65:/home/pi/Developer/tinyusb/src/common/tusb_fifo.c ****   ff_lock(f->mutex_wr);
  39              		.loc 1 65 23 is_stmt 1 view .LVU3
  66:/home/pi/Developer/tinyusb/src/common/tusb_fifo.c ****   ff_lock(f->mutex_rd);
  40              		.loc 1 66 23 view .LVU4
  67:/home/pi/Developer/tinyusb/src/common/tusb_fifo.c **** 
  68:/home/pi/Developer/tinyusb/src/common/tusb_fifo.c ****   f->buffer       = (uint8_t *)buffer;
  41              		.loc 1 68 3 view .LVU5
  57:/home/pi/Developer/tinyusb/src/common/tusb_fifo.c ****   // Limit index space to 2*depth - this allows for a fast "modulo" calculation
  42              		.loc 1 57 84 is_stmt 0 view .LVU6
  43 0008 00B5     		push	{lr}
  44              		.cfi_def_cfa_offset 4
  45              		.cfi_offset 14, -4
  69:/home/pi/Developer/tinyusb/src/common/tusb_fifo.c ****   f->depth        = depth;
ARM GAS  /tmp/cc4ocKfo.s 			page 3


  70:/home/pi/Developer/tinyusb/src/common/tusb_fifo.c ****   f->overwritable = overwritable;
  71:/home/pi/Developer/tinyusb/src/common/tusb_fifo.c ****   f->rd_idx       = 0u;
  46              		.loc 1 71 19 view .LVU7
  47 000a 4FF0000E 		mov	lr, #0
  68:/home/pi/Developer/tinyusb/src/common/tusb_fifo.c ****   f->depth        = depth;
  48              		.loc 1 68 19 view .LVU8
  49 000e 0160     		str	r1, [r0]
  69:/home/pi/Developer/tinyusb/src/common/tusb_fifo.c ****   f->depth        = depth;
  50              		.loc 1 69 3 is_stmt 1 view .LVU9
  69:/home/pi/Developer/tinyusb/src/common/tusb_fifo.c ****   f->depth        = depth;
  51              		.loc 1 69 19 is_stmt 0 view .LVU10
  52 0010 8280     		strh	r2, [r0, #4]	@ movhi
  70:/home/pi/Developer/tinyusb/src/common/tusb_fifo.c ****   f->rd_idx       = 0u;
  53              		.loc 1 70 3 is_stmt 1 view .LVU11
  72:/home/pi/Developer/tinyusb/src/common/tusb_fifo.c ****   f->wr_idx       = 0u;
  73:/home/pi/Developer/tinyusb/src/common/tusb_fifo.c **** 
  74:/home/pi/Developer/tinyusb/src/common/tusb_fifo.c ****   ff_unlock(f->mutex_wr);
  75:/home/pi/Developer/tinyusb/src/common/tusb_fifo.c ****   ff_unlock(f->mutex_rd);
  76:/home/pi/Developer/tinyusb/src/common/tusb_fifo.c **** 
  77:/home/pi/Developer/tinyusb/src/common/tusb_fifo.c ****   return true;
  54              		.loc 1 77 10 is_stmt 0 view .LVU12
  55 0012 0120     		movs	r0, #1
  56              	.LVL1:
  71:/home/pi/Developer/tinyusb/src/common/tusb_fifo.c ****   f->wr_idx       = 0u;
  57              		.loc 1 71 19 view .LVU13
  58 0014 ACF80AE0 		strh	lr, [ip, #10]	@ movhi
  70:/home/pi/Developer/tinyusb/src/common/tusb_fifo.c ****   f->rd_idx       = 0u;
  59              		.loc 1 70 19 view .LVU14
  60 0018 8CF80630 		strb	r3, [ip, #6]
  71:/home/pi/Developer/tinyusb/src/common/tusb_fifo.c ****   f->wr_idx       = 0u;
  61              		.loc 1 71 3 is_stmt 1 view .LVU15
  72:/home/pi/Developer/tinyusb/src/common/tusb_fifo.c ****   f->wr_idx       = 0u;
  62              		.loc 1 72 3 view .LVU16
  72:/home/pi/Developer/tinyusb/src/common/tusb_fifo.c ****   f->wr_idx       = 0u;
  63              		.loc 1 72 19 is_stmt 0 view .LVU17
  64 001c ACF808E0 		strh	lr, [ip, #8]	@ movhi
  74:/home/pi/Developer/tinyusb/src/common/tusb_fifo.c ****   ff_unlock(f->mutex_rd);
  65              		.loc 1 74 25 is_stmt 1 view .LVU18
  75:/home/pi/Developer/tinyusb/src/common/tusb_fifo.c **** 
  66              		.loc 1 75 25 view .LVU19
  67              		.loc 1 77 3 view .LVU20
  78:/home/pi/Developer/tinyusb/src/common/tusb_fifo.c **** }
  68              		.loc 1 78 1 is_stmt 0 view .LVU21
  69 0020 5DF804FB 		ldr	pc, [sp], #4
  70              	.LVL2:
  71              	.L3:
  72              		.cfi_def_cfa_offset 0
  73              		.cfi_restore 14
  62:/home/pi/Developer/tinyusb/src/common/tusb_fifo.c ****   }
  74              		.loc 1 62 12 view .LVU22
  75 0024 0020     		movs	r0, #0
  76              	.LVL3:
  77              		.loc 1 78 1 view .LVU23
  78 0026 7047     		bx	lr
  79              		.cfi_endproc
  80              	.LFE397:
  82              		.section	.text.tu_fifo_clear,"ax",%progbits
ARM GAS  /tmp/cc4ocKfo.s 			page 4


  83              		.align	1
  84              		.p2align 2,,3
  85              		.global	tu_fifo_clear
  86              		.syntax unified
  87              		.thumb
  88              		.thumb_func
  89              		.fpu fpv5-d16
  91              	tu_fifo_clear:
  92              	.LVL4:
  93              	.LFB398:
  79:/home/pi/Developer/tinyusb/src/common/tusb_fifo.c **** 
  80:/home/pi/Developer/tinyusb/src/common/tusb_fifo.c **** // clear fifo by resetting read and write indices
  81:/home/pi/Developer/tinyusb/src/common/tusb_fifo.c **** void tu_fifo_clear(tu_fifo_t *f) {
  94              		.loc 1 81 34 is_stmt 1 view -0
  95              		.cfi_startproc
  96              		@ args = 0, pretend = 0, frame = 0
  97              		@ frame_needed = 0, uses_anonymous_args = 0
  98              		@ link register save eliminated.
  82:/home/pi/Developer/tinyusb/src/common/tusb_fifo.c ****   ff_lock(f->mutex_wr);
  99              		.loc 1 82 23 view .LVU25
  83:/home/pi/Developer/tinyusb/src/common/tusb_fifo.c ****   ff_lock(f->mutex_rd);
 100              		.loc 1 83 23 view .LVU26
  84:/home/pi/Developer/tinyusb/src/common/tusb_fifo.c **** 
  85:/home/pi/Developer/tinyusb/src/common/tusb_fifo.c ****   f->rd_idx = 0;
 101              		.loc 1 85 3 view .LVU27
 102              		.loc 1 85 13 is_stmt 0 view .LVU28
 103 0000 0023     		movs	r3, #0
 104 0002 4381     		strh	r3, [r0, #10]	@ movhi
  86:/home/pi/Developer/tinyusb/src/common/tusb_fifo.c ****   f->wr_idx = 0;
 105              		.loc 1 86 3 is_stmt 1 view .LVU29
 106              		.loc 1 86 13 is_stmt 0 view .LVU30
 107 0004 0381     		strh	r3, [r0, #8]	@ movhi
  87:/home/pi/Developer/tinyusb/src/common/tusb_fifo.c **** 
  88:/home/pi/Developer/tinyusb/src/common/tusb_fifo.c ****   ff_unlock(f->mutex_wr);
 108              		.loc 1 88 25 is_stmt 1 view .LVU31
  89:/home/pi/Developer/tinyusb/src/common/tusb_fifo.c ****   ff_unlock(f->mutex_rd);
 109              		.loc 1 89 25 view .LVU32
  90:/home/pi/Developer/tinyusb/src/common/tusb_fifo.c **** }
 110              		.loc 1 90 1 is_stmt 0 view .LVU33
 111 0006 7047     		bx	lr
 112              		.cfi_endproc
 113              	.LFE398:
 115              		.section	.text.tu_fifo_set_overwritable,"ax",%progbits
 116              		.align	1
 117              		.p2align 2,,3
 118              		.global	tu_fifo_set_overwritable
 119              		.syntax unified
 120              		.thumb
 121              		.thumb_func
 122              		.fpu fpv5-d16
 124              	tu_fifo_set_overwritable:
 125              	.LVL5:
 126              	.LFB399:
  91:/home/pi/Developer/tinyusb/src/common/tusb_fifo.c **** 
  92:/home/pi/Developer/tinyusb/src/common/tusb_fifo.c **** // Change the fifo overwritable mode
  93:/home/pi/Developer/tinyusb/src/common/tusb_fifo.c **** void tu_fifo_set_overwritable(tu_fifo_t *f, bool overwritable) {
 127              		.loc 1 93 64 is_stmt 1 view -0
ARM GAS  /tmp/cc4ocKfo.s 			page 5


 128              		.cfi_startproc
 129              		@ args = 0, pretend = 0, frame = 0
 130              		@ frame_needed = 0, uses_anonymous_args = 0
 131              		@ link register save eliminated.
  94:/home/pi/Developer/tinyusb/src/common/tusb_fifo.c ****   if (f->overwritable == overwritable) {
 132              		.loc 1 94 3 view .LVU35
 133              		.loc 1 94 6 is_stmt 0 view .LVU36
 134 0000 8379     		ldrb	r3, [r0, #6]	@ zero_extendqisi2
 135 0002 8B42     		cmp	r3, r1
  95:/home/pi/Developer/tinyusb/src/common/tusb_fifo.c ****     return;
  96:/home/pi/Developer/tinyusb/src/common/tusb_fifo.c ****   }
  97:/home/pi/Developer/tinyusb/src/common/tusb_fifo.c **** 
  98:/home/pi/Developer/tinyusb/src/common/tusb_fifo.c ****   ff_lock(f->mutex_wr);
 136              		.loc 1 98 23 is_stmt 1 view .LVU37
  99:/home/pi/Developer/tinyusb/src/common/tusb_fifo.c ****   ff_lock(f->mutex_rd);
 137              		.loc 1 99 23 view .LVU38
 100:/home/pi/Developer/tinyusb/src/common/tusb_fifo.c **** 
 101:/home/pi/Developer/tinyusb/src/common/tusb_fifo.c ****   f->overwritable = overwritable;
 138              		.loc 1 101 3 view .LVU39
 139              		.loc 1 101 19 is_stmt 0 view .LVU40
 140 0004 18BF     		it	ne
 141 0006 8171     		strbne	r1, [r0, #6]
 102:/home/pi/Developer/tinyusb/src/common/tusb_fifo.c **** 
 103:/home/pi/Developer/tinyusb/src/common/tusb_fifo.c ****   ff_unlock(f->mutex_wr);
 142              		.loc 1 103 25 is_stmt 1 view .LVU41
 104:/home/pi/Developer/tinyusb/src/common/tusb_fifo.c ****   ff_unlock(f->mutex_rd);
 143              		.loc 1 104 25 view .LVU42
 105:/home/pi/Developer/tinyusb/src/common/tusb_fifo.c **** }
 144              		.loc 1 105 1 is_stmt 0 view .LVU43
 145 0008 7047     		bx	lr
 146              		.cfi_endproc
 147              	.LFE399:
 149 000a 00BF     		.section	.text.tu_hwfifo_write,"ax",%progbits
 150              		.align	1
 151              		.p2align 2,,3
 152              		.global	tu_hwfifo_write
 153              		.syntax unified
 154              		.thumb
 155              		.thumb_func
 156              		.fpu fpv5-d16
 158              	tu_hwfifo_write:
 159              	.LVL6:
 160              	.LFB401:
 106:/home/pi/Developer/tinyusb/src/common/tusb_fifo.c **** 
 107:/home/pi/Developer/tinyusb/src/common/tusb_fifo.c **** //--------------------------------------------------------------------+
 108:/home/pi/Developer/tinyusb/src/common/tusb_fifo.c **** // Hardware FIFO API
 109:/home/pi/Developer/tinyusb/src/common/tusb_fifo.c **** // Support different data access width and address increment scheme
 110:/home/pi/Developer/tinyusb/src/common/tusb_fifo.c **** // Can support multiple i.e both 16 and 32-bit data access if needed
 111:/home/pi/Developer/tinyusb/src/common/tusb_fifo.c **** //--------------------------------------------------------------------+
 112:/home/pi/Developer/tinyusb/src/common/tusb_fifo.c **** #if CFG_TUSB_FIFO_HWFIFO_API
 113:/home/pi/Developer/tinyusb/src/common/tusb_fifo.c ****   #if CFG_TUSB_FIFO_HWFIFO_ADDR_STRIDE > 0
 114:/home/pi/Developer/tinyusb/src/common/tusb_fifo.c ****     #define HWFIFO_ADDR_NEXT_N(_hwfifo, _const, _n) _hwfifo = (_const volatile void *)((uintptr_t)(
 115:/home/pi/Developer/tinyusb/src/common/tusb_fifo.c ****   #else
 116:/home/pi/Developer/tinyusb/src/common/tusb_fifo.c ****     #define HWFIFO_ADDR_NEXT_N(_hwfifo, _const, _n)
 117:/home/pi/Developer/tinyusb/src/common/tusb_fifo.c ****   #endif
 118:/home/pi/Developer/tinyusb/src/common/tusb_fifo.c **** 
 119:/home/pi/Developer/tinyusb/src/common/tusb_fifo.c ****   #define HWFIFO_ADDR_NEXT(_hwfifo, _const) HWFIFO_ADDR_NEXT_N(_hwfifo, _const, CFG_TUSB_FIFO_HWFIF
ARM GAS  /tmp/cc4ocKfo.s 			page 6


 120:/home/pi/Developer/tinyusb/src/common/tusb_fifo.c **** 
 121:/home/pi/Developer/tinyusb/src/common/tusb_fifo.c ****   // the fixed ratio works since in the only case of dynamic/multiple data_stride (rusb2): addr_str
 122:/home/pi/Developer/tinyusb/src/common/tusb_fifo.c ****   #define HWFIFO_ADDR_DATA_RATIO (CFG_TUSB_FIFO_HWFIFO_ADDR_STRIDE / CFG_TUSB_FIFO_HWFIFO_DATA_STRI
 123:/home/pi/Developer/tinyusb/src/common/tusb_fifo.c **** 
 124:/home/pi/Developer/tinyusb/src/common/tusb_fifo.c **** //------------- Write -------------//
 125:/home/pi/Developer/tinyusb/src/common/tusb_fifo.c ****   #ifndef CFG_TUSB_FIFO_HWFIFO_CUSTOM_WRITE
 126:/home/pi/Developer/tinyusb/src/common/tusb_fifo.c **** TU_ATTR_ALWAYS_INLINE static inline void stride_write(volatile void *hwfifo, const void *src, uint8
 127:/home/pi/Developer/tinyusb/src/common/tusb_fifo.c ****   (void)data_stride; // possible unused
 128:/home/pi/Developer/tinyusb/src/common/tusb_fifo.c ****     #if CFG_TUSB_FIFO_HWFIFO_DATA_STRIDE & 4
 129:/home/pi/Developer/tinyusb/src/common/tusb_fifo.c ****       #if CFG_TUSB_FIFO_HWFIFO_DATA_STRIDE != 4
 130:/home/pi/Developer/tinyusb/src/common/tusb_fifo.c ****   if (data_stride == 4)
 131:/home/pi/Developer/tinyusb/src/common/tusb_fifo.c ****       #endif
 132:/home/pi/Developer/tinyusb/src/common/tusb_fifo.c ****   {
 133:/home/pi/Developer/tinyusb/src/common/tusb_fifo.c ****     *((volatile uint32_t *)hwfifo) = tu_unaligned_read32(src);
 134:/home/pi/Developer/tinyusb/src/common/tusb_fifo.c ****   }
 135:/home/pi/Developer/tinyusb/src/common/tusb_fifo.c ****     #endif
 136:/home/pi/Developer/tinyusb/src/common/tusb_fifo.c **** 
 137:/home/pi/Developer/tinyusb/src/common/tusb_fifo.c ****     #if CFG_TUSB_FIFO_HWFIFO_DATA_STRIDE & 2
 138:/home/pi/Developer/tinyusb/src/common/tusb_fifo.c ****       #if CFG_TUSB_FIFO_HWFIFO_DATA_STRIDE != 2
 139:/home/pi/Developer/tinyusb/src/common/tusb_fifo.c ****   if (data_stride == 2)
 140:/home/pi/Developer/tinyusb/src/common/tusb_fifo.c ****       #endif
 141:/home/pi/Developer/tinyusb/src/common/tusb_fifo.c ****   {
 142:/home/pi/Developer/tinyusb/src/common/tusb_fifo.c ****     *((volatile uint16_t *)hwfifo) = tu_unaligned_read16(src);
 143:/home/pi/Developer/tinyusb/src/common/tusb_fifo.c ****   }
 144:/home/pi/Developer/tinyusb/src/common/tusb_fifo.c ****     #endif
 145:/home/pi/Developer/tinyusb/src/common/tusb_fifo.c **** 
 146:/home/pi/Developer/tinyusb/src/common/tusb_fifo.c ****     #if CFG_TUSB_FIFO_HWFIFO_DATA_STRIDE == 1
 147:/home/pi/Developer/tinyusb/src/common/tusb_fifo.c ****   *((volatile uint8_t *)hwfifo) = *(const uint8_t *)src;
 148:/home/pi/Developer/tinyusb/src/common/tusb_fifo.c ****     #endif
 149:/home/pi/Developer/tinyusb/src/common/tusb_fifo.c **** }
 150:/home/pi/Developer/tinyusb/src/common/tusb_fifo.c **** 
 151:/home/pi/Developer/tinyusb/src/common/tusb_fifo.c **** // Copy from fifo to fixed address buffer (usually a tx register) with TU_FIFO_FIXED_ADDR_RW32 mode
 152:/home/pi/Developer/tinyusb/src/common/tusb_fifo.c **** void tu_hwfifo_write(volatile void *hwfifo, const uint8_t *src, uint16_t len, const tu_hwfifo_acces
 161              		.loc 1 152 118 is_stmt 1 view -0
 162              		.cfi_startproc
 163              		@ args = 0, pretend = 0, frame = 8
 164              		@ frame_needed = 0, uses_anonymous_args = 0
 153:/home/pi/Developer/tinyusb/src/common/tusb_fifo.c ****   // Write full available 16/32 bit words to dest
 154:/home/pi/Developer/tinyusb/src/common/tusb_fifo.c ****   const uint8_t data_stride = (access_mode != NULL) ? access_mode->data_stride : CFG_TUSB_FIFO_HWFI
 165              		.loc 1 154 3 view .LVU45
 152:/home/pi/Developer/tinyusb/src/common/tusb_fifo.c ****   // Write full available 16/32 bit words to dest
 166              		.loc 1 152 118 is_stmt 0 view .LVU46
 167 0000 30B5     		push	{r4, r5, lr}
 168              		.cfi_def_cfa_offset 12
 169              		.cfi_offset 4, -12
 170              		.cfi_offset 5, -8
 171              		.cfi_offset 14, -4
 172 0002 0546     		mov	r5, r0
 173 0004 83B0     		sub	sp, sp, #12
 174              		.cfi_def_cfa_offset 24
 175              		.loc 1 154 17 view .LVU47
 176 0006 ABB1     		cbz	r3, .L17
 177              		.loc 1 154 17 discriminator 1 view .LVU48
 178 0008 1878     		ldrb	r0, [r3]	@ zero_extendqisi2
 179              	.LVL7:
 155:/home/pi/Developer/tinyusb/src/common/tusb_fifo.c ****   while (len >= data_stride) {
 180              		.loc 1 155 14 discriminator 1 view .LVU49
ARM GAS  /tmp/cc4ocKfo.s 			page 7


 181 000a 83B2     		uxth	r3, r0
 182              	.LVL8:
 183              		.loc 1 155 14 discriminator 1 view .LVU50
 184 000c 04E0     		b	.L23
 185              	.L15:
 156:/home/pi/Developer/tinyusb/src/common/tusb_fifo.c ****     stride_write(hwfifo, src, data_stride);
 186              		.loc 1 156 5 is_stmt 1 view .LVU51
 187              	.LVL9:
 188              	.LBB177:
 189              	.LBI177:
 126:/home/pi/Developer/tinyusb/src/common/tusb_fifo.c ****   (void)data_stride; // possible unused
 190              		.loc 1 126 42 view .LVU52
 191              	.LBB178:
 127:/home/pi/Developer/tinyusb/src/common/tusb_fifo.c ****     #if CFG_TUSB_FIFO_HWFIFO_DATA_STRIDE & 4
 192              		.loc 1 127 3 view .LVU53
 133:/home/pi/Developer/tinyusb/src/common/tusb_fifo.c ****   }
 193              		.loc 1 133 5 view .LVU54
 194              	.LBB179:
 195              	.LBI179:
 196              		.file 2 "/home/pi/Developer/tinyusb/src/common/tusb_common.h"
   1:/home/pi/Developer/tinyusb/src/common/tusb_common.h **** /*
   2:/home/pi/Developer/tinyusb/src/common/tusb_common.h ****  * The MIT License (MIT)
   3:/home/pi/Developer/tinyusb/src/common/tusb_common.h ****  *
   4:/home/pi/Developer/tinyusb/src/common/tusb_common.h ****  * Copyright (c) 2019 Ha Thach (tinyusb.org)
   5:/home/pi/Developer/tinyusb/src/common/tusb_common.h ****  *
   6:/home/pi/Developer/tinyusb/src/common/tusb_common.h ****  * Permission is hereby granted, free of charge, to any person obtaining a copy
   7:/home/pi/Developer/tinyusb/src/common/tusb_common.h ****  * of this software and associated documentation files (the "Software"), to deal
   8:/home/pi/Developer/tinyusb/src/common/tusb_common.h ****  * in the Software without restriction, including without limitation the rights
   9:/home/pi/Developer/tinyusb/src/common/tusb_common.h ****  * to use, copy, modify, merge, publish, distribute, sublicense, and/or sell
  10:/home/pi/Developer/tinyusb/src/common/tusb_common.h ****  * copies of the Software, and to permit persons to whom the Software is
  11:/home/pi/Developer/tinyusb/src/common/tusb_common.h ****  * furnished to do so, subject to the following conditions:
  12:/home/pi/Developer/tinyusb/src/common/tusb_common.h ****  *
  13:/home/pi/Developer/tinyusb/src/common/tusb_common.h ****  * The above copyright notice and this permission notice shall be included in
  14:/home/pi/Developer/tinyusb/src/common/tusb_common.h ****  * all copies or substantial portions of the Software.
  15:/home/pi/Developer/tinyusb/src/common/tusb_common.h ****  *
  16:/home/pi/Developer/tinyusb/src/common/tusb_common.h ****  * THE SOFTWARE IS PROVIDED "AS IS", WITHOUT WARRANTY OF ANY KIND, EXPRESS OR
  17:/home/pi/Developer/tinyusb/src/common/tusb_common.h ****  * IMPLIED, INCLUDING BUT NOT LIMITED TO THE WARRANTIES OF MERCHANTABILITY,
  18:/home/pi/Developer/tinyusb/src/common/tusb_common.h ****  * FITNESS FOR A PARTICULAR PURPOSE AND NONINFRINGEMENT. IN NO EVENT SHALL THE
  19:/home/pi/Developer/tinyusb/src/common/tusb_common.h ****  * AUTHORS OR COPYRIGHT HOLDERS BE LIABLE FOR ANY CLAIM, DAMAGES OR OTHER
  20:/home/pi/Developer/tinyusb/src/common/tusb_common.h ****  * LIABILITY, WHETHER IN AN ACTION OF CONTRACT, TORT OR OTHERWISE, ARISING FROM,
  21:/home/pi/Developer/tinyusb/src/common/tusb_common.h ****  * OUT OF OR IN CONNECTION WITH THE SOFTWARE OR THE USE OR OTHER DEALINGS IN
  22:/home/pi/Developer/tinyusb/src/common/tusb_common.h ****  * THE SOFTWARE.
  23:/home/pi/Developer/tinyusb/src/common/tusb_common.h ****  *
  24:/home/pi/Developer/tinyusb/src/common/tusb_common.h ****  * This file is part of the TinyUSB stack.
  25:/home/pi/Developer/tinyusb/src/common/tusb_common.h ****  */
  26:/home/pi/Developer/tinyusb/src/common/tusb_common.h **** 
  27:/home/pi/Developer/tinyusb/src/common/tusb_common.h **** #ifndef TUSB_COMMON_H_
  28:/home/pi/Developer/tinyusb/src/common/tusb_common.h **** #define TUSB_COMMON_H_
  29:/home/pi/Developer/tinyusb/src/common/tusb_common.h **** 
  30:/home/pi/Developer/tinyusb/src/common/tusb_common.h **** #ifdef __cplusplus
  31:/home/pi/Developer/tinyusb/src/common/tusb_common.h ****  extern "C" {
  32:/home/pi/Developer/tinyusb/src/common/tusb_common.h **** #endif
  33:/home/pi/Developer/tinyusb/src/common/tusb_common.h **** 
  34:/home/pi/Developer/tinyusb/src/common/tusb_common.h **** //--------------------------------------------------------------------+
  35:/home/pi/Developer/tinyusb/src/common/tusb_common.h **** // Macros Helper
  36:/home/pi/Developer/tinyusb/src/common/tusb_common.h **** //--------------------------------------------------------------------+
  37:/home/pi/Developer/tinyusb/src/common/tusb_common.h **** #define TU_ARRAY_SIZE(_arr)           ( sizeof(_arr) / sizeof(_arr[0]) )
ARM GAS  /tmp/cc4ocKfo.s 			page 8


  38:/home/pi/Developer/tinyusb/src/common/tusb_common.h **** #define TU_FIELD_SIZE(_type, _field)  (sizeof(((_type *)0)->_field))
  39:/home/pi/Developer/tinyusb/src/common/tusb_common.h **** #define TU_MIN(_x, _y)                ( ( (_x) < (_y) ) ? (_x) : (_y) )
  40:/home/pi/Developer/tinyusb/src/common/tusb_common.h **** #define TU_MAX(_x, _y)                ( ( (_x) > (_y) ) ? (_x) : (_y) )
  41:/home/pi/Developer/tinyusb/src/common/tusb_common.h **** #define TU_DIV_CEIL(n, d)             (((n) + (d) - 1) / (d))
  42:/home/pi/Developer/tinyusb/src/common/tusb_common.h **** #define TU_DIV_ROUND_NEAREST(v, d)    (((v) + (d)/2) / (d) ) // round to nearest integer
  43:/home/pi/Developer/tinyusb/src/common/tusb_common.h **** 
  44:/home/pi/Developer/tinyusb/src/common/tusb_common.h **** #define TU_U16(_high, _low)           ((uint16_t) ((((uint16_t) (_high)) << 8) | ((uint16_t) (_low)
  45:/home/pi/Developer/tinyusb/src/common/tusb_common.h **** #define TU_U16_HIGH(_u16)             ((uint8_t) (((uint16_t) (_u16) >> 8) & 0x00ffu))
  46:/home/pi/Developer/tinyusb/src/common/tusb_common.h **** #define TU_U16_LOW(_u16)              ((uint8_t) ((uint16_t) (_u16) & 0x00ffu))
  47:/home/pi/Developer/tinyusb/src/common/tusb_common.h **** #define U16_TO_U8S_BE(_u16)           TU_U16_HIGH(_u16), TU_U16_LOW(_u16)
  48:/home/pi/Developer/tinyusb/src/common/tusb_common.h **** #define U16_TO_U8S_LE(_u16)           TU_U16_LOW(_u16), TU_U16_HIGH(_u16)
  49:/home/pi/Developer/tinyusb/src/common/tusb_common.h **** 
  50:/home/pi/Developer/tinyusb/src/common/tusb_common.h **** #define TU_U24(_high, _mid, _low)     ((uint32_t) ((((uint32_t) (_high)) << 16) | (((uint32_t) (_mi
  51:/home/pi/Developer/tinyusb/src/common/tusb_common.h **** #define TU_U24_HIGH(_u24)             ((uint8_t) (((uint32_t) (_u24) >> 16) & 0x0000ffu))
  52:/home/pi/Developer/tinyusb/src/common/tusb_common.h **** #define TU_U24_MID(_u24)              ((uint8_t) (((uint32_t) (_u24) >>  8) & 0x0000ffu))
  53:/home/pi/Developer/tinyusb/src/common/tusb_common.h **** #define TU_U24_LOW(_u24)              ((uint8_t) ((uint32_t) (_u24) & 0x0000ffu))
  54:/home/pi/Developer/tinyusb/src/common/tusb_common.h **** #define U24_TO_U8S_BE(_u24)           TU_U24_HIGH(_u24), TU_U24_MID(_u24), TU_U24_LOW(_u24)
  55:/home/pi/Developer/tinyusb/src/common/tusb_common.h **** #define U24_TO_U8S_LE(_u24)           TU_U24_LOW(_u24), TU_U24_MID(_u24), TU_U24_HIGH(_u24)
  56:/home/pi/Developer/tinyusb/src/common/tusb_common.h **** 
  57:/home/pi/Developer/tinyusb/src/common/tusb_common.h **** #define TU_U32_BYTE3(_u32)            ((uint8_t) ((((uint32_t) _u32) >> 24) & 0x000000ff)) // MSB
  58:/home/pi/Developer/tinyusb/src/common/tusb_common.h **** #define TU_U32_BYTE2(_u32)            ((uint8_t) ((((uint32_t) _u32) >> 16) & 0x000000ff))
  59:/home/pi/Developer/tinyusb/src/common/tusb_common.h **** #define TU_U32_BYTE1(_u32)            ((uint8_t) ((((uint32_t) _u32) >>  8) & 0x000000ff))
  60:/home/pi/Developer/tinyusb/src/common/tusb_common.h **** #define TU_U32_BYTE0(_u32)            ((uint8_t) (((uint32_t)  _u32)        & 0x000000ff)) // LSB
  61:/home/pi/Developer/tinyusb/src/common/tusb_common.h **** 
  62:/home/pi/Developer/tinyusb/src/common/tusb_common.h **** #define U32_TO_U8S_BE(_u32)           TU_U32_BYTE3(_u32), TU_U32_BYTE2(_u32), TU_U32_BYTE1(_u32), T
  63:/home/pi/Developer/tinyusb/src/common/tusb_common.h **** #define U32_TO_U8S_LE(_u32)           TU_U32_BYTE0(_u32), TU_U32_BYTE1(_u32), TU_U32_BYTE2(_u32), T
  64:/home/pi/Developer/tinyusb/src/common/tusb_common.h **** 
  65:/home/pi/Developer/tinyusb/src/common/tusb_common.h **** #define TU_BIT(n)                     (1UL << (n))
  66:/home/pi/Developer/tinyusb/src/common/tusb_common.h **** 
  67:/home/pi/Developer/tinyusb/src/common/tusb_common.h **** // Generate a mask with bit from high (31) to low (0) set, e.g TU_GENMASK(3, 0) = 0b1111
  68:/home/pi/Developer/tinyusb/src/common/tusb_common.h **** #define TU_GENMASK(h, l)              ( (UINT32_MAX << (l)) & (UINT32_MAX >> (31 - (h))) )
  69:/home/pi/Developer/tinyusb/src/common/tusb_common.h **** 
  70:/home/pi/Developer/tinyusb/src/common/tusb_common.h **** //--------------------------------------------------------------------+
  71:/home/pi/Developer/tinyusb/src/common/tusb_common.h **** // Includes
  72:/home/pi/Developer/tinyusb/src/common/tusb_common.h **** //--------------------------------------------------------------------+
  73:/home/pi/Developer/tinyusb/src/common/tusb_common.h **** 
  74:/home/pi/Developer/tinyusb/src/common/tusb_common.h **** // Standard Headers
  75:/home/pi/Developer/tinyusb/src/common/tusb_common.h **** #include <stdbool.h>
  76:/home/pi/Developer/tinyusb/src/common/tusb_common.h **** #include <stdint.h>
  77:/home/pi/Developer/tinyusb/src/common/tusb_common.h **** #include <inttypes.h>
  78:/home/pi/Developer/tinyusb/src/common/tusb_common.h **** #include <stddef.h>
  79:/home/pi/Developer/tinyusb/src/common/tusb_common.h **** #include <string.h>
  80:/home/pi/Developer/tinyusb/src/common/tusb_common.h **** 
  81:/home/pi/Developer/tinyusb/src/common/tusb_common.h **** // Tinyusb Common Headers
  82:/home/pi/Developer/tinyusb/src/common/tusb_common.h **** #include "tusb_option.h"
  83:/home/pi/Developer/tinyusb/src/common/tusb_common.h **** #include "tusb_compiler.h"
  84:/home/pi/Developer/tinyusb/src/common/tusb_common.h **** #include "tusb_verify.h"
  85:/home/pi/Developer/tinyusb/src/common/tusb_common.h **** #include "tusb_types.h"
  86:/home/pi/Developer/tinyusb/src/common/tusb_common.h **** #include "tusb_debug.h"
  87:/home/pi/Developer/tinyusb/src/common/tusb_common.h **** 
  88:/home/pi/Developer/tinyusb/src/common/tusb_common.h **** //--------------------------------------------------------------------+
  89:/home/pi/Developer/tinyusb/src/common/tusb_common.h **** // API implemented by application if needed
  90:/home/pi/Developer/tinyusb/src/common/tusb_common.h **** // TODO move to a more obvious place/file
  91:/home/pi/Developer/tinyusb/src/common/tusb_common.h **** //--------------------------------------------------------------------+
  92:/home/pi/Developer/tinyusb/src/common/tusb_common.h **** 
  93:/home/pi/Developer/tinyusb/src/common/tusb_common.h **** // Get current milliseconds, required by some port/configuration without RTOS
  94:/home/pi/Developer/tinyusb/src/common/tusb_common.h **** extern uint32_t tusb_time_millis_api(void);
ARM GAS  /tmp/cc4ocKfo.s 			page 9


  95:/home/pi/Developer/tinyusb/src/common/tusb_common.h **** 
  96:/home/pi/Developer/tinyusb/src/common/tusb_common.h **** // Delay in milliseconds, use tusb_time_millis_api() by default. required by some port/configuratio
  97:/home/pi/Developer/tinyusb/src/common/tusb_common.h **** extern void tusb_time_delay_ms_api(uint32_t ms);
  98:/home/pi/Developer/tinyusb/src/common/tusb_common.h **** 
  99:/home/pi/Developer/tinyusb/src/common/tusb_common.h **** // flush data cache
 100:/home/pi/Developer/tinyusb/src/common/tusb_common.h **** extern void tusb_app_dcache_flush(uintptr_t addr, uint32_t data_size);
 101:/home/pi/Developer/tinyusb/src/common/tusb_common.h **** 
 102:/home/pi/Developer/tinyusb/src/common/tusb_common.h **** // invalidate data cache
 103:/home/pi/Developer/tinyusb/src/common/tusb_common.h **** extern void tusb_app_dcache_invalidate(uintptr_t addr, uint32_t data_size);
 104:/home/pi/Developer/tinyusb/src/common/tusb_common.h **** 
 105:/home/pi/Developer/tinyusb/src/common/tusb_common.h **** // Optional physical <-> virtual address translation
 106:/home/pi/Developer/tinyusb/src/common/tusb_common.h **** extern void* tusb_app_virt_to_phys(void *virt_addr);
 107:/home/pi/Developer/tinyusb/src/common/tusb_common.h **** extern void* tusb_app_phys_to_virt(void *phys_addr);
 108:/home/pi/Developer/tinyusb/src/common/tusb_common.h **** 
 109:/home/pi/Developer/tinyusb/src/common/tusb_common.h **** //--------------------------------------------------------------------+
 110:/home/pi/Developer/tinyusb/src/common/tusb_common.h **** // Internal Inline Functions
 111:/home/pi/Developer/tinyusb/src/common/tusb_common.h **** //--------------------------------------------------------------------+
 112:/home/pi/Developer/tinyusb/src/common/tusb_common.h **** 
 113:/home/pi/Developer/tinyusb/src/common/tusb_common.h **** //------------- Mem -------------//
 114:/home/pi/Developer/tinyusb/src/common/tusb_common.h **** #define tu_memclr(buffer, size)  (void) memset((buffer), 0, (size))
 115:/home/pi/Developer/tinyusb/src/common/tusb_common.h **** #define tu_varclr(_var)          tu_memclr(_var, sizeof(*(_var)))
 116:/home/pi/Developer/tinyusb/src/common/tusb_common.h **** 
 117:/home/pi/Developer/tinyusb/src/common/tusb_common.h **** // This is a backport of memset_s from c11
 118:/home/pi/Developer/tinyusb/src/common/tusb_common.h **** TU_ATTR_ALWAYS_INLINE static inline int tu_memset_s(void *dest, size_t destsz, int ch, size_t count
 119:/home/pi/Developer/tinyusb/src/common/tusb_common.h ****   // Validate parameters
 120:/home/pi/Developer/tinyusb/src/common/tusb_common.h ****   if (dest == NULL) {
 121:/home/pi/Developer/tinyusb/src/common/tusb_common.h ****     return -1;
 122:/home/pi/Developer/tinyusb/src/common/tusb_common.h ****   }
 123:/home/pi/Developer/tinyusb/src/common/tusb_common.h **** 
 124:/home/pi/Developer/tinyusb/src/common/tusb_common.h ****   if (count == 0u) {
 125:/home/pi/Developer/tinyusb/src/common/tusb_common.h ****     return 0;
 126:/home/pi/Developer/tinyusb/src/common/tusb_common.h ****   }
 127:/home/pi/Developer/tinyusb/src/common/tusb_common.h **** 
 128:/home/pi/Developer/tinyusb/src/common/tusb_common.h ****   if (count > destsz) {
 129:/home/pi/Developer/tinyusb/src/common/tusb_common.h ****     return -1;
 130:/home/pi/Developer/tinyusb/src/common/tusb_common.h ****   }
 131:/home/pi/Developer/tinyusb/src/common/tusb_common.h **** 
 132:/home/pi/Developer/tinyusb/src/common/tusb_common.h ****   (void) memset(dest, ch, count);
 133:/home/pi/Developer/tinyusb/src/common/tusb_common.h ****   return 0;
 134:/home/pi/Developer/tinyusb/src/common/tusb_common.h **** }
 135:/home/pi/Developer/tinyusb/src/common/tusb_common.h **** 
 136:/home/pi/Developer/tinyusb/src/common/tusb_common.h **** // This is a backport of memcpy_s from c11
 137:/home/pi/Developer/tinyusb/src/common/tusb_common.h **** TU_ATTR_ALWAYS_INLINE static inline int tu_memcpy_s(void *dest, size_t destsz, const void *src, siz
 138:/home/pi/Developer/tinyusb/src/common/tusb_common.h ****   if (dest == NULL) {
 139:/home/pi/Developer/tinyusb/src/common/tusb_common.h ****     return -1;
 140:/home/pi/Developer/tinyusb/src/common/tusb_common.h ****   }
 141:/home/pi/Developer/tinyusb/src/common/tusb_common.h **** 
 142:/home/pi/Developer/tinyusb/src/common/tusb_common.h ****   if (count == 0u) {
 143:/home/pi/Developer/tinyusb/src/common/tusb_common.h ****     return 0;
 144:/home/pi/Developer/tinyusb/src/common/tusb_common.h ****   }
 145:/home/pi/Developer/tinyusb/src/common/tusb_common.h **** 
 146:/home/pi/Developer/tinyusb/src/common/tusb_common.h ****   if (src == NULL) {
 147:/home/pi/Developer/tinyusb/src/common/tusb_common.h ****     return -1;
 148:/home/pi/Developer/tinyusb/src/common/tusb_common.h ****   }
 149:/home/pi/Developer/tinyusb/src/common/tusb_common.h **** 
 150:/home/pi/Developer/tinyusb/src/common/tusb_common.h ****   if (count > destsz) {
 151:/home/pi/Developer/tinyusb/src/common/tusb_common.h ****     return -1;
ARM GAS  /tmp/cc4ocKfo.s 			page 10


 152:/home/pi/Developer/tinyusb/src/common/tusb_common.h ****   }
 153:/home/pi/Developer/tinyusb/src/common/tusb_common.h **** 
 154:/home/pi/Developer/tinyusb/src/common/tusb_common.h ****   (void) memcpy(dest, src, count);
 155:/home/pi/Developer/tinyusb/src/common/tusb_common.h ****   return 0;
 156:/home/pi/Developer/tinyusb/src/common/tusb_common.h **** }
 157:/home/pi/Developer/tinyusb/src/common/tusb_common.h **** 
 158:/home/pi/Developer/tinyusb/src/common/tusb_common.h **** TU_ATTR_ALWAYS_INLINE static inline bool tu_mem_is_zero(const void *buffer, size_t size) {
 159:/home/pi/Developer/tinyusb/src/common/tusb_common.h ****   const uint8_t* buf8 = (const uint8_t*) buffer;
 160:/home/pi/Developer/tinyusb/src/common/tusb_common.h ****   for (size_t i = 0; i < size; i++) {
 161:/home/pi/Developer/tinyusb/src/common/tusb_common.h ****     if (buf8[i] != 0) { return false; }
 162:/home/pi/Developer/tinyusb/src/common/tusb_common.h ****   }
 163:/home/pi/Developer/tinyusb/src/common/tusb_common.h ****   return true;
 164:/home/pi/Developer/tinyusb/src/common/tusb_common.h **** }
 165:/home/pi/Developer/tinyusb/src/common/tusb_common.h **** 
 166:/home/pi/Developer/tinyusb/src/common/tusb_common.h **** TU_ATTR_ALWAYS_INLINE static inline bool tu_mem_is_ff(const void *buffer, size_t size) {
 167:/home/pi/Developer/tinyusb/src/common/tusb_common.h ****   const uint8_t* buf8 = (const uint8_t*) buffer;
 168:/home/pi/Developer/tinyusb/src/common/tusb_common.h ****   for (size_t i = 0; i < size; i++) {
 169:/home/pi/Developer/tinyusb/src/common/tusb_common.h ****     if (buf8[i] != 0xff) { return false; }
 170:/home/pi/Developer/tinyusb/src/common/tusb_common.h ****   }
 171:/home/pi/Developer/tinyusb/src/common/tusb_common.h ****   return true;
 172:/home/pi/Developer/tinyusb/src/common/tusb_common.h **** }
 173:/home/pi/Developer/tinyusb/src/common/tusb_common.h **** 
 174:/home/pi/Developer/tinyusb/src/common/tusb_common.h **** 
 175:/home/pi/Developer/tinyusb/src/common/tusb_common.h **** //------------- Bytes -------------//
 176:/home/pi/Developer/tinyusb/src/common/tusb_common.h **** TU_ATTR_ALWAYS_INLINE static inline uint32_t tu_u32(uint8_t b3, uint8_t b2, uint8_t b1, uint8_t b0)
 177:/home/pi/Developer/tinyusb/src/common/tusb_common.h ****   return (((uint32_t)b3) << 24) | (((uint32_t)b2) << 16) | (((uint32_t)b1) << 8) | b0;
 178:/home/pi/Developer/tinyusb/src/common/tusb_common.h **** }
 179:/home/pi/Developer/tinyusb/src/common/tusb_common.h **** 
 180:/home/pi/Developer/tinyusb/src/common/tusb_common.h **** TU_ATTR_ALWAYS_INLINE static inline uint32_t tu_u32_from_u16(uint16_t high, uint16_t low) {
 181:/home/pi/Developer/tinyusb/src/common/tusb_common.h ****   return (((uint32_t)high) << 16) | low;
 182:/home/pi/Developer/tinyusb/src/common/tusb_common.h **** }
 183:/home/pi/Developer/tinyusb/src/common/tusb_common.h **** 
 184:/home/pi/Developer/tinyusb/src/common/tusb_common.h **** TU_ATTR_ALWAYS_INLINE static inline uint16_t tu_u16(uint8_t high, uint8_t low) {
 185:/home/pi/Developer/tinyusb/src/common/tusb_common.h ****   return (uint16_t)((((uint16_t)high) << 8) | low);
 186:/home/pi/Developer/tinyusb/src/common/tusb_common.h **** }
 187:/home/pi/Developer/tinyusb/src/common/tusb_common.h **** 
 188:/home/pi/Developer/tinyusb/src/common/tusb_common.h **** TU_ATTR_ALWAYS_INLINE static inline uint8_t tu_u32_byte3(uint32_t ui32) { return TU_U32_BYTE3(ui32)
 189:/home/pi/Developer/tinyusb/src/common/tusb_common.h **** TU_ATTR_ALWAYS_INLINE static inline uint8_t tu_u32_byte2(uint32_t ui32) { return TU_U32_BYTE2(ui32)
 190:/home/pi/Developer/tinyusb/src/common/tusb_common.h **** TU_ATTR_ALWAYS_INLINE static inline uint8_t tu_u32_byte1(uint32_t ui32) { return TU_U32_BYTE1(ui32)
 191:/home/pi/Developer/tinyusb/src/common/tusb_common.h **** TU_ATTR_ALWAYS_INLINE static inline uint8_t tu_u32_byte0(uint32_t ui32) { return TU_U32_BYTE0(ui32)
 192:/home/pi/Developer/tinyusb/src/common/tusb_common.h **** 
 193:/home/pi/Developer/tinyusb/src/common/tusb_common.h **** TU_ATTR_ALWAYS_INLINE static inline uint16_t tu_u32_high16(uint32_t ui32) { return (uint16_t) (ui32
 194:/home/pi/Developer/tinyusb/src/common/tusb_common.h **** TU_ATTR_ALWAYS_INLINE static inline uint16_t tu_u32_low16 (uint32_t ui32) { return (uint16_t) (ui32
 195:/home/pi/Developer/tinyusb/src/common/tusb_common.h **** 
 196:/home/pi/Developer/tinyusb/src/common/tusb_common.h **** TU_ATTR_ALWAYS_INLINE static inline uint8_t tu_u16_high(uint16_t ui16) { return TU_U16_HIGH(ui16); 
 197:/home/pi/Developer/tinyusb/src/common/tusb_common.h **** TU_ATTR_ALWAYS_INLINE static inline uint8_t tu_u16_low (uint16_t ui16) { return TU_U16_LOW(ui16); }
 198:/home/pi/Developer/tinyusb/src/common/tusb_common.h **** 
 199:/home/pi/Developer/tinyusb/src/common/tusb_common.h **** //------------- Bits -------------//
 200:/home/pi/Developer/tinyusb/src/common/tusb_common.h **** TU_ATTR_ALWAYS_INLINE static inline uint32_t tu_bit_set  (uint32_t value, uint8_t pos) { return val
 201:/home/pi/Developer/tinyusb/src/common/tusb_common.h **** TU_ATTR_ALWAYS_INLINE static inline uint32_t tu_bit_clear(uint32_t value, uint8_t pos) { return val
 202:/home/pi/Developer/tinyusb/src/common/tusb_common.h **** TU_ATTR_ALWAYS_INLINE static inline bool     tu_bit_test (uint32_t value, uint8_t pos) { return (va
 203:/home/pi/Developer/tinyusb/src/common/tusb_common.h **** 
 204:/home/pi/Developer/tinyusb/src/common/tusb_common.h **** //------------- Min -------------//
 205:/home/pi/Developer/tinyusb/src/common/tusb_common.h **** TU_ATTR_ALWAYS_INLINE static inline uint8_t  tu_min8  (uint8_t  x, uint8_t y ) { return (x < y) ? x
 206:/home/pi/Developer/tinyusb/src/common/tusb_common.h **** TU_ATTR_ALWAYS_INLINE static inline uint16_t tu_min16 (uint16_t x, uint16_t y) { return (x < y) ? x
 207:/home/pi/Developer/tinyusb/src/common/tusb_common.h **** TU_ATTR_ALWAYS_INLINE static inline uint32_t tu_min32 (uint32_t x, uint32_t y) { return (x < y) ? x
 208:/home/pi/Developer/tinyusb/src/common/tusb_common.h **** 
ARM GAS  /tmp/cc4ocKfo.s 			page 11


 209:/home/pi/Developer/tinyusb/src/common/tusb_common.h **** //------------- Max -------------//
 210:/home/pi/Developer/tinyusb/src/common/tusb_common.h **** TU_ATTR_ALWAYS_INLINE static inline uint8_t  tu_max8  (uint8_t  x, uint8_t y ) { return (x > y) ? x
 211:/home/pi/Developer/tinyusb/src/common/tusb_common.h **** TU_ATTR_ALWAYS_INLINE static inline uint16_t tu_max16 (uint16_t x, uint16_t y) { return (x > y) ? x
 212:/home/pi/Developer/tinyusb/src/common/tusb_common.h **** TU_ATTR_ALWAYS_INLINE static inline uint32_t tu_max32 (uint32_t x, uint32_t y) { return (x > y) ? x
 213:/home/pi/Developer/tinyusb/src/common/tusb_common.h **** 
 214:/home/pi/Developer/tinyusb/src/common/tusb_common.h **** //------------- Align -------------//
 215:/home/pi/Developer/tinyusb/src/common/tusb_common.h **** TU_ATTR_ALWAYS_INLINE static inline uint32_t tu_align(uint32_t value, uint32_t alignment) {
 216:/home/pi/Developer/tinyusb/src/common/tusb_common.h ****   return value & ((uint32_t) ~(alignment-1));
 217:/home/pi/Developer/tinyusb/src/common/tusb_common.h **** }
 218:/home/pi/Developer/tinyusb/src/common/tusb_common.h **** 
 219:/home/pi/Developer/tinyusb/src/common/tusb_common.h **** TU_ATTR_ALWAYS_INLINE static inline uint32_t tu_align4  (uint32_t value) { return (value & 0xFFFFFF
 220:/home/pi/Developer/tinyusb/src/common/tusb_common.h **** TU_ATTR_ALWAYS_INLINE static inline uint32_t tu_align8  (uint32_t value) { return (value & 0xFFFFFF
 221:/home/pi/Developer/tinyusb/src/common/tusb_common.h **** TU_ATTR_ALWAYS_INLINE static inline uint32_t tu_align16 (uint32_t value) { return (value & 0xFFFFFF
 222:/home/pi/Developer/tinyusb/src/common/tusb_common.h **** TU_ATTR_ALWAYS_INLINE static inline uint32_t tu_align32 (uint32_t value) { return (value & 0xFFFFFF
 223:/home/pi/Developer/tinyusb/src/common/tusb_common.h **** TU_ATTR_ALWAYS_INLINE static inline uint32_t tu_align4k (uint32_t value) { return (value & 0xFFFFF0
 224:/home/pi/Developer/tinyusb/src/common/tusb_common.h **** TU_ATTR_ALWAYS_INLINE static inline uint32_t tu_offset4k(uint32_t value) { return (value & 0xFFFUL)
 225:/home/pi/Developer/tinyusb/src/common/tusb_common.h **** 
 226:/home/pi/Developer/tinyusb/src/common/tusb_common.h **** TU_ATTR_ALWAYS_INLINE static inline bool tu_is_aligned32(uint32_t value) { return (value & 0x1FUL) 
 227:/home/pi/Developer/tinyusb/src/common/tusb_common.h **** TU_ATTR_ALWAYS_INLINE static inline bool tu_is_aligned64(uint64_t value) { return (value & 0x3FUL) 
 228:/home/pi/Developer/tinyusb/src/common/tusb_common.h **** 
 229:/home/pi/Developer/tinyusb/src/common/tusb_common.h **** //------------- Mathematics -------------//
 230:/home/pi/Developer/tinyusb/src/common/tusb_common.h **** TU_ATTR_ALWAYS_INLINE static inline uint32_t tu_div_ceil(uint32_t v, uint32_t d) { return TU_DIV_CE
 231:/home/pi/Developer/tinyusb/src/common/tusb_common.h **** TU_ATTR_ALWAYS_INLINE static inline uint32_t tu_div_round_nearest(uint32_t v, uint32_t d) { return 
 232:/home/pi/Developer/tinyusb/src/common/tusb_common.h **** 
 233:/home/pi/Developer/tinyusb/src/common/tusb_common.h **** TU_ATTR_ALWAYS_INLINE static inline uint32_t tu_round_up(uint32_t v, uint32_t f) { return tu_div_ce
 234:/home/pi/Developer/tinyusb/src/common/tusb_common.h **** 
 235:/home/pi/Developer/tinyusb/src/common/tusb_common.h **** // log2 of a value is its MSB's position
 236:/home/pi/Developer/tinyusb/src/common/tusb_common.h **** // TODO use clz TODO remove
 237:/home/pi/Developer/tinyusb/src/common/tusb_common.h **** TU_ATTR_ALWAYS_INLINE static inline uint8_t tu_log2(uint32_t value) {
 238:/home/pi/Developer/tinyusb/src/common/tusb_common.h ****   uint8_t result = 0;
 239:/home/pi/Developer/tinyusb/src/common/tusb_common.h ****   while ((value >>= 1u) != 0u) {
 240:/home/pi/Developer/tinyusb/src/common/tusb_common.h ****     result++;
 241:/home/pi/Developer/tinyusb/src/common/tusb_common.h ****   }
 242:/home/pi/Developer/tinyusb/src/common/tusb_common.h ****   return result;
 243:/home/pi/Developer/tinyusb/src/common/tusb_common.h **** }
 244:/home/pi/Developer/tinyusb/src/common/tusb_common.h **** 
 245:/home/pi/Developer/tinyusb/src/common/tusb_common.h **** //static inline uint8_t tu_log2(uint32_t value)
 246:/home/pi/Developer/tinyusb/src/common/tusb_common.h **** //{
 247:/home/pi/Developer/tinyusb/src/common/tusb_common.h **** //   return sizeof(uint32_t) * CHAR_BIT - __builtin_clz(x) - 1;
 248:/home/pi/Developer/tinyusb/src/common/tusb_common.h **** //}
 249:/home/pi/Developer/tinyusb/src/common/tusb_common.h **** 
 250:/home/pi/Developer/tinyusb/src/common/tusb_common.h **** TU_ATTR_ALWAYS_INLINE static inline bool tu_is_power_of_two(uint32_t value) {
 251:/home/pi/Developer/tinyusb/src/common/tusb_common.h ****    return (value != 0) && ((value & (value - 1)) == 0);
 252:/home/pi/Developer/tinyusb/src/common/tusb_common.h **** }
 253:/home/pi/Developer/tinyusb/src/common/tusb_common.h **** 
 254:/home/pi/Developer/tinyusb/src/common/tusb_common.h **** //------------- Unaligned Access -------------//
 255:/home/pi/Developer/tinyusb/src/common/tusb_common.h **** #if TUP_ARCH_STRICT_ALIGN
 256:/home/pi/Developer/tinyusb/src/common/tusb_common.h **** 
 257:/home/pi/Developer/tinyusb/src/common/tusb_common.h **** // Rely on compiler to generate correct code for unaligned access
 258:/home/pi/Developer/tinyusb/src/common/tusb_common.h **** typedef struct { uint16_t val; } TU_ATTR_PACKED tu_unaligned_uint16_t;
 259:/home/pi/Developer/tinyusb/src/common/tusb_common.h **** typedef struct { uint32_t val; } TU_ATTR_PACKED tu_unaligned_uint32_t;
 260:/home/pi/Developer/tinyusb/src/common/tusb_common.h **** 
 261:/home/pi/Developer/tinyusb/src/common/tusb_common.h **** TU_ATTR_ALWAYS_INLINE static inline uint32_t tu_unaligned_read32(const void *mem) {
 262:/home/pi/Developer/tinyusb/src/common/tusb_common.h ****   tu_unaligned_uint32_t const *ua32 = (tu_unaligned_uint32_t const *) mem;
 263:/home/pi/Developer/tinyusb/src/common/tusb_common.h ****   return ua32->val;
 264:/home/pi/Developer/tinyusb/src/common/tusb_common.h **** }
 265:/home/pi/Developer/tinyusb/src/common/tusb_common.h **** 
ARM GAS  /tmp/cc4ocKfo.s 			page 12


 266:/home/pi/Developer/tinyusb/src/common/tusb_common.h **** TU_ATTR_ALWAYS_INLINE static inline void tu_unaligned_write32(void *mem, uint32_t value) {
 267:/home/pi/Developer/tinyusb/src/common/tusb_common.h ****   tu_unaligned_uint32_t *ua32 = (tu_unaligned_uint32_t *) mem;
 268:/home/pi/Developer/tinyusb/src/common/tusb_common.h ****   ua32->val = value;
 269:/home/pi/Developer/tinyusb/src/common/tusb_common.h **** }
 270:/home/pi/Developer/tinyusb/src/common/tusb_common.h **** 
 271:/home/pi/Developer/tinyusb/src/common/tusb_common.h **** TU_ATTR_ALWAYS_INLINE static inline uint16_t tu_unaligned_read16(const void *mem) {
 272:/home/pi/Developer/tinyusb/src/common/tusb_common.h ****   tu_unaligned_uint16_t const *ua16 = (tu_unaligned_uint16_t const *) mem;
 273:/home/pi/Developer/tinyusb/src/common/tusb_common.h ****   return ua16->val;
 274:/home/pi/Developer/tinyusb/src/common/tusb_common.h **** }
 275:/home/pi/Developer/tinyusb/src/common/tusb_common.h **** 
 276:/home/pi/Developer/tinyusb/src/common/tusb_common.h **** TU_ATTR_ALWAYS_INLINE static inline void tu_unaligned_write16(void *mem, uint16_t value) {
 277:/home/pi/Developer/tinyusb/src/common/tusb_common.h ****   tu_unaligned_uint16_t *ua16 = (tu_unaligned_uint16_t *) mem;
 278:/home/pi/Developer/tinyusb/src/common/tusb_common.h ****   ua16->val = value;
 279:/home/pi/Developer/tinyusb/src/common/tusb_common.h **** }
 280:/home/pi/Developer/tinyusb/src/common/tusb_common.h **** 
 281:/home/pi/Developer/tinyusb/src/common/tusb_common.h **** #elif TUP_MCU_STRICT_ALIGN
 282:/home/pi/Developer/tinyusb/src/common/tusb_common.h **** 
 283:/home/pi/Developer/tinyusb/src/common/tusb_common.h **** // MCU such as LPC_IP3511 Highspeed cannot access unaligned memory on USB_RAM although it is ARM M4
 284:/home/pi/Developer/tinyusb/src/common/tusb_common.h **** // We have to manually pick up bytes since tu_unaligned_uint32_t will still generate unaligned code
 285:/home/pi/Developer/tinyusb/src/common/tusb_common.h **** // NOTE: volatile cast to memory to prevent compiler to optimize and generate unaligned code
 286:/home/pi/Developer/tinyusb/src/common/tusb_common.h **** // TODO Big Endian may need minor changes
 287:/home/pi/Developer/tinyusb/src/common/tusb_common.h **** TU_ATTR_ALWAYS_INLINE static inline uint32_t tu_unaligned_read32(const void* mem) {
 288:/home/pi/Developer/tinyusb/src/common/tusb_common.h ****   volatile uint8_t const* buf8 = (uint8_t const*) mem;
 289:/home/pi/Developer/tinyusb/src/common/tusb_common.h ****   return tu_u32(buf8[3], buf8[2], buf8[1], buf8[0]);
 290:/home/pi/Developer/tinyusb/src/common/tusb_common.h **** }
 291:/home/pi/Developer/tinyusb/src/common/tusb_common.h **** 
 292:/home/pi/Developer/tinyusb/src/common/tusb_common.h **** TU_ATTR_ALWAYS_INLINE static inline void tu_unaligned_write32(void* mem, uint32_t value) {
 293:/home/pi/Developer/tinyusb/src/common/tusb_common.h ****   volatile uint8_t* buf8 = (uint8_t*) mem;
 294:/home/pi/Developer/tinyusb/src/common/tusb_common.h ****   buf8[0] = tu_u32_byte0(value);
 295:/home/pi/Developer/tinyusb/src/common/tusb_common.h ****   buf8[1] = tu_u32_byte1(value);
 296:/home/pi/Developer/tinyusb/src/common/tusb_common.h ****   buf8[2] = tu_u32_byte2(value);
 297:/home/pi/Developer/tinyusb/src/common/tusb_common.h ****   buf8[3] = tu_u32_byte3(value);
 298:/home/pi/Developer/tinyusb/src/common/tusb_common.h **** }
 299:/home/pi/Developer/tinyusb/src/common/tusb_common.h **** 
 300:/home/pi/Developer/tinyusb/src/common/tusb_common.h **** TU_ATTR_ALWAYS_INLINE static inline uint16_t tu_unaligned_read16(const void* mem) {
 301:/home/pi/Developer/tinyusb/src/common/tusb_common.h ****   volatile uint8_t const* buf8 = (uint8_t const*) mem;
 302:/home/pi/Developer/tinyusb/src/common/tusb_common.h ****   return tu_u16(buf8[1], buf8[0]);
 303:/home/pi/Developer/tinyusb/src/common/tusb_common.h **** }
 304:/home/pi/Developer/tinyusb/src/common/tusb_common.h **** 
 305:/home/pi/Developer/tinyusb/src/common/tusb_common.h **** TU_ATTR_ALWAYS_INLINE static inline void tu_unaligned_write16(void* mem, uint16_t value) {
 306:/home/pi/Developer/tinyusb/src/common/tusb_common.h ****   volatile uint8_t* buf8 = (uint8_t*) mem;
 307:/home/pi/Developer/tinyusb/src/common/tusb_common.h ****   buf8[0] = tu_u16_low(value);
 308:/home/pi/Developer/tinyusb/src/common/tusb_common.h ****   buf8[1] = tu_u16_high(value);
 309:/home/pi/Developer/tinyusb/src/common/tusb_common.h **** }
 310:/home/pi/Developer/tinyusb/src/common/tusb_common.h **** 
 311:/home/pi/Developer/tinyusb/src/common/tusb_common.h **** #else
 312:/home/pi/Developer/tinyusb/src/common/tusb_common.h **** 
 313:/home/pi/Developer/tinyusb/src/common/tusb_common.h **** // MCU that could access unaligned memory natively
 314:/home/pi/Developer/tinyusb/src/common/tusb_common.h **** TU_ATTR_ALWAYS_INLINE static inline uint32_t tu_unaligned_read32(const void *mem) {
 197              		.loc 2 314 46 view .LVU55
 198              	.LBB180:
 315:/home/pi/Developer/tinyusb/src/common/tusb_common.h ****   return *((uint32_t const *) mem);
 199              		.loc 2 315 3 view .LVU56
 200              	.LBE180:
 201              	.LBE179:
 202              	.LBE178:
 203              	.LBE177:
ARM GAS  /tmp/cc4ocKfo.s 			page 13


 157:/home/pi/Developer/tinyusb/src/common/tusb_fifo.c ****     src += data_stride;
 158:/home/pi/Developer/tinyusb/src/common/tusb_fifo.c ****     len -= data_stride;
 204              		.loc 1 158 9 is_stmt 0 view .LVU57
 205 000e D21A     		subs	r2, r2, r3
 206              	.LVL10:
 207              	.LBB185:
 208              	.LBB183:
 209              	.LBB182:
 210              	.LBB181:
 211              		.loc 2 315 10 view .LVU58
 212 0010 0C68     		ldr	r4, [r1]
 213              	.LVL11:
 214              		.loc 2 315 10 view .LVU59
 215              	.LBE181:
 216              	.LBE182:
 217              	.LBE183:
 218              	.LBE185:
 157:/home/pi/Developer/tinyusb/src/common/tusb_fifo.c ****     src += data_stride;
 219              		.loc 1 157 9 view .LVU60
 220 0012 0144     		add	r1, r1, r0
 221              	.LVL12:
 222              		.loc 1 158 9 view .LVU61
 223 0014 92B2     		uxth	r2, r2
 224              	.LBB186:
 225              	.LBB184:
 133:/home/pi/Developer/tinyusb/src/common/tusb_fifo.c ****   }
 226              		.loc 1 133 36 view .LVU62
 227 0016 2C60     		str	r4, [r5]
 228              	.LVL13:
 229              	.L23:
 133:/home/pi/Developer/tinyusb/src/common/tusb_fifo.c ****   }
 230              		.loc 1 133 36 view .LVU63
 231              	.LBE184:
 232              	.LBE186:
 157:/home/pi/Developer/tinyusb/src/common/tusb_fifo.c ****     src += data_stride;
 233              		.loc 1 157 5 is_stmt 1 view .LVU64
 234              		.loc 1 158 5 view .LVU65
 159:/home/pi/Developer/tinyusb/src/common/tusb_fifo.c ****     HWFIFO_ADDR_NEXT(hwfifo, );
 235              		.loc 1 159 31 view .LVU66
 155:/home/pi/Developer/tinyusb/src/common/tusb_fifo.c ****     stride_write(hwfifo, src, data_stride);
 236              		.loc 1 155 9 view .LVU67
 237 0018 9342     		cmp	r3, r2
 238 001a F8D9     		bls	.L15
 160:/home/pi/Developer/tinyusb/src/common/tusb_fifo.c ****   }
 161:/home/pi/Developer/tinyusb/src/common/tusb_fifo.c **** 
 162:/home/pi/Developer/tinyusb/src/common/tusb_fifo.c ****     #if CFG_TUSB_FIFO_HWFIFO_DATA_STRIDE > 1
 163:/home/pi/Developer/tinyusb/src/common/tusb_fifo.c ****       #ifdef CFG_TUSB_FIFO_HWFIFO_DATA_ODD_16BIT_ACCESS
 164:/home/pi/Developer/tinyusb/src/common/tusb_fifo.c ****   // 16-bit access is allowed for odd bytes
 165:/home/pi/Developer/tinyusb/src/common/tusb_fifo.c ****   if (len >= 2) {
 166:/home/pi/Developer/tinyusb/src/common/tusb_fifo.c ****     *((volatile uint16_t *)hwfifo) = tu_unaligned_read16(src);
 167:/home/pi/Developer/tinyusb/src/common/tusb_fifo.c ****     src += 2;
 168:/home/pi/Developer/tinyusb/src/common/tusb_fifo.c ****     len -= 2;
 169:/home/pi/Developer/tinyusb/src/common/tusb_fifo.c ****     HWFIFO_ADDR_NEXT_N(hwfifo, , 2);
 170:/home/pi/Developer/tinyusb/src/common/tusb_fifo.c ****   }
 171:/home/pi/Developer/tinyusb/src/common/tusb_fifo.c ****       #endif
 172:/home/pi/Developer/tinyusb/src/common/tusb_fifo.c **** 
 173:/home/pi/Developer/tinyusb/src/common/tusb_fifo.c ****       #ifdef CFG_TUSB_FIFO_HWFIFO_DATA_ODD_8BIT_ACCESS
ARM GAS  /tmp/cc4ocKfo.s 			page 14


 174:/home/pi/Developer/tinyusb/src/common/tusb_fifo.c ****   // 8-bit access is allowed for odd bytes
 175:/home/pi/Developer/tinyusb/src/common/tusb_fifo.c ****   while (len > 0) {
 176:/home/pi/Developer/tinyusb/src/common/tusb_fifo.c ****     *((volatile uint8_t *)hwfifo) = *src++;
 177:/home/pi/Developer/tinyusb/src/common/tusb_fifo.c ****     len--;
 178:/home/pi/Developer/tinyusb/src/common/tusb_fifo.c ****     HWFIFO_ADDR_NEXT_N(hwfifo, , 1);
 179:/home/pi/Developer/tinyusb/src/common/tusb_fifo.c ****   }
 180:/home/pi/Developer/tinyusb/src/common/tusb_fifo.c ****       #else
 181:/home/pi/Developer/tinyusb/src/common/tusb_fifo.c **** 
 182:/home/pi/Developer/tinyusb/src/common/tusb_fifo.c ****   // Write odd bytes i.e 1 byte for 16 bit or 1-3 bytes for 32 bit
 183:/home/pi/Developer/tinyusb/src/common/tusb_fifo.c ****   if (len > 0) {
 239              		.loc 1 183 3 view .LVU68
 240              		.loc 1 183 6 is_stmt 0 view .LVU69
 241 001c 0AB9     		cbnz	r2, .L24
 184:/home/pi/Developer/tinyusb/src/common/tusb_fifo.c ****     uint32_t tmp = 0u;
 185:/home/pi/Developer/tinyusb/src/common/tusb_fifo.c ****     memcpy(&tmp, src, len);
 186:/home/pi/Developer/tinyusb/src/common/tusb_fifo.c ****     stride_write(hwfifo, &tmp, data_stride);
 187:/home/pi/Developer/tinyusb/src/common/tusb_fifo.c ****     HWFIFO_ADDR_NEXT(hwfifo, );
 188:/home/pi/Developer/tinyusb/src/common/tusb_fifo.c ****   }
 189:/home/pi/Developer/tinyusb/src/common/tusb_fifo.c ****       #endif
 190:/home/pi/Developer/tinyusb/src/common/tusb_fifo.c ****     #endif
 191:/home/pi/Developer/tinyusb/src/common/tusb_fifo.c **** }
 242              		.loc 1 191 1 view .LVU70
 243 001e 03B0     		add	sp, sp, #12
 244              		.cfi_remember_state
 245              		.cfi_def_cfa_offset 12
 246              		@ sp needed
 247 0020 30BD     		pop	{r4, r5, pc}
 248              	.LVL14:
 249              	.L24:
 250              		.cfi_restore_state
 251              	.LBB187:
 184:/home/pi/Developer/tinyusb/src/common/tusb_fifo.c ****     uint32_t tmp = 0u;
 252              		.loc 1 184 5 is_stmt 1 view .LVU71
 184:/home/pi/Developer/tinyusb/src/common/tusb_fifo.c ****     uint32_t tmp = 0u;
 253              		.loc 1 184 14 is_stmt 0 view .LVU72
 254 0022 0023     		movs	r3, #0
 185:/home/pi/Developer/tinyusb/src/common/tusb_fifo.c ****     stride_write(hwfifo, &tmp, data_stride);
 255              		.loc 1 185 5 view .LVU73
 256 0024 01A8     		add	r0, sp, #4
 184:/home/pi/Developer/tinyusb/src/common/tusb_fifo.c ****     uint32_t tmp = 0u;
 257              		.loc 1 184 14 view .LVU74
 258 0026 0193     		str	r3, [sp, #4]
 185:/home/pi/Developer/tinyusb/src/common/tusb_fifo.c ****     stride_write(hwfifo, &tmp, data_stride);
 259              		.loc 1 185 5 is_stmt 1 view .LVU75
 260 0028 FFF7FEFF 		bl	memcpy
 261              	.LVL15:
 186:/home/pi/Developer/tinyusb/src/common/tusb_fifo.c ****     HWFIFO_ADDR_NEXT(hwfifo, );
 262              		.loc 1 186 5 view .LVU76
 263              	.LBB188:
 264              	.LBI188:
 126:/home/pi/Developer/tinyusb/src/common/tusb_fifo.c ****   (void)data_stride; // possible unused
 265              		.loc 1 126 42 view .LVU77
 266              	.LBB189:
 127:/home/pi/Developer/tinyusb/src/common/tusb_fifo.c ****     #if CFG_TUSB_FIFO_HWFIFO_DATA_STRIDE & 4
 267              		.loc 1 127 3 view .LVU78
 133:/home/pi/Developer/tinyusb/src/common/tusb_fifo.c ****   }
 268              		.loc 1 133 5 view .LVU79
ARM GAS  /tmp/cc4ocKfo.s 			page 15


 269              	.LBB190:
 270              	.LBI190:
 314:/home/pi/Developer/tinyusb/src/common/tusb_common.h ****   return *((uint32_t const *) mem);
 271              		.loc 2 314 46 view .LVU80
 272              	.LBB191:
 273              		.loc 2 315 3 view .LVU81
 274              		.loc 2 315 10 is_stmt 0 view .LVU82
 275 002c 019B     		ldr	r3, [sp, #4]
 276              	.LVL16:
 277              		.loc 2 315 10 view .LVU83
 278              	.LBE191:
 279              	.LBE190:
 133:/home/pi/Developer/tinyusb/src/common/tusb_fifo.c ****   }
 280              		.loc 1 133 36 view .LVU84
 281 002e 2B60     		str	r3, [r5]
 282              	.LVL17:
 133:/home/pi/Developer/tinyusb/src/common/tusb_fifo.c ****   }
 283              		.loc 1 133 36 view .LVU85
 284              	.LBE189:
 285              	.LBE188:
 187:/home/pi/Developer/tinyusb/src/common/tusb_fifo.c ****   }
 286              		.loc 1 187 31 is_stmt 1 view .LVU86
 287              	.LBE187:
 288              		.loc 1 191 1 is_stmt 0 view .LVU87
 289 0030 03B0     		add	sp, sp, #12
 290              		.cfi_remember_state
 291              		.cfi_def_cfa_offset 12
 292              		@ sp needed
 293 0032 30BD     		pop	{r4, r5, pc}
 294              	.LVL18:
 295              	.L17:
 296              		.cfi_restore_state
 297              		.loc 1 191 1 view .LVU88
 298 0034 0423     		movs	r3, #4
 299              	.LVL19:
 154:/home/pi/Developer/tinyusb/src/common/tusb_fifo.c ****   while (len >= data_stride) {
 300              		.loc 1 154 17 view .LVU89
 301 0036 1846     		mov	r0, r3
 302              	.LVL20:
 155:/home/pi/Developer/tinyusb/src/common/tusb_fifo.c ****     stride_write(hwfifo, src, data_stride);
 303              		.loc 1 155 3 is_stmt 1 view .LVU90
 159:/home/pi/Developer/tinyusb/src/common/tusb_fifo.c ****   }
 304              		.loc 1 159 31 view .LVU91
 155:/home/pi/Developer/tinyusb/src/common/tusb_fifo.c ****     stride_write(hwfifo, src, data_stride);
 305              		.loc 1 155 9 view .LVU92
 306 0038 EEE7     		b	.L23
 307              		.cfi_endproc
 308              	.LFE401:
 310 003a 00BF     		.section	.text.tu_hwfifo_read,"ax",%progbits
 311              		.align	1
 312              		.p2align 2,,3
 313              		.global	tu_hwfifo_read
 314              		.syntax unified
 315              		.thumb
 316              		.thumb_func
 317              		.fpu fpv5-d16
 319              	tu_hwfifo_read:
ARM GAS  /tmp/cc4ocKfo.s 			page 16


 320              	.LVL21:
 321              	.LFB403:
 192:/home/pi/Developer/tinyusb/src/common/tusb_fifo.c ****   #endif
 193:/home/pi/Developer/tinyusb/src/common/tusb_fifo.c **** 
 194:/home/pi/Developer/tinyusb/src/common/tusb_fifo.c **** //------------- Read -------------//
 195:/home/pi/Developer/tinyusb/src/common/tusb_fifo.c ****   #ifndef CFG_TUSB_FIFO_HWFIFO_CUSTOM_READ
 196:/home/pi/Developer/tinyusb/src/common/tusb_fifo.c **** TU_ATTR_ALWAYS_INLINE static inline void stride_read(const volatile void *hwfifo, void *dest, uint8
 197:/home/pi/Developer/tinyusb/src/common/tusb_fifo.c ****   (void)data_stride; // possible unused
 198:/home/pi/Developer/tinyusb/src/common/tusb_fifo.c **** 
 199:/home/pi/Developer/tinyusb/src/common/tusb_fifo.c ****     #if CFG_TUSB_FIFO_HWFIFO_DATA_STRIDE & 4
 200:/home/pi/Developer/tinyusb/src/common/tusb_fifo.c ****       #if CFG_TUSB_FIFO_HWFIFO_DATA_STRIDE != 4
 201:/home/pi/Developer/tinyusb/src/common/tusb_fifo.c ****   if (data_stride == 4)
 202:/home/pi/Developer/tinyusb/src/common/tusb_fifo.c ****       #endif
 203:/home/pi/Developer/tinyusb/src/common/tusb_fifo.c ****   {
 204:/home/pi/Developer/tinyusb/src/common/tusb_fifo.c ****     tu_unaligned_write32(dest, *((const volatile uint32_t *)hwfifo));
 205:/home/pi/Developer/tinyusb/src/common/tusb_fifo.c ****   }
 206:/home/pi/Developer/tinyusb/src/common/tusb_fifo.c ****     #endif
 207:/home/pi/Developer/tinyusb/src/common/tusb_fifo.c **** 
 208:/home/pi/Developer/tinyusb/src/common/tusb_fifo.c ****     #if CFG_TUSB_FIFO_HWFIFO_DATA_STRIDE & 2
 209:/home/pi/Developer/tinyusb/src/common/tusb_fifo.c ****       #if CFG_TUSB_FIFO_HWFIFO_DATA_STRIDE != 2
 210:/home/pi/Developer/tinyusb/src/common/tusb_fifo.c ****   if (data_stride == 2)
 211:/home/pi/Developer/tinyusb/src/common/tusb_fifo.c ****       #endif
 212:/home/pi/Developer/tinyusb/src/common/tusb_fifo.c ****   {
 213:/home/pi/Developer/tinyusb/src/common/tusb_fifo.c ****     tu_unaligned_write16(dest, *((const volatile uint16_t *)hwfifo));
 214:/home/pi/Developer/tinyusb/src/common/tusb_fifo.c ****   }
 215:/home/pi/Developer/tinyusb/src/common/tusb_fifo.c ****     #endif
 216:/home/pi/Developer/tinyusb/src/common/tusb_fifo.c **** 
 217:/home/pi/Developer/tinyusb/src/common/tusb_fifo.c ****     #if CFG_TUSB_FIFO_HWFIFO_DATA_STRIDE == 1
 218:/home/pi/Developer/tinyusb/src/common/tusb_fifo.c ****   *(uint8_t *)dest = *((const volatile uint8_t *)hwfifo);
 219:/home/pi/Developer/tinyusb/src/common/tusb_fifo.c ****     #endif
 220:/home/pi/Developer/tinyusb/src/common/tusb_fifo.c **** }
 221:/home/pi/Developer/tinyusb/src/common/tusb_fifo.c **** 
 222:/home/pi/Developer/tinyusb/src/common/tusb_fifo.c **** void tu_hwfifo_read(const volatile void *hwfifo, uint8_t *dest, uint16_t len, const tu_hwfifo_acces
 322              		.loc 1 222 118 view -0
 323              		.cfi_startproc
 324              		@ args = 0, pretend = 0, frame = 8
 325              		@ frame_needed = 0, uses_anonymous_args = 0
 223:/home/pi/Developer/tinyusb/src/common/tusb_fifo.c ****   // Reading full available 16/32-bit hwfifo and write to fifo
 224:/home/pi/Developer/tinyusb/src/common/tusb_fifo.c ****   const uint8_t data_stride = (access_mode != NULL) ? access_mode->data_stride : CFG_TUSB_FIFO_HWFI
 326              		.loc 1 224 3 view .LVU94
 222:/home/pi/Developer/tinyusb/src/common/tusb_fifo.c ****   // Reading full available 16/32-bit hwfifo and write to fifo
 327              		.loc 1 222 118 is_stmt 0 view .LVU95
 328 0000 00B5     		push	{lr}
 329              		.cfi_def_cfa_offset 4
 330              		.cfi_offset 14, -4
 331 0002 8C46     		mov	ip, r1
 332 0004 83B0     		sub	sp, sp, #12
 333              		.cfi_def_cfa_offset 16
 334              		.loc 1 224 17 view .LVU96
 335 0006 CBB1     		cbz	r3, .L30
 336              		.loc 1 224 17 discriminator 1 view .LVU97
 337 0008 93F800E0 		ldrb	lr, [r3]	@ zero_extendqisi2
 225:/home/pi/Developer/tinyusb/src/common/tusb_fifo.c ****   while (len >= data_stride) {
 338              		.loc 1 225 14 discriminator 1 view .LVU98
 339 000c 1FFA8EF3 		uxth	r3, lr
 340              	.LVL22:
 341              		.loc 1 225 14 discriminator 1 view .LVU99
ARM GAS  /tmp/cc4ocKfo.s 			page 17


 342 0010 05E0     		b	.L36
 343              	.LVL23:
 344              	.L28:
 226:/home/pi/Developer/tinyusb/src/common/tusb_fifo.c ****     stride_read(hwfifo, dest, data_stride);
 345              		.loc 1 226 5 is_stmt 1 view .LVU100
 346              	.LBB201:
 347              	.LBI201:
 196:/home/pi/Developer/tinyusb/src/common/tusb_fifo.c ****   (void)data_stride; // possible unused
 348              		.loc 1 196 42 view .LVU101
 349              	.LBB202:
 197:/home/pi/Developer/tinyusb/src/common/tusb_fifo.c **** 
 350              		.loc 1 197 3 view .LVU102
 204:/home/pi/Developer/tinyusb/src/common/tusb_fifo.c ****   }
 351              		.loc 1 204 5 view .LVU103
 352              	.LBE202:
 353              	.LBE201:
 227:/home/pi/Developer/tinyusb/src/common/tusb_fifo.c ****     dest += data_stride;
 228:/home/pi/Developer/tinyusb/src/common/tusb_fifo.c ****     len -= data_stride;
 354              		.loc 1 228 9 is_stmt 0 view .LVU104
 355 0012 D21A     		subs	r2, r2, r3
 356              	.LVL24:
 357              	.LBB209:
 358              	.LBB207:
 204:/home/pi/Developer/tinyusb/src/common/tusb_fifo.c ****   }
 359              		.loc 1 204 5 view .LVU105
 360 0014 0168     		ldr	r1, [r0]
 361              	.LVL25:
 362              	.LBB203:
 363              	.LBI203:
 316:/home/pi/Developer/tinyusb/src/common/tusb_common.h **** }
 317:/home/pi/Developer/tinyusb/src/common/tusb_common.h **** 
 318:/home/pi/Developer/tinyusb/src/common/tusb_common.h **** TU_ATTR_ALWAYS_INLINE static inline uint16_t tu_unaligned_read16(const void *mem) {
 319:/home/pi/Developer/tinyusb/src/common/tusb_common.h ****   return *((uint16_t const *) mem);
 320:/home/pi/Developer/tinyusb/src/common/tusb_common.h **** }
 321:/home/pi/Developer/tinyusb/src/common/tusb_common.h **** 
 322:/home/pi/Developer/tinyusb/src/common/tusb_common.h **** TU_ATTR_ALWAYS_INLINE static inline void tu_unaligned_write32(void *mem, uint32_t value) {
 364              		.loc 2 322 42 is_stmt 1 view .LVU106
 365              	.LBB204:
 323:/home/pi/Developer/tinyusb/src/common/tusb_common.h ****   *((uint32_t *) mem) = value;
 366              		.loc 2 323 3 view .LVU107
 367              	.LBE204:
 368              	.LBE203:
 369              	.LBE207:
 370              	.LBE209:
 371              		.loc 1 228 9 is_stmt 0 view .LVU108
 372 0016 92B2     		uxth	r2, r2
 373              	.LBB210:
 374              	.LBB208:
 375              	.LBB206:
 376              	.LBB205:
 377              		.loc 2 323 23 view .LVU109
 378 0018 CCF80010 		str	r1, [ip]
 379              	.LVL26:
 380              		.loc 2 323 23 view .LVU110
 381              	.LBE205:
 382              	.LBE206:
 383              	.LBE208:
ARM GAS  /tmp/cc4ocKfo.s 			page 18


 384              	.LBE210:
 227:/home/pi/Developer/tinyusb/src/common/tusb_fifo.c ****     dest += data_stride;
 385              		.loc 1 227 5 is_stmt 1 view .LVU111
 227:/home/pi/Developer/tinyusb/src/common/tusb_fifo.c ****     dest += data_stride;
 386              		.loc 1 227 10 is_stmt 0 view .LVU112
 387 001c F444     		add	ip, ip, lr
 388              	.LVL27:
 389              	.L36:
 390              		.loc 1 228 5 is_stmt 1 view .LVU113
 229:/home/pi/Developer/tinyusb/src/common/tusb_fifo.c ****     HWFIFO_ADDR_NEXT(hwfifo, const);
 391              		.loc 1 229 36 view .LVU114
 225:/home/pi/Developer/tinyusb/src/common/tusb_fifo.c ****     stride_read(hwfifo, dest, data_stride);
 392              		.loc 1 225 9 view .LVU115
 393 001e 9342     		cmp	r3, r2
 394 0020 F7D9     		bls	.L28
 230:/home/pi/Developer/tinyusb/src/common/tusb_fifo.c ****   }
 231:/home/pi/Developer/tinyusb/src/common/tusb_fifo.c **** 
 232:/home/pi/Developer/tinyusb/src/common/tusb_fifo.c ****     #if CFG_TUSB_FIFO_HWFIFO_DATA_STRIDE > 1
 233:/home/pi/Developer/tinyusb/src/common/tusb_fifo.c ****       #ifdef CFG_TUSB_FIFO_HWFIFO_DATA_ODD_16BIT_ACCESS
 234:/home/pi/Developer/tinyusb/src/common/tusb_fifo.c ****   // 16-bit access is allowed for odd bytes
 235:/home/pi/Developer/tinyusb/src/common/tusb_fifo.c ****   if (len >= 2) {
 236:/home/pi/Developer/tinyusb/src/common/tusb_fifo.c ****     tu_unaligned_write16(dest, *((const volatile uint16_t *)hwfifo));
 237:/home/pi/Developer/tinyusb/src/common/tusb_fifo.c ****     dest += 2;
 238:/home/pi/Developer/tinyusb/src/common/tusb_fifo.c ****     len -= 2;
 239:/home/pi/Developer/tinyusb/src/common/tusb_fifo.c ****     HWFIFO_ADDR_NEXT_N(hwfifo, const, 2);
 240:/home/pi/Developer/tinyusb/src/common/tusb_fifo.c ****   }
 241:/home/pi/Developer/tinyusb/src/common/tusb_fifo.c ****       #endif
 242:/home/pi/Developer/tinyusb/src/common/tusb_fifo.c **** 
 243:/home/pi/Developer/tinyusb/src/common/tusb_fifo.c ****       #ifdef CFG_TUSB_FIFO_HWFIFO_DATA_ODD_8BIT_ACCESS
 244:/home/pi/Developer/tinyusb/src/common/tusb_fifo.c ****   // 8-bit access is allowed for odd bytes
 245:/home/pi/Developer/tinyusb/src/common/tusb_fifo.c ****   while (len > 0) {
 246:/home/pi/Developer/tinyusb/src/common/tusb_fifo.c ****     *dest++ = *((const volatile uint8_t *)hwfifo);
 247:/home/pi/Developer/tinyusb/src/common/tusb_fifo.c ****     len--;
 248:/home/pi/Developer/tinyusb/src/common/tusb_fifo.c ****     HWFIFO_ADDR_NEXT_N(hwfifo, const, 1);
 249:/home/pi/Developer/tinyusb/src/common/tusb_fifo.c ****   }
 250:/home/pi/Developer/tinyusb/src/common/tusb_fifo.c ****       #else
 251:/home/pi/Developer/tinyusb/src/common/tusb_fifo.c ****   // Read odd bytes i.e 1 byte for 16 bit or 1-3 bytes for 32 bit
 252:/home/pi/Developer/tinyusb/src/common/tusb_fifo.c ****   if (len > 0) {
 395              		.loc 1 252 3 view .LVU116
 396              		.loc 1 252 6 is_stmt 0 view .LVU117
 397 0022 12B9     		cbnz	r2, .L37
 253:/home/pi/Developer/tinyusb/src/common/tusb_fifo.c ****     uint32_t tmp;
 254:/home/pi/Developer/tinyusb/src/common/tusb_fifo.c ****     stride_read(hwfifo, &tmp, data_stride);
 255:/home/pi/Developer/tinyusb/src/common/tusb_fifo.c ****     memcpy(dest, &tmp, len);
 256:/home/pi/Developer/tinyusb/src/common/tusb_fifo.c ****     HWFIFO_ADDR_NEXT(hwfifo, const);
 257:/home/pi/Developer/tinyusb/src/common/tusb_fifo.c ****   }
 258:/home/pi/Developer/tinyusb/src/common/tusb_fifo.c ****       #endif
 259:/home/pi/Developer/tinyusb/src/common/tusb_fifo.c ****     #endif
 260:/home/pi/Developer/tinyusb/src/common/tusb_fifo.c **** }
 398              		.loc 1 260 1 view .LVU118
 399 0024 03B0     		add	sp, sp, #12
 400              		.cfi_remember_state
 401              		.cfi_def_cfa_offset 4
 402              		@ sp needed
 403 0026 5DF804FB 		ldr	pc, [sp], #4
 404              	.L37:
 405              		.cfi_restore_state
ARM GAS  /tmp/cc4ocKfo.s 			page 19


 406              	.LBB211:
 253:/home/pi/Developer/tinyusb/src/common/tusb_fifo.c ****     uint32_t tmp;
 407              		.loc 1 253 5 is_stmt 1 view .LVU119
 254:/home/pi/Developer/tinyusb/src/common/tusb_fifo.c ****     memcpy(dest, &tmp, len);
 408              		.loc 1 254 5 view .LVU120
 409              	.LVL28:
 410              	.LBB212:
 411              	.LBI212:
 196:/home/pi/Developer/tinyusb/src/common/tusb_fifo.c ****   (void)data_stride; // possible unused
 412              		.loc 1 196 42 view .LVU121
 413              	.LBB213:
 197:/home/pi/Developer/tinyusb/src/common/tusb_fifo.c **** 
 414              		.loc 1 197 3 view .LVU122
 204:/home/pi/Developer/tinyusb/src/common/tusb_fifo.c ****   }
 415              		.loc 1 204 5 view .LVU123
 416 002a 0368     		ldr	r3, [r0]
 417              	.LVL29:
 418              	.LBB214:
 419              	.LBI214:
 322:/home/pi/Developer/tinyusb/src/common/tusb_common.h ****   *((uint32_t *) mem) = value;
 420              		.loc 2 322 42 view .LVU124
 421              	.LBB215:
 422              		.loc 2 323 3 view .LVU125
 423              	.LBE215:
 424              	.LBE214:
 425              	.LBE213:
 426              	.LBE212:
 255:/home/pi/Developer/tinyusb/src/common/tusb_fifo.c ****     HWFIFO_ADDR_NEXT(hwfifo, const);
 427              		.loc 1 255 5 is_stmt 0 view .LVU126
 428 002c 01A9     		add	r1, sp, #4
 429              	.LVL30:
 255:/home/pi/Developer/tinyusb/src/common/tusb_fifo.c ****     HWFIFO_ADDR_NEXT(hwfifo, const);
 430              		.loc 1 255 5 view .LVU127
 431 002e 6046     		mov	r0, ip
 432              	.LVL31:
 433              	.LBB219:
 434              	.LBB218:
 435              	.LBB217:
 436              	.LBB216:
 437              		.loc 2 323 23 view .LVU128
 438 0030 0193     		str	r3, [sp, #4]
 439              	.LVL32:
 440              		.loc 2 323 23 view .LVU129
 441              	.LBE216:
 442              	.LBE217:
 443              	.LBE218:
 444              	.LBE219:
 255:/home/pi/Developer/tinyusb/src/common/tusb_fifo.c ****     HWFIFO_ADDR_NEXT(hwfifo, const);
 445              		.loc 1 255 5 is_stmt 1 view .LVU130
 446 0032 FFF7FEFF 		bl	memcpy
 447              	.LVL33:
 256:/home/pi/Developer/tinyusb/src/common/tusb_fifo.c ****   }
 448              		.loc 1 256 36 view .LVU131
 449              	.LBE211:
 450              		.loc 1 260 1 is_stmt 0 view .LVU132
 451 0036 03B0     		add	sp, sp, #12
 452              		.cfi_remember_state
ARM GAS  /tmp/cc4ocKfo.s 			page 20


 453              		.cfi_def_cfa_offset 4
 454              		@ sp needed
 455 0038 5DF804FB 		ldr	pc, [sp], #4
 456              	.LVL34:
 457              	.L30:
 458              		.cfi_restore_state
 459              		.loc 1 260 1 view .LVU133
 460 003c 0423     		movs	r3, #4
 461              	.LVL35:
 224:/home/pi/Developer/tinyusb/src/common/tusb_fifo.c ****   while (len >= data_stride) {
 462              		.loc 1 224 17 view .LVU134
 463 003e 9E46     		mov	lr, r3
 464              	.LVL36:
 225:/home/pi/Developer/tinyusb/src/common/tusb_fifo.c ****     stride_read(hwfifo, dest, data_stride);
 465              		.loc 1 225 3 is_stmt 1 view .LVU135
 229:/home/pi/Developer/tinyusb/src/common/tusb_fifo.c ****   }
 466              		.loc 1 229 36 view .LVU136
 225:/home/pi/Developer/tinyusb/src/common/tusb_fifo.c ****     stride_read(hwfifo, dest, data_stride);
 467              		.loc 1 225 9 view .LVU137
 468 0040 EDE7     		b	.L36
 469              		.cfi_endproc
 470              	.LFE403:
 472 0042 00BF     		.section	.text.tu_fifo_peek_n_access_mode,"ax",%progbits
 473              		.align	1
 474              		.p2align 2,,3
 475              		.global	tu_fifo_peek_n_access_mode
 476              		.syntax unified
 477              		.thumb
 478              		.thumb_func
 479              		.fpu fpv5-d16
 481              	tu_fifo_peek_n_access_mode:
 482              	.LVL37:
 483              	.LFB411:
 261:/home/pi/Developer/tinyusb/src/common/tusb_fifo.c ****   #endif
 262:/home/pi/Developer/tinyusb/src/common/tusb_fifo.c **** 
 263:/home/pi/Developer/tinyusb/src/common/tusb_fifo.c **** // push to sw fifo from hwfifo
 264:/home/pi/Developer/tinyusb/src/common/tusb_fifo.c **** static void hwff_push_n(const tu_fifo_t *f, const void *app_buf, uint16_t n, uint16_t wr_ptr,
 265:/home/pi/Developer/tinyusb/src/common/tusb_fifo.c ****                         const tu_hwfifo_access_t *access_mode) {
 266:/home/pi/Developer/tinyusb/src/common/tusb_fifo.c ****   uint16_t lin_bytes  = f->depth - wr_ptr;
 267:/home/pi/Developer/tinyusb/src/common/tusb_fifo.c ****   uint16_t wrap_bytes = n - lin_bytes;
 268:/home/pi/Developer/tinyusb/src/common/tusb_fifo.c ****   uint8_t *ff_buf     = f->buffer + wr_ptr;
 269:/home/pi/Developer/tinyusb/src/common/tusb_fifo.c **** 
 270:/home/pi/Developer/tinyusb/src/common/tusb_fifo.c ****   const volatile void *hwfifo = (const volatile void *)app_buf;
 271:/home/pi/Developer/tinyusb/src/common/tusb_fifo.c ****   if (n <= lin_bytes) {
 272:/home/pi/Developer/tinyusb/src/common/tusb_fifo.c ****     // Linear only case
 273:/home/pi/Developer/tinyusb/src/common/tusb_fifo.c ****     tu_hwfifo_read(hwfifo, ff_buf, n, access_mode);
 274:/home/pi/Developer/tinyusb/src/common/tusb_fifo.c ****   } else {
 275:/home/pi/Developer/tinyusb/src/common/tusb_fifo.c ****     // Wrap around case
 276:/home/pi/Developer/tinyusb/src/common/tusb_fifo.c ****   #if CFG_TUSB_FIFO_HWFIFO_DATA_STRIDE == 1
 277:/home/pi/Developer/tinyusb/src/common/tusb_fifo.c ****     tu_hwfifo_read(hwfifo, ff_buf, lin_bytes, access_mode);     // linear part
 278:/home/pi/Developer/tinyusb/src/common/tusb_fifo.c ****     HWFIFO_ADDR_NEXT_N(hwfifo, const, lin_bytes);
 279:/home/pi/Developer/tinyusb/src/common/tusb_fifo.c ****     tu_hwfifo_read(hwfifo, f->buffer, wrap_bytes, access_mode); // wrapped part
 280:/home/pi/Developer/tinyusb/src/common/tusb_fifo.c ****   #else
 281:/home/pi/Developer/tinyusb/src/common/tusb_fifo.c ****     // Write full words to the linear part of the buffer
 282:/home/pi/Developer/tinyusb/src/common/tusb_fifo.c ****     const uint8_t  data_stride = access_mode->data_stride;
 283:/home/pi/Developer/tinyusb/src/common/tusb_fifo.c ****     const uint32_t odd_mask    = data_stride - 1;
 284:/home/pi/Developer/tinyusb/src/common/tusb_fifo.c ****     uint16_t       lin_even    = (uint16_t)(lin_bytes & ~odd_mask);
ARM GAS  /tmp/cc4ocKfo.s 			page 21


 285:/home/pi/Developer/tinyusb/src/common/tusb_fifo.c ****     tu_hwfifo_read(hwfifo, ff_buf, lin_even, access_mode);
 286:/home/pi/Developer/tinyusb/src/common/tusb_fifo.c ****     HWFIFO_ADDR_NEXT_N(hwfifo, const, lin_even * HWFIFO_ADDR_DATA_RATIO);
 287:/home/pi/Developer/tinyusb/src/common/tusb_fifo.c ****     ff_buf += lin_even;
 288:/home/pi/Developer/tinyusb/src/common/tusb_fifo.c **** 
 289:/home/pi/Developer/tinyusb/src/common/tusb_fifo.c ****     // There could be an odd 1 byte (16bit) or 1-3 bytes (32bit) before the wrap-around boundary
 290:/home/pi/Developer/tinyusb/src/common/tusb_fifo.c ****     // combine it with the wrapped part to form a full word for data stride
 291:/home/pi/Developer/tinyusb/src/common/tusb_fifo.c ****     const uint8_t lin_odd = (uint8_t)(lin_bytes & odd_mask);
 292:/home/pi/Developer/tinyusb/src/common/tusb_fifo.c ****     if (lin_odd > 0) {
 293:/home/pi/Developer/tinyusb/src/common/tusb_fifo.c ****       const uint8_t wrap_odd = (uint8_t)tu_min16(wrap_bytes, data_stride - lin_odd);
 294:/home/pi/Developer/tinyusb/src/common/tusb_fifo.c ****       uint8_t       buf_temp[4];
 295:/home/pi/Developer/tinyusb/src/common/tusb_fifo.c ****       tu_hwfifo_read(hwfifo, buf_temp, lin_odd + wrap_odd, access_mode);
 296:/home/pi/Developer/tinyusb/src/common/tusb_fifo.c ****       HWFIFO_ADDR_NEXT(hwfifo, const);
 297:/home/pi/Developer/tinyusb/src/common/tusb_fifo.c **** 
 298:/home/pi/Developer/tinyusb/src/common/tusb_fifo.c ****       for (uint8_t i = 0; i < lin_odd; ++i) {
 299:/home/pi/Developer/tinyusb/src/common/tusb_fifo.c ****         ff_buf[i] = buf_temp[i];
 300:/home/pi/Developer/tinyusb/src/common/tusb_fifo.c ****       }
 301:/home/pi/Developer/tinyusb/src/common/tusb_fifo.c ****       for (uint8_t i = 0; i < wrap_odd; ++i) {
 302:/home/pi/Developer/tinyusb/src/common/tusb_fifo.c ****         f->buffer[i] = buf_temp[lin_odd + i];
 303:/home/pi/Developer/tinyusb/src/common/tusb_fifo.c ****       }
 304:/home/pi/Developer/tinyusb/src/common/tusb_fifo.c **** 
 305:/home/pi/Developer/tinyusb/src/common/tusb_fifo.c ****       wrap_bytes -= wrap_odd;
 306:/home/pi/Developer/tinyusb/src/common/tusb_fifo.c ****       ff_buf = f->buffer + wrap_odd; // wrap around
 307:/home/pi/Developer/tinyusb/src/common/tusb_fifo.c ****     } else {
 308:/home/pi/Developer/tinyusb/src/common/tusb_fifo.c ****       ff_buf = f->buffer;            // wrap around to beginning
 309:/home/pi/Developer/tinyusb/src/common/tusb_fifo.c ****     }
 310:/home/pi/Developer/tinyusb/src/common/tusb_fifo.c **** 
 311:/home/pi/Developer/tinyusb/src/common/tusb_fifo.c ****     // Write data wrapped part
 312:/home/pi/Developer/tinyusb/src/common/tusb_fifo.c ****     if (wrap_bytes > 0) {
 313:/home/pi/Developer/tinyusb/src/common/tusb_fifo.c ****       tu_hwfifo_read(hwfifo, ff_buf, wrap_bytes, access_mode);
 314:/home/pi/Developer/tinyusb/src/common/tusb_fifo.c ****     }
 315:/home/pi/Developer/tinyusb/src/common/tusb_fifo.c ****   #endif
 316:/home/pi/Developer/tinyusb/src/common/tusb_fifo.c ****   }
 317:/home/pi/Developer/tinyusb/src/common/tusb_fifo.c **** }
 318:/home/pi/Developer/tinyusb/src/common/tusb_fifo.c **** 
 319:/home/pi/Developer/tinyusb/src/common/tusb_fifo.c **** // pull from sw fifo to hwfifo
 320:/home/pi/Developer/tinyusb/src/common/tusb_fifo.c **** static void hwff_pull_n(const tu_fifo_t *f, void *app_buf, uint16_t n, uint16_t rd_ptr,
 321:/home/pi/Developer/tinyusb/src/common/tusb_fifo.c ****                         const tu_hwfifo_access_t *access_mode) {
 322:/home/pi/Developer/tinyusb/src/common/tusb_fifo.c ****   uint16_t       lin_bytes  = f->depth - rd_ptr;
 323:/home/pi/Developer/tinyusb/src/common/tusb_fifo.c ****   uint16_t       wrap_bytes = n - lin_bytes; // only used if wrapped
 324:/home/pi/Developer/tinyusb/src/common/tusb_fifo.c ****   const uint8_t *ff_buf     = f->buffer + rd_ptr;
 325:/home/pi/Developer/tinyusb/src/common/tusb_fifo.c **** 
 326:/home/pi/Developer/tinyusb/src/common/tusb_fifo.c ****   volatile void *hwfifo = (volatile void *)app_buf;
 327:/home/pi/Developer/tinyusb/src/common/tusb_fifo.c **** 
 328:/home/pi/Developer/tinyusb/src/common/tusb_fifo.c ****   if (n <= lin_bytes) {
 329:/home/pi/Developer/tinyusb/src/common/tusb_fifo.c ****     // Linear only case
 330:/home/pi/Developer/tinyusb/src/common/tusb_fifo.c ****     tu_hwfifo_write(hwfifo, ff_buf, n, access_mode);
 331:/home/pi/Developer/tinyusb/src/common/tusb_fifo.c ****   } else {
 332:/home/pi/Developer/tinyusb/src/common/tusb_fifo.c ****     // Wrap around case
 333:/home/pi/Developer/tinyusb/src/common/tusb_fifo.c ****   #if CFG_TUSB_FIFO_HWFIFO_DATA_STRIDE == 1
 334:/home/pi/Developer/tinyusb/src/common/tusb_fifo.c ****     tu_hwfifo_write(hwfifo, ff_buf, lin_bytes, access_mode);     // linear part
 335:/home/pi/Developer/tinyusb/src/common/tusb_fifo.c ****     HWFIFO_ADDR_NEXT_N(hwfifo, , lin_bytes);
 336:/home/pi/Developer/tinyusb/src/common/tusb_fifo.c ****     tu_hwfifo_write(hwfifo, f->buffer, wrap_bytes, access_mode); // wrapped part
 337:/home/pi/Developer/tinyusb/src/common/tusb_fifo.c ****   #else
 338:/home/pi/Developer/tinyusb/src/common/tusb_fifo.c ****     // Read full words from linear part
 339:/home/pi/Developer/tinyusb/src/common/tusb_fifo.c ****     const uint8_t  data_stride = access_mode->data_stride;
 340:/home/pi/Developer/tinyusb/src/common/tusb_fifo.c ****     const uint32_t odd_mask    = data_stride - 1;
 341:/home/pi/Developer/tinyusb/src/common/tusb_fifo.c ****     uint16_t       lin_even    = (uint16_t)(lin_bytes & ~odd_mask);
ARM GAS  /tmp/cc4ocKfo.s 			page 22


 342:/home/pi/Developer/tinyusb/src/common/tusb_fifo.c ****     tu_hwfifo_write(hwfifo, ff_buf, lin_even, access_mode);
 343:/home/pi/Developer/tinyusb/src/common/tusb_fifo.c ****     HWFIFO_ADDR_NEXT_N(hwfifo, , lin_even * HWFIFO_ADDR_DATA_RATIO);
 344:/home/pi/Developer/tinyusb/src/common/tusb_fifo.c ****     ff_buf += lin_even;
 345:/home/pi/Developer/tinyusb/src/common/tusb_fifo.c **** 
 346:/home/pi/Developer/tinyusb/src/common/tusb_fifo.c ****     // There could be odd 1 byte (16bit) or 1-3 bytes (32bit) before the wrap-around boundary
 347:/home/pi/Developer/tinyusb/src/common/tusb_fifo.c ****     const uint8_t lin_odd = (uint8_t)(lin_bytes & odd_mask);
 348:/home/pi/Developer/tinyusb/src/common/tusb_fifo.c ****     if (lin_odd > 0) {
 349:/home/pi/Developer/tinyusb/src/common/tusb_fifo.c ****       const uint8_t wrap_odd = (uint8_t)tu_min16(wrap_bytes, data_stride - lin_odd);
 350:/home/pi/Developer/tinyusb/src/common/tusb_fifo.c **** 
 351:/home/pi/Developer/tinyusb/src/common/tusb_fifo.c ****       uint8_t buf_temp[4];
 352:/home/pi/Developer/tinyusb/src/common/tusb_fifo.c ****       for (uint8_t i = 0; i < lin_odd; ++i) {
 353:/home/pi/Developer/tinyusb/src/common/tusb_fifo.c ****         buf_temp[i] = ff_buf[i];
 354:/home/pi/Developer/tinyusb/src/common/tusb_fifo.c ****       }
 355:/home/pi/Developer/tinyusb/src/common/tusb_fifo.c ****       for (uint8_t i = 0; i < wrap_odd; ++i) {
 356:/home/pi/Developer/tinyusb/src/common/tusb_fifo.c ****         buf_temp[lin_odd + i] = f->buffer[i];
 357:/home/pi/Developer/tinyusb/src/common/tusb_fifo.c ****       }
 358:/home/pi/Developer/tinyusb/src/common/tusb_fifo.c **** 
 359:/home/pi/Developer/tinyusb/src/common/tusb_fifo.c ****       tu_hwfifo_write(hwfifo, buf_temp, lin_odd + wrap_odd, access_mode);
 360:/home/pi/Developer/tinyusb/src/common/tusb_fifo.c ****       HWFIFO_ADDR_NEXT(hwfifo, );
 361:/home/pi/Developer/tinyusb/src/common/tusb_fifo.c **** 
 362:/home/pi/Developer/tinyusb/src/common/tusb_fifo.c ****       wrap_bytes -= wrap_odd;
 363:/home/pi/Developer/tinyusb/src/common/tusb_fifo.c ****       ff_buf = f->buffer + wrap_odd; // wrap around
 364:/home/pi/Developer/tinyusb/src/common/tusb_fifo.c ****     } else {
 365:/home/pi/Developer/tinyusb/src/common/tusb_fifo.c ****       ff_buf = f->buffer;            // wrap around to beginning
 366:/home/pi/Developer/tinyusb/src/common/tusb_fifo.c ****     }
 367:/home/pi/Developer/tinyusb/src/common/tusb_fifo.c **** 
 368:/home/pi/Developer/tinyusb/src/common/tusb_fifo.c ****     // Read data wrapped part
 369:/home/pi/Developer/tinyusb/src/common/tusb_fifo.c ****     if (wrap_bytes > 0) {
 370:/home/pi/Developer/tinyusb/src/common/tusb_fifo.c ****       tu_hwfifo_write(hwfifo, ff_buf, wrap_bytes, access_mode);
 371:/home/pi/Developer/tinyusb/src/common/tusb_fifo.c ****     }
 372:/home/pi/Developer/tinyusb/src/common/tusb_fifo.c ****   #endif
 373:/home/pi/Developer/tinyusb/src/common/tusb_fifo.c ****   }
 374:/home/pi/Developer/tinyusb/src/common/tusb_fifo.c **** }
 375:/home/pi/Developer/tinyusb/src/common/tusb_fifo.c **** #endif
 376:/home/pi/Developer/tinyusb/src/common/tusb_fifo.c **** 
 377:/home/pi/Developer/tinyusb/src/common/tusb_fifo.c **** //--------------------------------------------------------------------+
 378:/home/pi/Developer/tinyusb/src/common/tusb_fifo.c **** // Pull & Push
 379:/home/pi/Developer/tinyusb/src/common/tusb_fifo.c **** // copy data to/from fifo without updating read/write pointers
 380:/home/pi/Developer/tinyusb/src/common/tusb_fifo.c **** //--------------------------------------------------------------------+
 381:/home/pi/Developer/tinyusb/src/common/tusb_fifo.c **** // send n items to fifo WITHOUT updating write pointer
 382:/home/pi/Developer/tinyusb/src/common/tusb_fifo.c **** static void ff_push_n(const tu_fifo_t *f, const void *app_buf, uint16_t n, uint16_t wr_ptr) {
 383:/home/pi/Developer/tinyusb/src/common/tusb_fifo.c ****   uint16_t lin_bytes  = f->depth - wr_ptr;
 384:/home/pi/Developer/tinyusb/src/common/tusb_fifo.c ****   uint16_t wrap_bytes = n - lin_bytes;
 385:/home/pi/Developer/tinyusb/src/common/tusb_fifo.c ****   uint8_t *ff_buf     = f->buffer + wr_ptr;
 386:/home/pi/Developer/tinyusb/src/common/tusb_fifo.c **** 
 387:/home/pi/Developer/tinyusb/src/common/tusb_fifo.c ****   if (n <= lin_bytes) {
 388:/home/pi/Developer/tinyusb/src/common/tusb_fifo.c ****     // Linear only case
 389:/home/pi/Developer/tinyusb/src/common/tusb_fifo.c ****     memcpy(ff_buf, app_buf, n);
 390:/home/pi/Developer/tinyusb/src/common/tusb_fifo.c ****   } else {
 391:/home/pi/Developer/tinyusb/src/common/tusb_fifo.c ****     // Wrap around case
 392:/home/pi/Developer/tinyusb/src/common/tusb_fifo.c ****     memcpy(ff_buf, app_buf, lin_bytes);                                    // linear part
 393:/home/pi/Developer/tinyusb/src/common/tusb_fifo.c ****     memcpy(f->buffer, ((const uint8_t *)app_buf) + lin_bytes, wrap_bytes); // wrapped part
 394:/home/pi/Developer/tinyusb/src/common/tusb_fifo.c ****   }
 395:/home/pi/Developer/tinyusb/src/common/tusb_fifo.c **** }
 396:/home/pi/Developer/tinyusb/src/common/tusb_fifo.c **** 
 397:/home/pi/Developer/tinyusb/src/common/tusb_fifo.c **** // get n items from fifo WITHOUT updating read pointer
 398:/home/pi/Developer/tinyusb/src/common/tusb_fifo.c **** static void ff_pull_n(const tu_fifo_t *f, void *app_buf, uint16_t n, uint16_t rd_ptr) {
ARM GAS  /tmp/cc4ocKfo.s 			page 23


 399:/home/pi/Developer/tinyusb/src/common/tusb_fifo.c ****   uint16_t       lin_bytes  = f->depth - rd_ptr;
 400:/home/pi/Developer/tinyusb/src/common/tusb_fifo.c ****   uint16_t       wrap_bytes = n - lin_bytes; // only used if wrapped
 401:/home/pi/Developer/tinyusb/src/common/tusb_fifo.c ****   const uint8_t *ff_buf     = f->buffer + rd_ptr;
 402:/home/pi/Developer/tinyusb/src/common/tusb_fifo.c **** 
 403:/home/pi/Developer/tinyusb/src/common/tusb_fifo.c ****   // single byte access
 404:/home/pi/Developer/tinyusb/src/common/tusb_fifo.c ****   if (n <= lin_bytes) {
 405:/home/pi/Developer/tinyusb/src/common/tusb_fifo.c ****     // Linear only
 406:/home/pi/Developer/tinyusb/src/common/tusb_fifo.c ****     memcpy(app_buf, ff_buf, n);
 407:/home/pi/Developer/tinyusb/src/common/tusb_fifo.c ****   } else {
 408:/home/pi/Developer/tinyusb/src/common/tusb_fifo.c ****     // Wrap around
 409:/home/pi/Developer/tinyusb/src/common/tusb_fifo.c ****     memcpy(app_buf, ff_buf, lin_bytes);                            // linear part
 410:/home/pi/Developer/tinyusb/src/common/tusb_fifo.c ****     memcpy((uint8_t *)app_buf + lin_bytes, f->buffer, wrap_bytes); // wrapped part
 411:/home/pi/Developer/tinyusb/src/common/tusb_fifo.c ****   }
 412:/home/pi/Developer/tinyusb/src/common/tusb_fifo.c **** }
 413:/home/pi/Developer/tinyusb/src/common/tusb_fifo.c **** 
 414:/home/pi/Developer/tinyusb/src/common/tusb_fifo.c **** //--------------------------------------------------------------------+
 415:/home/pi/Developer/tinyusb/src/common/tusb_fifo.c **** // Index Helper
 416:/home/pi/Developer/tinyusb/src/common/tusb_fifo.c **** //--------------------------------------------------------------------+
 417:/home/pi/Developer/tinyusb/src/common/tusb_fifo.c **** 
 418:/home/pi/Developer/tinyusb/src/common/tusb_fifo.c **** // Advance an absolute index
 419:/home/pi/Developer/tinyusb/src/common/tusb_fifo.c **** // "absolute" index is only in the range of [0..2*depth)
 420:/home/pi/Developer/tinyusb/src/common/tusb_fifo.c **** static uint16_t advance_index(uint16_t depth, uint16_t idx, uint16_t offset) {
 421:/home/pi/Developer/tinyusb/src/common/tusb_fifo.c ****   // We limit the index space of p such that a correct wrap around happens
 422:/home/pi/Developer/tinyusb/src/common/tusb_fifo.c ****   // Check for a wrap around or if we are in unused index space - This has to be checked first!!
 423:/home/pi/Developer/tinyusb/src/common/tusb_fifo.c ****   // We are exploiting the wrap around to the correct index
 424:/home/pi/Developer/tinyusb/src/common/tusb_fifo.c ****   uint16_t new_idx = (uint16_t)(idx + offset);
 425:/home/pi/Developer/tinyusb/src/common/tusb_fifo.c ****   if ((idx > new_idx) || (new_idx >= 2 * depth)) {
 426:/home/pi/Developer/tinyusb/src/common/tusb_fifo.c ****     const uint16_t non_used_index_space = (uint16_t)(UINT16_MAX - (2 * depth - 1));
 427:/home/pi/Developer/tinyusb/src/common/tusb_fifo.c ****     new_idx                             = (uint16_t)(new_idx + non_used_index_space);
 428:/home/pi/Developer/tinyusb/src/common/tusb_fifo.c ****   }
 429:/home/pi/Developer/tinyusb/src/common/tusb_fifo.c **** 
 430:/home/pi/Developer/tinyusb/src/common/tusb_fifo.c ****   return new_idx;
 431:/home/pi/Developer/tinyusb/src/common/tusb_fifo.c **** }
 432:/home/pi/Developer/tinyusb/src/common/tusb_fifo.c **** 
 433:/home/pi/Developer/tinyusb/src/common/tusb_fifo.c **** // index to pointer (0..depth-1), simply a modulo with minus.
 434:/home/pi/Developer/tinyusb/src/common/tusb_fifo.c **** TU_ATTR_ALWAYS_INLINE static inline uint16_t idx2ptr(uint16_t depth, uint16_t idx) {
 435:/home/pi/Developer/tinyusb/src/common/tusb_fifo.c ****   // Only run at most 3 times since index is limit in the range of [0..2*depth)
 436:/home/pi/Developer/tinyusb/src/common/tusb_fifo.c ****   while (idx >= depth) {
 437:/home/pi/Developer/tinyusb/src/common/tusb_fifo.c ****     idx -= depth;
 438:/home/pi/Developer/tinyusb/src/common/tusb_fifo.c ****   }
 439:/home/pi/Developer/tinyusb/src/common/tusb_fifo.c ****   return idx;
 440:/home/pi/Developer/tinyusb/src/common/tusb_fifo.c **** }
 441:/home/pi/Developer/tinyusb/src/common/tusb_fifo.c **** 
 442:/home/pi/Developer/tinyusb/src/common/tusb_fifo.c **** // Works on local copies of w
 443:/home/pi/Developer/tinyusb/src/common/tusb_fifo.c **** // When an overwritable fifo is overflowed, rd_idx will be re-index so that it forms a full fifo
 444:/home/pi/Developer/tinyusb/src/common/tusb_fifo.c **** static uint16_t correct_read_index(tu_fifo_t *f, uint16_t wr_idx) {
 445:/home/pi/Developer/tinyusb/src/common/tusb_fifo.c ****   uint16_t rd_idx;
 446:/home/pi/Developer/tinyusb/src/common/tusb_fifo.c ****   if (wr_idx >= f->depth) {
 447:/home/pi/Developer/tinyusb/src/common/tusb_fifo.c ****     rd_idx = wr_idx - f->depth;
 448:/home/pi/Developer/tinyusb/src/common/tusb_fifo.c ****   } else {
 449:/home/pi/Developer/tinyusb/src/common/tusb_fifo.c ****     rd_idx = wr_idx + f->depth;
 450:/home/pi/Developer/tinyusb/src/common/tusb_fifo.c ****   }
 451:/home/pi/Developer/tinyusb/src/common/tusb_fifo.c **** 
 452:/home/pi/Developer/tinyusb/src/common/tusb_fifo.c ****   f->rd_idx = rd_idx;
 453:/home/pi/Developer/tinyusb/src/common/tusb_fifo.c ****   return rd_idx;
 454:/home/pi/Developer/tinyusb/src/common/tusb_fifo.c **** }
 455:/home/pi/Developer/tinyusb/src/common/tusb_fifo.c **** 
ARM GAS  /tmp/cc4ocKfo.s 			page 24


 456:/home/pi/Developer/tinyusb/src/common/tusb_fifo.c **** //--------------------------------------------------------------------+
 457:/home/pi/Developer/tinyusb/src/common/tusb_fifo.c **** // n-API
 458:/home/pi/Developer/tinyusb/src/common/tusb_fifo.c **** //--------------------------------------------------------------------+
 459:/home/pi/Developer/tinyusb/src/common/tusb_fifo.c **** 
 460:/home/pi/Developer/tinyusb/src/common/tusb_fifo.c **** // Works on local copies of w and r
 461:/home/pi/Developer/tinyusb/src/common/tusb_fifo.c **** // Must be protected by read mutex since in case of an overflow read pointer gets modified
 462:/home/pi/Developer/tinyusb/src/common/tusb_fifo.c **** uint16_t tu_fifo_peek_n_access_mode(tu_fifo_t *f, void *p_buffer, uint16_t n, uint16_t wr_idx, uint
 463:/home/pi/Developer/tinyusb/src/common/tusb_fifo.c ****                                     const tu_hwfifo_access_t *access_mode) {
 484              		.loc 1 463 76 view -0
 485              		.cfi_startproc
 486              		@ args = 8, pretend = 0, frame = 16
 487              		@ frame_needed = 0, uses_anonymous_args = 0
 488              		.loc 1 463 76 is_stmt 0 view .LVU139
 489 0000 2DE9F04F 		push	{r4, r5, r6, r7, r8, r9, r10, fp, lr}
 490              		.cfi_def_cfa_offset 36
 491              		.cfi_offset 4, -36
 492              		.cfi_offset 5, -32
 493              		.cfi_offset 6, -28
 494              		.cfi_offset 7, -24
 495              		.cfi_offset 8, -20
 496              		.cfi_offset 9, -16
 497              		.cfi_offset 10, -12
 498              		.cfi_offset 11, -8
 499              		.cfi_offset 14, -4
 500 0004 85B0     		sub	sp, sp, #20
 501              		.cfi_def_cfa_offset 56
 464:/home/pi/Developer/tinyusb/src/common/tusb_fifo.c ****   uint16_t count = tu_ff_overflow_count(f->depth, wr_idx, rd_idx);
 502              		.loc 1 464 20 view .LVU140
 503 0006 8588     		ldrh	r5, [r0, #4]
 463:/home/pi/Developer/tinyusb/src/common/tusb_fifo.c ****   uint16_t count = tu_ff_overflow_count(f->depth, wr_idx, rd_idx);
 504              		.loc 1 463 76 view .LVU141
 505 0008 0F46     		mov	r7, r1
 506 000a 8046     		mov	r8, r0
 507 000c BDF83840 		ldrh	r4, [sp, #56]
 508              		.loc 1 464 3 is_stmt 1 view .LVU142
 509              	.LVL38:
 510              	.LBB280:
 511              	.LBI280:
 512              		.file 3 "/home/pi/Developer/tinyusb/src/common/tusb_fifo.h"
   1:/home/pi/Developer/tinyusb/src/common/tusb_fifo.h **** /*
   2:/home/pi/Developer/tinyusb/src/common/tusb_fifo.h ****  * The MIT License (MIT)
   3:/home/pi/Developer/tinyusb/src/common/tusb_fifo.h ****  *
   4:/home/pi/Developer/tinyusb/src/common/tusb_fifo.h ****  * Copyright (c) 2019 Ha Thach (tinyusb.org)
   5:/home/pi/Developer/tinyusb/src/common/tusb_fifo.h ****  * Copyright (c) 2020 Reinhard Panhuber - rework to unmasked pointers
   6:/home/pi/Developer/tinyusb/src/common/tusb_fifo.h ****  *
   7:/home/pi/Developer/tinyusb/src/common/tusb_fifo.h ****  * Permission is hereby granted, free of charge, to any person obtaining a copy
   8:/home/pi/Developer/tinyusb/src/common/tusb_fifo.h ****  * of this software and associated documentation files (the "Software"), to deal
   9:/home/pi/Developer/tinyusb/src/common/tusb_fifo.h ****  * in the Software without restriction, including without limitation the rights
  10:/home/pi/Developer/tinyusb/src/common/tusb_fifo.h ****  * to use, copy, modify, merge, publish, distribute, sublicense, and/or sell
  11:/home/pi/Developer/tinyusb/src/common/tusb_fifo.h ****  * copies of the Software, and to permit persons to whom the Software is
  12:/home/pi/Developer/tinyusb/src/common/tusb_fifo.h ****  * furnished to do so, subject to the following conditions:
  13:/home/pi/Developer/tinyusb/src/common/tusb_fifo.h ****  *
  14:/home/pi/Developer/tinyusb/src/common/tusb_fifo.h ****  * The above copyright notice and this permission notice shall be included in
  15:/home/pi/Developer/tinyusb/src/common/tusb_fifo.h ****  * all copies or substantial portions of the Software.
  16:/home/pi/Developer/tinyusb/src/common/tusb_fifo.h ****  *
  17:/home/pi/Developer/tinyusb/src/common/tusb_fifo.h ****  * THE SOFTWARE IS PROVIDED "AS IS", WITHOUT WARRANTY OF ANY KIND, EXPRESS OR
  18:/home/pi/Developer/tinyusb/src/common/tusb_fifo.h ****  * IMPLIED, INCLUDING BUT NOT LIMITED TO THE WARRANTIES OF MERCHANTABILITY,
ARM GAS  /tmp/cc4ocKfo.s 			page 25


  19:/home/pi/Developer/tinyusb/src/common/tusb_fifo.h ****  * FITNESS FOR A PARTICULAR PURPOSE AND NONINFRINGEMENT. IN NO EVENT SHALL THE
  20:/home/pi/Developer/tinyusb/src/common/tusb_fifo.h ****  * AUTHORS OR COPYRIGHT HOLDERS BE LIABLE FOR ANY CLAIM, DAMAGES OR OTHER
  21:/home/pi/Developer/tinyusb/src/common/tusb_fifo.h ****  * LIABILITY, WHETHER IN AN ACTION OF CONTRACT, TORT OR OTHERWISE, ARISING FROM,
  22:/home/pi/Developer/tinyusb/src/common/tusb_fifo.h ****  * OUT OF OR IN CONNECTION WITH THE SOFTWARE OR THE USE OR OTHER DEALINGS IN
  23:/home/pi/Developer/tinyusb/src/common/tusb_fifo.h ****  * THE SOFTWARE.
  24:/home/pi/Developer/tinyusb/src/common/tusb_fifo.h ****  *
  25:/home/pi/Developer/tinyusb/src/common/tusb_fifo.h ****  * This file is part of the TinyUSB stack.
  26:/home/pi/Developer/tinyusb/src/common/tusb_fifo.h ****  */
  27:/home/pi/Developer/tinyusb/src/common/tusb_fifo.h **** 
  28:/home/pi/Developer/tinyusb/src/common/tusb_fifo.h **** #ifndef TUSB_FIFO_H_
  29:/home/pi/Developer/tinyusb/src/common/tusb_fifo.h **** #define TUSB_FIFO_H_
  30:/home/pi/Developer/tinyusb/src/common/tusb_fifo.h **** 
  31:/home/pi/Developer/tinyusb/src/common/tusb_fifo.h **** #ifdef __cplusplus
  32:/home/pi/Developer/tinyusb/src/common/tusb_fifo.h **** extern "C" {
  33:/home/pi/Developer/tinyusb/src/common/tusb_fifo.h **** #endif
  34:/home/pi/Developer/tinyusb/src/common/tusb_fifo.h **** 
  35:/home/pi/Developer/tinyusb/src/common/tusb_fifo.h **** #include "common/tusb_common.h"
  36:/home/pi/Developer/tinyusb/src/common/tusb_fifo.h **** #include "osal/osal.h"
  37:/home/pi/Developer/tinyusb/src/common/tusb_fifo.h **** 
  38:/home/pi/Developer/tinyusb/src/common/tusb_fifo.h **** //--------------------------------------------------------------------+
  39:/home/pi/Developer/tinyusb/src/common/tusb_fifo.h **** // Configuration
  40:/home/pi/Developer/tinyusb/src/common/tusb_fifo.h **** //--------------------------------------------------------------------+
  41:/home/pi/Developer/tinyusb/src/common/tusb_fifo.h **** // mutex is only needed for RTOS. For OS None, we don't get preempted
  42:/home/pi/Developer/tinyusb/src/common/tusb_fifo.h **** #define CFG_FIFO_MUTEX      OSAL_MUTEX_REQUIRED
  43:/home/pi/Developer/tinyusb/src/common/tusb_fifo.h **** 
  44:/home/pi/Developer/tinyusb/src/common/tusb_fifo.h **** #define CFG_TUSB_FIFO_HWFIFO_API (CFG_TUD_EDPT_DEDICATED_HWFIFO || CFG_TUH_EDPT_DEDICATED_HWFIFO)
  45:/home/pi/Developer/tinyusb/src/common/tusb_fifo.h **** 
  46:/home/pi/Developer/tinyusb/src/common/tusb_fifo.h **** #ifndef CFG_TUSB_FIFO_HWFIFO_DATA_STRIDE
  47:/home/pi/Developer/tinyusb/src/common/tusb_fifo.h ****   #define CFG_TUSB_FIFO_HWFIFO_DATA_STRIDE 0
  48:/home/pi/Developer/tinyusb/src/common/tusb_fifo.h **** #endif
  49:/home/pi/Developer/tinyusb/src/common/tusb_fifo.h **** 
  50:/home/pi/Developer/tinyusb/src/common/tusb_fifo.h **** #ifndef CFG_TUSB_FIFO_HWFIFO_ADDR_STRIDE
  51:/home/pi/Developer/tinyusb/src/common/tusb_fifo.h ****   #define CFG_TUSB_FIFO_HWFIFO_ADDR_STRIDE 0
  52:/home/pi/Developer/tinyusb/src/common/tusb_fifo.h **** #endif
  53:/home/pi/Developer/tinyusb/src/common/tusb_fifo.h **** 
  54:/home/pi/Developer/tinyusb/src/common/tusb_fifo.h **** // Due to the use of unmasked pointers, this FIFO does not suffer from losing
  55:/home/pi/Developer/tinyusb/src/common/tusb_fifo.h **** // one item slice. Furthermore, write and read operations are completely
  56:/home/pi/Developer/tinyusb/src/common/tusb_fifo.h **** // decoupled as write and read functions do not modify a common state. Henceforth,
  57:/home/pi/Developer/tinyusb/src/common/tusb_fifo.h **** // writing or reading from the FIFO within an ISR is safe as long as no other
  58:/home/pi/Developer/tinyusb/src/common/tusb_fifo.h **** // process (thread or ISR) interferes.
  59:/home/pi/Developer/tinyusb/src/common/tusb_fifo.h **** // Also, this FIFO is ready to be used in combination with a DMA as the write and
  60:/home/pi/Developer/tinyusb/src/common/tusb_fifo.h **** // read pointers can be updated from within a DMA ISR. Overflows are detectable
  61:/home/pi/Developer/tinyusb/src/common/tusb_fifo.h **** // within a certain number (see tu_fifo_overflow()).
  62:/home/pi/Developer/tinyusb/src/common/tusb_fifo.h **** 
  63:/home/pi/Developer/tinyusb/src/common/tusb_fifo.h **** /* Write/Read "pointer" is in the range of: 0 .. depth - 1, and is used to get the fifo data.
  64:/home/pi/Developer/tinyusb/src/common/tusb_fifo.h ****  * Write/Read "index" is always in the range of: 0 .. 2*depth-1
  65:/home/pi/Developer/tinyusb/src/common/tusb_fifo.h ****  *
  66:/home/pi/Developer/tinyusb/src/common/tusb_fifo.h ****  * The extra window allow us to determine the fifo state of empty or full with only 2 indices
  67:/home/pi/Developer/tinyusb/src/common/tusb_fifo.h ****  * Following are examples with depth = 3
  68:/home/pi/Developer/tinyusb/src/common/tusb_fifo.h ****  *
  69:/home/pi/Developer/tinyusb/src/common/tusb_fifo.h ****  * - empty: W = R
  70:/home/pi/Developer/tinyusb/src/common/tusb_fifo.h ****  *                |
  71:/home/pi/Developer/tinyusb/src/common/tusb_fifo.h ****  *    -------------------------
  72:/home/pi/Developer/tinyusb/src/common/tusb_fifo.h ****  *    | 0 | RW| 2 | 3 | 4 | 5 |
  73:/home/pi/Developer/tinyusb/src/common/tusb_fifo.h ****  *
  74:/home/pi/Developer/tinyusb/src/common/tusb_fifo.h ****  * - full 1: W > R
  75:/home/pi/Developer/tinyusb/src/common/tusb_fifo.h ****  *                |
ARM GAS  /tmp/cc4ocKfo.s 			page 26


  76:/home/pi/Developer/tinyusb/src/common/tusb_fifo.h ****  *    -------------------------
  77:/home/pi/Developer/tinyusb/src/common/tusb_fifo.h ****  *    | 0 | R | 2 | 3 | W | 5 |
  78:/home/pi/Developer/tinyusb/src/common/tusb_fifo.h ****  *
  79:/home/pi/Developer/tinyusb/src/common/tusb_fifo.h ****  * - full 2: W < R
  80:/home/pi/Developer/tinyusb/src/common/tusb_fifo.h ****  *                |
  81:/home/pi/Developer/tinyusb/src/common/tusb_fifo.h ****  *    -------------------------
  82:/home/pi/Developer/tinyusb/src/common/tusb_fifo.h ****  *    | 0 | 1 | W | 3 | 4 | R |
  83:/home/pi/Developer/tinyusb/src/common/tusb_fifo.h ****  *
  84:/home/pi/Developer/tinyusb/src/common/tusb_fifo.h ****  * - Number of items in the fifo can be determined in either cases:
  85:/home/pi/Developer/tinyusb/src/common/tusb_fifo.h ****  *    - case W >= R: Count = W - R
  86:/home/pi/Developer/tinyusb/src/common/tusb_fifo.h ****  *    - case W <  R: Count = 2*depth - (R - W)
  87:/home/pi/Developer/tinyusb/src/common/tusb_fifo.h ****  *
  88:/home/pi/Developer/tinyusb/src/common/tusb_fifo.h ****  * In non-overwritable mode, computed Count (in above 2 cases) is at most equal to depth.
  89:/home/pi/Developer/tinyusb/src/common/tusb_fifo.h ****  * However, in over-writable mode, write index can be repeatedly increased and count can be
  90:/home/pi/Developer/tinyusb/src/common/tusb_fifo.h ****  * temporarily larger than depth (overflowed condition) e.g
  91:/home/pi/Developer/tinyusb/src/common/tusb_fifo.h ****  *
  92:/home/pi/Developer/tinyusb/src/common/tusb_fifo.h ****  *  - Overflowed 1: write(3), write(1)
  93:/home/pi/Developer/tinyusb/src/common/tusb_fifo.h ****  *    In this case we will adjust Read index when read()/peek() is called so that count = depth.
  94:/home/pi/Developer/tinyusb/src/common/tusb_fifo.h ****  *                  |
  95:/home/pi/Developer/tinyusb/src/common/tusb_fifo.h ****  *      -------------------------
  96:/home/pi/Developer/tinyusb/src/common/tusb_fifo.h ****  *      | R | 1 | 2 | 3 | W | 5 |
  97:/home/pi/Developer/tinyusb/src/common/tusb_fifo.h ****  *
  98:/home/pi/Developer/tinyusb/src/common/tusb_fifo.h ****  *  - Double Overflowed i.e index is out of allowed range [0,2*depth)
  99:/home/pi/Developer/tinyusb/src/common/tusb_fifo.h ****  *    This occurs when we continue to write after 1st overflowed to 2nd overflowed. e.g:
 100:/home/pi/Developer/tinyusb/src/common/tusb_fifo.h ****  *      write(3), write(1), write(2)
 101:/home/pi/Developer/tinyusb/src/common/tusb_fifo.h ****  *    This must be prevented since it will cause unrecoverable state, in above example
 102:/home/pi/Developer/tinyusb/src/common/tusb_fifo.h ****  *    if not handled the fifo will be empty instead of continue-to-be full. Since we must not modif
 103:/home/pi/Developer/tinyusb/src/common/tusb_fifo.h ****  *    read index in write() function, which cause race condition. We will re-position write index s
 104:/home/pi/Developer/tinyusb/src/common/tusb_fifo.h ****  *    after data is written it is a full fifo i.e W = depth - R
 105:/home/pi/Developer/tinyusb/src/common/tusb_fifo.h ****  *
 106:/home/pi/Developer/tinyusb/src/common/tusb_fifo.h ****  *      re-position W = 1 before write(2)
 107:/home/pi/Developer/tinyusb/src/common/tusb_fifo.h ****  *      Note: we should also move data from mem[3] to read index as well, but deliberately skipped 
 108:/home/pi/Developer/tinyusb/src/common/tusb_fifo.h ****  *      since it is an expensive operation !!!
 109:/home/pi/Developer/tinyusb/src/common/tusb_fifo.h ****  *                  |
 110:/home/pi/Developer/tinyusb/src/common/tusb_fifo.h ****  *      -------------------------
 111:/home/pi/Developer/tinyusb/src/common/tusb_fifo.h ****  *      | R | W | 2 | 3 | 4 | 5 |
 112:/home/pi/Developer/tinyusb/src/common/tusb_fifo.h ****  *
 113:/home/pi/Developer/tinyusb/src/common/tusb_fifo.h ****  *      perform write(2), result is still a full fifo.
 114:/home/pi/Developer/tinyusb/src/common/tusb_fifo.h ****  *
 115:/home/pi/Developer/tinyusb/src/common/tusb_fifo.h ****  *                  |
 116:/home/pi/Developer/tinyusb/src/common/tusb_fifo.h ****  *      -------------------------
 117:/home/pi/Developer/tinyusb/src/common/tusb_fifo.h ****  *      | R | 1 | 2 | W | 4 | 5 |
 118:/home/pi/Developer/tinyusb/src/common/tusb_fifo.h ****  */
 119:/home/pi/Developer/tinyusb/src/common/tusb_fifo.h **** typedef struct {
 120:/home/pi/Developer/tinyusb/src/common/tusb_fifo.h ****   uint8_t *buffer;              // buffer pointer
 121:/home/pi/Developer/tinyusb/src/common/tusb_fifo.h ****   uint16_t depth;               // max items
 122:/home/pi/Developer/tinyusb/src/common/tusb_fifo.h ****   bool     overwritable;        // overwritable when full
 123:/home/pi/Developer/tinyusb/src/common/tusb_fifo.h ****   // 1 byte padding here
 124:/home/pi/Developer/tinyusb/src/common/tusb_fifo.h **** 
 125:/home/pi/Developer/tinyusb/src/common/tusb_fifo.h ****   volatile uint16_t wr_idx;     // write index
 126:/home/pi/Developer/tinyusb/src/common/tusb_fifo.h ****   volatile uint16_t rd_idx;     // read index
 127:/home/pi/Developer/tinyusb/src/common/tusb_fifo.h **** 
 128:/home/pi/Developer/tinyusb/src/common/tusb_fifo.h **** #if OSAL_MUTEX_REQUIRED
 129:/home/pi/Developer/tinyusb/src/common/tusb_fifo.h ****   osal_mutex_t mutex_wr;
 130:/home/pi/Developer/tinyusb/src/common/tusb_fifo.h ****   osal_mutex_t mutex_rd;
 131:/home/pi/Developer/tinyusb/src/common/tusb_fifo.h **** #endif
 132:/home/pi/Developer/tinyusb/src/common/tusb_fifo.h **** } tu_fifo_t;
ARM GAS  /tmp/cc4ocKfo.s 			page 27


 133:/home/pi/Developer/tinyusb/src/common/tusb_fifo.h **** 
 134:/home/pi/Developer/tinyusb/src/common/tusb_fifo.h **** typedef struct {
 135:/home/pi/Developer/tinyusb/src/common/tusb_fifo.h ****   struct {
 136:/home/pi/Developer/tinyusb/src/common/tusb_fifo.h ****     uint16_t len; // length
 137:/home/pi/Developer/tinyusb/src/common/tusb_fifo.h ****     uint8_t *ptr; // buffer pointer
 138:/home/pi/Developer/tinyusb/src/common/tusb_fifo.h ****   } linear, wrapped;
 139:/home/pi/Developer/tinyusb/src/common/tusb_fifo.h **** } tu_fifo_buffer_info_t;
 140:/home/pi/Developer/tinyusb/src/common/tusb_fifo.h **** 
 141:/home/pi/Developer/tinyusb/src/common/tusb_fifo.h **** // Access mode for hardware fifo read/write
 142:/home/pi/Developer/tinyusb/src/common/tusb_fifo.h **** typedef struct {
 143:/home/pi/Developer/tinyusb/src/common/tusb_fifo.h ****   uint8_t   data_stride;
 144:/home/pi/Developer/tinyusb/src/common/tusb_fifo.h ****   uintptr_t param;
 145:/home/pi/Developer/tinyusb/src/common/tusb_fifo.h **** } tu_hwfifo_access_t;
 146:/home/pi/Developer/tinyusb/src/common/tusb_fifo.h **** 
 147:/home/pi/Developer/tinyusb/src/common/tusb_fifo.h **** #define TU_FIFO_INIT(_buffer, _depth, _overwritable) \
 148:/home/pi/Developer/tinyusb/src/common/tusb_fifo.h ****   {                                                  \
 149:/home/pi/Developer/tinyusb/src/common/tusb_fifo.h ****     .buffer       = _buffer,                         \
 150:/home/pi/Developer/tinyusb/src/common/tusb_fifo.h ****     .depth        = _depth,                          \
 151:/home/pi/Developer/tinyusb/src/common/tusb_fifo.h ****     .overwritable = _overwritable,                   \
 152:/home/pi/Developer/tinyusb/src/common/tusb_fifo.h ****   }
 153:/home/pi/Developer/tinyusb/src/common/tusb_fifo.h **** 
 154:/home/pi/Developer/tinyusb/src/common/tusb_fifo.h **** #define TU_FIFO_DEF(_name, _depth, _overwritable)                    \
 155:/home/pi/Developer/tinyusb/src/common/tusb_fifo.h ****   uint8_t   _name##_buf[_depth];                                     \
 156:/home/pi/Developer/tinyusb/src/common/tusb_fifo.h ****   tu_fifo_t _name = TU_FIFO_INIT(_name##_buf, _depth, _overwritable)
 157:/home/pi/Developer/tinyusb/src/common/tusb_fifo.h **** 
 158:/home/pi/Developer/tinyusb/src/common/tusb_fifo.h **** // Moving data from tusb_fifo <-> USB hardware FIFOs e.g. STM32s need to use a special stride mode 
 159:/home/pi/Developer/tinyusb/src/common/tusb_fifo.h **** // data in 2/4 byte chunks from/to a fixed address (USB FIFO register) instead of incrementing the 
 160:/home/pi/Developer/tinyusb/src/common/tusb_fifo.h **** // read/write access_mode with stride_mode = true. The STRIDE DATA and ADDR stride must be configur
 161:/home/pi/Developer/tinyusb/src/common/tusb_fifo.h **** // CFG_TUSB_FIFO_HWFIFO_DATA_STRIDE and CFG_TUSB_FIFO_HWFIFO_ADDR_STRIDE
 162:/home/pi/Developer/tinyusb/src/common/tusb_fifo.h **** 
 163:/home/pi/Developer/tinyusb/src/common/tusb_fifo.h **** //--------------------------------------------------------------------+
 164:/home/pi/Developer/tinyusb/src/common/tusb_fifo.h **** // Setup API
 165:/home/pi/Developer/tinyusb/src/common/tusb_fifo.h **** //--------------------------------------------------------------------+
 166:/home/pi/Developer/tinyusb/src/common/tusb_fifo.h **** bool tu_fifo_config(tu_fifo_t *f, void *buffer, uint16_t depth, bool overwritable);
 167:/home/pi/Developer/tinyusb/src/common/tusb_fifo.h **** void tu_fifo_set_overwritable(tu_fifo_t *f, bool overwritable);
 168:/home/pi/Developer/tinyusb/src/common/tusb_fifo.h **** void tu_fifo_clear(tu_fifo_t *f);
 169:/home/pi/Developer/tinyusb/src/common/tusb_fifo.h **** 
 170:/home/pi/Developer/tinyusb/src/common/tusb_fifo.h **** #if OSAL_MUTEX_REQUIRED
 171:/home/pi/Developer/tinyusb/src/common/tusb_fifo.h **** TU_ATTR_ALWAYS_INLINE static inline
 172:/home/pi/Developer/tinyusb/src/common/tusb_fifo.h **** void tu_fifo_config_mutex(tu_fifo_t *f, osal_mutex_t wr_mutex, osal_mutex_t rd_mutex) {
 173:/home/pi/Developer/tinyusb/src/common/tusb_fifo.h ****   f->mutex_wr = wr_mutex;
 174:/home/pi/Developer/tinyusb/src/common/tusb_fifo.h ****   f->mutex_rd = rd_mutex;
 175:/home/pi/Developer/tinyusb/src/common/tusb_fifo.h **** }
 176:/home/pi/Developer/tinyusb/src/common/tusb_fifo.h **** #else
 177:/home/pi/Developer/tinyusb/src/common/tusb_fifo.h **** #define tu_fifo_config_mutex(_f, _wr_mutex, _rd_mutex)
 178:/home/pi/Developer/tinyusb/src/common/tusb_fifo.h **** #endif
 179:/home/pi/Developer/tinyusb/src/common/tusb_fifo.h **** 
 180:/home/pi/Developer/tinyusb/src/common/tusb_fifo.h **** //--------------------------------------------------------------------+
 181:/home/pi/Developer/tinyusb/src/common/tusb_fifo.h **** // Index API
 182:/home/pi/Developer/tinyusb/src/common/tusb_fifo.h **** //--------------------------------------------------------------------+
 183:/home/pi/Developer/tinyusb/src/common/tusb_fifo.h **** void tu_fifo_correct_read_pointer(tu_fifo_t *f);
 184:/home/pi/Developer/tinyusb/src/common/tusb_fifo.h **** 
 185:/home/pi/Developer/tinyusb/src/common/tusb_fifo.h **** // Pointer modifications intended to be used in combinations with DMAs.
 186:/home/pi/Developer/tinyusb/src/common/tusb_fifo.h **** // USE WITH CARE - NO SAFETY CHECKS CONDUCTED HERE! NOT MUTEX PROTECTED!
 187:/home/pi/Developer/tinyusb/src/common/tusb_fifo.h **** void tu_fifo_advance_write_pointer(tu_fifo_t *f, uint16_t n);
 188:/home/pi/Developer/tinyusb/src/common/tusb_fifo.h **** void tu_fifo_advance_read_pointer(tu_fifo_t *f, uint16_t n);
 189:/home/pi/Developer/tinyusb/src/common/tusb_fifo.h **** 
ARM GAS  /tmp/cc4ocKfo.s 			page 28


 190:/home/pi/Developer/tinyusb/src/common/tusb_fifo.h **** // If you want to read/write from/to the FIFO by use of a DMA, you may need to conduct two copies
 191:/home/pi/Developer/tinyusb/src/common/tusb_fifo.h **** // to handle a possible wrapping part. These functions deliver a pointer to start
 192:/home/pi/Developer/tinyusb/src/common/tusb_fifo.h **** // reading/writing from/to and a valid linear length along which no wrap occurs.
 193:/home/pi/Developer/tinyusb/src/common/tusb_fifo.h **** void tu_fifo_get_read_info(tu_fifo_t *f, tu_fifo_buffer_info_t *info);
 194:/home/pi/Developer/tinyusb/src/common/tusb_fifo.h **** void tu_fifo_get_write_info(tu_fifo_t *f, tu_fifo_buffer_info_t *info);
 195:/home/pi/Developer/tinyusb/src/common/tusb_fifo.h **** 
 196:/home/pi/Developer/tinyusb/src/common/tusb_fifo.h **** //--------------------------------------------------------------------+
 197:/home/pi/Developer/tinyusb/src/common/tusb_fifo.h **** // Peek API
 198:/home/pi/Developer/tinyusb/src/common/tusb_fifo.h **** // peek() will correct/re-index read pointer in case of an overflowed fifo to form a full fifo
 199:/home/pi/Developer/tinyusb/src/common/tusb_fifo.h **** //--------------------------------------------------------------------+
 200:/home/pi/Developer/tinyusb/src/common/tusb_fifo.h **** uint16_t tu_fifo_peek_n_access_mode(tu_fifo_t *f, void *p_buffer, uint16_t n, uint16_t wr_idx, uint
 201:/home/pi/Developer/tinyusb/src/common/tusb_fifo.h ****                                     const tu_hwfifo_access_t *access_mode);
 202:/home/pi/Developer/tinyusb/src/common/tusb_fifo.h **** bool     tu_fifo_peek(tu_fifo_t *f, void *p_buffer);
 203:/home/pi/Developer/tinyusb/src/common/tusb_fifo.h **** uint16_t tu_fifo_peek_n(tu_fifo_t *f, void *p_buffer, uint16_t n);
 204:/home/pi/Developer/tinyusb/src/common/tusb_fifo.h **** 
 205:/home/pi/Developer/tinyusb/src/common/tusb_fifo.h **** //--------------------------------------------------------------------+
 206:/home/pi/Developer/tinyusb/src/common/tusb_fifo.h **** // Read API
 207:/home/pi/Developer/tinyusb/src/common/tusb_fifo.h **** // peek() + advance read index
 208:/home/pi/Developer/tinyusb/src/common/tusb_fifo.h **** //--------------------------------------------------------------------+
 209:/home/pi/Developer/tinyusb/src/common/tusb_fifo.h **** uint16_t tu_fifo_read_n_access_mode(tu_fifo_t *f, void *buffer, uint16_t n, const tu_hwfifo_access_
 210:/home/pi/Developer/tinyusb/src/common/tusb_fifo.h **** bool     tu_fifo_read(tu_fifo_t *f, void *buffer);
 211:/home/pi/Developer/tinyusb/src/common/tusb_fifo.h **** TU_ATTR_ALWAYS_INLINE static inline uint16_t tu_fifo_read_n(tu_fifo_t *f, void *buffer, uint16_t n)
 212:/home/pi/Developer/tinyusb/src/common/tusb_fifo.h ****   return tu_fifo_read_n_access_mode(f, buffer, n, NULL);
 213:/home/pi/Developer/tinyusb/src/common/tusb_fifo.h **** }
 214:/home/pi/Developer/tinyusb/src/common/tusb_fifo.h **** 
 215:/home/pi/Developer/tinyusb/src/common/tusb_fifo.h **** // discard first n items from fifo i.e advance read pointer by n with mutex
 216:/home/pi/Developer/tinyusb/src/common/tusb_fifo.h **** // return number of discarded items
 217:/home/pi/Developer/tinyusb/src/common/tusb_fifo.h **** uint16_t tu_fifo_discard_n(tu_fifo_t *f, uint16_t n);
 218:/home/pi/Developer/tinyusb/src/common/tusb_fifo.h **** 
 219:/home/pi/Developer/tinyusb/src/common/tusb_fifo.h **** //--------------------------------------------------------------------+
 220:/home/pi/Developer/tinyusb/src/common/tusb_fifo.h **** // Write API
 221:/home/pi/Developer/tinyusb/src/common/tusb_fifo.h **** //--------------------------------------------------------------------+
 222:/home/pi/Developer/tinyusb/src/common/tusb_fifo.h **** uint16_t tu_fifo_write_n_access_mode(tu_fifo_t *f, const void *data, uint16_t n, const tu_hwfifo_ac
 223:/home/pi/Developer/tinyusb/src/common/tusb_fifo.h **** bool     tu_fifo_write(tu_fifo_t *f, const void *data);
 224:/home/pi/Developer/tinyusb/src/common/tusb_fifo.h **** TU_ATTR_ALWAYS_INLINE static inline uint16_t tu_fifo_write_n(tu_fifo_t *f, const void *data, uint16
 225:/home/pi/Developer/tinyusb/src/common/tusb_fifo.h ****   return tu_fifo_write_n_access_mode(f, data, n, NULL);
 226:/home/pi/Developer/tinyusb/src/common/tusb_fifo.h **** }
 227:/home/pi/Developer/tinyusb/src/common/tusb_fifo.h **** 
 228:/home/pi/Developer/tinyusb/src/common/tusb_fifo.h **** //--------------------------------------------------------------------+
 229:/home/pi/Developer/tinyusb/src/common/tusb_fifo.h **** // Hardware FIFO API
 230:/home/pi/Developer/tinyusb/src/common/tusb_fifo.h **** // Special hardware FIFO/Buffer to hold USB data, usually requires certain access method these can 
 231:/home/pi/Developer/tinyusb/src/common/tusb_fifo.h **** // CFG_TUSB_FIFO_HWFIFO_DATA_STRIDE (data width) and CFG_TUSB_FIFO_HWFIFO_ADDR_STRIDE (address incr
 232:/home/pi/Developer/tinyusb/src/common/tusb_fifo.h **** // Note: these usually has opposite direction (read/write) to/from our software FIFO  (tu_fifo_t)
 233:/home/pi/Developer/tinyusb/src/common/tusb_fifo.h **** //--------------------------------------------------------------------+
 234:/home/pi/Developer/tinyusb/src/common/tusb_fifo.h **** TU_ATTR_ALWAYS_INLINE static inline uint16_t tu_hwfifo_write_from_fifo(volatile void *hwfifo, tu_fi
 235:/home/pi/Developer/tinyusb/src/common/tusb_fifo.h ****                                                                        const tu_hwfifo_access_t *ac
 236:/home/pi/Developer/tinyusb/src/common/tusb_fifo.h ****   const tu_hwfifo_access_t default_access = {.data_stride = CFG_TUSB_FIFO_HWFIFO_DATA_STRIDE, .para
 237:/home/pi/Developer/tinyusb/src/common/tusb_fifo.h ****   return tu_fifo_read_n_access_mode(f, (void *)(uintptr_t)hwfifo, n,
 238:/home/pi/Developer/tinyusb/src/common/tusb_fifo.h ****                                     (access_mode != NULL) ? access_mode : &default_access);
 239:/home/pi/Developer/tinyusb/src/common/tusb_fifo.h **** }
 240:/home/pi/Developer/tinyusb/src/common/tusb_fifo.h **** 
 241:/home/pi/Developer/tinyusb/src/common/tusb_fifo.h **** TU_ATTR_ALWAYS_INLINE static inline uint16_t tu_hwfifo_read_to_fifo(const volatile void *hwfifo, tu
 242:/home/pi/Developer/tinyusb/src/common/tusb_fifo.h ****                                                                     uint16_t n, const tu_hwfifo_acc
 243:/home/pi/Developer/tinyusb/src/common/tusb_fifo.h ****   const tu_hwfifo_access_t default_access = {.data_stride = CFG_TUSB_FIFO_HWFIFO_DATA_STRIDE, .para
 244:/home/pi/Developer/tinyusb/src/common/tusb_fifo.h ****   return tu_fifo_write_n_access_mode(f, (const void *)(uintptr_t)hwfifo, n,
 245:/home/pi/Developer/tinyusb/src/common/tusb_fifo.h ****                                      (access_mode != NULL) ? access_mode : &default_access);
 246:/home/pi/Developer/tinyusb/src/common/tusb_fifo.h **** }
ARM GAS  /tmp/cc4ocKfo.s 			page 29


 247:/home/pi/Developer/tinyusb/src/common/tusb_fifo.h **** 
 248:/home/pi/Developer/tinyusb/src/common/tusb_fifo.h **** #if CFG_TUSB_FIFO_HWFIFO_API
 249:/home/pi/Developer/tinyusb/src/common/tusb_fifo.h **** // read from hwfifo to buffer
 250:/home/pi/Developer/tinyusb/src/common/tusb_fifo.h **** void tu_hwfifo_read(const volatile void *hwfifo, uint8_t *dest, uint16_t len, const tu_hwfifo_acces
 251:/home/pi/Developer/tinyusb/src/common/tusb_fifo.h **** 
 252:/home/pi/Developer/tinyusb/src/common/tusb_fifo.h **** // write to hwfifo from buffer with access mode
 253:/home/pi/Developer/tinyusb/src/common/tusb_fifo.h **** void tu_hwfifo_write(volatile void *hwfifo, const uint8_t *src, uint16_t len, const tu_hwfifo_acces
 254:/home/pi/Developer/tinyusb/src/common/tusb_fifo.h **** 
 255:/home/pi/Developer/tinyusb/src/common/tusb_fifo.h **** #endif
 256:/home/pi/Developer/tinyusb/src/common/tusb_fifo.h **** 
 257:/home/pi/Developer/tinyusb/src/common/tusb_fifo.h **** //--------------------------------------------------------------------+
 258:/home/pi/Developer/tinyusb/src/common/tusb_fifo.h **** // Internal Helper Local
 259:/home/pi/Developer/tinyusb/src/common/tusb_fifo.h **** // work on local copies of read/write indices in order to only access them once for re-entrancy
 260:/home/pi/Developer/tinyusb/src/common/tusb_fifo.h **** //--------------------------------------------------------------------+
 261:/home/pi/Developer/tinyusb/src/common/tusb_fifo.h **** // return overflowable count (index difference), which can be used to determine both fifo count and
 262:/home/pi/Developer/tinyusb/src/common/tusb_fifo.h **** TU_ATTR_ALWAYS_INLINE static inline uint16_t tu_ff_overflow_count(uint16_t depth, uint16_t wr_idx, 
 513              		.loc 3 262 46 view .LVU143
 514              	.LBB281:
 263:/home/pi/Developer/tinyusb/src/common/tusb_fifo.h ****   const int32_t diff = (int32_t)wr_idx - (int32_t)rd_idx;
 515              		.loc 3 263 3 view .LVU144
 264:/home/pi/Developer/tinyusb/src/common/tusb_fifo.h ****   if (diff >= 0) {
 516              		.loc 3 264 3 view .LVU145
 517              	.LBE281:
 518              	.LBE280:
 463:/home/pi/Developer/tinyusb/src/common/tusb_fifo.c ****   uint16_t count = tu_ff_overflow_count(f->depth, wr_idx, rd_idx);
 519              		.loc 1 463 76 is_stmt 0 view .LVU146
 520 0010 0F99     		ldr	r1, [sp, #60]
 521              	.LVL39:
 522              	.LBB283:
 523              	.LBB282:
 524              		.loc 3 264 6 view .LVU147
 525 0012 1E1B     		subs	r6, r3, r4
 265:/home/pi/Developer/tinyusb/src/common/tusb_fifo.h ****     return (uint16_t)diff;
 526              		.loc 3 265 5 is_stmt 1 view .LVU148
 266:/home/pi/Developer/tinyusb/src/common/tusb_fifo.h ****   } else {
 267:/home/pi/Developer/tinyusb/src/common/tusb_fifo.h ****     return (uint16_t)(2 * depth + diff);
 527              		.loc 3 267 5 view .LVU149
 528              	.LVL40:
 529              		.loc 3 267 12 is_stmt 0 view .LVU150
 530 0014 48BF     		it	mi
 531 0016 06EB4506 		addmi	r6, r6, r5, lsl #1
 532 001a B6B2     		uxth	r6, r6
 533              	.LVL41:
 534              		.loc 3 267 12 view .LVU151
 535              	.LBE282:
 536              	.LBE283:
 465:/home/pi/Developer/tinyusb/src/common/tusb_fifo.c ****   if (count == 0) {
 537              		.loc 1 465 3 is_stmt 1 view .LVU152
 538              		.loc 1 465 6 is_stmt 0 view .LVU153
 539 001c 26B3     		cbz	r6, .L41
 466:/home/pi/Developer/tinyusb/src/common/tusb_fifo.c ****     return 0; // nothing to peek
 467:/home/pi/Developer/tinyusb/src/common/tusb_fifo.c ****   }
 468:/home/pi/Developer/tinyusb/src/common/tusb_fifo.c **** 
 469:/home/pi/Developer/tinyusb/src/common/tusb_fifo.c ****   // Check overflow and correct if required
 470:/home/pi/Developer/tinyusb/src/common/tusb_fifo.c ****   if (count > f->depth) {
 540              		.loc 1 470 3 is_stmt 1 view .LVU154
 541              		.loc 1 470 6 is_stmt 0 view .LVU155
ARM GAS  /tmp/cc4ocKfo.s 			page 30


 542 001e B542     		cmp	r5, r6
 543 0020 26D3     		bcc	.L95
 544              	.LVL42:
 545              	.L42:
 471:/home/pi/Developer/tinyusb/src/common/tusb_fifo.c ****     rd_idx = correct_read_index(f, wr_idx);
 472:/home/pi/Developer/tinyusb/src/common/tusb_fifo.c ****     count  = f->depth;
 473:/home/pi/Developer/tinyusb/src/common/tusb_fifo.c ****   }
 474:/home/pi/Developer/tinyusb/src/common/tusb_fifo.c **** 
 475:/home/pi/Developer/tinyusb/src/common/tusb_fifo.c ****   if (count < n) {
 546              		.loc 1 475 3 is_stmt 1 view .LVU156
 547 0022 9642     		cmp	r6, r2
 548 0024 28BF     		it	cs
 549 0026 1646     		movcs	r6, r2
 550              	.LVL43:
 476:/home/pi/Developer/tinyusb/src/common/tusb_fifo.c ****     n = count; // limit to available count
 477:/home/pi/Developer/tinyusb/src/common/tusb_fifo.c ****   }
 478:/home/pi/Developer/tinyusb/src/common/tusb_fifo.c **** 
 479:/home/pi/Developer/tinyusb/src/common/tusb_fifo.c ****   const uint16_t rd_ptr = idx2ptr(f->depth, rd_idx);
 551              		.loc 1 479 3 view .LVU157
 552              	.LBB284:
 553              	.LBI284:
 434:/home/pi/Developer/tinyusb/src/common/tusb_fifo.c ****   // Only run at most 3 times since index is limit in the range of [0..2*depth)
 554              		.loc 1 434 46 view .LVU158
 555              	.LBB285:
 436:/home/pi/Developer/tinyusb/src/common/tusb_fifo.c ****     idx -= depth;
 556              		.loc 1 436 3 view .LVU159
 436:/home/pi/Developer/tinyusb/src/common/tusb_fifo.c ****     idx -= depth;
 557              		.loc 1 436 9 view .LVU160
 558 0028 A542     		cmp	r5, r4
 559 002a 03D8     		bhi	.L45
 560              	.LVL44:
 561              	.L46:
 437:/home/pi/Developer/tinyusb/src/common/tusb_fifo.c ****   }
 562              		.loc 1 437 5 view .LVU161
 437:/home/pi/Developer/tinyusb/src/common/tusb_fifo.c ****   }
 563              		.loc 1 437 9 is_stmt 0 view .LVU162
 564 002c 641B     		subs	r4, r4, r5
 565              	.LVL45:
 437:/home/pi/Developer/tinyusb/src/common/tusb_fifo.c ****   }
 566              		.loc 1 437 9 view .LVU163
 567 002e A4B2     		uxth	r4, r4
 568              	.LVL46:
 436:/home/pi/Developer/tinyusb/src/common/tusb_fifo.c ****     idx -= depth;
 569              		.loc 1 436 9 is_stmt 1 view .LVU164
 570 0030 A542     		cmp	r5, r4
 571 0032 FBD9     		bls	.L46
 572              	.L45:
 439:/home/pi/Developer/tinyusb/src/common/tusb_fifo.c **** }
 573              		.loc 1 439 3 view .LVU165
 574              	.LVL47:
 439:/home/pi/Developer/tinyusb/src/common/tusb_fifo.c **** }
 575              		.loc 1 439 3 is_stmt 0 view .LVU166
 576              	.LBE285:
 577              	.LBE284:
 480:/home/pi/Developer/tinyusb/src/common/tusb_fifo.c **** 
 481:/home/pi/Developer/tinyusb/src/common/tusb_fifo.c **** #if CFG_TUSB_FIFO_HWFIFO_API
 482:/home/pi/Developer/tinyusb/src/common/tusb_fifo.c ****   if (access_mode != NULL) {
ARM GAS  /tmp/cc4ocKfo.s 			page 31


 578              		.loc 1 482 3 is_stmt 1 view .LVU167
 579              		.loc 1 482 6 is_stmt 0 view .LVU168
 580 0034 0029     		cmp	r1, #0
 581 0036 00F08280 		beq	.L47
 483:/home/pi/Developer/tinyusb/src/common/tusb_fifo.c ****     hwff_pull_n(f, p_buffer, n, rd_ptr, access_mode);
 582              		.loc 1 483 5 is_stmt 1 view .LVU169
 583              	.LVL48:
 584              	.LBB286:
 585              	.LBI286:
 320:/home/pi/Developer/tinyusb/src/common/tusb_fifo.c ****                         const tu_hwfifo_access_t *access_mode) {
 586              		.loc 1 320 13 view .LVU170
 587              	.LBB287:
 322:/home/pi/Developer/tinyusb/src/common/tusb_fifo.c ****   uint16_t       wrap_bytes = n - lin_bytes; // only used if wrapped
 588              		.loc 1 322 3 view .LVU171
 322:/home/pi/Developer/tinyusb/src/common/tusb_fifo.c ****   uint16_t       wrap_bytes = n - lin_bytes; // only used if wrapped
 589              		.loc 1 322 18 is_stmt 0 view .LVU172
 590 003a 2B1B     		subs	r3, r5, r4
 324:/home/pi/Developer/tinyusb/src/common/tusb_fifo.c **** 
 591              		.loc 1 324 32 view .LVU173
 592 003c D8F800B0 		ldr	fp, [r8]
 322:/home/pi/Developer/tinyusb/src/common/tusb_fifo.c ****   uint16_t       wrap_bytes = n - lin_bytes; // only used if wrapped
 593              		.loc 1 322 18 view .LVU174
 594 0040 9BB2     		uxth	r3, r3
 595              	.LVL49:
 323:/home/pi/Developer/tinyusb/src/common/tusb_fifo.c ****   const uint8_t *ff_buf     = f->buffer + rd_ptr;
 596              		.loc 1 323 3 is_stmt 1 view .LVU175
 324:/home/pi/Developer/tinyusb/src/common/tusb_fifo.c **** 
 597              		.loc 1 324 3 view .LVU176
 324:/home/pi/Developer/tinyusb/src/common/tusb_fifo.c **** 
 598              		.loc 1 324 18 is_stmt 0 view .LVU177
 599 0042 0BEB0409 		add	r9, fp, r4
 600              	.LVL50:
 326:/home/pi/Developer/tinyusb/src/common/tusb_fifo.c **** 
 601              		.loc 1 326 3 is_stmt 1 view .LVU178
 328:/home/pi/Developer/tinyusb/src/common/tusb_fifo.c ****     // Linear only case
 602              		.loc 1 328 3 view .LVU179
 328:/home/pi/Developer/tinyusb/src/common/tusb_fifo.c ****     // Linear only case
 603              		.loc 1 328 6 is_stmt 0 view .LVU180
 604 0046 9E42     		cmp	r6, r3
 605 0048 1AD8     		bhi	.L48
 330:/home/pi/Developer/tinyusb/src/common/tusb_fifo.c ****   } else {
 606              		.loc 1 330 5 is_stmt 1 view .LVU181
 607              	.LVL51:
 608              	.LBB288:
 609              	.LBI288:
 152:/home/pi/Developer/tinyusb/src/common/tusb_fifo.c ****   // Write full available 16/32 bit words to dest
 610              		.loc 1 152 6 view .LVU182
 611              	.LBB289:
 154:/home/pi/Developer/tinyusb/src/common/tusb_fifo.c ****   while (len >= data_stride) {
 612              		.loc 1 154 3 view .LVU183
 154:/home/pi/Developer/tinyusb/src/common/tusb_fifo.c ****   while (len >= data_stride) {
 613              		.loc 1 154 17 is_stmt 0 view .LVU184
 614 004a 0878     		ldrb	r0, [r1]	@ zero_extendqisi2
 615              	.LVL52:
 155:/home/pi/Developer/tinyusb/src/common/tusb_fifo.c ****     stride_write(hwfifo, src, data_stride);
 616              		.loc 1 155 3 is_stmt 1 view .LVU185
 159:/home/pi/Developer/tinyusb/src/common/tusb_fifo.c ****   }
ARM GAS  /tmp/cc4ocKfo.s 			page 32


 617              		.loc 1 159 31 view .LVU186
 155:/home/pi/Developer/tinyusb/src/common/tusb_fifo.c ****     stride_write(hwfifo, src, data_stride);
 618              		.loc 1 155 9 view .LVU187
 157:/home/pi/Developer/tinyusb/src/common/tusb_fifo.c ****     len -= data_stride;
 619              		.loc 1 157 9 is_stmt 0 view .LVU188
 620 004c 3246     		mov	r2, r6
 155:/home/pi/Developer/tinyusb/src/common/tusb_fifo.c ****     stride_write(hwfifo, src, data_stride);
 621              		.loc 1 155 9 view .LVU189
 622 004e 8642     		cmp	r6, r0
 155:/home/pi/Developer/tinyusb/src/common/tusb_fifo.c ****     stride_write(hwfifo, src, data_stride);
 623              		.loc 1 155 14 view .LVU190
 624 0050 83B2     		uxth	r3, r0
 625              	.LVL53:
 155:/home/pi/Developer/tinyusb/src/common/tusb_fifo.c ****     stride_write(hwfifo, src, data_stride);
 626              		.loc 1 155 9 view .LVU191
 627 0052 07D3     		bcc	.L49
 628              	.LVL54:
 629              	.L50:
 156:/home/pi/Developer/tinyusb/src/common/tusb_fifo.c ****     src += data_stride;
 630              		.loc 1 156 5 is_stmt 1 view .LVU192
 631              	.LBB290:
 632              	.LBI290:
 126:/home/pi/Developer/tinyusb/src/common/tusb_fifo.c ****   (void)data_stride; // possible unused
 633              		.loc 1 126 42 view .LVU193
 634              	.LBB291:
 127:/home/pi/Developer/tinyusb/src/common/tusb_fifo.c ****     #if CFG_TUSB_FIFO_HWFIFO_DATA_STRIDE & 4
 635              		.loc 1 127 3 view .LVU194
 133:/home/pi/Developer/tinyusb/src/common/tusb_fifo.c ****   }
 636              		.loc 1 133 5 view .LVU195
 637              	.LBB292:
 638              	.LBI292:
 314:/home/pi/Developer/tinyusb/src/common/tusb_common.h ****   return *((uint32_t const *) mem);
 639              		.loc 2 314 46 view .LVU196
 640              	.LBB293:
 315:/home/pi/Developer/tinyusb/src/common/tusb_common.h **** }
 641              		.loc 2 315 3 view .LVU197
 642              	.LBE293:
 643              	.LBE292:
 644              	.LBE291:
 645              	.LBE290:
 158:/home/pi/Developer/tinyusb/src/common/tusb_fifo.c ****     HWFIFO_ADDR_NEXT(hwfifo, );
 646              		.loc 1 158 9 is_stmt 0 view .LVU198
 647 0054 D21A     		subs	r2, r2, r3
 648              	.LVL55:
 649              	.LBB298:
 650              	.LBB296:
 651              	.LBB295:
 652              	.LBB294:
 315:/home/pi/Developer/tinyusb/src/common/tusb_common.h **** }
 653              		.loc 2 315 10 view .LVU199
 654 0056 D9F80010 		ldr	r1, [r9]
 655              	.LVL56:
 315:/home/pi/Developer/tinyusb/src/common/tusb_common.h **** }
 656              		.loc 2 315 10 view .LVU200
 657              	.LBE294:
 658              	.LBE295:
 659              	.LBE296:
ARM GAS  /tmp/cc4ocKfo.s 			page 33


 660              	.LBE298:
 157:/home/pi/Developer/tinyusb/src/common/tusb_fifo.c ****     len -= data_stride;
 661              		.loc 1 157 9 view .LVU201
 662 005a 8144     		add	r9, r9, r0
 663              	.LVL57:
 158:/home/pi/Developer/tinyusb/src/common/tusb_fifo.c ****     HWFIFO_ADDR_NEXT(hwfifo, );
 664              		.loc 1 158 9 view .LVU202
 665 005c 92B2     		uxth	r2, r2
 666              	.LBB299:
 667              	.LBB297:
 133:/home/pi/Developer/tinyusb/src/common/tusb_fifo.c ****   }
 668              		.loc 1 133 36 view .LVU203
 669 005e 3960     		str	r1, [r7]
 670              	.LVL58:
 133:/home/pi/Developer/tinyusb/src/common/tusb_fifo.c ****   }
 671              		.loc 1 133 36 view .LVU204
 672              	.LBE297:
 673              	.LBE299:
 157:/home/pi/Developer/tinyusb/src/common/tusb_fifo.c ****     len -= data_stride;
 674              		.loc 1 157 5 is_stmt 1 view .LVU205
 158:/home/pi/Developer/tinyusb/src/common/tusb_fifo.c ****     HWFIFO_ADDR_NEXT(hwfifo, );
 675              		.loc 1 158 5 view .LVU206
 159:/home/pi/Developer/tinyusb/src/common/tusb_fifo.c ****   }
 676              		.loc 1 159 31 view .LVU207
 155:/home/pi/Developer/tinyusb/src/common/tusb_fifo.c ****     stride_write(hwfifo, src, data_stride);
 677              		.loc 1 155 9 view .LVU208
 678 0060 9A42     		cmp	r2, r3
 679 0062 F7D2     		bcs	.L50
 680              	.LVL59:
 681              	.L49:
 183:/home/pi/Developer/tinyusb/src/common/tusb_fifo.c ****     uint32_t tmp = 0u;
 682              		.loc 1 183 3 view .LVU209
 183:/home/pi/Developer/tinyusb/src/common/tusb_fifo.c ****     uint32_t tmp = 0u;
 683              		.loc 1 183 6 is_stmt 0 view .LVU210
 684 0064 002A     		cmp	r2, #0
 685 0066 78D1     		bne	.L96
 686              	.LVL60:
 687              	.L41:
 183:/home/pi/Developer/tinyusb/src/common/tusb_fifo.c ****     uint32_t tmp = 0u;
 688              		.loc 1 183 6 view .LVU211
 689              	.LBE289:
 690              	.LBE288:
 691              	.LBE287:
 692              	.LBE286:
 484:/home/pi/Developer/tinyusb/src/common/tusb_fifo.c ****   } else
 485:/home/pi/Developer/tinyusb/src/common/tusb_fifo.c **** #endif
 486:/home/pi/Developer/tinyusb/src/common/tusb_fifo.c ****   {
 487:/home/pi/Developer/tinyusb/src/common/tusb_fifo.c ****     (void)access_mode;
 488:/home/pi/Developer/tinyusb/src/common/tusb_fifo.c ****     ff_pull_n(f, p_buffer, n, rd_ptr);
 489:/home/pi/Developer/tinyusb/src/common/tusb_fifo.c ****   }
 490:/home/pi/Developer/tinyusb/src/common/tusb_fifo.c **** 
 491:/home/pi/Developer/tinyusb/src/common/tusb_fifo.c ****   return n;
 492:/home/pi/Developer/tinyusb/src/common/tusb_fifo.c **** }
 693              		.loc 1 492 1 view .LVU212
 694 0068 3046     		mov	r0, r6
 695 006a 05B0     		add	sp, sp, #20
 696              		.cfi_remember_state
ARM GAS  /tmp/cc4ocKfo.s 			page 34


 697              		.cfi_def_cfa_offset 36
 698              		@ sp needed
 699 006c BDE8F08F 		pop	{r4, r5, r6, r7, r8, r9, r10, fp, pc}
 700              	.LVL61:
 701              	.L95:
 702              		.cfi_restore_state
 471:/home/pi/Developer/tinyusb/src/common/tusb_fifo.c ****     count  = f->depth;
 703              		.loc 1 471 5 is_stmt 1 view .LVU213
 704              	.LBB413:
 705              	.LBI413:
 444:/home/pi/Developer/tinyusb/src/common/tusb_fifo.c ****   uint16_t rd_idx;
 706              		.loc 1 444 17 view .LVU214
 707              	.LBB414:
 445:/home/pi/Developer/tinyusb/src/common/tusb_fifo.c ****   if (wr_idx >= f->depth) {
 708              		.loc 1 445 3 view .LVU215
 446:/home/pi/Developer/tinyusb/src/common/tusb_fifo.c ****     rd_idx = wr_idx - f->depth;
 709              		.loc 1 446 3 view .LVU216
 446:/home/pi/Developer/tinyusb/src/common/tusb_fifo.c ****     rd_idx = wr_idx - f->depth;
 710              		.loc 1 446 6 is_stmt 0 view .LVU217
 711 0070 9D42     		cmp	r5, r3
 447:/home/pi/Developer/tinyusb/src/common/tusb_fifo.c ****   } else {
 712              		.loc 1 447 5 is_stmt 1 view .LVU218
 452:/home/pi/Developer/tinyusb/src/common/tusb_fifo.c ****   return rd_idx;
 713              		.loc 1 452 13 is_stmt 0 view .LVU219
 714 0072 2E46     		mov	r6, r5
 715              	.LVL62:
 447:/home/pi/Developer/tinyusb/src/common/tusb_fifo.c ****   } else {
 716              		.loc 1 447 12 view .LVU220
 717 0074 94BF     		ite	ls
 718 0076 5B1B     		subls	r3, r3, r5
 719              	.LVL63:
 449:/home/pi/Developer/tinyusb/src/common/tusb_fifo.c ****   }
 720              		.loc 1 449 5 is_stmt 1 view .LVU221
 449:/home/pi/Developer/tinyusb/src/common/tusb_fifo.c ****   }
 721              		.loc 1 449 12 is_stmt 0 view .LVU222
 722 0078 5B19     		addhi	r3, r3, r5
 723 007a 9CB2     		uxth	r4, r3
 724              	.LVL64:
 452:/home/pi/Developer/tinyusb/src/common/tusb_fifo.c ****   return rd_idx;
 725              		.loc 1 452 3 is_stmt 1 view .LVU223
 452:/home/pi/Developer/tinyusb/src/common/tusb_fifo.c ****   return rd_idx;
 726              		.loc 1 452 13 is_stmt 0 view .LVU224
 727 007c 4481     		strh	r4, [r0, #10]	@ movhi
 453:/home/pi/Developer/tinyusb/src/common/tusb_fifo.c **** }
 728              		.loc 1 453 3 is_stmt 1 view .LVU225
 729              	.LVL65:
 453:/home/pi/Developer/tinyusb/src/common/tusb_fifo.c **** }
 730              		.loc 1 453 3 is_stmt 0 view .LVU226
 731              	.LBE414:
 732              	.LBE413:
 472:/home/pi/Developer/tinyusb/src/common/tusb_fifo.c ****   }
 733              		.loc 1 472 5 is_stmt 1 view .LVU227
 472:/home/pi/Developer/tinyusb/src/common/tusb_fifo.c ****   }
 734              		.loc 1 472 5 is_stmt 0 view .LVU228
 735 007e D0E7     		b	.L42
 736              	.LVL66:
 737              	.L48:
ARM GAS  /tmp/cc4ocKfo.s 			page 35


 738              	.LBB415:
 739              	.LBB408:
 740              	.LBB304:
 339:/home/pi/Developer/tinyusb/src/common/tusb_fifo.c ****     const uint32_t odd_mask    = data_stride - 1;
 741              		.loc 1 339 5 is_stmt 1 view .LVU229
 339:/home/pi/Developer/tinyusb/src/common/tusb_fifo.c ****     const uint32_t odd_mask    = data_stride - 1;
 742              		.loc 1 339 20 is_stmt 0 view .LVU230
 743 0080 91F800A0 		ldrb	r10, [r1]	@ zero_extendqisi2
 744              	.LVL67:
 340:/home/pi/Developer/tinyusb/src/common/tusb_fifo.c ****     uint16_t       lin_even    = (uint16_t)(lin_bytes & ~odd_mask);
 745              		.loc 1 340 5 is_stmt 1 view .LVU231
 341:/home/pi/Developer/tinyusb/src/common/tusb_fifo.c ****     tu_hwfifo_write(hwfifo, ff_buf, lin_even, access_mode);
 746              		.loc 1 341 5 view .LVU232
 341:/home/pi/Developer/tinyusb/src/common/tusb_fifo.c ****     tu_hwfifo_write(hwfifo, ff_buf, lin_even, access_mode);
 747              		.loc 1 341 34 is_stmt 0 view .LVU233
 748 0084 CAF10002 		rsb	r2, r10, #0
 749              	.LBB305:
 750              	.LBB306:
 155:/home/pi/Developer/tinyusb/src/common/tusb_fifo.c ****     stride_write(hwfifo, src, data_stride);
 751              		.loc 1 155 14 view .LVU234
 752 0088 1FFA8AF8 		uxth	r8, r10
 753              	.LBE306:
 754              	.LBE305:
 341:/home/pi/Developer/tinyusb/src/common/tusb_fifo.c ****     tu_hwfifo_write(hwfifo, ff_buf, lin_even, access_mode);
 755              		.loc 1 341 20 view .LVU235
 756 008c 1A40     		ands	r2, r2, r3
 757              	.LBB329:
 758              	.LBB324:
 155:/home/pi/Developer/tinyusb/src/common/tusb_fifo.c ****     stride_write(hwfifo, src, data_stride);
 759              		.loc 1 155 9 view .LVU236
 760 008e 5245     		cmp	r2, r10
 761              	.LBE324:
 762              	.LBE329:
 341:/home/pi/Developer/tinyusb/src/common/tusb_fifo.c ****     tu_hwfifo_write(hwfifo, ff_buf, lin_even, access_mode);
 763              		.loc 1 341 20 view .LVU237
 764 0090 0092     		str	r2, [sp]
 765              	.LVL68:
 342:/home/pi/Developer/tinyusb/src/common/tusb_fifo.c ****     HWFIFO_ADDR_NEXT_N(hwfifo, , lin_even * HWFIFO_ADDR_DATA_RATIO);
 766              		.loc 1 342 5 is_stmt 1 view .LVU238
 767              	.LBB330:
 768              	.LBI305:
 152:/home/pi/Developer/tinyusb/src/common/tusb_fifo.c ****   // Write full available 16/32 bit words to dest
 769              		.loc 1 152 6 view .LVU239
 770              	.LBB325:
 154:/home/pi/Developer/tinyusb/src/common/tusb_fifo.c ****   while (len >= data_stride) {
 771              		.loc 1 154 3 view .LVU240
 159:/home/pi/Developer/tinyusb/src/common/tusb_fifo.c ****   }
 772              		.loc 1 159 31 view .LVU241
 155:/home/pi/Developer/tinyusb/src/common/tusb_fifo.c ****     stride_write(hwfifo, src, data_stride);
 773              		.loc 1 155 9 view .LVU242
 774 0092 C0F08E80 		bcc	.L65
 775              	.LBE325:
 776              	.LBE330:
 777              	.LBE304:
 778              	.LBB396:
 779              	.LBB301:
 157:/home/pi/Developer/tinyusb/src/common/tusb_fifo.c ****     len -= data_stride;
ARM GAS  /tmp/cc4ocKfo.s 			page 36


 780              		.loc 1 157 9 is_stmt 0 view .LVU243
 781 0096 4946     		mov	r1, r9
 782              	.LVL69:
 783              	.L52:
 157:/home/pi/Developer/tinyusb/src/common/tusb_fifo.c ****     len -= data_stride;
 784              		.loc 1 157 9 view .LVU244
 785              	.LBE301:
 786              	.LBE396:
 787              	.LBB397:
 788              	.LBB331:
 789              	.LBB326:
 156:/home/pi/Developer/tinyusb/src/common/tusb_fifo.c ****     src += data_stride;
 790              		.loc 1 156 5 is_stmt 1 view .LVU245
 791              	.LBB307:
 792              	.LBI307:
 126:/home/pi/Developer/tinyusb/src/common/tusb_fifo.c ****   (void)data_stride; // possible unused
 793              		.loc 1 126 42 view .LVU246
 794              	.LBB308:
 127:/home/pi/Developer/tinyusb/src/common/tusb_fifo.c ****     #if CFG_TUSB_FIFO_HWFIFO_DATA_STRIDE & 4
 795              		.loc 1 127 3 view .LVU247
 133:/home/pi/Developer/tinyusb/src/common/tusb_fifo.c ****   }
 796              		.loc 1 133 5 view .LVU248
 797              	.LBB309:
 798              	.LBI309:
 314:/home/pi/Developer/tinyusb/src/common/tusb_common.h ****   return *((uint32_t const *) mem);
 799              		.loc 2 314 46 view .LVU249
 800              	.LBB310:
 315:/home/pi/Developer/tinyusb/src/common/tusb_common.h **** }
 801              		.loc 2 315 3 view .LVU250
 802              	.LBE310:
 803              	.LBE309:
 804              	.LBE308:
 805              	.LBE307:
 158:/home/pi/Developer/tinyusb/src/common/tusb_fifo.c ****     HWFIFO_ADDR_NEXT(hwfifo, );
 806              		.loc 1 158 9 is_stmt 0 view .LVU251
 807 0098 A2EB0802 		sub	r2, r2, r8
 808              	.LVL70:
 809              	.LBB315:
 810              	.LBB313:
 811              	.LBB312:
 812              	.LBB311:
 315:/home/pi/Developer/tinyusb/src/common/tusb_common.h **** }
 813              		.loc 2 315 10 view .LVU252
 814 009c 0868     		ldr	r0, [r1]
 815              	.LVL71:
 315:/home/pi/Developer/tinyusb/src/common/tusb_common.h **** }
 816              		.loc 2 315 10 view .LVU253
 817              	.LBE311:
 818              	.LBE312:
 819              	.LBE313:
 820              	.LBE315:
 157:/home/pi/Developer/tinyusb/src/common/tusb_fifo.c ****     len -= data_stride;
 821              		.loc 1 157 9 view .LVU254
 822 009e 5144     		add	r1, r1, r10
 823              	.LVL72:
 158:/home/pi/Developer/tinyusb/src/common/tusb_fifo.c ****     HWFIFO_ADDR_NEXT(hwfifo, );
 824              		.loc 1 158 9 view .LVU255
ARM GAS  /tmp/cc4ocKfo.s 			page 37


 825 00a0 92B2     		uxth	r2, r2
 826              	.LBB316:
 827              	.LBB314:
 133:/home/pi/Developer/tinyusb/src/common/tusb_fifo.c ****   }
 828              		.loc 1 133 36 view .LVU256
 829 00a2 3860     		str	r0, [r7]
 830              	.LVL73:
 133:/home/pi/Developer/tinyusb/src/common/tusb_fifo.c ****   }
 831              		.loc 1 133 36 view .LVU257
 832              	.LBE314:
 833              	.LBE316:
 157:/home/pi/Developer/tinyusb/src/common/tusb_fifo.c ****     len -= data_stride;
 834              		.loc 1 157 5 is_stmt 1 view .LVU258
 158:/home/pi/Developer/tinyusb/src/common/tusb_fifo.c ****     HWFIFO_ADDR_NEXT(hwfifo, );
 835              		.loc 1 158 5 view .LVU259
 159:/home/pi/Developer/tinyusb/src/common/tusb_fifo.c ****   }
 836              		.loc 1 159 31 view .LVU260
 155:/home/pi/Developer/tinyusb/src/common/tusb_fifo.c ****     stride_write(hwfifo, src, data_stride);
 837              		.loc 1 155 9 view .LVU261
 838 00a4 4245     		cmp	r2, r8
 839 00a6 F7D2     		bcs	.L52
 183:/home/pi/Developer/tinyusb/src/common/tusb_fifo.c ****     uint32_t tmp = 0u;
 840              		.loc 1 183 3 view .LVU262
 183:/home/pi/Developer/tinyusb/src/common/tusb_fifo.c ****     uint32_t tmp = 0u;
 841              		.loc 1 183 6 is_stmt 0 view .LVU263
 842 00a8 002A     		cmp	r2, #0
 843 00aa 62D1     		bne	.L97
 844              	.LVL74:
 845              	.L53:
 183:/home/pi/Developer/tinyusb/src/common/tusb_fifo.c ****     uint32_t tmp = 0u;
 846              		.loc 1 183 6 view .LVU264
 847              	.LBE326:
 848              	.LBE331:
 347:/home/pi/Developer/tinyusb/src/common/tusb_fifo.c ****     if (lin_odd > 0) {
 849              		.loc 1 347 29 view .LVU265
 850 00ac 0AF1FF32 		add	r2, r10, #-1
 851              	.LBE397:
 323:/home/pi/Developer/tinyusb/src/common/tusb_fifo.c ****   const uint8_t *ff_buf     = f->buffer + rd_ptr;
 852              		.loc 1 323 18 view .LVU266
 853 00b0 751B     		subs	r5, r6, r5
 854              	.LVL75:
 855              	.LBB398:
 347:/home/pi/Developer/tinyusb/src/common/tusb_fifo.c ****     if (lin_odd > 0) {
 856              		.loc 1 347 19 view .LVU267
 857 00b2 1340     		ands	r3, r3, r2
 858              	.LBE398:
 323:/home/pi/Developer/tinyusb/src/common/tusb_fifo.c ****   const uint8_t *ff_buf     = f->buffer + rd_ptr;
 859              		.loc 1 323 18 view .LVU268
 860 00b4 2C44     		add	r4, r4, r5
 861              	.LVL76:
 862              	.LBB399:
 348:/home/pi/Developer/tinyusb/src/common/tusb_fifo.c ****       const uint8_t wrap_odd = (uint8_t)tu_min16(wrap_bytes, data_stride - lin_odd);
 863              		.loc 1 348 8 view .LVU269
 864 00b6 13F0FF02 		ands	r2, r3, #255
 865              	.LBE399:
 323:/home/pi/Developer/tinyusb/src/common/tusb_fifo.c ****   const uint8_t *ff_buf     = f->buffer + rd_ptr;
 866              		.loc 1 323 18 view .LVU270
ARM GAS  /tmp/cc4ocKfo.s 			page 38


 867 00ba A4B2     		uxth	r4, r4
 868              	.LVL77:
 869              	.LBB400:
 343:/home/pi/Developer/tinyusb/src/common/tusb_fifo.c ****     ff_buf += lin_even;
 870              		.loc 1 343 68 is_stmt 1 view .LVU271
 344:/home/pi/Developer/tinyusb/src/common/tusb_fifo.c **** 
 871              		.loc 1 344 5 view .LVU272
 347:/home/pi/Developer/tinyusb/src/common/tusb_fifo.c ****     if (lin_odd > 0) {
 872              		.loc 1 347 5 view .LVU273
 348:/home/pi/Developer/tinyusb/src/common/tusb_fifo.c ****       const uint8_t wrap_odd = (uint8_t)tu_min16(wrap_bytes, data_stride - lin_odd);
 873              		.loc 1 348 5 view .LVU274
 348:/home/pi/Developer/tinyusb/src/common/tusb_fifo.c ****       const uint8_t wrap_odd = (uint8_t)tu_min16(wrap_bytes, data_stride - lin_odd);
 874              		.loc 1 348 8 is_stmt 0 view .LVU275
 875 00bc 2CD0     		beq	.L54
 876              	.LBB332:
 349:/home/pi/Developer/tinyusb/src/common/tusb_fifo.c **** 
 877              		.loc 1 349 7 is_stmt 1 view .LVU276
 349:/home/pi/Developer/tinyusb/src/common/tusb_fifo.c **** 
 878              		.loc 1 349 41 is_stmt 0 view .LVU277
 879 00be A8EB0205 		sub	r5, r8, r2
 880              	.LBB333:
 353:/home/pi/Developer/tinyusb/src/common/tusb_fifo.c ****       }
 881              		.loc 1 353 21 view .LVU278
 882 00c2 009B     		ldr	r3, [sp]
 883              	.LVL78:
 353:/home/pi/Developer/tinyusb/src/common/tusb_fifo.c ****       }
 884              		.loc 1 353 21 view .LVU279
 885 00c4 02A8     		add	r0, sp, #8
 886              	.LBE333:
 349:/home/pi/Developer/tinyusb/src/common/tusb_fifo.c **** 
 887              		.loc 1 349 41 view .LVU280
 888 00c6 0092     		str	r2, [sp]
 889              	.LVL79:
 890              	.LBB334:
 891              	.LBB335:
 206:/home/pi/Developer/tinyusb/src/common/tusb_common.h **** TU_ATTR_ALWAYS_INLINE static inline uint32_t tu_min32 (uint32_t x, uint32_t y) { return (x < y) ? x
 892              		.loc 2 206 101 view .LVU281
 893 00c8 ADB2     		uxth	r5, r5
 894              	.LBE335:
 895              	.LBE334:
 896              	.LBB338:
 353:/home/pi/Developer/tinyusb/src/common/tusb_fifo.c ****       }
 897              		.loc 1 353 21 view .LVU282
 898 00ca 4B44     		add	r3, r3, r9
 899              	.LBE338:
 349:/home/pi/Developer/tinyusb/src/common/tusb_fifo.c **** 
 900              		.loc 1 349 41 view .LVU283
 901 00cc 1FFA82F9 		uxth	r9, r2
 902              	.LVL80:
 903              	.LBB339:
 904              	.LBI334:
 206:/home/pi/Developer/tinyusb/src/common/tusb_common.h **** TU_ATTR_ALWAYS_INLINE static inline uint32_t tu_min32 (uint32_t x, uint32_t y) { return (x < y) ? x
 905              		.loc 2 206 46 is_stmt 1 view .LVU284
 906              	.LBB336:
 206:/home/pi/Developer/tinyusb/src/common/tusb_common.h **** TU_ATTR_ALWAYS_INLINE static inline uint32_t tu_min32 (uint32_t x, uint32_t y) { return (x < y) ? x
 907              		.loc 2 206 82 view .LVU285
 206:/home/pi/Developer/tinyusb/src/common/tusb_common.h **** TU_ATTR_ALWAYS_INLINE static inline uint32_t tu_min32 (uint32_t x, uint32_t y) { return (x < y) ? x
ARM GAS  /tmp/cc4ocKfo.s 			page 39


 908              		.loc 2 206 101 is_stmt 0 view .LVU286
 909 00d0 A542     		cmp	r5, r4
 910              	.LBE336:
 911              	.LBE339:
 912              	.LBB340:
 353:/home/pi/Developer/tinyusb/src/common/tusb_fifo.c ****       }
 913              		.loc 1 353 21 view .LVU287
 914 00d2 1946     		mov	r1, r3
 915              	.LBE340:
 916              	.LBB341:
 917              	.LBB337:
 206:/home/pi/Developer/tinyusb/src/common/tusb_common.h **** TU_ATTR_ALWAYS_INLINE static inline uint32_t tu_min32 (uint32_t x, uint32_t y) { return (x < y) ? x
 918              		.loc 2 206 101 view .LVU288
 919 00d4 28BF     		it	cs
 920 00d6 2546     		movcs	r5, r4
 921              	.LBE337:
 922              	.LBE341:
 923              	.LBB342:
 353:/home/pi/Developer/tinyusb/src/common/tusb_fifo.c ****       }
 924              		.loc 1 353 21 view .LVU289
 925 00d8 FFF7FEFF 		bl	memcpy
 926              	.LVL81:
 927              	.LBE342:
 928              	.LBB343:
 355:/home/pi/Developer/tinyusb/src/common/tusb_fifo.c ****         buf_temp[lin_odd + i] = f->buffer[i];
 929              		.loc 1 355 7 view .LVU290
 930 00dc 009A     		ldr	r2, [sp]
 931              	.LBE343:
 349:/home/pi/Developer/tinyusb/src/common/tusb_fifo.c **** 
 932              		.loc 1 349 21 view .LVU291
 933 00de EDB2     		uxtb	r5, r5
 934              	.LVL82:
 351:/home/pi/Developer/tinyusb/src/common/tusb_fifo.c ****       for (uint8_t i = 0; i < lin_odd; ++i) {
 935              		.loc 1 351 7 is_stmt 1 view .LVU292
 352:/home/pi/Developer/tinyusb/src/common/tusb_fifo.c ****         buf_temp[i] = ff_buf[i];
 936              		.loc 1 352 7 view .LVU293
 937              	.LBB344:
 352:/home/pi/Developer/tinyusb/src/common/tusb_fifo.c ****         buf_temp[i] = ff_buf[i];
 938              		.loc 1 352 12 view .LVU294
 352:/home/pi/Developer/tinyusb/src/common/tusb_fifo.c ****         buf_temp[i] = ff_buf[i];
 939              		.loc 1 352 27 view .LVU295
 352:/home/pi/Developer/tinyusb/src/common/tusb_fifo.c ****         buf_temp[i] = ff_buf[i];
 940              		.loc 1 352 27 is_stmt 0 view .LVU296
 941              	.LBE344:
 942              	.LBB345:
 355:/home/pi/Developer/tinyusb/src/common/tusb_fifo.c ****         buf_temp[lin_odd + i] = f->buffer[i];
 943              		.loc 1 355 27 is_stmt 1 view .LVU297
 355:/home/pi/Developer/tinyusb/src/common/tusb_fifo.c ****         buf_temp[lin_odd + i] = f->buffer[i];
 944              		.loc 1 355 7 is_stmt 0 view .LVU298
 945 00e0 2DB1     		cbz	r5, .L58
 356:/home/pi/Developer/tinyusb/src/common/tusb_fifo.c ****       }
 946              		.loc 1 356 31 view .LVU299
 947 00e2 02AB     		add	r3, sp, #8
 948 00e4 5946     		mov	r1, fp
 949 00e6 9818     		adds	r0, r3, r2
 950 00e8 2A46     		mov	r2, r5
 951 00ea FFF7FEFF 		bl	memcpy
ARM GAS  /tmp/cc4ocKfo.s 			page 40


 952              	.LVL83:
 953              	.L58:
 356:/home/pi/Developer/tinyusb/src/common/tusb_fifo.c ****       }
 954              		.loc 1 356 31 view .LVU300
 955              	.LBE345:
 359:/home/pi/Developer/tinyusb/src/common/tusb_fifo.c ****       HWFIFO_ADDR_NEXT(hwfifo, );
 956              		.loc 1 359 7 is_stmt 1 view .LVU301
 957 00ee 09EB0502 		add	r2, r9, r5
 958              	.LVL84:
 959              	.LBB346:
 960              	.LBI346:
 152:/home/pi/Developer/tinyusb/src/common/tusb_fifo.c ****   // Write full available 16/32 bit words to dest
 961              		.loc 1 152 6 view .LVU302
 962              	.LBB347:
 154:/home/pi/Developer/tinyusb/src/common/tusb_fifo.c ****   while (len >= data_stride) {
 963              		.loc 1 154 3 view .LVU303
 159:/home/pi/Developer/tinyusb/src/common/tusb_fifo.c ****   }
 964              		.loc 1 159 31 view .LVU304
 155:/home/pi/Developer/tinyusb/src/common/tusb_fifo.c ****     stride_write(hwfifo, src, data_stride);
 965              		.loc 1 155 9 view .LVU305
 966              	.LBE347:
 967              	.LBE346:
 968              	.LBE332:
 969              	.LBE400:
 970              	.LBB401:
 971              	.LBB302:
 157:/home/pi/Developer/tinyusb/src/common/tusb_fifo.c ****     len -= data_stride;
 972              		.loc 1 157 9 is_stmt 0 view .LVU306
 973 00f2 02A9     		add	r1, sp, #8
 974              	.LVL85:
 157:/home/pi/Developer/tinyusb/src/common/tusb_fifo.c ****     len -= data_stride;
 975              		.loc 1 157 9 view .LVU307
 976 00f4 1FFA85F9 		uxth	r9, r5
 977              	.LBE302:
 978              	.LBE401:
 979              	.LBB402:
 980              	.LBB367:
 981              	.LBB365:
 982              	.LBB363:
 155:/home/pi/Developer/tinyusb/src/common/tusb_fifo.c ****     stride_write(hwfifo, src, data_stride);
 983              		.loc 1 155 9 view .LVU308
 984 00f8 4245     		cmp	r2, r8
 985 00fa 52D3     		bcc	.L57
 986              	.L59:
 156:/home/pi/Developer/tinyusb/src/common/tusb_fifo.c ****     src += data_stride;
 987              		.loc 1 156 5 is_stmt 1 view .LVU309
 988              	.LVL86:
 989              	.LBB348:
 990              	.LBI348:
 126:/home/pi/Developer/tinyusb/src/common/tusb_fifo.c ****   (void)data_stride; // possible unused
 991              		.loc 1 126 42 view .LVU310
 992              	.LBB349:
 127:/home/pi/Developer/tinyusb/src/common/tusb_fifo.c ****     #if CFG_TUSB_FIFO_HWFIFO_DATA_STRIDE & 4
 993              		.loc 1 127 3 view .LVU311
 133:/home/pi/Developer/tinyusb/src/common/tusb_fifo.c ****   }
 994              		.loc 1 133 5 view .LVU312
 995              	.LBB350:
ARM GAS  /tmp/cc4ocKfo.s 			page 41


 996              	.LBI350:
 314:/home/pi/Developer/tinyusb/src/common/tusb_common.h ****   return *((uint32_t const *) mem);
 997              		.loc 2 314 46 view .LVU313
 998              	.LBB351:
 315:/home/pi/Developer/tinyusb/src/common/tusb_common.h **** }
 999              		.loc 2 315 3 view .LVU314
 1000              	.LBE351:
 1001              	.LBE350:
 1002              	.LBE349:
 1003              	.LBE348:
 158:/home/pi/Developer/tinyusb/src/common/tusb_fifo.c ****     HWFIFO_ADDR_NEXT(hwfifo, );
 1004              		.loc 1 158 9 is_stmt 0 view .LVU315
 1005 00fc A2EB0802 		sub	r2, r2, r8
 1006              	.LVL87:
 1007              	.LBB356:
 1008              	.LBB354:
 1009              	.LBB353:
 1010              	.LBB352:
 315:/home/pi/Developer/tinyusb/src/common/tusb_common.h **** }
 1011              		.loc 2 315 10 view .LVU316
 1012 0100 0B68     		ldr	r3, [r1]
 1013              	.LVL88:
 315:/home/pi/Developer/tinyusb/src/common/tusb_common.h **** }
 1014              		.loc 2 315 10 view .LVU317
 1015              	.LBE352:
 1016              	.LBE353:
 1017              	.LBE354:
 1018              	.LBE356:
 157:/home/pi/Developer/tinyusb/src/common/tusb_fifo.c ****     len -= data_stride;
 1019              		.loc 1 157 9 view .LVU318
 1020 0102 5144     		add	r1, r1, r10
 1021              	.LVL89:
 158:/home/pi/Developer/tinyusb/src/common/tusb_fifo.c ****     HWFIFO_ADDR_NEXT(hwfifo, );
 1022              		.loc 1 158 9 view .LVU319
 1023 0104 92B2     		uxth	r2, r2
 1024              	.LBB357:
 1025              	.LBB355:
 133:/home/pi/Developer/tinyusb/src/common/tusb_fifo.c ****   }
 1026              		.loc 1 133 36 view .LVU320
 1027 0106 3B60     		str	r3, [r7]
 1028              	.LVL90:
 133:/home/pi/Developer/tinyusb/src/common/tusb_fifo.c ****   }
 1029              		.loc 1 133 36 view .LVU321
 1030              	.LBE355:
 1031              	.LBE357:
 157:/home/pi/Developer/tinyusb/src/common/tusb_fifo.c ****     len -= data_stride;
 1032              		.loc 1 157 5 is_stmt 1 view .LVU322
 158:/home/pi/Developer/tinyusb/src/common/tusb_fifo.c ****     HWFIFO_ADDR_NEXT(hwfifo, );
 1033              		.loc 1 158 5 view .LVU323
 159:/home/pi/Developer/tinyusb/src/common/tusb_fifo.c ****   }
 1034              		.loc 1 159 31 view .LVU324
 155:/home/pi/Developer/tinyusb/src/common/tusb_fifo.c ****     stride_write(hwfifo, src, data_stride);
 1035              		.loc 1 155 9 view .LVU325
 1036 0108 4245     		cmp	r2, r8
 1037 010a F7D2     		bcs	.L59
 183:/home/pi/Developer/tinyusb/src/common/tusb_fifo.c ****     uint32_t tmp = 0u;
 1038              		.loc 1 183 3 view .LVU326
ARM GAS  /tmp/cc4ocKfo.s 			page 42


 183:/home/pi/Developer/tinyusb/src/common/tusb_fifo.c ****     uint32_t tmp = 0u;
 1039              		.loc 1 183 6 is_stmt 0 view .LVU327
 1040 010c 002A     		cmp	r2, #0
 1041 010e 48D1     		bne	.L57
 1042              	.LVL91:
 1043              	.L60:
 183:/home/pi/Developer/tinyusb/src/common/tusb_fifo.c ****     uint32_t tmp = 0u;
 1044              		.loc 1 183 6 view .LVU328
 1045              	.LBE363:
 1046              	.LBE365:
 360:/home/pi/Developer/tinyusb/src/common/tusb_fifo.c **** 
 1047              		.loc 1 360 33 is_stmt 1 view .LVU329
 362:/home/pi/Developer/tinyusb/src/common/tusb_fifo.c ****       ff_buf = f->buffer + wrap_odd; // wrap around
 1048              		.loc 1 362 7 view .LVU330
 362:/home/pi/Developer/tinyusb/src/common/tusb_fifo.c ****       ff_buf = f->buffer + wrap_odd; // wrap around
 1049              		.loc 1 362 18 is_stmt 0 view .LVU331
 1050 0110 A4EB0904 		sub	r4, r4, r9
 363:/home/pi/Developer/tinyusb/src/common/tusb_fifo.c ****     } else {
 1051              		.loc 1 363 14 view .LVU332
 1052 0114 AB44     		add	fp, fp, r5
 362:/home/pi/Developer/tinyusb/src/common/tusb_fifo.c ****       ff_buf = f->buffer + wrap_odd; // wrap around
 1053              		.loc 1 362 18 view .LVU333
 1054 0116 A4B2     		uxth	r4, r4
 1055              	.LVL92:
 363:/home/pi/Developer/tinyusb/src/common/tusb_fifo.c ****     } else {
 1056              		.loc 1 363 7 is_stmt 1 view .LVU334
 1057              	.L54:
 363:/home/pi/Developer/tinyusb/src/common/tusb_fifo.c ****     } else {
 1058              		.loc 1 363 7 is_stmt 0 view .LVU335
 1059              	.LBE367:
 369:/home/pi/Developer/tinyusb/src/common/tusb_fifo.c ****       tu_hwfifo_write(hwfifo, ff_buf, wrap_bytes, access_mode);
 1060              		.loc 1 369 5 is_stmt 1 view .LVU336
 369:/home/pi/Developer/tinyusb/src/common/tusb_fifo.c ****       tu_hwfifo_write(hwfifo, ff_buf, wrap_bytes, access_mode);
 1061              		.loc 1 369 8 is_stmt 0 view .LVU337
 1062 0118 002C     		cmp	r4, #0
 1063 011a A5D0     		beq	.L41
 1064              	.LVL93:
 1065              	.LBB368:
 1066              	.LBB369:
 159:/home/pi/Developer/tinyusb/src/common/tusb_fifo.c ****   }
 1067              		.loc 1 159 31 is_stmt 1 view .LVU338
 155:/home/pi/Developer/tinyusb/src/common/tusb_fifo.c ****     stride_write(hwfifo, src, data_stride);
 1068              		.loc 1 155 9 view .LVU339
 1069 011c 4445     		cmp	r4, r8
 1070 011e 0AD3     		bcc	.L61
 1071              	.LVL94:
 1072              	.L62:
 156:/home/pi/Developer/tinyusb/src/common/tusb_fifo.c ****     src += data_stride;
 1073              		.loc 1 156 5 view .LVU340
 1074              	.LBB370:
 1075              	.LBI370:
 126:/home/pi/Developer/tinyusb/src/common/tusb_fifo.c ****   (void)data_stride; // possible unused
 1076              		.loc 1 126 42 view .LVU341
 1077              	.LBB371:
 127:/home/pi/Developer/tinyusb/src/common/tusb_fifo.c ****     #if CFG_TUSB_FIFO_HWFIFO_DATA_STRIDE & 4
 1078              		.loc 1 127 3 view .LVU342
 133:/home/pi/Developer/tinyusb/src/common/tusb_fifo.c ****   }
ARM GAS  /tmp/cc4ocKfo.s 			page 43


 1079              		.loc 1 133 5 view .LVU343
 1080              	.LBB372:
 1081              	.LBI372:
 314:/home/pi/Developer/tinyusb/src/common/tusb_common.h ****   return *((uint32_t const *) mem);
 1082              		.loc 2 314 46 view .LVU344
 1083              	.LBB373:
 315:/home/pi/Developer/tinyusb/src/common/tusb_common.h **** }
 1084              		.loc 2 315 3 view .LVU345
 1085              	.LBE373:
 1086              	.LBE372:
 1087              	.LBE371:
 1088              	.LBE370:
 158:/home/pi/Developer/tinyusb/src/common/tusb_fifo.c ****     HWFIFO_ADDR_NEXT(hwfifo, );
 1089              		.loc 1 158 9 is_stmt 0 view .LVU346
 1090 0120 A4EB0804 		sub	r4, r4, r8
 1091              	.LVL95:
 1092              	.LBB378:
 1093              	.LBB376:
 1094              	.LBB375:
 1095              	.LBB374:
 315:/home/pi/Developer/tinyusb/src/common/tusb_common.h **** }
 1096              		.loc 2 315 10 view .LVU347
 1097 0124 DBF80030 		ldr	r3, [fp]
 1098              	.LVL96:
 315:/home/pi/Developer/tinyusb/src/common/tusb_common.h **** }
 1099              		.loc 2 315 10 view .LVU348
 1100              	.LBE374:
 1101              	.LBE375:
 1102              	.LBE376:
 1103              	.LBE378:
 157:/home/pi/Developer/tinyusb/src/common/tusb_fifo.c ****     len -= data_stride;
 1104              		.loc 1 157 9 view .LVU349
 1105 0128 D344     		add	fp, fp, r10
 1106              	.LVL97:
 158:/home/pi/Developer/tinyusb/src/common/tusb_fifo.c ****     HWFIFO_ADDR_NEXT(hwfifo, );
 1107              		.loc 1 158 9 view .LVU350
 1108 012a A4B2     		uxth	r4, r4
 1109              	.LBB379:
 1110              	.LBB377:
 133:/home/pi/Developer/tinyusb/src/common/tusb_fifo.c ****   }
 1111              		.loc 1 133 36 view .LVU351
 1112 012c 3B60     		str	r3, [r7]
 1113              	.LVL98:
 133:/home/pi/Developer/tinyusb/src/common/tusb_fifo.c ****   }
 1114              		.loc 1 133 36 view .LVU352
 1115              	.LBE377:
 1116              	.LBE379:
 157:/home/pi/Developer/tinyusb/src/common/tusb_fifo.c ****     len -= data_stride;
 1117              		.loc 1 157 5 is_stmt 1 view .LVU353
 158:/home/pi/Developer/tinyusb/src/common/tusb_fifo.c ****     HWFIFO_ADDR_NEXT(hwfifo, );
 1118              		.loc 1 158 5 view .LVU354
 159:/home/pi/Developer/tinyusb/src/common/tusb_fifo.c ****   }
 1119              		.loc 1 159 31 view .LVU355
 155:/home/pi/Developer/tinyusb/src/common/tusb_fifo.c ****     stride_write(hwfifo, src, data_stride);
 1120              		.loc 1 155 9 view .LVU356
 1121 012e 4445     		cmp	r4, r8
 1122 0130 F6D2     		bcs	.L62
ARM GAS  /tmp/cc4ocKfo.s 			page 44


 183:/home/pi/Developer/tinyusb/src/common/tusb_fifo.c ****     uint32_t tmp = 0u;
 1123              		.loc 1 183 3 view .LVU357
 183:/home/pi/Developer/tinyusb/src/common/tusb_fifo.c ****     uint32_t tmp = 0u;
 1124              		.loc 1 183 6 is_stmt 0 view .LVU358
 1125 0132 002C     		cmp	r4, #0
 1126 0134 98D0     		beq	.L41
 1127              	.L61:
 1128              	.LBB380:
 184:/home/pi/Developer/tinyusb/src/common/tusb_fifo.c ****     memcpy(&tmp, src, len);
 1129              		.loc 1 184 5 is_stmt 1 view .LVU359
 184:/home/pi/Developer/tinyusb/src/common/tusb_fifo.c ****     memcpy(&tmp, src, len);
 1130              		.loc 1 184 14 is_stmt 0 view .LVU360
 1131 0136 0023     		movs	r3, #0
 185:/home/pi/Developer/tinyusb/src/common/tusb_fifo.c ****     stride_write(hwfifo, &tmp, data_stride);
 1132              		.loc 1 185 5 view .LVU361
 1133 0138 2246     		mov	r2, r4
 1134 013a 5946     		mov	r1, fp
 1135 013c 0FE0     		b	.L94
 1136              	.LVL99:
 1137              	.L47:
 185:/home/pi/Developer/tinyusb/src/common/tusb_fifo.c ****     stride_write(hwfifo, &tmp, data_stride);
 1138              		.loc 1 185 5 view .LVU362
 1139              	.LBE380:
 1140              	.LBE369:
 1141              	.LBE368:
 1142              	.LBE402:
 1143              	.LBE408:
 1144              	.LBE415:
 487:/home/pi/Developer/tinyusb/src/common/tusb_fifo.c ****     ff_pull_n(f, p_buffer, n, rd_ptr);
 1145              		.loc 1 487 5 is_stmt 1 view .LVU363
 488:/home/pi/Developer/tinyusb/src/common/tusb_fifo.c ****   }
 1146              		.loc 1 488 5 view .LVU364
 1147              	.LBB416:
 1148              	.LBI416:
 398:/home/pi/Developer/tinyusb/src/common/tusb_fifo.c ****   uint16_t       lin_bytes  = f->depth - rd_ptr;
 1149              		.loc 1 398 13 view .LVU365
 1150              	.LBB417:
 399:/home/pi/Developer/tinyusb/src/common/tusb_fifo.c ****   uint16_t       wrap_bytes = n - lin_bytes; // only used if wrapped
 1151              		.loc 1 399 3 view .LVU366
 399:/home/pi/Developer/tinyusb/src/common/tusb_fifo.c ****   uint16_t       wrap_bytes = n - lin_bytes; // only used if wrapped
 1152              		.loc 1 399 18 is_stmt 0 view .LVU367
 1153 013e A5EB0409 		sub	r9, r5, r4
 401:/home/pi/Developer/tinyusb/src/common/tusb_fifo.c **** 
 1154              		.loc 1 401 18 view .LVU368
 1155 0142 D8F80010 		ldr	r1, [r8]
 399:/home/pi/Developer/tinyusb/src/common/tusb_fifo.c ****   uint16_t       wrap_bytes = n - lin_bytes; // only used if wrapped
 1156              		.loc 1 399 18 view .LVU369
 1157 0146 1FFA89F9 		uxth	r9, r9
 1158              	.LVL100:
 400:/home/pi/Developer/tinyusb/src/common/tusb_fifo.c ****   const uint8_t *ff_buf     = f->buffer + rd_ptr;
 1159              		.loc 1 400 3 is_stmt 1 view .LVU370
 401:/home/pi/Developer/tinyusb/src/common/tusb_fifo.c **** 
 1160              		.loc 1 401 3 view .LVU371
 401:/home/pi/Developer/tinyusb/src/common/tusb_fifo.c **** 
 1161              		.loc 1 401 18 is_stmt 0 view .LVU372
 1162 014a 2144     		add	r1, r1, r4
 1163              	.LVL101:
ARM GAS  /tmp/cc4ocKfo.s 			page 45


 404:/home/pi/Developer/tinyusb/src/common/tusb_fifo.c ****     // Linear only
 1164              		.loc 1 404 3 is_stmt 1 view .LVU373
 404:/home/pi/Developer/tinyusb/src/common/tusb_fifo.c ****     // Linear only
 1165              		.loc 1 404 6 is_stmt 0 view .LVU374
 1166 014c 4E45     		cmp	r6, r9
 1167 014e 1AD8     		bhi	.L63
 406:/home/pi/Developer/tinyusb/src/common/tusb_fifo.c ****   } else {
 1168              		.loc 1 406 5 is_stmt 1 view .LVU375
 1169 0150 3246     		mov	r2, r6
 1170 0152 3846     		mov	r0, r7
 1171              	.LVL102:
 406:/home/pi/Developer/tinyusb/src/common/tusb_fifo.c ****   } else {
 1172              		.loc 1 406 5 is_stmt 0 view .LVU376
 1173 0154 FFF7FEFF 		bl	memcpy
 1174              	.LVL103:
 406:/home/pi/Developer/tinyusb/src/common/tusb_fifo.c ****   } else {
 1175              		.loc 1 406 5 view .LVU377
 1176 0158 86E7     		b	.L41
 1177              	.LVL104:
 1178              	.L96:
 406:/home/pi/Developer/tinyusb/src/common/tusb_fifo.c ****   } else {
 1179              		.loc 1 406 5 view .LVU378
 1180              	.LBE417:
 1181              	.LBE416:
 1182              	.LBB419:
 1183              	.LBB409:
 1184              	.LBB403:
 1185              	.LBB303:
 1186              	.LBB300:
 184:/home/pi/Developer/tinyusb/src/common/tusb_fifo.c ****     memcpy(&tmp, src, len);
 1187              		.loc 1 184 5 is_stmt 1 view .LVU379
 184:/home/pi/Developer/tinyusb/src/common/tusb_fifo.c ****     memcpy(&tmp, src, len);
 1188              		.loc 1 184 14 is_stmt 0 view .LVU380
 1189 015a 0023     		movs	r3, #0
 185:/home/pi/Developer/tinyusb/src/common/tusb_fifo.c ****     stride_write(hwfifo, &tmp, data_stride);
 1190              		.loc 1 185 5 view .LVU381
 1191 015c 4946     		mov	r1, r9
 1192              	.LVL105:
 1193              	.L94:
 185:/home/pi/Developer/tinyusb/src/common/tusb_fifo.c ****     stride_write(hwfifo, &tmp, data_stride);
 1194              		.loc 1 185 5 view .LVU382
 1195              	.LBE300:
 1196              	.LBE303:
 1197              	.LBE403:
 1198              	.LBB404:
 1199              	.LBB391:
 1200              	.LBB389:
 1201              	.LBB387:
 1202 015e 03A8     		add	r0, sp, #12
 184:/home/pi/Developer/tinyusb/src/common/tusb_fifo.c ****     memcpy(&tmp, src, len);
 1203              		.loc 1 184 14 view .LVU383
 1204 0160 0393     		str	r3, [sp, #12]
 185:/home/pi/Developer/tinyusb/src/common/tusb_fifo.c ****     stride_write(hwfifo, &tmp, data_stride);
 1205              		.loc 1 185 5 is_stmt 1 view .LVU384
 1206 0162 FFF7FEFF 		bl	memcpy
 1207              	.LVL106:
 186:/home/pi/Developer/tinyusb/src/common/tusb_fifo.c ****     HWFIFO_ADDR_NEXT(hwfifo, );
ARM GAS  /tmp/cc4ocKfo.s 			page 46


 1208              		.loc 1 186 5 view .LVU385
 1209              	.LBB381:
 1210              	.LBI381:
 126:/home/pi/Developer/tinyusb/src/common/tusb_fifo.c ****   (void)data_stride; // possible unused
 1211              		.loc 1 126 42 view .LVU386
 1212              	.LBB382:
 127:/home/pi/Developer/tinyusb/src/common/tusb_fifo.c ****     #if CFG_TUSB_FIFO_HWFIFO_DATA_STRIDE & 4
 1213              		.loc 1 127 3 view .LVU387
 133:/home/pi/Developer/tinyusb/src/common/tusb_fifo.c ****   }
 1214              		.loc 1 133 5 view .LVU388
 1215              	.LBB383:
 1216              	.LBI383:
 314:/home/pi/Developer/tinyusb/src/common/tusb_common.h ****   return *((uint32_t const *) mem);
 1217              		.loc 2 314 46 view .LVU389
 1218              	.LBB384:
 315:/home/pi/Developer/tinyusb/src/common/tusb_common.h **** }
 1219              		.loc 2 315 3 view .LVU390
 315:/home/pi/Developer/tinyusb/src/common/tusb_common.h **** }
 1220              		.loc 2 315 10 is_stmt 0 view .LVU391
 1221 0166 039B     		ldr	r3, [sp, #12]
 1222              	.LVL107:
 315:/home/pi/Developer/tinyusb/src/common/tusb_common.h **** }
 1223              		.loc 2 315 10 view .LVU392
 1224              	.LBE384:
 1225              	.LBE383:
 1226              	.LBE382:
 1227              	.LBE381:
 1228              	.LBE387:
 1229              	.LBE389:
 1230              	.LBE391:
 1231              	.LBE404:
 1232              	.LBE409:
 1233              	.LBE419:
 1234              		.loc 1 492 1 view .LVU393
 1235 0168 3046     		mov	r0, r6
 1236              	.LBB420:
 1237              	.LBB410:
 1238              	.LBB405:
 1239              	.LBB392:
 1240              	.LBB390:
 1241              	.LBB388:
 1242              	.LBB386:
 1243              	.LBB385:
 133:/home/pi/Developer/tinyusb/src/common/tusb_fifo.c ****   }
 1244              		.loc 1 133 36 view .LVU394
 1245 016a 3B60     		str	r3, [r7]
 1246              	.LVL108:
 133:/home/pi/Developer/tinyusb/src/common/tusb_fifo.c ****   }
 1247              		.loc 1 133 36 view .LVU395
 1248              	.LBE385:
 1249              	.LBE386:
 187:/home/pi/Developer/tinyusb/src/common/tusb_fifo.c ****   }
 1250              		.loc 1 187 31 is_stmt 1 view .LVU396
 187:/home/pi/Developer/tinyusb/src/common/tusb_fifo.c ****   }
 1251              		.loc 1 187 31 is_stmt 0 view .LVU397
 1252              	.LBE388:
 1253              	.LBE390:
ARM GAS  /tmp/cc4ocKfo.s 			page 47


 1254              	.LBE392:
 1255              	.LBE405:
 1256              	.LBE410:
 1257              	.LBE420:
 1258              		.loc 1 492 1 view .LVU398
 1259 016c 05B0     		add	sp, sp, #20
 1260              		.cfi_remember_state
 1261              		.cfi_def_cfa_offset 36
 1262              		@ sp needed
 1263 016e BDE8F08F 		pop	{r4, r5, r6, r7, r8, r9, r10, fp, pc}
 1264              	.LVL109:
 1265              	.L97:
 1266              		.cfi_restore_state
 1267              	.LBB421:
 1268              	.LBB411:
 1269              	.LBB406:
 1270              	.LBB393:
 1271              	.LBB327:
 1272              	.LBB317:
 184:/home/pi/Developer/tinyusb/src/common/tusb_fifo.c ****     memcpy(&tmp, src, len);
 1273              		.loc 1 184 5 is_stmt 1 view .LVU399
 184:/home/pi/Developer/tinyusb/src/common/tusb_fifo.c ****     memcpy(&tmp, src, len);
 1274              		.loc 1 184 14 is_stmt 0 view .LVU400
 1275 0172 0020     		movs	r0, #0
 1276 0174 0193     		str	r3, [sp, #4]
 1277 0176 0390     		str	r0, [sp, #12]
 185:/home/pi/Developer/tinyusb/src/common/tusb_fifo.c ****     stride_write(hwfifo, &tmp, data_stride);
 1278              		.loc 1 185 5 is_stmt 1 view .LVU401
 1279 0178 03A8     		add	r0, sp, #12
 1280 017a FFF7FEFF 		bl	memcpy
 1281              	.LVL110:
 186:/home/pi/Developer/tinyusb/src/common/tusb_fifo.c ****     HWFIFO_ADDR_NEXT(hwfifo, );
 1282              		.loc 1 186 5 view .LVU402
 1283              	.LBB318:
 1284              	.LBI318:
 126:/home/pi/Developer/tinyusb/src/common/tusb_fifo.c ****   (void)data_stride; // possible unused
 1285              		.loc 1 126 42 view .LVU403
 1286              	.LBB319:
 127:/home/pi/Developer/tinyusb/src/common/tusb_fifo.c ****     #if CFG_TUSB_FIFO_HWFIFO_DATA_STRIDE & 4
 1287              		.loc 1 127 3 view .LVU404
 133:/home/pi/Developer/tinyusb/src/common/tusb_fifo.c ****   }
 1288              		.loc 1 133 5 view .LVU405
 1289              	.LBB320:
 1290              	.LBI320:
 314:/home/pi/Developer/tinyusb/src/common/tusb_common.h ****   return *((uint32_t const *) mem);
 1291              		.loc 2 314 46 view .LVU406
 1292              	.LBB321:
 315:/home/pi/Developer/tinyusb/src/common/tusb_common.h **** }
 1293              		.loc 2 315 3 view .LVU407
 315:/home/pi/Developer/tinyusb/src/common/tusb_common.h **** }
 1294              		.loc 2 315 10 is_stmt 0 view .LVU408
 1295 017e 039A     		ldr	r2, [sp, #12]
 1296              	.LVL111:
 315:/home/pi/Developer/tinyusb/src/common/tusb_common.h **** }
 1297              		.loc 2 315 10 view .LVU409
 1298              	.LBE321:
 1299              	.LBE320:
ARM GAS  /tmp/cc4ocKfo.s 			page 48


 133:/home/pi/Developer/tinyusb/src/common/tusb_fifo.c ****   }
 1300              		.loc 1 133 36 view .LVU410
 1301 0180 019B     		ldr	r3, [sp, #4]
 1302              	.LVL112:
 133:/home/pi/Developer/tinyusb/src/common/tusb_fifo.c ****   }
 1303              		.loc 1 133 36 view .LVU411
 1304              	.LBE319:
 1305              	.LBE318:
 187:/home/pi/Developer/tinyusb/src/common/tusb_fifo.c ****   }
 1306              		.loc 1 187 31 is_stmt 1 view .LVU412
 1307              	.LBB323:
 1308              	.LBB322:
 133:/home/pi/Developer/tinyusb/src/common/tusb_fifo.c ****   }
 1309              		.loc 1 133 36 is_stmt 0 view .LVU413
 1310 0182 3A60     		str	r2, [r7]
 1311 0184 92E7     		b	.L53
 1312              	.LVL113:
 1313              	.L63:
 133:/home/pi/Developer/tinyusb/src/common/tusb_fifo.c ****   }
 1314              		.loc 1 133 36 view .LVU414
 1315              	.LBE322:
 1316              	.LBE323:
 1317              	.LBE317:
 1318              	.LBE327:
 1319              	.LBE393:
 1320              	.LBE406:
 1321              	.LBE411:
 1322              	.LBE421:
 1323              	.LBB422:
 1324              	.LBB418:
 409:/home/pi/Developer/tinyusb/src/common/tusb_fifo.c ****     memcpy((uint8_t *)app_buf + lin_bytes, f->buffer, wrap_bytes); // wrapped part
 1325              		.loc 1 409 5 is_stmt 1 view .LVU415
 1326 0186 4A46     		mov	r2, r9
 1327 0188 3846     		mov	r0, r7
 1328              	.LVL114:
 409:/home/pi/Developer/tinyusb/src/common/tusb_fifo.c ****     memcpy((uint8_t *)app_buf + lin_bytes, f->buffer, wrap_bytes); // wrapped part
 1329              		.loc 1 409 5 is_stmt 0 view .LVU416
 1330 018a FFF7FEFF 		bl	memcpy
 1331              	.LVL115:
 410:/home/pi/Developer/tinyusb/src/common/tusb_fifo.c ****   }
 1332              		.loc 1 410 5 is_stmt 1 view .LVU417
 400:/home/pi/Developer/tinyusb/src/common/tusb_fifo.c ****   const uint8_t *ff_buf     = f->buffer + rd_ptr;
 1333              		.loc 1 400 18 is_stmt 0 view .LVU418
 1334 018e 721B     		subs	r2, r6, r5
 410:/home/pi/Developer/tinyusb/src/common/tusb_fifo.c ****   }
 1335              		.loc 1 410 5 view .LVU419
 1336 0190 07EB0900 		add	r0, r7, r9
 1337 0194 D8F80010 		ldr	r1, [r8]
 400:/home/pi/Developer/tinyusb/src/common/tusb_fifo.c ****   const uint8_t *ff_buf     = f->buffer + rd_ptr;
 1338              		.loc 1 400 18 view .LVU420
 1339 0198 2244     		add	r2, r2, r4
 410:/home/pi/Developer/tinyusb/src/common/tusb_fifo.c ****   }
 1340              		.loc 1 410 5 view .LVU421
 1341 019a 92B2     		uxth	r2, r2
 1342 019c FFF7FEFF 		bl	memcpy
 1343              	.LVL116:
 1344 01a0 62E7     		b	.L41
ARM GAS  /tmp/cc4ocKfo.s 			page 49


 1345              	.LVL117:
 1346              	.L57:
 410:/home/pi/Developer/tinyusb/src/common/tusb_fifo.c ****   }
 1347              		.loc 1 410 5 view .LVU422
 1348              	.LBE418:
 1349              	.LBE422:
 1350              	.LBB423:
 1351              	.LBB412:
 1352              	.LBB407:
 1353              	.LBB394:
 1354              	.LBB366:
 1355              	.LBB364:
 1356              	.LBB358:
 184:/home/pi/Developer/tinyusb/src/common/tusb_fifo.c ****     memcpy(&tmp, src, len);
 1357              		.loc 1 184 5 is_stmt 1 view .LVU423
 184:/home/pi/Developer/tinyusb/src/common/tusb_fifo.c ****     memcpy(&tmp, src, len);
 1358              		.loc 1 184 14 is_stmt 0 view .LVU424
 1359 01a2 0023     		movs	r3, #0
 185:/home/pi/Developer/tinyusb/src/common/tusb_fifo.c ****     stride_write(hwfifo, &tmp, data_stride);
 1360              		.loc 1 185 5 view .LVU425
 1361 01a4 03A8     		add	r0, sp, #12
 184:/home/pi/Developer/tinyusb/src/common/tusb_fifo.c ****     memcpy(&tmp, src, len);
 1362              		.loc 1 184 14 view .LVU426
 1363 01a6 0393     		str	r3, [sp, #12]
 185:/home/pi/Developer/tinyusb/src/common/tusb_fifo.c ****     stride_write(hwfifo, &tmp, data_stride);
 1364              		.loc 1 185 5 is_stmt 1 view .LVU427
 1365 01a8 FFF7FEFF 		bl	memcpy
 1366              	.LVL118:
 186:/home/pi/Developer/tinyusb/src/common/tusb_fifo.c ****     HWFIFO_ADDR_NEXT(hwfifo, );
 1367              		.loc 1 186 5 view .LVU428
 1368              	.LBB359:
 1369              	.LBI359:
 126:/home/pi/Developer/tinyusb/src/common/tusb_fifo.c ****   (void)data_stride; // possible unused
 1370              		.loc 1 126 42 view .LVU429
 1371              	.LBB360:
 127:/home/pi/Developer/tinyusb/src/common/tusb_fifo.c ****     #if CFG_TUSB_FIFO_HWFIFO_DATA_STRIDE & 4
 1372              		.loc 1 127 3 view .LVU430
 133:/home/pi/Developer/tinyusb/src/common/tusb_fifo.c ****   }
 1373              		.loc 1 133 5 view .LVU431
 1374              	.LBB361:
 1375              	.LBI361:
 314:/home/pi/Developer/tinyusb/src/common/tusb_common.h ****   return *((uint32_t const *) mem);
 1376              		.loc 2 314 46 view .LVU432
 1377              	.LBB362:
 315:/home/pi/Developer/tinyusb/src/common/tusb_common.h **** }
 1378              		.loc 2 315 3 view .LVU433
 315:/home/pi/Developer/tinyusb/src/common/tusb_common.h **** }
 1379              		.loc 2 315 10 is_stmt 0 view .LVU434
 1380 01ac 039B     		ldr	r3, [sp, #12]
 1381              	.LVL119:
 315:/home/pi/Developer/tinyusb/src/common/tusb_common.h **** }
 1382              		.loc 2 315 10 view .LVU435
 1383              	.LBE362:
 1384              	.LBE361:
 133:/home/pi/Developer/tinyusb/src/common/tusb_fifo.c ****   }
 1385              		.loc 1 133 36 view .LVU436
 1386 01ae 3B60     		str	r3, [r7]
ARM GAS  /tmp/cc4ocKfo.s 			page 50


 1387              	.LVL120:
 133:/home/pi/Developer/tinyusb/src/common/tusb_fifo.c ****   }
 1388              		.loc 1 133 36 view .LVU437
 1389              	.LBE360:
 1390              	.LBE359:
 187:/home/pi/Developer/tinyusb/src/common/tusb_fifo.c ****   }
 1391              		.loc 1 187 31 is_stmt 1 view .LVU438
 1392 01b0 AEE7     		b	.L60
 1393              	.LVL121:
 1394              	.L65:
 187:/home/pi/Developer/tinyusb/src/common/tusb_fifo.c ****   }
 1395              		.loc 1 187 31 is_stmt 0 view .LVU439
 1396              	.LBE358:
 1397              	.LBE364:
 1398              	.LBE366:
 1399              	.LBE394:
 1400              	.LBB395:
 1401              	.LBB328:
 155:/home/pi/Developer/tinyusb/src/common/tusb_fifo.c ****     stride_write(hwfifo, src, data_stride);
 1402              		.loc 1 155 9 view .LVU440
 1403 01b2 009A     		ldr	r2, [sp]
 1404              	.LVL122:
 155:/home/pi/Developer/tinyusb/src/common/tusb_fifo.c ****     stride_write(hwfifo, src, data_stride);
 1405              		.loc 1 155 9 view .LVU441
 1406 01b4 4946     		mov	r1, r9
 1407              	.LVL123:
 183:/home/pi/Developer/tinyusb/src/common/tusb_fifo.c ****     uint32_t tmp = 0u;
 1408              		.loc 1 183 3 is_stmt 1 view .LVU442
 183:/home/pi/Developer/tinyusb/src/common/tusb_fifo.c ****     uint32_t tmp = 0u;
 1409              		.loc 1 183 6 is_stmt 0 view .LVU443
 1410 01b6 002A     		cmp	r2, #0
 1411 01b8 3FF478AF 		beq	.L53
 1412              	.LVL124:
 183:/home/pi/Developer/tinyusb/src/common/tusb_fifo.c ****     uint32_t tmp = 0u;
 1413              		.loc 1 183 6 view .LVU444
 1414 01bc D9E7     		b	.L97
 1415              	.LBE328:
 1416              	.LBE395:
 1417              	.LBE407:
 1418              	.LBE412:
 1419              	.LBE423:
 1420              		.cfi_endproc
 1421              	.LFE411:
 1423 01be 00BF     		.section	.text.tu_fifo_peek_n,"ax",%progbits
 1424              		.align	1
 1425              		.p2align 2,,3
 1426              		.global	tu_fifo_peek_n
 1427              		.syntax unified
 1428              		.thumb
 1429              		.thumb_func
 1430              		.fpu fpv5-d16
 1432              	tu_fifo_peek_n:
 1433              	.LVL125:
 1434              	.LFB412:
 493:/home/pi/Developer/tinyusb/src/common/tusb_fifo.c **** 
 494:/home/pi/Developer/tinyusb/src/common/tusb_fifo.c **** // Read n items without removing it from the FIFO, correct read pointer if overflowed
 495:/home/pi/Developer/tinyusb/src/common/tusb_fifo.c **** uint16_t tu_fifo_peek_n(tu_fifo_t *f, void *p_buffer, uint16_t n) {
ARM GAS  /tmp/cc4ocKfo.s 			page 51


 1435              		.loc 1 495 67 is_stmt 1 view -0
 1436              		.cfi_startproc
 1437              		@ args = 0, pretend = 0, frame = 0
 1438              		@ frame_needed = 0, uses_anonymous_args = 0
 496:/home/pi/Developer/tinyusb/src/common/tusb_fifo.c ****   ff_lock(f->mutex_rd);
 1439              		.loc 1 496 23 view .LVU446
 497:/home/pi/Developer/tinyusb/src/common/tusb_fifo.c ****   const uint16_t wr_idx = f->wr_idx;
 1440              		.loc 1 497 3 view .LVU447
 495:/home/pi/Developer/tinyusb/src/common/tusb_fifo.c ****   ff_lock(f->mutex_rd);
 1441              		.loc 1 495 67 is_stmt 0 view .LVU448
 1442 0000 10B5     		push	{r4, lr}
 1443              		.cfi_def_cfa_offset 8
 1444              		.cfi_offset 4, -8
 1445              		.cfi_offset 14, -4
 1446              		.loc 1 497 18 view .LVU449
 1447 0002 0389     		ldrh	r3, [r0, #8]
 1448              	.LVL126:
 498:/home/pi/Developer/tinyusb/src/common/tusb_fifo.c ****   const uint16_t rd_idx = f->rd_idx;
 1449              		.loc 1 498 3 is_stmt 1 view .LVU450
 495:/home/pi/Developer/tinyusb/src/common/tusb_fifo.c ****   ff_lock(f->mutex_rd);
 1450              		.loc 1 495 67 is_stmt 0 view .LVU451
 1451 0004 82B0     		sub	sp, sp, #8
 1452              		.cfi_def_cfa_offset 16
 1453              		.loc 1 498 18 view .LVU452
 1454 0006 4489     		ldrh	r4, [r0, #10]
 499:/home/pi/Developer/tinyusb/src/common/tusb_fifo.c ****   const uint16_t ret = tu_fifo_peek_n_access_mode(f, p_buffer, n, wr_idx, rd_idx, NULL);
 1455              		.loc 1 499 24 view .LVU453
 1456 0008 9BB2     		uxth	r3, r3
 498:/home/pi/Developer/tinyusb/src/common/tusb_fifo.c ****   const uint16_t rd_idx = f->rd_idx;
 1457              		.loc 1 498 18 view .LVU454
 1458 000a A4B2     		uxth	r4, r4
 1459              	.LVL127:
 1460              		.loc 1 499 3 is_stmt 1 view .LVU455
 1461              		.loc 1 499 24 is_stmt 0 view .LVU456
 1462 000c 0094     		str	r4, [sp]
 1463 000e 0024     		movs	r4, #0
 1464              	.LVL128:
 1465              		.loc 1 499 24 view .LVU457
 1466 0010 0194     		str	r4, [sp, #4]
 1467 0012 FFF7FEFF 		bl	tu_fifo_peek_n_access_mode
 1468              	.LVL129:
 500:/home/pi/Developer/tinyusb/src/common/tusb_fifo.c ****   ff_unlock(f->mutex_rd);
 1469              		.loc 1 500 25 is_stmt 1 view .LVU458
 501:/home/pi/Developer/tinyusb/src/common/tusb_fifo.c ****   return ret;
 1470              		.loc 1 501 3 view .LVU459
 502:/home/pi/Developer/tinyusb/src/common/tusb_fifo.c **** }
 1471              		.loc 1 502 1 is_stmt 0 view .LVU460
 1472 0016 02B0     		add	sp, sp, #8
 1473              		.cfi_def_cfa_offset 8
 1474              		@ sp needed
 1475 0018 10BD     		pop	{r4, pc}
 1476              		.cfi_endproc
 1477              	.LFE412:
 1479 001a 00BF     		.section	.text.tu_fifo_read_n_access_mode,"ax",%progbits
 1480              		.align	1
 1481              		.p2align 2,,3
 1482              		.global	tu_fifo_read_n_access_mode
ARM GAS  /tmp/cc4ocKfo.s 			page 52


 1483              		.syntax unified
 1484              		.thumb
 1485              		.thumb_func
 1486              		.fpu fpv5-d16
 1488              	tu_fifo_read_n_access_mode:
 1489              	.LVL130:
 1490              	.LFB413:
 503:/home/pi/Developer/tinyusb/src/common/tusb_fifo.c **** 
 504:/home/pi/Developer/tinyusb/src/common/tusb_fifo.c **** // Read n items from fifo with access mode
 505:/home/pi/Developer/tinyusb/src/common/tusb_fifo.c **** uint16_t tu_fifo_read_n_access_mode(tu_fifo_t *f, void *buffer, uint16_t n, const tu_hwfifo_access_
 1491              		.loc 1 505 116 is_stmt 1 view -0
 1492              		.cfi_startproc
 1493              		@ args = 0, pretend = 0, frame = 0
 1494              		@ frame_needed = 0, uses_anonymous_args = 0
 506:/home/pi/Developer/tinyusb/src/common/tusb_fifo.c ****   ff_lock(f->mutex_rd);
 1495              		.loc 1 506 23 view .LVU462
 507:/home/pi/Developer/tinyusb/src/common/tusb_fifo.c **** 
 508:/home/pi/Developer/tinyusb/src/common/tusb_fifo.c ****   // Peek the data: f->rd_idx might get modified in case of an overflow so we can not use a local v
 509:/home/pi/Developer/tinyusb/src/common/tusb_fifo.c ****   const uint16_t wr_idx = f->wr_idx;
 1496              		.loc 1 509 3 view .LVU463
 505:/home/pi/Developer/tinyusb/src/common/tusb_fifo.c ****   ff_lock(f->mutex_rd);
 1497              		.loc 1 505 116 is_stmt 0 view .LVU464
 1498 0000 30B5     		push	{r4, r5, lr}
 1499              		.cfi_def_cfa_offset 12
 1500              		.cfi_offset 4, -12
 1501              		.cfi_offset 5, -8
 1502              		.cfi_offset 14, -4
 1503 0002 83B0     		sub	sp, sp, #12
 1504              		.cfi_def_cfa_offset 24
 505:/home/pi/Developer/tinyusb/src/common/tusb_fifo.c ****   ff_lock(f->mutex_rd);
 1505              		.loc 1 505 116 view .LVU465
 1506 0004 0446     		mov	r4, r0
 510:/home/pi/Developer/tinyusb/src/common/tusb_fifo.c ****   n         = tu_fifo_peek_n_access_mode(f, buffer, n, wr_idx, f->rd_idx, access_mode);
 1507              		.loc 1 510 15 view .LVU466
 1508 0006 0193     		str	r3, [sp, #4]
 509:/home/pi/Developer/tinyusb/src/common/tusb_fifo.c ****   n         = tu_fifo_peek_n_access_mode(f, buffer, n, wr_idx, f->rd_idx, access_mode);
 1509              		.loc 1 509 18 view .LVU467
 1510 0008 0389     		ldrh	r3, [r0, #8]
 1511              	.LVL131:
 1512              		.loc 1 510 3 is_stmt 1 view .LVU468
 1513              		.loc 1 510 15 is_stmt 0 view .LVU469
 1514 000a 4589     		ldrh	r5, [r0, #10]
 1515 000c 9BB2     		uxth	r3, r3
 1516              		.loc 1 510 15 view .LVU470
 1517 000e ADB2     		uxth	r5, r5
 1518 0010 0095     		str	r5, [sp]
 1519 0012 FFF7FEFF 		bl	tu_fifo_peek_n_access_mode
 1520              	.LVL132:
 511:/home/pi/Developer/tinyusb/src/common/tusb_fifo.c ****   f->rd_idx = advance_index(f->depth, f->rd_idx, n);
 1521              		.loc 1 511 15 view .LVU471
 1522 0016 6289     		ldrh	r2, [r4, #10]
 1523 0018 A188     		ldrh	r1, [r4, #4]
 1524              	.LVL133:
 1525              		.loc 1 511 3 is_stmt 1 view .LVU472
 1526              		.loc 1 511 15 is_stmt 0 view .LVU473
 1527 001a 92B2     		uxth	r2, r2
 1528              	.LVL134:
ARM GAS  /tmp/cc4ocKfo.s 			page 53


 1529              	.LBB424:
 1530              	.LBI424:
 420:/home/pi/Developer/tinyusb/src/common/tusb_fifo.c ****   // We limit the index space of p such that a correct wrap around happens
 1531              		.loc 1 420 17 is_stmt 1 view .LVU474
 1532              	.LBB425:
 424:/home/pi/Developer/tinyusb/src/common/tusb_fifo.c ****   if ((idx > new_idx) || (new_idx >= 2 * depth)) {
 1533              		.loc 1 424 3 view .LVU475
 424:/home/pi/Developer/tinyusb/src/common/tusb_fifo.c ****   if ((idx > new_idx) || (new_idx >= 2 * depth)) {
 1534              		.loc 1 424 12 is_stmt 0 view .LVU476
 1535 001c 1318     		adds	r3, r2, r0
 1536 001e 9BB2     		uxth	r3, r3
 1537              	.LVL135:
 425:/home/pi/Developer/tinyusb/src/common/tusb_fifo.c ****     const uint16_t non_used_index_space = (uint16_t)(UINT16_MAX - (2 * depth - 1));
 1538              		.loc 1 425 3 is_stmt 1 view .LVU477
 425:/home/pi/Developer/tinyusb/src/common/tusb_fifo.c ****     const uint16_t non_used_index_space = (uint16_t)(UINT16_MAX - (2 * depth - 1));
 1539              		.loc 1 425 6 is_stmt 0 view .LVU478
 1540 0020 9A42     		cmp	r2, r3
 1541 0022 4FEA4102 		lsl	r2, r1, #1
 1542              	.LVL136:
 425:/home/pi/Developer/tinyusb/src/common/tusb_fifo.c ****     const uint16_t non_used_index_space = (uint16_t)(UINT16_MAX - (2 * depth - 1));
 1543              		.loc 1 425 6 view .LVU479
 1544 0026 02D8     		bhi	.L101
 425:/home/pi/Developer/tinyusb/src/common/tusb_fifo.c ****     const uint16_t non_used_index_space = (uint16_t)(UINT16_MAX - (2 * depth - 1));
 1545              		.loc 1 425 23 view .LVU480
 1546 0028 B3EB410F 		cmp	r3, r1, lsl #1
 1547 002c 01DB     		blt	.L102
 1548              	.L101:
 1549              	.LBB426:
 426:/home/pi/Developer/tinyusb/src/common/tusb_fifo.c ****     new_idx                             = (uint16_t)(new_idx + non_used_index_space);
 1550              		.loc 1 426 5 is_stmt 1 view .LVU481
 1551              	.LVL137:
 427:/home/pi/Developer/tinyusb/src/common/tusb_fifo.c ****   }
 1552              		.loc 1 427 5 view .LVU482
 1553 002e 9B1A     		subs	r3, r3, r2
 1554              	.LVL138:
 427:/home/pi/Developer/tinyusb/src/common/tusb_fifo.c ****   }
 1555              		.loc 1 427 5 is_stmt 0 view .LVU483
 1556 0030 9BB2     		uxth	r3, r3
 1557              	.LVL139:
 1558              	.L102:
 427:/home/pi/Developer/tinyusb/src/common/tusb_fifo.c ****   }
 1559              		.loc 1 427 5 view .LVU484
 1560              	.LBE426:
 430:/home/pi/Developer/tinyusb/src/common/tusb_fifo.c **** }
 1561              		.loc 1 430 3 is_stmt 1 view .LVU485
 430:/home/pi/Developer/tinyusb/src/common/tusb_fifo.c **** }
 1562              		.loc 1 430 3 is_stmt 0 view .LVU486
 1563              	.LBE425:
 1564              	.LBE424:
 1565              		.loc 1 511 13 view .LVU487
 1566 0032 6381     		strh	r3, [r4, #10]	@ movhi
 512:/home/pi/Developer/tinyusb/src/common/tusb_fifo.c **** 
 513:/home/pi/Developer/tinyusb/src/common/tusb_fifo.c ****   ff_unlock(f->mutex_rd);
 1567              		.loc 1 513 25 is_stmt 1 view .LVU488
 514:/home/pi/Developer/tinyusb/src/common/tusb_fifo.c ****   return n;
 1568              		.loc 1 514 3 view .LVU489
 515:/home/pi/Developer/tinyusb/src/common/tusb_fifo.c **** }
ARM GAS  /tmp/cc4ocKfo.s 			page 54


 1569              		.loc 1 515 1 is_stmt 0 view .LVU490
 1570 0034 03B0     		add	sp, sp, #12
 1571              		.cfi_def_cfa_offset 12
 1572              		@ sp needed
 1573 0036 30BD     		pop	{r4, r5, pc}
 1574              		.loc 1 515 1 view .LVU491
 1575              		.cfi_endproc
 1576              	.LFE413:
 1578              		.section	.text.tu_fifo_write_n_access_mode,"ax",%progbits
 1579              		.align	1
 1580              		.p2align 2,,3
 1581              		.global	tu_fifo_write_n_access_mode
 1582              		.syntax unified
 1583              		.thumb
 1584              		.thumb_func
 1585              		.fpu fpv5-d16
 1587              	tu_fifo_write_n_access_mode:
 1588              	.LVL140:
 1589              	.LFB414:
 516:/home/pi/Developer/tinyusb/src/common/tusb_fifo.c **** 
 517:/home/pi/Developer/tinyusb/src/common/tusb_fifo.c **** // Write n items to fifo with access mode
 518:/home/pi/Developer/tinyusb/src/common/tusb_fifo.c **** uint16_t tu_fifo_write_n_access_mode(tu_fifo_t *f, const void *data, uint16_t n,
 519:/home/pi/Developer/tinyusb/src/common/tusb_fifo.c ****                                      const tu_hwfifo_access_t *access_mode) {
 1590              		.loc 1 519 77 is_stmt 1 view -0
 1591              		.cfi_startproc
 1592              		@ args = 0, pretend = 0, frame = 32
 1593              		@ frame_needed = 0, uses_anonymous_args = 0
 520:/home/pi/Developer/tinyusb/src/common/tusb_fifo.c ****   if (n == 0) {
 1594              		.loc 1 520 3 view .LVU493
 519:/home/pi/Developer/tinyusb/src/common/tusb_fifo.c ****   if (n == 0) {
 1595              		.loc 1 519 77 is_stmt 0 view .LVU494
 1596 0000 2DE9F04F 		push	{r4, r5, r6, r7, r8, r9, r10, fp, lr}
 1597              		.cfi_def_cfa_offset 36
 1598              		.cfi_offset 4, -36
 1599              		.cfi_offset 5, -32
 1600              		.cfi_offset 6, -28
 1601              		.cfi_offset 7, -24
 1602              		.cfi_offset 8, -20
 1603              		.cfi_offset 9, -16
 1604              		.cfi_offset 10, -12
 1605              		.cfi_offset 11, -8
 1606              		.cfi_offset 14, -4
 1607 0004 89B0     		sub	sp, sp, #36
 1608              		.cfi_def_cfa_offset 72
 519:/home/pi/Developer/tinyusb/src/common/tusb_fifo.c ****   if (n == 0) {
 1609              		.loc 1 519 77 view .LVU495
 1610 0006 0293     		str	r3, [sp, #8]
 1611              		.loc 1 520 6 view .LVU496
 1612 0008 002A     		cmp	r2, #0
 1613 000a 53D0     		beq	.L144
 521:/home/pi/Developer/tinyusb/src/common/tusb_fifo.c ****     return 0;
 522:/home/pi/Developer/tinyusb/src/common/tusb_fifo.c ****   }
 523:/home/pi/Developer/tinyusb/src/common/tusb_fifo.c **** 
 524:/home/pi/Developer/tinyusb/src/common/tusb_fifo.c ****   ff_lock(f->mutex_wr);
 1614              		.loc 1 524 23 is_stmt 1 view .LVU497
 525:/home/pi/Developer/tinyusb/src/common/tusb_fifo.c **** 
 526:/home/pi/Developer/tinyusb/src/common/tusb_fifo.c ****   uint16_t wr_idx = f->wr_idx;
ARM GAS  /tmp/cc4ocKfo.s 			page 55


 1615              		.loc 1 526 3 view .LVU498
 1616              		.loc 1 526 12 is_stmt 0 view .LVU499
 1617 000c B0F80890 		ldrh	r9, [r0, #8]
 1618 0010 0F46     		mov	r7, r1
 527:/home/pi/Developer/tinyusb/src/common/tusb_fifo.c ****   uint16_t rd_idx = f->rd_idx;
 1619              		.loc 1 527 12 view .LVU500
 1620 0012 4389     		ldrh	r3, [r0, #10]
 1621              	.LVL141:
 1622              		.loc 1 527 12 view .LVU501
 1623 0014 0646     		mov	r6, r0
 528:/home/pi/Developer/tinyusb/src/common/tusb_fifo.c **** 
 529:/home/pi/Developer/tinyusb/src/common/tusb_fifo.c ****   const uint8_t *buf8 = (const uint8_t *)data;
 530:/home/pi/Developer/tinyusb/src/common/tusb_fifo.c **** 
 531:/home/pi/Developer/tinyusb/src/common/tusb_fifo.c ****   TU_LOG(TU_FIFO_DBG, "rd = %3u, wr = %3u, count = %3u, remain = %3u, n = %3u:  ", rd_idx, wr_idx,
 532:/home/pi/Developer/tinyusb/src/common/tusb_fifo.c ****          tu_ff_overflow_count(f->depth, wr_idx, rd_idx), tu_ff_remaining_local(f->depth, wr_idx, rd
 533:/home/pi/Developer/tinyusb/src/common/tusb_fifo.c **** 
 534:/home/pi/Developer/tinyusb/src/common/tusb_fifo.c ****   if (!f->overwritable) {
 1624              		.loc 1 534 6 view .LVU502
 1625 0016 8179     		ldrb	r1, [r0, #6]	@ zero_extendqisi2
 1626              	.LVL142:
 526:/home/pi/Developer/tinyusb/src/common/tusb_fifo.c ****   uint16_t rd_idx = f->rd_idx;
 1627              		.loc 1 526 12 view .LVU503
 1628 0018 1FFA89F9 		uxth	r9, r9
 1629              	.LVL143:
 527:/home/pi/Developer/tinyusb/src/common/tusb_fifo.c ****   uint16_t rd_idx = f->rd_idx;
 1630              		.loc 1 527 3 is_stmt 1 view .LVU504
 527:/home/pi/Developer/tinyusb/src/common/tusb_fifo.c ****   uint16_t rd_idx = f->rd_idx;
 1631              		.loc 1 527 12 is_stmt 0 view .LVU505
 1632 001c 9BB2     		uxth	r3, r3
 1633              	.LVL144:
 529:/home/pi/Developer/tinyusb/src/common/tusb_fifo.c **** 
 1634              		.loc 1 529 3 is_stmt 1 view .LVU506
 532:/home/pi/Developer/tinyusb/src/common/tusb_fifo.c **** 
 1635              		.loc 1 532 109 view .LVU507
 1636              		.loc 1 534 3 view .LVU508
 1637              	.LBB500:
 535:/home/pi/Developer/tinyusb/src/common/tusb_fifo.c ****     // limit up to full
 536:/home/pi/Developer/tinyusb/src/common/tusb_fifo.c ****     const uint16_t remain = tu_ff_remaining_local(f->depth, wr_idx, rd_idx);
 1638              		.loc 1 536 29 is_stmt 0 view .LVU509
 1639 001e 8588     		ldrh	r5, [r0, #4]
 1640              	.LBE500:
 534:/home/pi/Developer/tinyusb/src/common/tusb_fifo.c ****     // limit up to full
 1641              		.loc 1 534 6 view .LVU510
 1642 0020 0029     		cmp	r1, #0
 1643 0022 4DD1     		bne	.L108
 1644              	.LBB513:
 1645              		.loc 1 536 5 is_stmt 1 view .LVU511
 1646              	.LVL145:
 1647              	.LBB501:
 1648              	.LBI501:
 268:/home/pi/Developer/tinyusb/src/common/tusb_fifo.h ****   }
 269:/home/pi/Developer/tinyusb/src/common/tusb_fifo.h **** }
 270:/home/pi/Developer/tinyusb/src/common/tusb_fifo.h **** 
 271:/home/pi/Developer/tinyusb/src/common/tusb_fifo.h **** // return remaining slot in fifo
 272:/home/pi/Developer/tinyusb/src/common/tusb_fifo.h **** TU_ATTR_ALWAYS_INLINE static inline uint16_t tu_ff_remaining_local(uint16_t depth, uint16_t wr_idx,
 1649              		.loc 3 272 46 view .LVU512
 1650              	.LBB502:
ARM GAS  /tmp/cc4ocKfo.s 			page 56


 273:/home/pi/Developer/tinyusb/src/common/tusb_fifo.h ****   const uint16_t ovf_count = tu_ff_overflow_count(depth, wr_idx, rd_idx);
 1651              		.loc 3 273 3 view .LVU513
 1652              	.LBB503:
 1653              	.LBI503:
 262:/home/pi/Developer/tinyusb/src/common/tusb_fifo.h ****   const int32_t diff = (int32_t)wr_idx - (int32_t)rd_idx;
 1654              		.loc 3 262 46 view .LVU514
 1655              	.LBB504:
 263:/home/pi/Developer/tinyusb/src/common/tusb_fifo.h ****   if (diff >= 0) {
 1656              		.loc 3 263 3 view .LVU515
 264:/home/pi/Developer/tinyusb/src/common/tusb_fifo.h ****     return (uint16_t)diff;
 1657              		.loc 3 264 3 view .LVU516
 264:/home/pi/Developer/tinyusb/src/common/tusb_fifo.h ****     return (uint16_t)diff;
 1658              		.loc 3 264 6 is_stmt 0 view .LVU517
 1659 0024 B9EB0301 		subs	r1, r9, r3
 1660 0028 67D4     		bmi	.L109
 265:/home/pi/Developer/tinyusb/src/common/tusb_fifo.h ****   } else {
 1661              		.loc 3 265 5 is_stmt 1 view .LVU518
 265:/home/pi/Developer/tinyusb/src/common/tusb_fifo.h ****   } else {
 1662              		.loc 3 265 12 is_stmt 0 view .LVU519
 1663 002a 8BB2     		uxth	r3, r1
 1664              	.LVL146:
 1665              	.L110:
 265:/home/pi/Developer/tinyusb/src/common/tusb_fifo.h ****   } else {
 1666              		.loc 3 265 12 view .LVU520
 1667              	.LBE504:
 1668              	.LBE503:
 274:/home/pi/Developer/tinyusb/src/common/tusb_fifo.h ****   return (depth > ovf_count) ? (depth - ovf_count) : 0;
 1669              		.loc 3 274 3 is_stmt 1 view .LVU521
 1670              		.loc 3 274 52 is_stmt 0 view .LVU522
 1671 002c 9D42     		cmp	r5, r3
 1672 002e 41D9     		bls	.L144
 1673 0030 A5EB0308 		sub	r8, r5, r3
 1674              	.LBE502:
 1675              	.LBE501:
 1676              	.LBB508:
 1677              	.LBB509:
 206:/home/pi/Developer/tinyusb/src/common/tusb_common.h **** TU_ATTR_ALWAYS_INLINE static inline uint32_t tu_min32 (uint32_t x, uint32_t y) { return (x < y) ? x
 1678              		.loc 2 206 101 view .LVU523
 1679 0034 1FFA88F8 		uxth	r8, r8
 1680 0038 9045     		cmp	r8, r2
 1681 003a 28BF     		it	cs
 1682 003c 9046     		movcs	r8, r2
 1683              	.LVL147:
 206:/home/pi/Developer/tinyusb/src/common/tusb_common.h **** TU_ATTR_ALWAYS_INLINE static inline uint32_t tu_min32 (uint32_t x, uint32_t y) { return (x < y) ? x
 1684              		.loc 2 206 101 view .LVU524
 1685              	.LBE509:
 1686              	.LBE508:
 537:/home/pi/Developer/tinyusb/src/common/tusb_fifo.c ****     n                     = tu_min16(n, remain);
 1687              		.loc 1 537 5 is_stmt 1 view .LVU525
 1688              	.LBB511:
 1689              	.LBI508:
 206:/home/pi/Developer/tinyusb/src/common/tusb_common.h **** TU_ATTR_ALWAYS_INLINE static inline uint32_t tu_min32 (uint32_t x, uint32_t y) { return (x < y) ? x
 1690              		.loc 2 206 46 view .LVU526
 1691              	.LBB510:
 206:/home/pi/Developer/tinyusb/src/common/tusb_common.h **** TU_ATTR_ALWAYS_INLINE static inline uint32_t tu_min32 (uint32_t x, uint32_t y) { return (x < y) ? x
 1692              		.loc 2 206 82 view .LVU527
 206:/home/pi/Developer/tinyusb/src/common/tusb_common.h **** TU_ATTR_ALWAYS_INLINE static inline uint32_t tu_min32 (uint32_t x, uint32_t y) { return (x < y) ? x
ARM GAS  /tmp/cc4ocKfo.s 			page 57


 1693              		.loc 2 206 82 is_stmt 0 view .LVU528
 1694              	.LBE510:
 1695              	.LBE511:
 1696              	.LBE513:
 1697              	.LBB514:
 538:/home/pi/Developer/tinyusb/src/common/tusb_fifo.c ****   } else {
 539:/home/pi/Developer/tinyusb/src/common/tusb_fifo.c ****     // In over-writable mode, fifo_write() is allowed even when fifo is full. In such case,
 540:/home/pi/Developer/tinyusb/src/common/tusb_fifo.c ****     // oldest data in fifo i.e. at read pointer data will be overwritten
 541:/home/pi/Developer/tinyusb/src/common/tusb_fifo.c ****     // Note: we can modify read buffer contents however we must not modify the read index itself wi
 542:/home/pi/Developer/tinyusb/src/common/tusb_fifo.c ****     // function! Since it would end up in a race condition with read functions!
 543:/home/pi/Developer/tinyusb/src/common/tusb_fifo.c ****     if (n >= f->depth) {
 544:/home/pi/Developer/tinyusb/src/common/tusb_fifo.c ****       // Only copy last part
 545:/home/pi/Developer/tinyusb/src/common/tusb_fifo.c ****       if (access_mode == NULL) {
 546:/home/pi/Developer/tinyusb/src/common/tusb_fifo.c ****         buf8 += (n - f->depth);
 547:/home/pi/Developer/tinyusb/src/common/tusb_fifo.c ****       } else {
 548:/home/pi/Developer/tinyusb/src/common/tusb_fifo.c ****         // TODO should read from hw fifo to discard data, however reading an odd number could
 549:/home/pi/Developer/tinyusb/src/common/tusb_fifo.c ****         // accidentally discard data.
 550:/home/pi/Developer/tinyusb/src/common/tusb_fifo.c ****       }
 551:/home/pi/Developer/tinyusb/src/common/tusb_fifo.c **** 
 552:/home/pi/Developer/tinyusb/src/common/tusb_fifo.c ****       n = f->depth;
 553:/home/pi/Developer/tinyusb/src/common/tusb_fifo.c **** 
 554:/home/pi/Developer/tinyusb/src/common/tusb_fifo.c ****       // We start writing at the read pointer's position since we fill the whole buffer
 555:/home/pi/Developer/tinyusb/src/common/tusb_fifo.c ****       wr_idx = rd_idx;
 556:/home/pi/Developer/tinyusb/src/common/tusb_fifo.c ****     } else {
 557:/home/pi/Developer/tinyusb/src/common/tusb_fifo.c ****       const uint16_t overflowable_count = tu_ff_overflow_count(f->depth, wr_idx, rd_idx);
 558:/home/pi/Developer/tinyusb/src/common/tusb_fifo.c ****       if (overflowable_count + n >= 2 * f->depth) {
 559:/home/pi/Developer/tinyusb/src/common/tusb_fifo.c ****         // Double overflowed
 560:/home/pi/Developer/tinyusb/src/common/tusb_fifo.c ****         // Index is bigger than the allowed range [0,2*depth)
 561:/home/pi/Developer/tinyusb/src/common/tusb_fifo.c ****         // re-position write index to have a full fifo after pushed
 562:/home/pi/Developer/tinyusb/src/common/tusb_fifo.c ****         wr_idx = advance_index(f->depth, rd_idx, f->depth - n);
 563:/home/pi/Developer/tinyusb/src/common/tusb_fifo.c **** 
 564:/home/pi/Developer/tinyusb/src/common/tusb_fifo.c ****         // TODO we should also shift out n bytes from read index since we avoid changing rd index !
 565:/home/pi/Developer/tinyusb/src/common/tusb_fifo.c ****         // However memmove() is expensive due to actual copying + wrapping consideration.
 566:/home/pi/Developer/tinyusb/src/common/tusb_fifo.c ****         // Also race condition could happen anyway if read() is invoke while moving result in corru
 567:/home/pi/Developer/tinyusb/src/common/tusb_fifo.c ****         // currently deliberately not implemented --> result in incorrect data read back
 568:/home/pi/Developer/tinyusb/src/common/tusb_fifo.c ****       } else {
 569:/home/pi/Developer/tinyusb/src/common/tusb_fifo.c ****         // normal + single overflowed:
 570:/home/pi/Developer/tinyusb/src/common/tusb_fifo.c ****         // Index is in the range of [0,2*depth) and thus detect and recoverable. Recovering is hand
 571:/home/pi/Developer/tinyusb/src/common/tusb_fifo.c ****         // Therefore we just increase write index
 572:/home/pi/Developer/tinyusb/src/common/tusb_fifo.c ****         // we will correct (re-position) read index later on in fifo_read() function
 573:/home/pi/Developer/tinyusb/src/common/tusb_fifo.c ****       }
 1698              		.loc 1 573 7 is_stmt 1 view .LVU529
 1699              	.LBE514:
 574:/home/pi/Developer/tinyusb/src/common/tusb_fifo.c ****     }
 575:/home/pi/Developer/tinyusb/src/common/tusb_fifo.c ****   }
 576:/home/pi/Developer/tinyusb/src/common/tusb_fifo.c **** 
 577:/home/pi/Developer/tinyusb/src/common/tusb_fifo.c ****   if (n) {
 1700              		.loc 1 577 3 view .LVU530
 1701              	.L111:
 1702              	.LBB521:
 1703              	.LBB522:
 1704              	.LBB523:
 424:/home/pi/Developer/tinyusb/src/common/tusb_fifo.c ****   if ((idx > new_idx) || (new_idx >= 2 * depth)) {
 1705              		.loc 1 424 12 is_stmt 0 view .LVU531
 1706 003e 08EB0903 		add	r3, r8, r9
 1707 0042 9BB2     		uxth	r3, r3
 1708 0044 0193     		str	r3, [sp, #4]
ARM GAS  /tmp/cc4ocKfo.s 			page 58


 1709              	.LBE523:
 1710              	.LBE522:
 1711              	.LBE521:
 1712              	.LBB665:
 536:/home/pi/Developer/tinyusb/src/common/tusb_fifo.c ****     n                     = tu_min16(n, remain);
 1713              		.loc 1 536 29 view .LVU532
 1714 0046 2B46     		mov	r3, r5
 1715              	.LVL148:
 1716              	.L117:
 536:/home/pi/Developer/tinyusb/src/common/tusb_fifo.c ****     n                     = tu_min16(n, remain);
 1717              		.loc 1 536 29 view .LVU533
 1718              	.LBE665:
 1719              	.LBB666:
 578:/home/pi/Developer/tinyusb/src/common/tusb_fifo.c ****     const uint16_t wr_ptr = idx2ptr(f->depth, wr_idx);
 1720              		.loc 1 578 5 is_stmt 1 view .LVU534
 1721              	.LBB528:
 1722              	.LBI528:
 434:/home/pi/Developer/tinyusb/src/common/tusb_fifo.c ****   // Only run at most 3 times since index is limit in the range of [0..2*depth)
 1723              		.loc 1 434 46 view .LVU535
 1724              	.LBB529:
 436:/home/pi/Developer/tinyusb/src/common/tusb_fifo.c ****     idx -= depth;
 1725              		.loc 1 436 3 view .LVU536
 436:/home/pi/Developer/tinyusb/src/common/tusb_fifo.c ****     idx -= depth;
 1726              		.loc 1 436 9 view .LVU537
 1727 0048 4D45     		cmp	r5, r9
 1728 004a 4C46     		mov	r4, r9
 1729 004c 03D8     		bhi	.L119
 1730              	.LVL149:
 1731              	.L120:
 437:/home/pi/Developer/tinyusb/src/common/tusb_fifo.c ****   }
 1732              		.loc 1 437 5 view .LVU538
 437:/home/pi/Developer/tinyusb/src/common/tusb_fifo.c ****   }
 1733              		.loc 1 437 9 is_stmt 0 view .LVU539
 1734 004e 641B     		subs	r4, r4, r5
 1735              	.LVL150:
 437:/home/pi/Developer/tinyusb/src/common/tusb_fifo.c ****   }
 1736              		.loc 1 437 9 view .LVU540
 1737 0050 A4B2     		uxth	r4, r4
 1738              	.LVL151:
 436:/home/pi/Developer/tinyusb/src/common/tusb_fifo.c ****     idx -= depth;
 1739              		.loc 1 436 9 is_stmt 1 view .LVU541
 1740 0052 AC42     		cmp	r4, r5
 1741 0054 FBD2     		bcs	.L120
 1742              	.LVL152:
 1743              	.L119:
 439:/home/pi/Developer/tinyusb/src/common/tusb_fifo.c **** }
 1744              		.loc 1 439 3 view .LVU542
 439:/home/pi/Developer/tinyusb/src/common/tusb_fifo.c **** }
 1745              		.loc 1 439 3 is_stmt 0 view .LVU543
 1746              	.LBE529:
 1747              	.LBE528:
 579:/home/pi/Developer/tinyusb/src/common/tusb_fifo.c ****     TU_LOG(TU_FIFO_DBG, "actual_n = %u, wr_ptr = %u", n, wr_ptr);
 1748              		.loc 1 579 65 is_stmt 1 view .LVU544
 580:/home/pi/Developer/tinyusb/src/common/tusb_fifo.c **** 
 581:/home/pi/Developer/tinyusb/src/common/tusb_fifo.c **** #if CFG_TUSB_FIFO_HWFIFO_API
 582:/home/pi/Developer/tinyusb/src/common/tusb_fifo.c ****     if (access_mode != NULL) {
 1749              		.loc 1 582 5 view .LVU545
ARM GAS  /tmp/cc4ocKfo.s 			page 59


 1750              		.loc 1 582 8 is_stmt 0 view .LVU546
 1751 0056 0299     		ldr	r1, [sp, #8]
 1752 0058 0029     		cmp	r1, #0
 1753 005a 7AD0     		beq	.L121
 583:/home/pi/Developer/tinyusb/src/common/tusb_fifo.c ****       hwff_push_n(f, buf8, n, wr_ptr, access_mode);
 1754              		.loc 1 583 7 is_stmt 1 view .LVU547
 1755              	.LVL153:
 1756              	.LBB530:
 1757              	.LBI530:
 264:/home/pi/Developer/tinyusb/src/common/tusb_fifo.c ****                         const tu_hwfifo_access_t *access_mode) {
 1758              		.loc 1 264 13 view .LVU548
 1759              	.LBB531:
 266:/home/pi/Developer/tinyusb/src/common/tusb_fifo.c ****   uint16_t wrap_bytes = n - lin_bytes;
 1760              		.loc 1 266 3 view .LVU549
 266:/home/pi/Developer/tinyusb/src/common/tusb_fifo.c ****   uint16_t wrap_bytes = n - lin_bytes;
 1761              		.loc 1 266 12 is_stmt 0 view .LVU550
 1762 005c 2A1B     		subs	r2, r5, r4
 1763 005e 90B2     		uxth	r0, r2
 268:/home/pi/Developer/tinyusb/src/common/tusb_fifo.c **** 
 1764              		.loc 1 268 12 view .LVU551
 1765 0060 3268     		ldr	r2, [r6]
 271:/home/pi/Developer/tinyusb/src/common/tusb_fifo.c ****     // Linear only case
 1766              		.loc 1 271 6 view .LVU552
 1767 0062 4045     		cmp	r0, r8
 268:/home/pi/Developer/tinyusb/src/common/tusb_fifo.c **** 
 1768              		.loc 1 268 12 view .LVU553
 1769 0064 02EB040A 		add	r10, r2, r4
 266:/home/pi/Developer/tinyusb/src/common/tusb_fifo.c ****   uint16_t wrap_bytes = n - lin_bytes;
 1770              		.loc 1 266 12 view .LVU554
 1771 0068 0390     		str	r0, [sp, #12]
 1772              	.LVL154:
 267:/home/pi/Developer/tinyusb/src/common/tusb_fifo.c ****   uint8_t *ff_buf     = f->buffer + wr_ptr;
 1773              		.loc 1 267 3 is_stmt 1 view .LVU555
 268:/home/pi/Developer/tinyusb/src/common/tusb_fifo.c **** 
 1774              		.loc 1 268 3 view .LVU556
 270:/home/pi/Developer/tinyusb/src/common/tusb_fifo.c ****   if (n <= lin_bytes) {
 1775              		.loc 1 270 3 view .LVU557
 271:/home/pi/Developer/tinyusb/src/common/tusb_fifo.c ****     // Linear only case
 1776              		.loc 1 271 3 view .LVU558
 271:/home/pi/Developer/tinyusb/src/common/tusb_fifo.c ****     // Linear only case
 1777              		.loc 1 271 6 is_stmt 0 view .LVU559
 1778 006a 4BD3     		bcc	.L122
 273:/home/pi/Developer/tinyusb/src/common/tusb_fifo.c ****   } else {
 1779              		.loc 1 273 5 is_stmt 1 view .LVU560
 1780              	.LVL155:
 1781              	.LBB532:
 1782              	.LBI532:
 222:/home/pi/Developer/tinyusb/src/common/tusb_fifo.c ****   // Reading full available 16/32-bit hwfifo and write to fifo
 1783              		.loc 1 222 6 view .LVU561
 1784              	.LBB533:
 224:/home/pi/Developer/tinyusb/src/common/tusb_fifo.c ****   while (len >= data_stride) {
 1785              		.loc 1 224 3 view .LVU562
 224:/home/pi/Developer/tinyusb/src/common/tusb_fifo.c ****   while (len >= data_stride) {
 1786              		.loc 1 224 17 is_stmt 0 view .LVU563
 1787 006c 0C78     		ldrb	r4, [r1]	@ zero_extendqisi2
 1788              	.LVL156:
 225:/home/pi/Developer/tinyusb/src/common/tusb_fifo.c ****     stride_read(hwfifo, dest, data_stride);
ARM GAS  /tmp/cc4ocKfo.s 			page 60


 1789              		.loc 1 225 3 is_stmt 1 view .LVU564
 229:/home/pi/Developer/tinyusb/src/common/tusb_fifo.c ****   }
 1790              		.loc 1 229 36 view .LVU565
 225:/home/pi/Developer/tinyusb/src/common/tusb_fifo.c ****     stride_read(hwfifo, dest, data_stride);
 1791              		.loc 1 225 9 view .LVU566
 227:/home/pi/Developer/tinyusb/src/common/tusb_fifo.c ****     len -= data_stride;
 1792              		.loc 1 227 10 is_stmt 0 view .LVU567
 1793 006e 4246     		mov	r2, r8
 225:/home/pi/Developer/tinyusb/src/common/tusb_fifo.c ****     stride_read(hwfifo, dest, data_stride);
 1794              		.loc 1 225 9 view .LVU568
 1795 0070 4445     		cmp	r4, r8
 225:/home/pi/Developer/tinyusb/src/common/tusb_fifo.c ****     stride_read(hwfifo, dest, data_stride);
 1796              		.loc 1 225 14 view .LVU569
 1797 0072 A1B2     		uxth	r1, r4
 1798              	.LVL157:
 225:/home/pi/Developer/tinyusb/src/common/tusb_fifo.c ****     stride_read(hwfifo, dest, data_stride);
 1799              		.loc 1 225 9 view .LVU570
 1800 0074 00F2A480 		bhi	.L123
 1801              	.LVL158:
 1802              	.L124:
 226:/home/pi/Developer/tinyusb/src/common/tusb_fifo.c ****     dest += data_stride;
 1803              		.loc 1 226 5 is_stmt 1 view .LVU571
 1804              	.LBB534:
 1805              	.LBI534:
 196:/home/pi/Developer/tinyusb/src/common/tusb_fifo.c ****   (void)data_stride; // possible unused
 1806              		.loc 1 196 42 view .LVU572
 1807              	.LBB535:
 197:/home/pi/Developer/tinyusb/src/common/tusb_fifo.c **** 
 1808              		.loc 1 197 3 view .LVU573
 204:/home/pi/Developer/tinyusb/src/common/tusb_fifo.c ****   }
 1809              		.loc 1 204 5 view .LVU574
 1810              	.LBE535:
 1811              	.LBE534:
 228:/home/pi/Developer/tinyusb/src/common/tusb_fifo.c ****     HWFIFO_ADDR_NEXT(hwfifo, const);
 1812              		.loc 1 228 9 is_stmt 0 view .LVU575
 1813 0078 521A     		subs	r2, r2, r1
 1814              	.LVL159:
 1815              	.LBB542:
 1816              	.LBB540:
 204:/home/pi/Developer/tinyusb/src/common/tusb_fifo.c ****   }
 1817              		.loc 1 204 5 view .LVU576
 1818 007a 3868     		ldr	r0, [r7]
 1819              	.LVL160:
 1820              	.LBB536:
 1821              	.LBI536:
 322:/home/pi/Developer/tinyusb/src/common/tusb_common.h ****   *((uint32_t *) mem) = value;
 1822              		.loc 2 322 42 is_stmt 1 view .LVU577
 1823              	.LBB537:
 1824              		.loc 2 323 3 view .LVU578
 1825              	.LBE537:
 1826              	.LBE536:
 1827              	.LBE540:
 1828              	.LBE542:
 228:/home/pi/Developer/tinyusb/src/common/tusb_fifo.c ****     HWFIFO_ADDR_NEXT(hwfifo, const);
 1829              		.loc 1 228 9 is_stmt 0 view .LVU579
 1830 007c 92B2     		uxth	r2, r2
 1831              	.LBB543:
ARM GAS  /tmp/cc4ocKfo.s 			page 61


 1832              	.LBB541:
 1833              	.LBB539:
 1834              	.LBB538:
 1835              		.loc 2 323 23 view .LVU580
 1836 007e CAF80000 		str	r0, [r10]
 1837              	.LVL161:
 1838              		.loc 2 323 23 view .LVU581
 1839              	.LBE538:
 1840              	.LBE539:
 1841              	.LBE541:
 1842              	.LBE543:
 227:/home/pi/Developer/tinyusb/src/common/tusb_fifo.c ****     len -= data_stride;
 1843              		.loc 1 227 5 is_stmt 1 view .LVU582
 227:/home/pi/Developer/tinyusb/src/common/tusb_fifo.c ****     len -= data_stride;
 1844              		.loc 1 227 10 is_stmt 0 view .LVU583
 1845 0082 A244     		add	r10, r10, r4
 1846              	.LVL162:
 228:/home/pi/Developer/tinyusb/src/common/tusb_fifo.c ****     HWFIFO_ADDR_NEXT(hwfifo, const);
 1847              		.loc 1 228 5 is_stmt 1 view .LVU584
 229:/home/pi/Developer/tinyusb/src/common/tusb_fifo.c ****   }
 1848              		.loc 1 229 36 view .LVU585
 225:/home/pi/Developer/tinyusb/src/common/tusb_fifo.c ****     stride_read(hwfifo, dest, data_stride);
 1849              		.loc 1 225 9 view .LVU586
 1850 0084 8A42     		cmp	r2, r1
 1851 0086 F7D2     		bcs	.L124
 252:/home/pi/Developer/tinyusb/src/common/tusb_fifo.c ****     uint32_t tmp;
 1852              		.loc 1 252 3 view .LVU587
 252:/home/pi/Developer/tinyusb/src/common/tusb_fifo.c ****     uint32_t tmp;
 1853              		.loc 1 252 6 is_stmt 0 view .LVU588
 1854 0088 002A     		cmp	r2, #0
 1855 008a 40F09980 		bne	.L123
 1856              	.LVL163:
 1857              	.L125:
 252:/home/pi/Developer/tinyusb/src/common/tusb_fifo.c ****     uint32_t tmp;
 1858              		.loc 1 252 6 view .LVU589
 1859              	.LBE533:
 1860              	.LBE532:
 1861              	.LBE531:
 1862              	.LBE530:
 584:/home/pi/Developer/tinyusb/src/common/tusb_fifo.c ****     } else
 585:/home/pi/Developer/tinyusb/src/common/tusb_fifo.c **** #endif
 586:/home/pi/Developer/tinyusb/src/common/tusb_fifo.c ****     {
 587:/home/pi/Developer/tinyusb/src/common/tusb_fifo.c ****       ff_push_n(f, buf8, n, wr_ptr);
 588:/home/pi/Developer/tinyusb/src/common/tusb_fifo.c ****     }
 589:/home/pi/Developer/tinyusb/src/common/tusb_fifo.c ****     f->wr_idx = advance_index(f->depth, wr_idx, n);
 1863              		.loc 1 589 5 is_stmt 1 view .LVU590
 1864              	.LBB652:
 1865              	.LBI522:
 420:/home/pi/Developer/tinyusb/src/common/tusb_fifo.c ****   // We limit the index space of p such that a correct wrap around happens
 1866              		.loc 1 420 17 view .LVU591
 1867              	.LBB525:
 424:/home/pi/Developer/tinyusb/src/common/tusb_fifo.c ****   if ((idx > new_idx) || (new_idx >= 2 * depth)) {
 1868              		.loc 1 424 3 view .LVU592
 425:/home/pi/Developer/tinyusb/src/common/tusb_fifo.c ****     const uint16_t non_used_index_space = (uint16_t)(UINT16_MAX - (2 * depth - 1));
 1869              		.loc 1 425 3 view .LVU593
 425:/home/pi/Developer/tinyusb/src/common/tusb_fifo.c ****     const uint16_t non_used_index_space = (uint16_t)(UINT16_MAX - (2 * depth - 1));
 1870              		.loc 1 425 6 is_stmt 0 view .LVU594
ARM GAS  /tmp/cc4ocKfo.s 			page 62


 1871 008e 019A     		ldr	r2, [sp, #4]
 1872 0090 4A45     		cmp	r2, r9
 1873 0092 4FEA4302 		lsl	r2, r3, #1
 1874 0096 03D3     		bcc	.L141
 425:/home/pi/Developer/tinyusb/src/common/tusb_fifo.c ****     const uint16_t non_used_index_space = (uint16_t)(UINT16_MAX - (2 * depth - 1));
 1875              		.loc 1 425 23 view .LVU595
 1876 0098 0199     		ldr	r1, [sp, #4]
 1877 009a B1EB430F 		cmp	r1, r3, lsl #1
 1878 009e 03DB     		blt	.L142
 1879              	.L141:
 1880              	.LBB524:
 426:/home/pi/Developer/tinyusb/src/common/tusb_fifo.c ****     new_idx                             = (uint16_t)(new_idx + non_used_index_space);
 1881              		.loc 1 426 5 is_stmt 1 view .LVU596
 1882              	.LVL164:
 427:/home/pi/Developer/tinyusb/src/common/tusb_fifo.c ****   }
 1883              		.loc 1 427 5 view .LVU597
 1884 00a0 019B     		ldr	r3, [sp, #4]
 1885              	.LVL165:
 427:/home/pi/Developer/tinyusb/src/common/tusb_fifo.c ****   }
 1886              		.loc 1 427 5 is_stmt 0 view .LVU598
 1887 00a2 9A1A     		subs	r2, r3, r2
 1888 00a4 93B2     		uxth	r3, r2
 1889 00a6 0193     		str	r3, [sp, #4]
 1890              	.LVL166:
 1891              	.L142:
 427:/home/pi/Developer/tinyusb/src/common/tusb_fifo.c ****   }
 1892              		.loc 1 427 5 view .LVU599
 1893              	.LBE524:
 430:/home/pi/Developer/tinyusb/src/common/tusb_fifo.c **** }
 1894              		.loc 1 430 3 is_stmt 1 view .LVU600
 430:/home/pi/Developer/tinyusb/src/common/tusb_fifo.c **** }
 1895              		.loc 1 430 3 is_stmt 0 view .LVU601
 1896              	.LBE525:
 1897              	.LBE652:
 1898              		.loc 1 589 15 view .LVU602
 1899 00a8 019B     		ldr	r3, [sp, #4]
 1900              	.LBE666:
 590:/home/pi/Developer/tinyusb/src/common/tusb_fifo.c **** 
 591:/home/pi/Developer/tinyusb/src/common/tusb_fifo.c ****     TU_LOG(TU_FIFO_DBG, "\tnew_wr = %u\r\n", f->wr_idx);
 592:/home/pi/Developer/tinyusb/src/common/tusb_fifo.c ****   }
 593:/home/pi/Developer/tinyusb/src/common/tusb_fifo.c **** 
 594:/home/pi/Developer/tinyusb/src/common/tusb_fifo.c ****   ff_unlock(f->mutex_wr);
 595:/home/pi/Developer/tinyusb/src/common/tusb_fifo.c **** 
 596:/home/pi/Developer/tinyusb/src/common/tusb_fifo.c ****   return n;
 597:/home/pi/Developer/tinyusb/src/common/tusb_fifo.c **** }
 1901              		.loc 1 597 1 view .LVU603
 1902 00aa 4046     		mov	r0, r8
 1903              	.LBB667:
 589:/home/pi/Developer/tinyusb/src/common/tusb_fifo.c **** 
 1904              		.loc 1 589 15 view .LVU604
 1905 00ac 3381     		strh	r3, [r6, #8]	@ movhi
 1906              	.LVL167:
 589:/home/pi/Developer/tinyusb/src/common/tusb_fifo.c **** 
 1907              		.loc 1 589 15 view .LVU605
 1908              	.LBE667:
 1909              		.loc 1 597 1 view .LVU606
 1910 00ae 09B0     		add	sp, sp, #36
ARM GAS  /tmp/cc4ocKfo.s 			page 63


 1911              		.cfi_remember_state
 1912              		.cfi_def_cfa_offset 36
 1913              		@ sp needed
 1914 00b0 BDE8F08F 		pop	{r4, r5, r6, r7, r8, r9, r10, fp, pc}
 1915              	.LVL168:
 1916              	.L144:
 1917              		.cfi_restore_state
 521:/home/pi/Developer/tinyusb/src/common/tusb_fifo.c ****   }
 1918              		.loc 1 521 12 view .LVU607
 1919 00b4 4FF00008 		mov	r8, #0
 1920              	.LVL169:
 1921              	.L107:
 1922              		.loc 1 597 1 view .LVU608
 1923 00b8 4046     		mov	r0, r8
 1924              	.LVL170:
 1925              		.loc 1 597 1 view .LVU609
 1926 00ba 09B0     		add	sp, sp, #36
 1927              		.cfi_remember_state
 1928              		.cfi_def_cfa_offset 36
 1929              		@ sp needed
 1930 00bc BDE8F08F 		pop	{r4, r5, r6, r7, r8, r9, r10, fp, pc}
 1931              	.LVL171:
 1932              	.L108:
 1933              		.cfi_restore_state
 543:/home/pi/Developer/tinyusb/src/common/tusb_fifo.c ****       // Only copy last part
 1934              		.loc 1 543 5 is_stmt 1 view .LVU610
 543:/home/pi/Developer/tinyusb/src/common/tusb_fifo.c ****       // Only copy last part
 1935              		.loc 1 543 8 is_stmt 0 view .LVU611
 1936 00c0 9542     		cmp	r5, r2
 543:/home/pi/Developer/tinyusb/src/common/tusb_fifo.c ****       // Only copy last part
 1937              		.loc 1 543 15 view .LVU612
 1938 00c2 A846     		mov	r8, r5
 543:/home/pi/Developer/tinyusb/src/common/tusb_fifo.c ****       // Only copy last part
 1939              		.loc 1 543 8 view .LVU613
 1940 00c4 12D9     		bls	.L173
 1941              	.LBB668:
 557:/home/pi/Developer/tinyusb/src/common/tusb_fifo.c ****       if (overflowable_count + n >= 2 * f->depth) {
 1942              		.loc 1 557 7 is_stmt 1 view .LVU614
 1943              	.LVL172:
 1944              	.LBB515:
 1945              	.LBI515:
 262:/home/pi/Developer/tinyusb/src/common/tusb_fifo.h ****   const int32_t diff = (int32_t)wr_idx - (int32_t)rd_idx;
 1946              		.loc 3 262 46 view .LVU615
 1947              	.LBB516:
 263:/home/pi/Developer/tinyusb/src/common/tusb_fifo.h ****   if (diff >= 0) {
 1948              		.loc 3 263 3 view .LVU616
 264:/home/pi/Developer/tinyusb/src/common/tusb_fifo.h ****     return (uint16_t)diff;
 1949              		.loc 3 264 3 view .LVU617
 264:/home/pi/Developer/tinyusb/src/common/tusb_fifo.h ****     return (uint16_t)diff;
 1950              		.loc 3 264 6 is_stmt 0 view .LVU618
 1951 00c6 B9EB0301 		subs	r1, r9, r3
 265:/home/pi/Developer/tinyusb/src/common/tusb_fifo.h ****   } else {
 1952              		.loc 3 265 5 is_stmt 1 view .LVU619
 267:/home/pi/Developer/tinyusb/src/common/tusb_fifo.h ****   }
 1953              		.loc 3 267 5 view .LVU620
 267:/home/pi/Developer/tinyusb/src/common/tusb_fifo.h ****   }
 1954              		.loc 3 267 12 is_stmt 0 view .LVU621
ARM GAS  /tmp/cc4ocKfo.s 			page 64


 1955 00ca 4FEA4500 		lsl	r0, r5, #1
 1956              	.LVL173:
 267:/home/pi/Developer/tinyusb/src/common/tusb_fifo.h ****   }
 1957              		.loc 3 267 12 view .LVU622
 1958 00ce 44BF     		itt	mi
 1959 00d0 C3EB4501 		rsbmi	r1, r3, r5, lsl #1
 1960 00d4 4944     		addmi	r1, r1, r9
 1961 00d6 89B2     		uxth	r1, r1
 1962              	.LVL174:
 267:/home/pi/Developer/tinyusb/src/common/tusb_fifo.h ****   }
 1963              		.loc 3 267 12 view .LVU623
 1964              	.LBE516:
 1965              	.LBE515:
 558:/home/pi/Developer/tinyusb/src/common/tusb_fifo.c ****         // Double overflowed
 1966              		.loc 1 558 7 is_stmt 1 view .LVU624
 558:/home/pi/Developer/tinyusb/src/common/tusb_fifo.c ****         // Double overflowed
 1967              		.loc 1 558 30 is_stmt 0 view .LVU625
 1968 00d8 1144     		add	r1, r1, r2
 1969              	.LVL175:
 558:/home/pi/Developer/tinyusb/src/common/tusb_fifo.c ****         // Double overflowed
 1970              		.loc 1 558 10 view .LVU626
 1971 00da 8142     		cmp	r1, r0
 1972              	.LVL176:
 558:/home/pi/Developer/tinyusb/src/common/tusb_fifo.c ****         // Double overflowed
 1973              		.loc 1 558 10 view .LVU627
 1974 00dc 47DA     		bge	.L116
 1975              	.LBE668:
 1976              	.LBB669:
 1977              	.LBB653:
 1978              	.LBB526:
 424:/home/pi/Developer/tinyusb/src/common/tusb_fifo.c ****   if ((idx > new_idx) || (new_idx >= 2 * depth)) {
 1979              		.loc 1 424 12 view .LVU628
 1980 00de 02EB0903 		add	r3, r2, r9
 1981              	.LVL177:
 424:/home/pi/Developer/tinyusb/src/common/tusb_fifo.c ****   if ((idx > new_idx) || (new_idx >= 2 * depth)) {
 1982              		.loc 1 424 12 view .LVU629
 1983 00e2 9046     		mov	r8, r2
 1984 00e4 9BB2     		uxth	r3, r3
 1985 00e6 0193     		str	r3, [sp, #4]
 1986 00e8 2B46     		mov	r3, r5
 1987 00ea ADE7     		b	.L117
 1988              	.LVL178:
 1989              	.L173:
 424:/home/pi/Developer/tinyusb/src/common/tusb_fifo.c ****   if ((idx > new_idx) || (new_idx >= 2 * depth)) {
 1990              		.loc 1 424 12 view .LVU630
 1991              	.LBE526:
 1992              	.LBE653:
 1993              	.LBE669:
 545:/home/pi/Developer/tinyusb/src/common/tusb_fifo.c ****         buf8 += (n - f->depth);
 1994              		.loc 1 545 7 is_stmt 1 view .LVU631
 545:/home/pi/Developer/tinyusb/src/common/tusb_fifo.c ****         buf8 += (n - f->depth);
 1995              		.loc 1 545 10 is_stmt 0 view .LVU632
 1996 00ec 0299     		ldr	r1, [sp, #8]
 1997 00ee 0029     		cmp	r1, #0
 1998 00f0 63D0     		beq	.L174
 1999              	.LVL179:
 2000              	.L113:
ARM GAS  /tmp/cc4ocKfo.s 			page 65


 2001              	.LBB670:
 573:/home/pi/Developer/tinyusb/src/common/tusb_fifo.c ****     }
 2002              		.loc 1 573 7 is_stmt 1 view .LVU633
 2003              	.LBE670:
 577:/home/pi/Developer/tinyusb/src/common/tusb_fifo.c ****     const uint16_t wr_ptr = idx2ptr(f->depth, wr_idx);
 2004              		.loc 1 577 3 view .LVU634
 577:/home/pi/Developer/tinyusb/src/common/tusb_fifo.c ****     const uint16_t wr_ptr = idx2ptr(f->depth, wr_idx);
 2005              		.loc 1 577 6 is_stmt 0 view .LVU635
 2006 00f2 002D     		cmp	r5, #0
 2007 00f4 E0D0     		beq	.L107
 577:/home/pi/Developer/tinyusb/src/common/tusb_fifo.c ****     const uint16_t wr_ptr = idx2ptr(f->depth, wr_idx);
 2008              		.loc 1 577 6 view .LVU636
 2009 00f6 9946     		mov	r9, r3
 2010 00f8 A1E7     		b	.L111
 2011              	.LVL180:
 2012              	.L109:
 2013              	.LBB671:
 2014              	.LBB512:
 2015              	.LBB507:
 2016              	.LBB506:
 2017              	.LBB505:
 267:/home/pi/Developer/tinyusb/src/common/tusb_fifo.h ****   }
 2018              		.loc 3 267 5 is_stmt 1 view .LVU637
 267:/home/pi/Developer/tinyusb/src/common/tusb_fifo.h ****   }
 2019              		.loc 3 267 12 is_stmt 0 view .LVU638
 2020 00fa C3EB4503 		rsb	r3, r3, r5, lsl #1
 2021              	.LVL181:
 267:/home/pi/Developer/tinyusb/src/common/tusb_fifo.h ****   }
 2022              		.loc 3 267 12 view .LVU639
 2023 00fe 4B44     		add	r3, r3, r9
 2024 0100 9BB2     		uxth	r3, r3
 2025 0102 93E7     		b	.L110
 2026              	.LVL182:
 2027              	.L122:
 267:/home/pi/Developer/tinyusb/src/common/tusb_fifo.h ****   }
 2028              		.loc 3 267 12 view .LVU640
 2029              	.LBE505:
 2030              	.LBE506:
 2031              	.LBE507:
 2032              	.LBE512:
 2033              	.LBE671:
 2034              	.LBB672:
 2035              	.LBB654:
 2036              	.LBB648:
 2037              	.LBB555:
 282:/home/pi/Developer/tinyusb/src/common/tusb_fifo.c ****     const uint32_t odd_mask    = data_stride - 1;
 2038              		.loc 1 282 5 is_stmt 1 view .LVU641
 282:/home/pi/Developer/tinyusb/src/common/tusb_fifo.c ****     const uint32_t odd_mask    = data_stride - 1;
 2039              		.loc 1 282 20 is_stmt 0 view .LVU642
 2040 0104 029B     		ldr	r3, [sp, #8]
 2041              	.LVL183:
 284:/home/pi/Developer/tinyusb/src/common/tusb_fifo.c ****     tu_hwfifo_read(hwfifo, ff_buf, lin_even, access_mode);
 2042              		.loc 1 284 20 view .LVU643
 2043 0106 0399     		ldr	r1, [sp, #12]
 2044              	.LVL184:
 282:/home/pi/Developer/tinyusb/src/common/tusb_fifo.c ****     const uint32_t odd_mask    = data_stride - 1;
 2045              		.loc 1 282 20 view .LVU644
ARM GAS  /tmp/cc4ocKfo.s 			page 66


 2046 0108 1B78     		ldrb	r3, [r3]	@ zero_extendqisi2
 2047              	.LVL185:
 283:/home/pi/Developer/tinyusb/src/common/tusb_fifo.c ****     uint16_t       lin_even    = (uint16_t)(lin_bytes & ~odd_mask);
 2048              		.loc 1 283 5 is_stmt 1 view .LVU645
 284:/home/pi/Developer/tinyusb/src/common/tusb_fifo.c ****     tu_hwfifo_read(hwfifo, ff_buf, lin_even, access_mode);
 2049              		.loc 1 284 5 view .LVU646
 284:/home/pi/Developer/tinyusb/src/common/tusb_fifo.c ****     tu_hwfifo_read(hwfifo, ff_buf, lin_even, access_mode);
 2050              		.loc 1 284 34 is_stmt 0 view .LVU647
 2051 010a 5A42     		rsbs	r2, r3, #0
 2052              	.LBB556:
 2053              	.LBB557:
 225:/home/pi/Developer/tinyusb/src/common/tusb_fifo.c ****     stride_read(hwfifo, dest, data_stride);
 2054              		.loc 1 225 14 view .LVU648
 2055 010c 1FFA83FB 		uxth	fp, r3
 2056              	.LBE557:
 2057              	.LBE556:
 284:/home/pi/Developer/tinyusb/src/common/tusb_fifo.c ****     tu_hwfifo_read(hwfifo, ff_buf, lin_even, access_mode);
 2058              		.loc 1 284 20 view .LVU649
 2059 0110 0A40     		ands	r2, r2, r1
 2060              	.LBB578:
 2061              	.LBB573:
 225:/home/pi/Developer/tinyusb/src/common/tusb_fifo.c ****     stride_read(hwfifo, dest, data_stride);
 2062              		.loc 1 225 9 view .LVU650
 2063 0112 9A42     		cmp	r2, r3
 2064              	.LBE573:
 2065              	.LBE578:
 284:/home/pi/Developer/tinyusb/src/common/tusb_fifo.c ****     tu_hwfifo_read(hwfifo, ff_buf, lin_even, access_mode);
 2066              		.loc 1 284 20 view .LVU651
 2067 0114 0492     		str	r2, [sp, #16]
 2068              	.LVL186:
 285:/home/pi/Developer/tinyusb/src/common/tusb_fifo.c ****     HWFIFO_ADDR_NEXT_N(hwfifo, const, lin_even * HWFIFO_ADDR_DATA_RATIO);
 2069              		.loc 1 285 5 is_stmt 1 view .LVU652
 2070              	.LBB579:
 2071              	.LBI556:
 222:/home/pi/Developer/tinyusb/src/common/tusb_fifo.c ****   // Reading full available 16/32-bit hwfifo and write to fifo
 2072              		.loc 1 222 6 view .LVU653
 2073              	.LBB574:
 224:/home/pi/Developer/tinyusb/src/common/tusb_fifo.c ****   while (len >= data_stride) {
 2074              		.loc 1 224 3 view .LVU654
 229:/home/pi/Developer/tinyusb/src/common/tusb_fifo.c ****   }
 2075              		.loc 1 229 36 view .LVU655
 225:/home/pi/Developer/tinyusb/src/common/tusb_fifo.c ****     stride_read(hwfifo, dest, data_stride);
 2076              		.loc 1 225 9 view .LVU656
 2077 0116 C0F0B980 		bcc	.L148
 2078              	.LBE574:
 2079              	.LBE579:
 2080              	.LBE555:
 2081              	.LBB641:
 2082              	.LBB553:
 227:/home/pi/Developer/tinyusb/src/common/tusb_fifo.c ****     len -= data_stride;
 2083              		.loc 1 227 10 is_stmt 0 view .LVU657
 2084 011a 5046     		mov	r0, r10
 2085              	.LVL187:
 2086              	.L127:
 227:/home/pi/Developer/tinyusb/src/common/tusb_fifo.c ****     len -= data_stride;
 2087              		.loc 1 227 10 view .LVU658
 2088              	.LBE553:
ARM GAS  /tmp/cc4ocKfo.s 			page 67


 2089              	.LBE641:
 2090              	.LBB642:
 2091              	.LBB580:
 2092              	.LBB575:
 226:/home/pi/Developer/tinyusb/src/common/tusb_fifo.c ****     dest += data_stride;
 2093              		.loc 1 226 5 is_stmt 1 view .LVU659
 2094              	.LBB558:
 2095              	.LBI558:
 196:/home/pi/Developer/tinyusb/src/common/tusb_fifo.c ****   (void)data_stride; // possible unused
 2096              		.loc 1 196 42 view .LVU660
 2097              	.LBB559:
 197:/home/pi/Developer/tinyusb/src/common/tusb_fifo.c **** 
 2098              		.loc 1 197 3 view .LVU661
 204:/home/pi/Developer/tinyusb/src/common/tusb_fifo.c ****   }
 2099              		.loc 1 204 5 view .LVU662
 2100              	.LBE559:
 2101              	.LBE558:
 228:/home/pi/Developer/tinyusb/src/common/tusb_fifo.c ****     HWFIFO_ADDR_NEXT(hwfifo, const);
 2102              		.loc 1 228 9 is_stmt 0 view .LVU663
 2103 011c A2EB0B02 		sub	r2, r2, fp
 2104              	.LVL188:
 2105              	.LBB566:
 2106              	.LBB564:
 204:/home/pi/Developer/tinyusb/src/common/tusb_fifo.c ****   }
 2107              		.loc 1 204 5 view .LVU664
 2108 0120 3968     		ldr	r1, [r7]
 2109              	.LVL189:
 2110              	.LBB560:
 2111              	.LBI560:
 322:/home/pi/Developer/tinyusb/src/common/tusb_common.h ****   *((uint32_t *) mem) = value;
 2112              		.loc 2 322 42 is_stmt 1 view .LVU665
 2113              	.LBB561:
 2114              		.loc 2 323 3 view .LVU666
 2115              	.LBE561:
 2116              	.LBE560:
 2117              	.LBE564:
 2118              	.LBE566:
 228:/home/pi/Developer/tinyusb/src/common/tusb_fifo.c ****     HWFIFO_ADDR_NEXT(hwfifo, const);
 2119              		.loc 1 228 9 is_stmt 0 view .LVU667
 2120 0122 92B2     		uxth	r2, r2
 2121              	.LBB567:
 2122              	.LBB565:
 2123              	.LBB563:
 2124              	.LBB562:
 2125              		.loc 2 323 23 view .LVU668
 2126 0124 0160     		str	r1, [r0]
 2127              	.LVL190:
 2128              		.loc 2 323 23 view .LVU669
 2129              	.LBE562:
 2130              	.LBE563:
 2131              	.LBE565:
 2132              	.LBE567:
 227:/home/pi/Developer/tinyusb/src/common/tusb_fifo.c ****     len -= data_stride;
 2133              		.loc 1 227 5 is_stmt 1 view .LVU670
 227:/home/pi/Developer/tinyusb/src/common/tusb_fifo.c ****     len -= data_stride;
 2134              		.loc 1 227 10 is_stmt 0 view .LVU671
 2135 0126 1844     		add	r0, r0, r3
ARM GAS  /tmp/cc4ocKfo.s 			page 68


 2136              	.LVL191:
 228:/home/pi/Developer/tinyusb/src/common/tusb_fifo.c ****     HWFIFO_ADDR_NEXT(hwfifo, const);
 2137              		.loc 1 228 5 is_stmt 1 view .LVU672
 229:/home/pi/Developer/tinyusb/src/common/tusb_fifo.c ****   }
 2138              		.loc 1 229 36 view .LVU673
 225:/home/pi/Developer/tinyusb/src/common/tusb_fifo.c ****     stride_read(hwfifo, dest, data_stride);
 2139              		.loc 1 225 9 view .LVU674
 2140 0128 5A45     		cmp	r2, fp
 2141 012a F7D2     		bcs	.L127
 2142              	.LVL192:
 2143              	.L126:
 252:/home/pi/Developer/tinyusb/src/common/tusb_fifo.c ****     uint32_t tmp;
 2144              		.loc 1 252 3 view .LVU675
 252:/home/pi/Developer/tinyusb/src/common/tusb_fifo.c ****     uint32_t tmp;
 2145              		.loc 1 252 6 is_stmt 0 view .LVU676
 2146 012c 002A     		cmp	r2, #0
 2147 012e 40F08880 		bne	.L175
 2148              	.LVL193:
 2149              	.L128:
 252:/home/pi/Developer/tinyusb/src/common/tusb_fifo.c ****     uint32_t tmp;
 2150              		.loc 1 252 6 view .LVU677
 2151              	.LBE575:
 2152              	.LBE580:
 2153              	.LBE642:
 267:/home/pi/Developer/tinyusb/src/common/tusb_fifo.c ****   uint8_t *ff_buf     = f->buffer + wr_ptr;
 2154              		.loc 1 267 12 view .LVU678
 2155 0132 A8EB0505 		sub	r5, r8, r5
 2156              	.LVL194:
 267:/home/pi/Developer/tinyusb/src/common/tusb_fifo.c ****   uint8_t *ff_buf     = f->buffer + wr_ptr;
 2157              		.loc 1 267 12 view .LVU679
 2158 0136 2C44     		add	r4, r4, r5
 2159              	.LVL195:
 2160              	.LBB643:
 291:/home/pi/Developer/tinyusb/src/common/tusb_fifo.c ****     if (lin_odd > 0) {
 2161              		.loc 1 291 29 view .LVU680
 2162 0138 5D1E     		subs	r5, r3, #1
 291:/home/pi/Developer/tinyusb/src/common/tusb_fifo.c ****     if (lin_odd > 0) {
 2163              		.loc 1 291 19 view .LVU681
 2164 013a 039B     		ldr	r3, [sp, #12]
 2165              	.LBE643:
 267:/home/pi/Developer/tinyusb/src/common/tusb_fifo.c ****   uint8_t *ff_buf     = f->buffer + wr_ptr;
 2166              		.loc 1 267 12 view .LVU682
 2167 013c A4B2     		uxth	r4, r4
 2168              	.LVL196:
 2169              	.LBB644:
 286:/home/pi/Developer/tinyusb/src/common/tusb_fifo.c ****     ff_buf += lin_even;
 2170              		.loc 1 286 73 is_stmt 1 view .LVU683
 287:/home/pi/Developer/tinyusb/src/common/tusb_fifo.c **** 
 2171              		.loc 1 287 5 view .LVU684
 291:/home/pi/Developer/tinyusb/src/common/tusb_fifo.c ****     if (lin_odd > 0) {
 2172              		.loc 1 291 5 view .LVU685
 291:/home/pi/Developer/tinyusb/src/common/tusb_fifo.c ****     if (lin_odd > 0) {
 2173              		.loc 1 291 19 is_stmt 0 view .LVU686
 2174 013e 1D40     		ands	r5, r5, r3
 2175              	.LVL197:
 292:/home/pi/Developer/tinyusb/src/common/tusb_fifo.c ****       const uint8_t wrap_odd = (uint8_t)tu_min16(wrap_bytes, data_stride - lin_odd);
 2176              		.loc 1 292 5 is_stmt 1 view .LVU687
ARM GAS  /tmp/cc4ocKfo.s 			page 69


 292:/home/pi/Developer/tinyusb/src/common/tusb_fifo.c ****       const uint8_t wrap_odd = (uint8_t)tu_min16(wrap_bytes, data_stride - lin_odd);
 2177              		.loc 1 292 8 is_stmt 0 view .LVU688
 2178 0140 15F0FF05 		ands	r5, r5, #255
 2179              	.LVL198:
