ARM GAS  /tmp/ccT27Vsj.s 			page 1


   1              		.cpu cortex-m7
   2              		.eabi_attribute 28, 1
   3              		.eabi_attribute 20, 1
   4              		.eabi_attribute 21, 1
   5              		.eabi_attribute 23, 3
   6              		.eabi_attribute 24, 1
   7              		.eabi_attribute 25, 1
   8              		.eabi_attribute 26, 1
   9              		.eabi_attribute 30, 2
  10              		.eabi_attribute 34, 1
  11              		.eabi_attribute 18, 4
  12              		.file	"usb_descriptors.c"
  13              		.text
  14              	.Ltext0:
  15              		.cfi_sections	.debug_frame
  16              		.section	.text.tud_descriptor_device_cb,"ax",%progbits
  17              		.align	1
  18              		.p2align 2,,3
  19              		.global	tud_descriptor_device_cb
  20              		.arch armv7e-m
  21              		.syntax unified
  22              		.thumb
  23              		.thumb_func
  24              		.fpu fpv5-d16
  26              	tud_descriptor_device_cb:
  27              	.LFB441:
  28              		.file 1 "usb_descriptors.c"
   1:usb_descriptors.c **** #include "bsp/board_api.h"
   2:usb_descriptors.c **** #include "tusb.h"
   3:usb_descriptors.c **** 
   4:usb_descriptors.c **** #define PID_MAP(itf, n)  ((CFG_TUD_##itf) ? (1 << (n)) : 0)
   5:usb_descriptors.c **** #define USB_PID           (0x4000 | PID_MAP(CDC, 0) | PID_MAP(MSC, 1) | PID_MAP(HID, 2) | PID_MAP(M
   6:usb_descriptors.c **** #define USB_VID 0xCafe
   7:usb_descriptors.c **** #define USB_BCD 0x0200
   8:usb_descriptors.c **** 
   9:usb_descriptors.c **** static tusb_desc_device_t const desc_device = {
  10:usb_descriptors.c ****     .bLength = sizeof(tusb_desc_device_t),
  11:usb_descriptors.c ****     .bDescriptorType = TUSB_DESC_DEVICE,
  12:usb_descriptors.c ****     .bcdUSB = USB_BCD,
  13:usb_descriptors.c ****     .bDeviceClass = TUSB_CLASS_MISC,
  14:usb_descriptors.c ****     .bDeviceSubClass = MISC_SUBCLASS_COMMON,
  15:usb_descriptors.c ****     .bDeviceProtocol = MISC_PROTOCOL_IAD,
  16:usb_descriptors.c ****     .bMaxPacketSize0 = CFG_TUD_ENDPOINT0_SIZE,
  17:usb_descriptors.c ****     .idVendor = USB_VID,
  18:usb_descriptors.c ****     .idProduct = USB_PID,
  19:usb_descriptors.c ****     .bcdDevice = 0x0100,
  20:usb_descriptors.c ****     .iManufacturer = 0x01,
  21:usb_descriptors.c ****     .iProduct = 0x02,
  22:usb_descriptors.c ****     .iSerialNumber = 0x03,
  23:usb_descriptors.c ****     .bNumConfigurations = 0x01
  24:usb_descriptors.c **** };
  25:usb_descriptors.c **** 
  26:usb_descriptors.c **** uint8_t const* tud_descriptor_device_cb(void) { return (uint8_t const*)&desc_device; }
  29              		.loc 1 26 47 view -0
  30              		.cfi_startproc
  31              		@ args = 0, pretend = 0, frame = 0
  32              		@ frame_needed = 0, uses_anonymous_args = 0
ARM GAS  /tmp/ccT27Vsj.s 			page 2


  33              		@ link register save eliminated.
  34              		.loc 1 26 49 view .LVU1
  35              		.loc 1 26 86 is_stmt 0 view .LVU2
  36 0000 0048     		ldr	r0, .L3
  37 0002 7047     		bx	lr
  38              	.L4:
  39              		.align	2
  40              	.L3:
  41 0004 00000000 		.word	.LANCHOR0
  42              		.cfi_endproc
  43              	.LFE441:
  45              		.section	.text.tud_hid_descriptor_report_cb,"ax",%progbits
  46              		.align	1
  47              		.p2align 2,,3
  48              		.global	tud_hid_descriptor_report_cb
  49              		.syntax unified
  50              		.thumb
  51              		.thumb_func
  52              		.fpu fpv5-d16
  54              	tud_hid_descriptor_report_cb:
  55              	.LVL0:
  56              	.LFB442:
  27:usb_descriptors.c **** 
  28:usb_descriptors.c **** enum {
  29:usb_descriptors.c ****     ITF_NUM_CDC = 0,
  30:usb_descriptors.c ****     ITF_NUM_CDC_DATA,
  31:usb_descriptors.c ****     ITF_NUM_HID,
  32:usb_descriptors.c ****     ITF_NUM_TOTAL
  33:usb_descriptors.c **** };
  34:usb_descriptors.c **** 
  35:usb_descriptors.c **** #define EPNUM_CDC_NOTIF 0x81
  36:usb_descriptors.c **** #define EPNUM_CDC_OUT   0x02
  37:usb_descriptors.c **** #define EPNUM_CDC_IN    0x82
  38:usb_descriptors.c **** #define EPNUM_HID       0x83
  39:usb_descriptors.c **** #define CONFIG_TOTAL_LEN (TUD_CONFIG_DESC_LEN + TUD_CDC_DESC_LEN + TUD_HID_DESC_LEN)
  40:usb_descriptors.c **** 
  41:usb_descriptors.c **** uint8_t const desc_hid_report[] = { TUD_HID_REPORT_DESC_KEYBOARD() };
  42:usb_descriptors.c **** 
  43:usb_descriptors.c **** static uint8_t const desc_fs_configuration[] = {
  44:usb_descriptors.c ****     TUD_CONFIG_DESCRIPTOR(1, ITF_NUM_TOTAL, 0, CONFIG_TOTAL_LEN, 0x00, 100),
  45:usb_descriptors.c ****     TUD_CDC_DESCRIPTOR(ITF_NUM_CDC, 4, EPNUM_CDC_NOTIF, 16, EPNUM_CDC_OUT, EPNUM_CDC_IN, 64),
  46:usb_descriptors.c ****     TUD_HID_DESCRIPTOR(ITF_NUM_HID, 5, HID_ITF_PROTOCOL_KEYBOARD, sizeof(desc_hid_report), EPNUM_HI
  47:usb_descriptors.c **** };
  48:usb_descriptors.c **** 
  49:usb_descriptors.c **** uint8_t const* tud_hid_descriptor_report_cb(uint8_t instance)
  50:usb_descriptors.c **** {
  57              		.loc 1 50 1 is_stmt 1 view -0
  58              		.cfi_startproc
  59              		@ args = 0, pretend = 0, frame = 0
  60              		@ frame_needed = 0, uses_anonymous_args = 0
  61              		@ link register save eliminated.
  51:usb_descriptors.c ****     (void)instance;
  62              		.loc 1 51 5 view .LVU4
  52:usb_descriptors.c ****     return desc_hid_report;
  63              		.loc 1 52 5 view .LVU5
  53:usb_descriptors.c **** }
  64              		.loc 1 53 1 is_stmt 0 view .LVU6
ARM GAS  /tmp/ccT27Vsj.s 			page 3


  65 0000 0048     		ldr	r0, .L6
  66              	.LVL1:
  67              		.loc 1 53 1 view .LVU7
  68 0002 7047     		bx	lr
  69              	.L7:
  70              		.align	2
  71              	.L6:
  72 0004 00000000 		.word	.LANCHOR1
  73              		.cfi_endproc
  74              	.LFE442:
  76              		.section	.text.tud_descriptor_configuration_cb,"ax",%progbits
  77              		.align	1
  78              		.p2align 2,,3
  79              		.global	tud_descriptor_configuration_cb
  80              		.syntax unified
  81              		.thumb
  82              		.thumb_func
  83              		.fpu fpv5-d16
  85              	tud_descriptor_configuration_cb:
  86              	.LVL2:
  87              	.LFB443:
  54:usb_descriptors.c **** 
  55:usb_descriptors.c **** uint8_t const* tud_descriptor_configuration_cb(uint8_t index)
  56:usb_descriptors.c **** {
  88              		.loc 1 56 1 is_stmt 1 view -0
  89              		.cfi_startproc
  90              		@ args = 0, pretend = 0, frame = 0
  91              		@ frame_needed = 0, uses_anonymous_args = 0
  92              		@ link register save eliminated.
  57:usb_descriptors.c ****     (void)index;
  93              		.loc 1 57 5 view .LVU9
  58:usb_descriptors.c ****     return desc_fs_configuration;
  94              		.loc 1 58 5 view .LVU10
  59:usb_descriptors.c **** }
  95              		.loc 1 59 1 is_stmt 0 view .LVU11
  96 0000 0048     		ldr	r0, .L9
  97              	.LVL3:
  98              		.loc 1 59 1 view .LVU12
  99 0002 7047     		bx	lr
 100              	.L10:
 101              		.align	2
 102              	.L9:
 103 0004 00000000 		.word	.LANCHOR2
 104              		.cfi_endproc
 105              	.LFE443:
 107              		.section	.rodata.tud_descriptor_string_cb.str1.4,"aMS",%progbits,1
 108              		.align	2
 109              	.LC0:
 110 0000 30313233 		.ascii	"0123456789ABCDEF\000"
 110      34353637 
 110      38394142 
 110      43444546 
 110      00
 111              		.section	.text.tud_descriptor_string_cb,"ax",%progbits
 112              		.align	1
 113              		.p2align 2,,3
 114              		.global	tud_descriptor_string_cb
ARM GAS  /tmp/ccT27Vsj.s 			page 4


 115              		.syntax unified
 116              		.thumb
 117              		.thumb_func
 118              		.fpu fpv5-d16
 120              	tud_descriptor_string_cb:
 121              	.LVL4:
 122              	.LFB444:
  60:usb_descriptors.c **** 
  61:usb_descriptors.c **** enum {
  62:usb_descriptors.c ****   STRID_LANGID = 0,
  63:usb_descriptors.c ****   STRID_MANUFACTURER,
  64:usb_descriptors.c ****   STRID_PRODUCT,
  65:usb_descriptors.c ****   STRID_SERIAL,
  66:usb_descriptors.c **** };
  67:usb_descriptors.c **** 
  68:usb_descriptors.c **** static char const* string_desc_arr[] = {
  69:usb_descriptors.c ****     (const char[]) { 0x09, 0x04 },
  70:usb_descriptors.c ****     "TinyUSB",
  71:usb_descriptors.c ****     "TinyUSB CDC+HID",
  72:usb_descriptors.c ****     NULL,
  73:usb_descriptors.c ****     "TinyUSB CDC",
  74:usb_descriptors.c ****     "TinyUSB HID",
  75:usb_descriptors.c **** };
  76:usb_descriptors.c **** 
  77:usb_descriptors.c **** static uint16_t _desc_str[32 + 1];
  78:usb_descriptors.c **** 
  79:usb_descriptors.c **** uint16_t const* tud_descriptor_string_cb(uint8_t index, uint16_t langid)
  80:usb_descriptors.c **** {
 123              		.loc 1 80 1 is_stmt 1 view -0
 124              		.cfi_startproc
 125              		@ args = 0, pretend = 0, frame = 32
 126              		@ frame_needed = 0, uses_anonymous_args = 0
  81:usb_descriptors.c ****     (void)langid;
 127              		.loc 1 81 5 view .LVU14
  82:usb_descriptors.c ****     size_t chr_count;
 128              		.loc 1 82 5 view .LVU15
  83:usb_descriptors.c ****     switch(index)
 129              		.loc 1 83 5 view .LVU16
  80:usb_descriptors.c ****     (void)langid;
 130              		.loc 1 80 1 is_stmt 0 view .LVU17
 131 0000 2DE9F043 		push	{r4, r5, r6, r7, r8, r9, lr}
 132              		.cfi_def_cfa_offset 28
 133              		.cfi_offset 4, -28
 134              		.cfi_offset 5, -24
 135              		.cfi_offset 6, -20
 136              		.cfi_offset 7, -16
 137              		.cfi_offset 8, -12
 138              		.cfi_offset 9, -8
 139              		.cfi_offset 14, -4
 140 0004 89B0     		sub	sp, sp, #36
 141              		.cfi_def_cfa_offset 64
 142              		.loc 1 83 5 view .LVU18
 143 0006 28B3     		cbz	r0, .L12
 144 0008 0328     		cmp	r0, #3
 145 000a 2AD0     		beq	.L13
  84:usb_descriptors.c ****     {
  85:usb_descriptors.c ****         case STRID_LANGID:
ARM GAS  /tmp/ccT27Vsj.s 			page 5


  86:usb_descriptors.c ****             memcpy(&_desc_str[1], string_desc_arr[0], 2);
  87:usb_descriptors.c ****             chr_count = 1;
  88:usb_descriptors.c ****             break;
  89:usb_descriptors.c ****         case STRID_SERIAL:
  90:usb_descriptors.c ****             chr_count = board_usb_get_serial(_desc_str + 1, 32);
  91:usb_descriptors.c ****             break;
  92:usb_descriptors.c ****         default:
  93:usb_descriptors.c ****             if(!(index < sizeof(string_desc_arr) / sizeof(string_desc_arr[0])))
 146              		.loc 1 93 13 is_stmt 1 view .LVU19
 147              		.loc 1 93 15 is_stmt 0 view .LVU20
 148 000c 0528     		cmp	r0, #5
 149 000e 57D8     		bhi	.L21
 150              	.LBB12:
  94:usb_descriptors.c ****                 return NULL;
  95:usb_descriptors.c ****             {
  96:usb_descriptors.c ****                 const char* str = string_desc_arr[index];
 151              		.loc 1 96 17 is_stmt 1 view .LVU21
 152              		.loc 1 96 29 is_stmt 0 view .LVU22
 153 0010 2E4B     		ldr	r3, .L27
 154 0012 53F82060 		ldr	r6, [r3, r0, lsl #2]
 155              	.LVL5:
  97:usb_descriptors.c ****                 chr_count = strlen(str);
 156              		.loc 1 97 17 is_stmt 1 view .LVU23
 157              		.loc 1 97 29 is_stmt 0 view .LVU24
 158 0016 3046     		mov	r0, r6
 159              	.LVL6:
 160              		.loc 1 97 29 view .LVU25
 161 0018 FFF7FEFF 		bl	strlen
 162              	.LVL7:
  98:usb_descriptors.c ****                 if(chr_count > 32) chr_count = 32;
 163              		.loc 1 98 17 is_stmt 1 view .LVU26
 164 001c 2028     		cmp	r0, #32
 165 001e 0246     		mov	r2, r0
 166 0020 28BF     		it	cs
 167 0022 2022     		movcs	r2, #32
 168              	.LVL8:
  99:usb_descriptors.c ****                 for(size_t i = 0; i < chr_count; i++) _desc_str[1 + i] = str[i];
 169              		.loc 1 99 17 view .LVU27
 170              	.LBB13:
 171              		.loc 1 99 21 view .LVU28
 172              		.loc 1 99 35 view .LVU29
 173              		.loc 1 99 17 is_stmt 0 view .LVU30
 174 0024 0028     		cmp	r0, #0
 175 0026 4DD0     		beq	.L22
 176 0028 294D     		ldr	r5, .L27+4
 177 002a 711E     		subs	r1, r6, #1
 178 002c 2846     		mov	r0, r5
 179              	.LVL9:
 180              	.L20:
 181              		.loc 1 99 55 is_stmt 1 discriminator 3 view .LVU31
 182 002e 0B46     		mov	r3, r1
 183              		.loc 1 99 77 is_stmt 0 discriminator 3 view .LVU32
 184 0030 11F8014F 		ldrb	r4, [r1, #1]!	@ zero_extendqisi2
 185              	.LVL10:
 186              		.loc 1 99 17 discriminator 3 view .LVU33
 187 0034 0233     		adds	r3, r3, #2
 188              	.LVL11:
ARM GAS  /tmp/ccT27Vsj.s 			page 6


 189              		.loc 1 99 77 discriminator 3 view .LVU34
 190 0036 20F8024F 		strh	r4, [r0, #2]!	@ movhi
 191              		.loc 1 99 50 is_stmt 1 discriminator 3 view .LVU35
 192              	.LVL12:
 193              		.loc 1 99 35 discriminator 3 view .LVU36
 194              		.loc 1 99 17 is_stmt 0 discriminator 3 view .LVU37
 195 003a 9B1B     		subs	r3, r3, r6
 196 003c 9A42     		cmp	r2, r3
 197 003e F6D8     		bhi	.L20
 198              	.LBE13:
 199              	.LBE12:
 100:usb_descriptors.c ****             }
 101:usb_descriptors.c ****             break;
 102:usb_descriptors.c ****     }
 103:usb_descriptors.c ****     _desc_str[0] = (uint16_t)((TUSB_DESC_STRING << 8) | (2 * chr_count + 2));
 200              		.loc 1 103 72 view .LVU38
 201 0040 531C     		adds	r3, r2, #1
 202 0042 5B00     		lsls	r3, r3, #1
 203              		.loc 1 103 20 view .LVU39
 204 0044 43F44073 		orr	r3, r3, #768
 205 0048 9BB2     		uxth	r3, r3
 206              	.LVL13:
 207              	.L15:
 208              		.loc 1 103 5 is_stmt 1 view .LVU40
 104:usb_descriptors.c ****     return _desc_str;
 209              		.loc 1 104 12 is_stmt 0 view .LVU41
 210 004a 2148     		ldr	r0, .L27+4
 103:usb_descriptors.c ****     return _desc_str;
 211              		.loc 1 103 18 view .LVU42
 212 004c 2B80     		strh	r3, [r5]	@ movhi
 213              		.loc 1 104 5 is_stmt 1 view .LVU43
 214              	.L11:
 105:usb_descriptors.c **** }
 215              		.loc 1 105 1 is_stmt 0 view .LVU44
 216 004e 09B0     		add	sp, sp, #36
 217              		.cfi_remember_state
 218              		.cfi_def_cfa_offset 28
 219              		@ sp needed
 220 0050 BDE8F083 		pop	{r4, r5, r6, r7, r8, r9, pc}
 221              	.LVL14:
 222              	.L12:
 223              		.cfi_restore_state
  86:usb_descriptors.c ****             chr_count = 1;
 224              		.loc 1 86 13 is_stmt 1 view .LVU45
 225 0054 1E4D     		ldr	r5, .L27+4
 226 0056 40F20942 		movw	r2, #1033
  88:usb_descriptors.c ****         case STRID_SERIAL:
 227              		.loc 1 88 13 is_stmt 0 view .LVU46
 228 005a 4FF44173 		mov	r3, #772
  86:usb_descriptors.c ****             chr_count = 1;
 229              		.loc 1 86 13 view .LVU47
 230 005e 6A80     		strh	r2, [r5, #2]	@ movhi
  87:usb_descriptors.c ****             break;
 231              		.loc 1 87 13 is_stmt 1 view .LVU48
 232              	.LVL15:
  88:usb_descriptors.c ****         case STRID_SERIAL:
 233              		.loc 1 88 13 view .LVU49
ARM GAS  /tmp/ccT27Vsj.s 			page 7


 234 0060 F3E7     		b	.L15
 235              	.LVL16:
 236              	.L13:
  90:usb_descriptors.c ****             break;
 237              		.loc 1 90 13 view .LVU50
 238              	.LBB15:
 239              	.LBI15:
 240              		.file 2 "/home/pi/Developer/tinyusb/hw/bsp/board_api.h"
   1:/home/pi/Developer/tinyusb/hw/bsp/board_api.h **** /*
   2:/home/pi/Developer/tinyusb/hw/bsp/board_api.h ****  * The MIT License (MIT)
   3:/home/pi/Developer/tinyusb/hw/bsp/board_api.h ****  *
   4:/home/pi/Developer/tinyusb/hw/bsp/board_api.h ****  * Copyright (c) 2019 Ha Thach (tinyusb.org)
   5:/home/pi/Developer/tinyusb/hw/bsp/board_api.h ****  *
   6:/home/pi/Developer/tinyusb/hw/bsp/board_api.h ****  * Permission is hereby granted, free of charge, to any person obtaining a copy
   7:/home/pi/Developer/tinyusb/hw/bsp/board_api.h ****  * of this software and associated documentation files (the "Software"), to deal
   8:/home/pi/Developer/tinyusb/hw/bsp/board_api.h ****  * in the Software without restriction, including without limitation the rights
   9:/home/pi/Developer/tinyusb/hw/bsp/board_api.h ****  * to use, copy, modify, merge, publish, distribute, sublicense, and/or sell
  10:/home/pi/Developer/tinyusb/hw/bsp/board_api.h ****  * copies of the Software, and to permit persons to whom the Software is
  11:/home/pi/Developer/tinyusb/hw/bsp/board_api.h ****  * furnished to do so, subject to the following conditions:
  12:/home/pi/Developer/tinyusb/hw/bsp/board_api.h ****  *
  13:/home/pi/Developer/tinyusb/hw/bsp/board_api.h ****  * The above copyright notice and this permission notice shall be included in
  14:/home/pi/Developer/tinyusb/hw/bsp/board_api.h ****  * all copies or substantial portions of the Software.
  15:/home/pi/Developer/tinyusb/hw/bsp/board_api.h ****  *
  16:/home/pi/Developer/tinyusb/hw/bsp/board_api.h ****  * THE SOFTWARE IS PROVIDED "AS IS", WITHOUT WARRANTY OF ANY KIND, EXPRESS OR
  17:/home/pi/Developer/tinyusb/hw/bsp/board_api.h ****  * IMPLIED, INCLUDING BUT NOT LIMITED TO THE WARRANTIES OF MERCHANTABILITY,
  18:/home/pi/Developer/tinyusb/hw/bsp/board_api.h ****  * FITNESS FOR A PARTICULAR PURPOSE AND NONINFRINGEMENT. IN NO EVENT SHALL THE
  19:/home/pi/Developer/tinyusb/hw/bsp/board_api.h ****  * AUTHORS OR COPYRIGHT HOLDERS BE LIABLE FOR ANY CLAIM, DAMAGES OR OTHER
  20:/home/pi/Developer/tinyusb/hw/bsp/board_api.h ****  * LIABILITY, WHETHER IN AN ACTION OF CONTRACT, TORT OR OTHERWISE, ARISING FROM,
  21:/home/pi/Developer/tinyusb/hw/bsp/board_api.h ****  * OUT OF OR IN CONNECTION WITH THE SOFTWARE OR THE USE OR OTHER DEALINGS IN
  22:/home/pi/Developer/tinyusb/hw/bsp/board_api.h ****  * THE SOFTWARE.
  23:/home/pi/Developer/tinyusb/hw/bsp/board_api.h ****  *
  24:/home/pi/Developer/tinyusb/hw/bsp/board_api.h ****  * This file is part of the TinyUSB stack.
  25:/home/pi/Developer/tinyusb/hw/bsp/board_api.h ****  */
  26:/home/pi/Developer/tinyusb/hw/bsp/board_api.h **** 
  27:/home/pi/Developer/tinyusb/hw/bsp/board_api.h **** #ifndef BOARD_API_H_
  28:/home/pi/Developer/tinyusb/hw/bsp/board_api.h **** #define BOARD_API_H_
  29:/home/pi/Developer/tinyusb/hw/bsp/board_api.h **** 
  30:/home/pi/Developer/tinyusb/hw/bsp/board_api.h **** #ifdef __cplusplus
  31:/home/pi/Developer/tinyusb/hw/bsp/board_api.h **** extern "C" {
  32:/home/pi/Developer/tinyusb/hw/bsp/board_api.h **** #endif
  33:/home/pi/Developer/tinyusb/hw/bsp/board_api.h **** 
  34:/home/pi/Developer/tinyusb/hw/bsp/board_api.h **** #include <stdint.h>
  35:/home/pi/Developer/tinyusb/hw/bsp/board_api.h **** #include <inttypes.h>
  36:/home/pi/Developer/tinyusb/hw/bsp/board_api.h **** #include <stdbool.h>
  37:/home/pi/Developer/tinyusb/hw/bsp/board_api.h **** #include <string.h>
  38:/home/pi/Developer/tinyusb/hw/bsp/board_api.h **** #include <stdio.h>
  39:/home/pi/Developer/tinyusb/hw/bsp/board_api.h **** 
  40:/home/pi/Developer/tinyusb/hw/bsp/board_api.h **** #include "tusb.h"
  41:/home/pi/Developer/tinyusb/hw/bsp/board_api.h **** 
  42:/home/pi/Developer/tinyusb/hw/bsp/board_api.h **** #if CFG_TUSB_OS == OPT_OS_ZEPHYR
  43:/home/pi/Developer/tinyusb/hw/bsp/board_api.h ****   #include <zephyr/kernel.h>
  44:/home/pi/Developer/tinyusb/hw/bsp/board_api.h **** #elif CFG_TUSB_OS == OPT_OS_FREERTOS
  45:/home/pi/Developer/tinyusb/hw/bsp/board_api.h ****   #ifdef ESP_PLATFORM
  46:/home/pi/Developer/tinyusb/hw/bsp/board_api.h ****     // ESP-IDF need "freertos/" prefix in include path.
  47:/home/pi/Developer/tinyusb/hw/bsp/board_api.h ****     // CFG_TUSB_OS_INC_PATH should be defined accordingly.
  48:/home/pi/Developer/tinyusb/hw/bsp/board_api.h ****     #include "freertos/FreeRTOS.h"
  49:/home/pi/Developer/tinyusb/hw/bsp/board_api.h ****     #include "freertos/semphr.h"
ARM GAS  /tmp/ccT27Vsj.s 			page 8


  50:/home/pi/Developer/tinyusb/hw/bsp/board_api.h ****     #include "freertos/queue.h"
  51:/home/pi/Developer/tinyusb/hw/bsp/board_api.h ****     #include "freertos/task.h"
  52:/home/pi/Developer/tinyusb/hw/bsp/board_api.h ****     #include "freertos/timers.h"
  53:/home/pi/Developer/tinyusb/hw/bsp/board_api.h ****   #else
  54:/home/pi/Developer/tinyusb/hw/bsp/board_api.h ****     #include "FreeRTOS.h"
  55:/home/pi/Developer/tinyusb/hw/bsp/board_api.h ****     #include "semphr.h"
  56:/home/pi/Developer/tinyusb/hw/bsp/board_api.h ****     #include "queue.h"
  57:/home/pi/Developer/tinyusb/hw/bsp/board_api.h ****     #include "task.h"
  58:/home/pi/Developer/tinyusb/hw/bsp/board_api.h ****     #include "timers.h"
  59:/home/pi/Developer/tinyusb/hw/bsp/board_api.h ****   #endif
  60:/home/pi/Developer/tinyusb/hw/bsp/board_api.h **** #endif
  61:/home/pi/Developer/tinyusb/hw/bsp/board_api.h **** 
  62:/home/pi/Developer/tinyusb/hw/bsp/board_api.h **** // Define the default baudrate
  63:/home/pi/Developer/tinyusb/hw/bsp/board_api.h **** #ifndef CFG_BOARD_UART_BAUDRATE
  64:/home/pi/Developer/tinyusb/hw/bsp/board_api.h **** #define CFG_BOARD_UART_BAUDRATE 115200   ///< Default baud rate
  65:/home/pi/Developer/tinyusb/hw/bsp/board_api.h **** #endif
  66:/home/pi/Developer/tinyusb/hw/bsp/board_api.h **** 
  67:/home/pi/Developer/tinyusb/hw/bsp/board_api.h **** //--------------------------------------------------------------------+
  68:/home/pi/Developer/tinyusb/hw/bsp/board_api.h **** // Board Porting API
  69:/home/pi/Developer/tinyusb/hw/bsp/board_api.h **** // For simplicity, only one LED and one Button are used
  70:/home/pi/Developer/tinyusb/hw/bsp/board_api.h **** //--------------------------------------------------------------------+
  71:/home/pi/Developer/tinyusb/hw/bsp/board_api.h **** 
  72:/home/pi/Developer/tinyusb/hw/bsp/board_api.h **** // Initialize on-board peripherals : led, button, uart and USB
  73:/home/pi/Developer/tinyusb/hw/bsp/board_api.h **** void board_init(void);
  74:/home/pi/Developer/tinyusb/hw/bsp/board_api.h **** 
  75:/home/pi/Developer/tinyusb/hw/bsp/board_api.h **** // Init board after tinyusb is initialized
  76:/home/pi/Developer/tinyusb/hw/bsp/board_api.h **** void board_init_after_tusb(void);
  77:/home/pi/Developer/tinyusb/hw/bsp/board_api.h **** 
  78:/home/pi/Developer/tinyusb/hw/bsp/board_api.h **** // Jump to bootloader
  79:/home/pi/Developer/tinyusb/hw/bsp/board_api.h **** void board_reset_to_bootloader(void);
  80:/home/pi/Developer/tinyusb/hw/bsp/board_api.h **** 
  81:/home/pi/Developer/tinyusb/hw/bsp/board_api.h **** // Turn LED on or off
  82:/home/pi/Developer/tinyusb/hw/bsp/board_api.h **** void board_led_write(bool state);
  83:/home/pi/Developer/tinyusb/hw/bsp/board_api.h **** 
  84:/home/pi/Developer/tinyusb/hw/bsp/board_api.h **** // Control led pattern using phase duration in ms.
  85:/home/pi/Developer/tinyusb/hw/bsp/board_api.h **** // For each phase, LED is toggle then repeated, board_led_task() is required to be called
  86:/home/pi/Developer/tinyusb/hw/bsp/board_api.h **** //void board_led_pattern(uint32_t const phase_ms[], uint8_t count);
  87:/home/pi/Developer/tinyusb/hw/bsp/board_api.h **** 
  88:/home/pi/Developer/tinyusb/hw/bsp/board_api.h **** // Get the current state of button
  89:/home/pi/Developer/tinyusb/hw/bsp/board_api.h **** // a '1' means active (pressed), a '0' means inactive.
  90:/home/pi/Developer/tinyusb/hw/bsp/board_api.h **** uint32_t board_button_read(void);
  91:/home/pi/Developer/tinyusb/hw/bsp/board_api.h **** 
  92:/home/pi/Developer/tinyusb/hw/bsp/board_api.h **** // Get board unique ID for USB serial number. Return number of bytes. Note max_len is typically 16
  93:/home/pi/Developer/tinyusb/hw/bsp/board_api.h **** size_t board_get_unique_id(uint8_t id[], size_t max_len);
  94:/home/pi/Developer/tinyusb/hw/bsp/board_api.h **** 
  95:/home/pi/Developer/tinyusb/hw/bsp/board_api.h **** // Get characters from UART (non-blocking). Return number of read bytes.
  96:/home/pi/Developer/tinyusb/hw/bsp/board_api.h **** int board_uart_read(uint8_t *buf, int len);
  97:/home/pi/Developer/tinyusb/hw/bsp/board_api.h **** 
  98:/home/pi/Developer/tinyusb/hw/bsp/board_api.h **** // Send characters to UART (non-blocking). Return number of sent bytes
  99:/home/pi/Developer/tinyusb/hw/bsp/board_api.h **** int board_uart_write(void const *buf, int len);
 100:/home/pi/Developer/tinyusb/hw/bsp/board_api.h **** 
 101:/home/pi/Developer/tinyusb/hw/bsp/board_api.h **** //--------------------------------------------------------------------+
 102:/home/pi/Developer/tinyusb/hw/bsp/board_api.h **** // Helper functions
 103:/home/pi/Developer/tinyusb/hw/bsp/board_api.h **** //--------------------------------------------------------------------+
 104:/home/pi/Developer/tinyusb/hw/bsp/board_api.h **** static inline void board_led_on(void) {
 105:/home/pi/Developer/tinyusb/hw/bsp/board_api.h ****   board_led_write(true);
 106:/home/pi/Developer/tinyusb/hw/bsp/board_api.h **** }
ARM GAS  /tmp/ccT27Vsj.s 			page 9


 107:/home/pi/Developer/tinyusb/hw/bsp/board_api.h **** 
 108:/home/pi/Developer/tinyusb/hw/bsp/board_api.h **** static inline void board_led_off(void) {
 109:/home/pi/Developer/tinyusb/hw/bsp/board_api.h ****   board_led_write(false);
 110:/home/pi/Developer/tinyusb/hw/bsp/board_api.h **** }
 111:/home/pi/Developer/tinyusb/hw/bsp/board_api.h **** 
 112:/home/pi/Developer/tinyusb/hw/bsp/board_api.h **** // Get USB Serial number string from unique ID if available. Return number of character.
 113:/home/pi/Developer/tinyusb/hw/bsp/board_api.h **** // Input is string descriptor from index 1 (index 0 is type + len)
 114:/home/pi/Developer/tinyusb/hw/bsp/board_api.h **** static inline size_t board_usb_get_serial(uint16_t desc_str1[], size_t max_chars) {
 241              		.loc 2 114 22 view .LVU51
 242              	.LBB16:
 115:/home/pi/Developer/tinyusb/hw/bsp/board_api.h ****   uint8_t uid[16] TU_ATTR_ALIGNED(4);
 243              		.loc 2 115 3 view .LVU52
 116:/home/pi/Developer/tinyusb/hw/bsp/board_api.h ****   size_t uid_len;
 244              		.loc 2 116 3 view .LVU53
 117:/home/pi/Developer/tinyusb/hw/bsp/board_api.h **** 
 118:/home/pi/Developer/tinyusb/hw/bsp/board_api.h ****   // TODO work with make, but not working with esp32s3 cmake
 119:/home/pi/Developer/tinyusb/hw/bsp/board_api.h ****   uid_len = board_get_unique_id(uid, sizeof(uid));
 245              		.loc 2 119 3 view .LVU54
 246              		.loc 2 119 13 is_stmt 0 view .LVU55
 247 0062 1021     		movs	r1, #16
 248              	.LVL17:
 249              		.loc 2 119 13 view .LVU56
 250 0064 6846     		mov	r0, sp
 251              	.LVL18:
 252              		.loc 2 119 13 view .LVU57
 253 0066 FFF7FEFF 		bl	board_get_unique_id
 254              	.LVL19:
 120:/home/pi/Developer/tinyusb/hw/bsp/board_api.h **** 
 121:/home/pi/Developer/tinyusb/hw/bsp/board_api.h ****   if ( uid_len > max_chars / 2u ) {
 255              		.loc 2 121 3 is_stmt 1 view .LVU58
 256 006a 1028     		cmp	r0, #16
 257 006c 8646     		mov	lr, r0
 258 006e 184D     		ldr	r5, .L27+4
 259 0070 28BF     		it	cs
 260 0072 4FF0100E 		movcs	lr, #16
 261              	.LVL20:
 122:/home/pi/Developer/tinyusb/hw/bsp/board_api.h ****     uid_len = max_chars / 2u;
 123:/home/pi/Developer/tinyusb/hw/bsp/board_api.h ****   }
 124:/home/pi/Developer/tinyusb/hw/bsp/board_api.h **** 
 125:/home/pi/Developer/tinyusb/hw/bsp/board_api.h ****   for ( size_t i = 0; i < uid_len; i++ ) {
 262              		.loc 2 125 3 view .LVU59
 263              	.LBB17:
 264              		.loc 2 125 9 view .LVU60
 265              		.loc 2 125 23 view .LVU61
 266              		.loc 2 125 3 is_stmt 0 view .LVU62
 267 0076 E0B1     		cbz	r0, .L18
 268 0078 E846     		mov	r8, sp
 269              		.loc 2 125 16 view .LVU63
 270 007a 0027     		movs	r7, #0
 271 007c 154C     		ldr	r4, .L27+8
 272 007e 2E46     		mov	r6, r5
 273 0080 0DF1100C 		add	ip, sp, #16
 274              	.LVL21:
 275              	.L17:
 276              	.LBB18:
 126:/home/pi/Developer/tinyusb/hw/bsp/board_api.h ****     for ( size_t j = 0; j < 2; j++ ) {
 277              		.loc 2 126 25 is_stmt 1 view .LVU64
ARM GAS  /tmp/ccT27Vsj.s 			page 10


 278              	.LBB19:
 127:/home/pi/Developer/tinyusb/hw/bsp/board_api.h ****       const unsigned char nibble_to_hex[16] = {
 279              		.loc 2 127 7 view .LVU65
 280              	.LBE19:
 281              	.LBE18:
 125:/home/pi/Developer/tinyusb/hw/bsp/board_api.h ****     for ( size_t j = 0; j < 2; j++ ) {
 282              		.loc 2 125 37 is_stmt 0 view .LVU66
 283 0084 0137     		adds	r7, r7, #1
 284              	.LVL22:
 125:/home/pi/Developer/tinyusb/hw/bsp/board_api.h ****     for ( size_t j = 0; j < 2; j++ ) {
 285              		.loc 2 125 3 view .LVU67
 286 0086 0436     		adds	r6, r6, #4
 287              	.LBB23:
 288              	.LBB20:
 289              		.loc 2 127 27 view .LVU68
 290 0088 94E80F00 		ldm	r4, {r0, r1, r2, r3}
 291 008c 8CE80F00 		stm	ip, {r0, r1, r2, r3}
 128:/home/pi/Developer/tinyusb/hw/bsp/board_api.h ****           '0', '1', '2', '3', '4', '5', '6', '7',
 129:/home/pi/Developer/tinyusb/hw/bsp/board_api.h ****           '8', '9', 'A', 'B', 'C', 'D', 'E', 'F'
 130:/home/pi/Developer/tinyusb/hw/bsp/board_api.h ****       };
 131:/home/pi/Developer/tinyusb/hw/bsp/board_api.h ****       const uint8_t nibble = (uint8_t) ((uid[i] >> (j * 4u)) & 0xfu);
 292              		.loc 2 131 7 is_stmt 1 view .LVU69
 293              		.loc 2 131 45 is_stmt 0 view .LVU70
 294 0090 18F8012B 		ldrb	r2, [r8], #1	@ zero_extendqisi2
 295              	.LVL23:
 132:/home/pi/Developer/tinyusb/hw/bsp/board_api.h ****       desc_str1[i * 2 + (1 - j)] = nibble_to_hex[nibble]; // UTF-16-LE
 296              		.loc 2 132 7 is_stmt 1 view .LVU71
 297              		.loc 2 132 49 is_stmt 0 view .LVU72
 298 0094 08A9     		add	r1, sp, #32
 299              	.LBE20:
 300              	.LBE23:
 125:/home/pi/Developer/tinyusb/hw/bsp/board_api.h ****     for ( size_t j = 0; j < 2; j++ ) {
 301              		.loc 2 125 3 view .LVU73
 302 0096 BE45     		cmp	lr, r7
 303              	.LBB24:
 304              	.LBB21:
 305              		.loc 2 132 49 view .LVU74
 306 0098 02F00F03 		and	r3, r2, #15
 307 009c 01EB1219 		add	r9, r1, r2, lsr #4
 308 00a0 0B44     		add	r3, r3, r1
 309 00a2 13F8103C 		ldrb	r3, [r3, #-16]	@ zero_extendqisi2
 310 00a6 3380     		strh	r3, [r6]	@ movhi
 311              	.LBE21:
 126:/home/pi/Developer/tinyusb/hw/bsp/board_api.h ****       const unsigned char nibble_to_hex[16] = {
 312              		.loc 2 126 32 is_stmt 1 view .LVU75
 313              	.LVL24:
 126:/home/pi/Developer/tinyusb/hw/bsp/board_api.h ****       const unsigned char nibble_to_hex[16] = {
 314              		.loc 2 126 25 view .LVU76
 315              	.LBB22:
 127:/home/pi/Developer/tinyusb/hw/bsp/board_api.h ****           '0', '1', '2', '3', '4', '5', '6', '7',
 316              		.loc 2 127 7 view .LVU77
 131:/home/pi/Developer/tinyusb/hw/bsp/board_api.h ****       desc_str1[i * 2 + (1 - j)] = nibble_to_hex[nibble]; // UTF-16-LE
 317              		.loc 2 131 7 view .LVU78
 318              		.loc 2 132 7 view .LVU79
 319              		.loc 2 132 49 is_stmt 0 view .LVU80
 320 00a8 19F8103C 		ldrb	r3, [r9, #-16]	@ zero_extendqisi2
 321 00ac 26F8023C 		strh	r3, [r6, #-2]	@ movhi
ARM GAS  /tmp/ccT27Vsj.s 			page 11


 322              	.LBE22:
 126:/home/pi/Developer/tinyusb/hw/bsp/board_api.h ****       const unsigned char nibble_to_hex[16] = {
 323              		.loc 2 126 32 is_stmt 1 view .LVU81
 324              	.LVL25:
 126:/home/pi/Developer/tinyusb/hw/bsp/board_api.h ****       const unsigned char nibble_to_hex[16] = {
 325              		.loc 2 126 25 view .LVU82
 326              	.LBE24:
 125:/home/pi/Developer/tinyusb/hw/bsp/board_api.h ****     for ( size_t j = 0; j < 2; j++ ) {
 327              		.loc 2 125 36 view .LVU83
 125:/home/pi/Developer/tinyusb/hw/bsp/board_api.h ****     for ( size_t j = 0; j < 2; j++ ) {
 328              		.loc 2 125 23 view .LVU84
 125:/home/pi/Developer/tinyusb/hw/bsp/board_api.h ****     for ( size_t j = 0; j < 2; j++ ) {
 329              		.loc 2 125 3 is_stmt 0 view .LVU85
 330 00b0 E8D8     		bhi	.L17
 331              	.LVL26:
 332              	.L18:
 125:/home/pi/Developer/tinyusb/hw/bsp/board_api.h ****     for ( size_t j = 0; j < 2; j++ ) {
 333              		.loc 2 125 3 view .LVU86
 334              	.LBE17:
 133:/home/pi/Developer/tinyusb/hw/bsp/board_api.h ****     }
 134:/home/pi/Developer/tinyusb/hw/bsp/board_api.h ****   }
 135:/home/pi/Developer/tinyusb/hw/bsp/board_api.h **** 
 136:/home/pi/Developer/tinyusb/hw/bsp/board_api.h ****   return 2 * uid_len;
 335              		.loc 2 136 3 is_stmt 1 view .LVU87
 336              		.loc 2 136 3 is_stmt 0 view .LVU88
 337              	.LBE16:
 338              	.LBE15:
  91:usb_descriptors.c ****         default:
 339              		.loc 1 91 13 is_stmt 1 view .LVU89
 103:usb_descriptors.c ****     return _desc_str;
 340              		.loc 1 103 72 is_stmt 0 view .LVU90
 341 00b2 4FEA8E03 		lsl	r3, lr, #2
 342 00b6 0233     		adds	r3, r3, #2
 103:usb_descriptors.c ****     return _desc_str;
 343              		.loc 1 103 20 view .LVU91
 344 00b8 43F44073 		orr	r3, r3, #768
 345 00bc 9BB2     		uxth	r3, r3
  91:usb_descriptors.c ****         default:
 346              		.loc 1 91 13 view .LVU92
 347 00be C4E7     		b	.L15
 348              	.LVL27:
 349              	.L21:
  94:usb_descriptors.c ****             {
 350              		.loc 1 94 24 view .LVU93
 351 00c0 0020     		movs	r0, #0
 352              	.LVL28:
  94:usb_descriptors.c ****             {
 353              		.loc 1 94 24 view .LVU94
 354 00c2 C4E7     		b	.L11
 355              	.LVL29:
 356              	.L22:
 357              	.LBB25:
 358              	.LBB14:
  99:usb_descriptors.c ****             }
 359              		.loc 1 99 17 view .LVU95
 360 00c4 40F20233 		movw	r3, #770
 361 00c8 014D     		ldr	r5, .L27+4
ARM GAS  /tmp/ccT27Vsj.s 			page 12


 362 00ca BEE7     		b	.L15
 363              	.L28:
 364              		.align	2
 365              	.L27:
 366 00cc 00000000 		.word	.LANCHOR4
 367 00d0 00000000 		.word	.LANCHOR3
 368 00d4 00000000 		.word	.LC0
 369              	.LBE14:
 370              	.LBE25:
 371              		.cfi_endproc
 372              	.LFE444:
 374              		.section	.rodata.str1.4,"aMS",%progbits,1
 375              		.align	2
 376              	.LC1:
 377 0000 54696E79 		.ascii	"TinyUSB\000"
 377      55534200 
 378              		.align	2
 379              	.LC2:
 380 0008 54696E79 		.ascii	"TinyUSB CDC+HID\000"
 380      55534220 
 380      4344432B 
 380      48494400 
 381              		.align	2
 382              	.LC3:
 383 0018 54696E79 		.ascii	"TinyUSB CDC\000"
 383      55534220 
 383      43444300 
 384              		.align	2
 385              	.LC4:
 386 0024 54696E79 		.ascii	"TinyUSB HID\000"
 386      55534220 
 386      48494400 
 387              		.global	desc_hid_report
 388              		.section	.bss._desc_str,"aw",%nobits
 389              		.align	2
 390              		.set	.LANCHOR3,. + 0
 393              	_desc_str:
 394 0000 00000000 		.space	66
 394      00000000 
 394      00000000 
 394      00000000 
 394      00000000 
 395              		.section	.rodata.__compound_literal.0,"a"
 396              		.align	2
 399              	__compound_literal.0:
 400 0000 09       		.byte	9
 401 0001 04       		.byte	4
 402              		.section	.rodata.desc_device,"a"
 403              		.align	2
 404              		.set	.LANCHOR0,. + 0
 407              	desc_device:
 408 0000 12       		.byte	18
 409 0001 01       		.byte	1
 410 0002 0002     		.short	512
 411 0004 EF       		.byte	-17
 412 0005 02       		.byte	2
 413 0006 01       		.byte	1
ARM GAS  /tmp/ccT27Vsj.s 			page 13


 414 0007 40       		.byte	64
 415 0008 FECA     		.short	-13570
 416 000a 0540     		.short	16389
 417 000c 0001     		.short	256
 418 000e 01       		.byte	1
 419 000f 02       		.byte	2
 420 0010 03       		.byte	3
 421 0011 01       		.byte	1
 422              		.section	.rodata.desc_fs_configuration,"a"
 423              		.align	2
 424              		.set	.LANCHOR2,. + 0
 427              	desc_fs_configuration:
 428 0000 09026400 		.ascii	"\011\002d\000\003\001\000\2002\010\013\000\002\002\002"
 428      03010080 
 428      32080B00 
 428      020202
 429 000f 00000904 		.ascii	"\000\000\011\004\000\000\001\002\002\000\004\005$\000"
 429      00000102 
 429      02000405 
 429      2400
 430 001d 20010524 		.ascii	" \001\005$\001\000\001\004$\002\006\005$\006\000\001"
 430      01000104 
 430      24020605 
 430      24060001 
 431 002d 07058103 		.ascii	"\007\005\201\003\020\000\001\011\004\001\000\002\012"
 431      10000109 
 431      04010002 
 431      0A
 432 003a 00000007 		.ascii	"\000\000\000\007\005\002\002@\000\000\007\005\202\002"
 432      05020240 
 432      00000705 
 432      8202
 433 0048 40000009 		.ascii	"@\000\000\011\004\002\000\001\003\001\001\005\011!\021"
 433      04020001 
 433      03010105 
 433      092111
 434 0057 01000122 		.ascii	"\001\000\001\"A\000\007\005\203\003\020\000\012"
 434      41000705 
 434      83031000 
 434      0A
 435              		.section	.rodata.desc_hid_report,"a"
 436              		.align	2
 437              		.set	.LANCHOR1,. + 0
 440              	desc_hid_report:
 441 0000 05010906 		.ascii	"\005\001\011\006\241\001\005\007\031\340)\347\025\000"
 441      A1010507 
 441      19E029E7 
 441      1500
 442 000e 25019508 		.ascii	"%\001\225\010u\001\201\002\225\001u\010\201\001\005"
 442      75018102 
 442      95017508 
 442      810105
 443 001d 08190129 		.ascii	"\010\031\001)\005\225\005u\001\221\002\225\001u\003"
 443      05950575 
 443      01910295 
 443      017503
 444 002c 91010507 		.ascii	"\221\001\005\007\031\000*\377\000\025\000&\377\000\225"
ARM GAS  /tmp/ccT27Vsj.s 			page 14


 444      19002AFF 
 444      00150026 
 444      FF0095
 445 003b 06750881 		.ascii	"\006u\010\201\000\300"
 445      00C0
 446              		.section	.rodata.string_desc_arr,"a"
 447              		.align	2
 448              		.set	.LANCHOR4,. + 0
 451              	string_desc_arr:
 452 0000 00000000 		.word	__compound_literal.0
 453 0004 00000000 		.word	.LC1
 454 0008 08000000 		.word	.LC2
 455 000c 00000000 		.word	0
 456 0010 18000000 		.word	.LC3
 457 0014 24000000 		.word	.LC4
 458              		.text
 459              	.Letext0:
 460              		.file 3 "/home/pi/Developer/gcc-arm-none-eabi-10-2020-q4-major/arm-none-eabi/include/machine/_defa
 461              		.file 4 "/home/pi/Developer/gcc-arm-none-eabi-10-2020-q4-major/arm-none-eabi/include/sys/_stdint.h
 462              		.file 5 "/home/pi/Developer/gcc-arm-none-eabi-10-2020-q4-major/lib/gcc/arm-none-eabi/10.2.1/includ
 463              		.file 6 "/home/pi/Developer/tinyusb/src/common/tusb_types.h"
 464              		.file 7 "/home/pi/Developer/tinyusb/src/class/hid/hid.h"
 465              		.file 8 "/home/pi/Developer/tinyusb/src/class/cdc/cdc.h"
 466              		.file 9 "/home/pi/Developer/gcc-arm-none-eabi-10-2020-q4-major/arm-none-eabi/include/string.h"
ARM GAS  /tmp/ccT27Vsj.s 			page 15

