ARM GAS  /tmp/ccRLxfLU.s 			page 1


   1              		.cpu cortex-m7
   2              		.eabi_attribute 28, 1
   3              		.eabi_attribute 20, 1
   4              		.eabi_attribute 21, 1
   5              		.eabi_attribute 23, 3
   6              		.eabi_attribute 24, 1
   7              		.eabi_attribute 25, 1
   8              		.eabi_attribute 26, 1
   9              		.eabi_attribute 30, 2
  10              		.eabi_attribute 34, 1
  11              		.eabi_attribute 18, 4
  12              		.file	"usbd.c"
  13              		.text
  14              	.Ltext0:
  15              		.cfi_sections	.debug_frame
  16              		.section	.text.tud_vendor_control_xfer_cb,"ax",%progbits
  17              		.align	1
  18              		.p2align 2,,3
  19              		.weak	tud_vendor_control_xfer_cb
  20              		.arch armv7e-m
  21              		.syntax unified
  22              		.thumb
  23              		.thumb_func
  24              		.fpu fpv5-d16
  26              	tud_vendor_control_xfer_cb:
  27              	.LVL0:
  28              	.LFB460:
  29              		.file 1 "/home/pi/Developer/tinyusb/src/device/usbd.c"
   1:/home/pi/Developer/tinyusb/src/device/usbd.c **** /*
   2:/home/pi/Developer/tinyusb/src/device/usbd.c ****  * The MIT License (MIT)
   3:/home/pi/Developer/tinyusb/src/device/usbd.c ****  *
   4:/home/pi/Developer/tinyusb/src/device/usbd.c ****  * Copyright (c) 2019 Ha Thach (tinyusb.org)
   5:/home/pi/Developer/tinyusb/src/device/usbd.c ****  *
   6:/home/pi/Developer/tinyusb/src/device/usbd.c ****  * Permission is hereby granted, free of charge, to any person obtaining a copy
   7:/home/pi/Developer/tinyusb/src/device/usbd.c ****  * of this software and associated documentation files (the "Software"), to deal
   8:/home/pi/Developer/tinyusb/src/device/usbd.c ****  * in the Software without restriction, including without limitation the rights
   9:/home/pi/Developer/tinyusb/src/device/usbd.c ****  * to use, copy, modify, merge, publish, distribute, sublicense, and/or sell
  10:/home/pi/Developer/tinyusb/src/device/usbd.c ****  * copies of the Software, and to permit persons to whom the Software is
  11:/home/pi/Developer/tinyusb/src/device/usbd.c ****  * furnished to do so, subject to the following conditions:
  12:/home/pi/Developer/tinyusb/src/device/usbd.c ****  *
  13:/home/pi/Developer/tinyusb/src/device/usbd.c ****  * The above copyright notice and this permission notice shall be included in
  14:/home/pi/Developer/tinyusb/src/device/usbd.c ****  * all copies or substantial portions of the Software.
  15:/home/pi/Developer/tinyusb/src/device/usbd.c ****  *
  16:/home/pi/Developer/tinyusb/src/device/usbd.c ****  * THE SOFTWARE IS PROVIDED "AS IS", WITHOUT WARRANTY OF ANY KIND, EXPRESS OR
  17:/home/pi/Developer/tinyusb/src/device/usbd.c ****  * IMPLIED, INCLUDING BUT NOT LIMITED TO THE WARRANTIES OF MERCHANTABILITY,
  18:/home/pi/Developer/tinyusb/src/device/usbd.c ****  * FITNESS FOR A PARTICULAR PURPOSE AND NONINFRINGEMENT. IN NO EVENT SHALL THE
  19:/home/pi/Developer/tinyusb/src/device/usbd.c ****  * AUTHORS OR COPYRIGHT HOLDERS BE LIABLE FOR ANY CLAIM, DAMAGES OR OTHER
  20:/home/pi/Developer/tinyusb/src/device/usbd.c ****  * LIABILITY, WHETHER IN AN ACTION OF CONTRACT, TORT OR OTHERWISE, ARISING FROM,
  21:/home/pi/Developer/tinyusb/src/device/usbd.c ****  * OUT OF OR IN CONNECTION WITH THE SOFTWARE OR THE USE OR OTHER DEALINGS IN
  22:/home/pi/Developer/tinyusb/src/device/usbd.c ****  * THE SOFTWARE.
  23:/home/pi/Developer/tinyusb/src/device/usbd.c ****  *
  24:/home/pi/Developer/tinyusb/src/device/usbd.c ****  * This file is part of the TinyUSB stack.
  25:/home/pi/Developer/tinyusb/src/device/usbd.c ****  */
  26:/home/pi/Developer/tinyusb/src/device/usbd.c **** 
  27:/home/pi/Developer/tinyusb/src/device/usbd.c **** #include "tusb_option.h"
  28:/home/pi/Developer/tinyusb/src/device/usbd.c **** 
  29:/home/pi/Developer/tinyusb/src/device/usbd.c **** #if CFG_TUD_ENABLED
ARM GAS  /tmp/ccRLxfLU.s 			page 2


  30:/home/pi/Developer/tinyusb/src/device/usbd.c **** 
  31:/home/pi/Developer/tinyusb/src/device/usbd.c **** #include "device/dcd.h"
  32:/home/pi/Developer/tinyusb/src/device/usbd.c **** #include "tusb.h"
  33:/home/pi/Developer/tinyusb/src/device/usbd.c **** #include "common/tusb_private.h"
  34:/home/pi/Developer/tinyusb/src/device/usbd.c **** 
  35:/home/pi/Developer/tinyusb/src/device/usbd.c **** #include "device/usbd.h"
  36:/home/pi/Developer/tinyusb/src/device/usbd.c **** #include "device/usbd_pvt.h"
  37:/home/pi/Developer/tinyusb/src/device/usbd.c **** 
  38:/home/pi/Developer/tinyusb/src/device/usbd.c **** //--------------------------------------------------------------------+
  39:/home/pi/Developer/tinyusb/src/device/usbd.c **** // USBD Configuration
  40:/home/pi/Developer/tinyusb/src/device/usbd.c **** //--------------------------------------------------------------------+
  41:/home/pi/Developer/tinyusb/src/device/usbd.c **** #ifndef CFG_TUD_TASK_QUEUE_SZ
  42:/home/pi/Developer/tinyusb/src/device/usbd.c ****   #define CFG_TUD_TASK_QUEUE_SZ   16
  43:/home/pi/Developer/tinyusb/src/device/usbd.c **** #endif
  44:/home/pi/Developer/tinyusb/src/device/usbd.c **** 
  45:/home/pi/Developer/tinyusb/src/device/usbd.c **** //--------------------------------------------------------------------+
  46:/home/pi/Developer/tinyusb/src/device/usbd.c **** // Weak stubs: invoked if no strong implementation is available
  47:/home/pi/Developer/tinyusb/src/device/usbd.c **** //--------------------------------------------------------------------+
  48:/home/pi/Developer/tinyusb/src/device/usbd.c **** TU_ATTR_WEAK void tud_event_hook_cb(uint8_t rhport, uint32_t eventid, bool in_isr) {
  49:/home/pi/Developer/tinyusb/src/device/usbd.c ****   (void) rhport; (void) eventid; (void) in_isr;
  50:/home/pi/Developer/tinyusb/src/device/usbd.c **** }
  51:/home/pi/Developer/tinyusb/src/device/usbd.c **** 
  52:/home/pi/Developer/tinyusb/src/device/usbd.c **** TU_ATTR_WEAK void tud_sof_cb(uint32_t frame_count) {
  53:/home/pi/Developer/tinyusb/src/device/usbd.c ****   (void) frame_count;
  54:/home/pi/Developer/tinyusb/src/device/usbd.c **** }
  55:/home/pi/Developer/tinyusb/src/device/usbd.c **** 
  56:/home/pi/Developer/tinyusb/src/device/usbd.c **** TU_ATTR_WEAK uint8_t const* tud_descriptor_bos_cb(void) {
  57:/home/pi/Developer/tinyusb/src/device/usbd.c ****   return NULL;
  58:/home/pi/Developer/tinyusb/src/device/usbd.c **** }
  59:/home/pi/Developer/tinyusb/src/device/usbd.c **** 
  60:/home/pi/Developer/tinyusb/src/device/usbd.c **** TU_ATTR_WEAK uint8_t const* tud_descriptor_device_qualifier_cb(void) {
  61:/home/pi/Developer/tinyusb/src/device/usbd.c ****   return NULL;
  62:/home/pi/Developer/tinyusb/src/device/usbd.c **** }
  63:/home/pi/Developer/tinyusb/src/device/usbd.c **** 
  64:/home/pi/Developer/tinyusb/src/device/usbd.c **** TU_ATTR_WEAK uint8_t const* tud_descriptor_other_speed_configuration_cb(uint8_t index) {
  65:/home/pi/Developer/tinyusb/src/device/usbd.c ****   (void) index;
  66:/home/pi/Developer/tinyusb/src/device/usbd.c ****   return NULL;
  67:/home/pi/Developer/tinyusb/src/device/usbd.c **** }
  68:/home/pi/Developer/tinyusb/src/device/usbd.c **** 
  69:/home/pi/Developer/tinyusb/src/device/usbd.c **** TU_ATTR_WEAK void tud_mount_cb(void) {
  70:/home/pi/Developer/tinyusb/src/device/usbd.c **** }
  71:/home/pi/Developer/tinyusb/src/device/usbd.c **** 
  72:/home/pi/Developer/tinyusb/src/device/usbd.c **** TU_ATTR_WEAK void tud_umount_cb(void) {
  73:/home/pi/Developer/tinyusb/src/device/usbd.c **** }
  74:/home/pi/Developer/tinyusb/src/device/usbd.c **** 
  75:/home/pi/Developer/tinyusb/src/device/usbd.c **** TU_ATTR_WEAK void tud_suspend_cb(bool remote_wakeup_en) {
  76:/home/pi/Developer/tinyusb/src/device/usbd.c ****   (void) remote_wakeup_en;
  77:/home/pi/Developer/tinyusb/src/device/usbd.c **** }
  78:/home/pi/Developer/tinyusb/src/device/usbd.c **** 
  79:/home/pi/Developer/tinyusb/src/device/usbd.c **** TU_ATTR_WEAK void tud_resume_cb(void) {
  80:/home/pi/Developer/tinyusb/src/device/usbd.c **** }
  81:/home/pi/Developer/tinyusb/src/device/usbd.c **** 
  82:/home/pi/Developer/tinyusb/src/device/usbd.c **** TU_ATTR_WEAK bool tud_vendor_control_xfer_cb(uint8_t rhport, uint8_t stage, tusb_control_request_t 
  30              		.loc 1 82 116 view -0
  31              		.cfi_startproc
  32              		@ args = 0, pretend = 0, frame = 0
  33              		@ frame_needed = 0, uses_anonymous_args = 0
ARM GAS  /tmp/ccRLxfLU.s 			page 3


  34              		@ link register save eliminated.
  83:/home/pi/Developer/tinyusb/src/device/usbd.c ****   (void) rhport; (void) stage; (void) request;
  35              		.loc 1 83 3 view .LVU1
  36              		.loc 1 83 18 view .LVU2
  37              		.loc 1 83 32 view .LVU3
  84:/home/pi/Developer/tinyusb/src/device/usbd.c ****   return false;
  38              		.loc 1 84 3 view .LVU4
  85:/home/pi/Developer/tinyusb/src/device/usbd.c **** }
  39              		.loc 1 85 1 is_stmt 0 view .LVU5
  40 0000 0020     		movs	r0, #0
  41              	.LVL1:
  42              		.loc 1 85 1 view .LVU6
  43 0002 7047     		bx	lr
  44              		.cfi_endproc
  45              	.LFE460:
  47              		.section	.text.configuration_reset,"ax",%progbits
  48              		.align	1
  49              		.p2align 2,,3
  50              		.syntax unified
  51              		.thumb
  52              		.thumb_func
  53              		.fpu fpv5-d16
  55              	configuration_reset:
  56              	.LVL2:
  57              	.LFB484:
  86:/home/pi/Developer/tinyusb/src/device/usbd.c **** 
  87:/home/pi/Developer/tinyusb/src/device/usbd.c **** TU_ATTR_WEAK bool dcd_deinit(uint8_t rhport) {
  88:/home/pi/Developer/tinyusb/src/device/usbd.c ****   (void) rhport;
  89:/home/pi/Developer/tinyusb/src/device/usbd.c ****   return false;
  90:/home/pi/Developer/tinyusb/src/device/usbd.c **** }
  91:/home/pi/Developer/tinyusb/src/device/usbd.c **** 
  92:/home/pi/Developer/tinyusb/src/device/usbd.c **** TU_ATTR_WEAK void dcd_connect(uint8_t rhport) {
  93:/home/pi/Developer/tinyusb/src/device/usbd.c ****   (void) rhport;
  94:/home/pi/Developer/tinyusb/src/device/usbd.c **** }
  95:/home/pi/Developer/tinyusb/src/device/usbd.c **** 
  96:/home/pi/Developer/tinyusb/src/device/usbd.c **** TU_ATTR_WEAK void dcd_disconnect(uint8_t rhport) {
  97:/home/pi/Developer/tinyusb/src/device/usbd.c ****   (void) rhport;
  98:/home/pi/Developer/tinyusb/src/device/usbd.c **** }
  99:/home/pi/Developer/tinyusb/src/device/usbd.c **** 
 100:/home/pi/Developer/tinyusb/src/device/usbd.c **** TU_ATTR_WEAK bool dcd_dcache_clean(const void* addr, uint32_t data_size) {
 101:/home/pi/Developer/tinyusb/src/device/usbd.c ****   (void) addr; (void) data_size;
 102:/home/pi/Developer/tinyusb/src/device/usbd.c ****   return true;
 103:/home/pi/Developer/tinyusb/src/device/usbd.c **** }
 104:/home/pi/Developer/tinyusb/src/device/usbd.c **** 
 105:/home/pi/Developer/tinyusb/src/device/usbd.c **** TU_ATTR_WEAK bool dcd_dcache_invalidate(const void* addr, uint32_t data_size) {
 106:/home/pi/Developer/tinyusb/src/device/usbd.c ****   (void) addr; (void) data_size;
 107:/home/pi/Developer/tinyusb/src/device/usbd.c ****   return true;
 108:/home/pi/Developer/tinyusb/src/device/usbd.c **** }
 109:/home/pi/Developer/tinyusb/src/device/usbd.c **** 
 110:/home/pi/Developer/tinyusb/src/device/usbd.c **** TU_ATTR_WEAK bool dcd_dcache_clean_invalidate(const void* addr, uint32_t data_size) {
 111:/home/pi/Developer/tinyusb/src/device/usbd.c ****   (void) addr; (void) data_size;
 112:/home/pi/Developer/tinyusb/src/device/usbd.c ****   return true;
 113:/home/pi/Developer/tinyusb/src/device/usbd.c **** }
 114:/home/pi/Developer/tinyusb/src/device/usbd.c **** 
 115:/home/pi/Developer/tinyusb/src/device/usbd.c **** //--------------------------------------------------------------------+
 116:/home/pi/Developer/tinyusb/src/device/usbd.c **** // Device Data
 117:/home/pi/Developer/tinyusb/src/device/usbd.c **** //--------------------------------------------------------------------+
ARM GAS  /tmp/ccRLxfLU.s 			page 4


 118:/home/pi/Developer/tinyusb/src/device/usbd.c **** 
 119:/home/pi/Developer/tinyusb/src/device/usbd.c **** // Per-control-transfer state: populated at process_setup_received() entry,
 120:/home/pi/Developer/tinyusb/src/device/usbd.c **** // consumed asynchronously by usbd_control_xfer_cb() when the EP0 transfer completes.
 121:/home/pi/Developer/tinyusb/src/device/usbd.c **** typedef struct {
 122:/home/pi/Developer/tinyusb/src/device/usbd.c ****   tusb_control_request_t request;
 123:/home/pi/Developer/tinyusb/src/device/usbd.c ****   uint8_t* buffer;
 124:/home/pi/Developer/tinyusb/src/device/usbd.c ****   uint16_t data_len;
 125:/home/pi/Developer/tinyusb/src/device/usbd.c ****   uint16_t total_xferred;
 126:/home/pi/Developer/tinyusb/src/device/usbd.c ****   usbd_control_xfer_cb_t complete_cb;
 127:/home/pi/Developer/tinyusb/src/device/usbd.c **** } usbd_control_xfer_t;
 128:/home/pi/Developer/tinyusb/src/device/usbd.c **** 
 129:/home/pi/Developer/tinyusb/src/device/usbd.c **** typedef struct {
 130:/home/pi/Developer/tinyusb/src/device/usbd.c ****   usbd_control_xfer_t ctrl_xfer;
 131:/home/pi/Developer/tinyusb/src/device/usbd.c **** 
 132:/home/pi/Developer/tinyusb/src/device/usbd.c ****   // Note: these may share an enum state
 133:/home/pi/Developer/tinyusb/src/device/usbd.c ****   volatile uint8_t connected;
 134:/home/pi/Developer/tinyusb/src/device/usbd.c ****   volatile uint8_t addressed;
 135:/home/pi/Developer/tinyusb/src/device/usbd.c ****   volatile uint8_t suspended;
 136:/home/pi/Developer/tinyusb/src/device/usbd.c **** 
 137:/home/pi/Developer/tinyusb/src/device/usbd.c ****   union {
 138:/home/pi/Developer/tinyusb/src/device/usbd.c ****     struct TU_ATTR_PACKED {
 139:/home/pi/Developer/tinyusb/src/device/usbd.c ****       uint8_t self_powered     : 1; // configuration descriptor's attribute;
 140:/home/pi/Developer/tinyusb/src/device/usbd.c ****       uint8_t remote_wakeup_en : 1; // enable/disable by host
 141:/home/pi/Developer/tinyusb/src/device/usbd.c ****     };
 142:/home/pi/Developer/tinyusb/src/device/usbd.c ****     uint8_t dev_state_bm;
 143:/home/pi/Developer/tinyusb/src/device/usbd.c ****   };
 144:/home/pi/Developer/tinyusb/src/device/usbd.c **** 
 145:/home/pi/Developer/tinyusb/src/device/usbd.c ****   uint8_t          cfg_num; // current active configuration (0x00 is not configured)
 146:/home/pi/Developer/tinyusb/src/device/usbd.c ****   uint8_t          speed;
 147:/home/pi/Developer/tinyusb/src/device/usbd.c ****   volatile uint8_t sof_consumer;
 148:/home/pi/Developer/tinyusb/src/device/usbd.c **** 
 149:/home/pi/Developer/tinyusb/src/device/usbd.c ****   uint8_t itf2drv[CFG_TUD_INTERFACE_MAX];   // map interface number to driver (0xff is invalid)
 150:/home/pi/Developer/tinyusb/src/device/usbd.c ****   uint8_t ep2drv[CFG_TUD_ENDPPOINT_MAX][2]; // map endpoint to driver ( 0xff is invalid ), can use 
 151:/home/pi/Developer/tinyusb/src/device/usbd.c **** 
 152:/home/pi/Developer/tinyusb/src/device/usbd.c ****   volatile uint8_t ep_status[CFG_TUD_ENDPPOINT_MAX][2];
 153:/home/pi/Developer/tinyusb/src/device/usbd.c **** } usbd_device_t;
 154:/home/pi/Developer/tinyusb/src/device/usbd.c **** 
 155:/home/pi/Developer/tinyusb/src/device/usbd.c **** static usbd_device_t    _usbd_dev;
 156:/home/pi/Developer/tinyusb/src/device/usbd.c **** static volatile uint8_t _usbd_queued_setup;
 157:/home/pi/Developer/tinyusb/src/device/usbd.c **** 
 158:/home/pi/Developer/tinyusb/src/device/usbd.c **** CFG_TUD_MEM_SECTION static struct {
 159:/home/pi/Developer/tinyusb/src/device/usbd.c ****   TUD_EPBUF_DEF(buf, CFG_TUD_ENDPOINT0_BUFSIZE);
 160:/home/pi/Developer/tinyusb/src/device/usbd.c **** } _ctrl_epbuf;
 161:/home/pi/Developer/tinyusb/src/device/usbd.c **** 
 162:/home/pi/Developer/tinyusb/src/device/usbd.c **** //--------------------------------------------------------------------+
 163:/home/pi/Developer/tinyusb/src/device/usbd.c **** // Class Driver
 164:/home/pi/Developer/tinyusb/src/device/usbd.c **** //--------------------------------------------------------------------+
 165:/home/pi/Developer/tinyusb/src/device/usbd.c ****   #if CFG_TUSB_DEBUG >= CFG_TUD_LOG_LEVEL
 166:/home/pi/Developer/tinyusb/src/device/usbd.c ****     #define DRIVER_NAME(_name) _name
 167:/home/pi/Developer/tinyusb/src/device/usbd.c ****   #else
 168:/home/pi/Developer/tinyusb/src/device/usbd.c ****     #define DRIVER_NAME(_name) NULL
 169:/home/pi/Developer/tinyusb/src/device/usbd.c ****   #endif
 170:/home/pi/Developer/tinyusb/src/device/usbd.c **** 
 171:/home/pi/Developer/tinyusb/src/device/usbd.c **** // Built-in class drivers
 172:/home/pi/Developer/tinyusb/src/device/usbd.c **** static const usbd_class_driver_t _usbd_driver[] = {
 173:/home/pi/Developer/tinyusb/src/device/usbd.c ****   #if CFG_TUD_CDC
 174:/home/pi/Developer/tinyusb/src/device/usbd.c ****     {
ARM GAS  /tmp/ccRLxfLU.s 			page 5


 175:/home/pi/Developer/tinyusb/src/device/usbd.c ****         .name             = DRIVER_NAME("CDC"),
 176:/home/pi/Developer/tinyusb/src/device/usbd.c ****         .init             = cdcd_init,
 177:/home/pi/Developer/tinyusb/src/device/usbd.c ****         .deinit           = cdcd_deinit,
 178:/home/pi/Developer/tinyusb/src/device/usbd.c ****         .reset            = cdcd_reset,
 179:/home/pi/Developer/tinyusb/src/device/usbd.c ****         .open             = cdcd_open,
 180:/home/pi/Developer/tinyusb/src/device/usbd.c ****         .control_xfer_cb  = cdcd_control_xfer_cb,
 181:/home/pi/Developer/tinyusb/src/device/usbd.c ****         .xfer_cb          = cdcd_xfer_cb,
 182:/home/pi/Developer/tinyusb/src/device/usbd.c ****         .xfer_isr         = NULL,
 183:/home/pi/Developer/tinyusb/src/device/usbd.c ****         .sof              = NULL
 184:/home/pi/Developer/tinyusb/src/device/usbd.c ****     },
 185:/home/pi/Developer/tinyusb/src/device/usbd.c ****     #endif
 186:/home/pi/Developer/tinyusb/src/device/usbd.c **** 
 187:/home/pi/Developer/tinyusb/src/device/usbd.c ****     #if CFG_TUD_MSC
 188:/home/pi/Developer/tinyusb/src/device/usbd.c ****     {
 189:/home/pi/Developer/tinyusb/src/device/usbd.c ****         .name             = DRIVER_NAME("MSC"),
 190:/home/pi/Developer/tinyusb/src/device/usbd.c ****         .init             = mscd_init,
 191:/home/pi/Developer/tinyusb/src/device/usbd.c ****         .deinit           = NULL,
 192:/home/pi/Developer/tinyusb/src/device/usbd.c ****         .reset            = mscd_reset,
 193:/home/pi/Developer/tinyusb/src/device/usbd.c ****         .open             = mscd_open,
 194:/home/pi/Developer/tinyusb/src/device/usbd.c ****         .control_xfer_cb  = mscd_control_xfer_cb,
 195:/home/pi/Developer/tinyusb/src/device/usbd.c ****         .xfer_cb          = mscd_xfer_cb,
 196:/home/pi/Developer/tinyusb/src/device/usbd.c ****         .xfer_isr         = NULL,
 197:/home/pi/Developer/tinyusb/src/device/usbd.c ****         .sof              = NULL
 198:/home/pi/Developer/tinyusb/src/device/usbd.c ****     },
 199:/home/pi/Developer/tinyusb/src/device/usbd.c ****     #endif
 200:/home/pi/Developer/tinyusb/src/device/usbd.c **** 
 201:/home/pi/Developer/tinyusb/src/device/usbd.c ****     #if CFG_TUD_HID
 202:/home/pi/Developer/tinyusb/src/device/usbd.c ****     {
 203:/home/pi/Developer/tinyusb/src/device/usbd.c ****         .name             = DRIVER_NAME("HID"),
 204:/home/pi/Developer/tinyusb/src/device/usbd.c ****         .init             = hidd_init,
 205:/home/pi/Developer/tinyusb/src/device/usbd.c ****         .deinit           = hidd_deinit,
 206:/home/pi/Developer/tinyusb/src/device/usbd.c ****         .reset            = hidd_reset,
 207:/home/pi/Developer/tinyusb/src/device/usbd.c ****         .open             = hidd_open,
 208:/home/pi/Developer/tinyusb/src/device/usbd.c ****         .control_xfer_cb  = hidd_control_xfer_cb,
 209:/home/pi/Developer/tinyusb/src/device/usbd.c ****         .xfer_cb          = hidd_xfer_cb,
 210:/home/pi/Developer/tinyusb/src/device/usbd.c ****         .xfer_isr         = NULL,
 211:/home/pi/Developer/tinyusb/src/device/usbd.c ****         .sof              = NULL
 212:/home/pi/Developer/tinyusb/src/device/usbd.c ****     },
 213:/home/pi/Developer/tinyusb/src/device/usbd.c ****     #endif
 214:/home/pi/Developer/tinyusb/src/device/usbd.c **** 
 215:/home/pi/Developer/tinyusb/src/device/usbd.c ****     #if CFG_TUD_AUDIO
 216:/home/pi/Developer/tinyusb/src/device/usbd.c ****     {
 217:/home/pi/Developer/tinyusb/src/device/usbd.c ****         .name             = DRIVER_NAME("AUDIO"),
 218:/home/pi/Developer/tinyusb/src/device/usbd.c ****         .init             = audiod_init,
 219:/home/pi/Developer/tinyusb/src/device/usbd.c ****         .deinit           = audiod_deinit,
 220:/home/pi/Developer/tinyusb/src/device/usbd.c ****         .reset            = audiod_reset,
 221:/home/pi/Developer/tinyusb/src/device/usbd.c ****         .open             = audiod_open,
 222:/home/pi/Developer/tinyusb/src/device/usbd.c ****         .control_xfer_cb  = audiod_control_xfer_cb,
 223:/home/pi/Developer/tinyusb/src/device/usbd.c ****         .xfer_cb          = audiod_xfer_cb,
 224:/home/pi/Developer/tinyusb/src/device/usbd.c ****         .xfer_isr         = audiod_xfer_isr,
 225:/home/pi/Developer/tinyusb/src/device/usbd.c ****         .sof              = audiod_sof_isr
 226:/home/pi/Developer/tinyusb/src/device/usbd.c ****     },
 227:/home/pi/Developer/tinyusb/src/device/usbd.c ****     #endif
 228:/home/pi/Developer/tinyusb/src/device/usbd.c **** 
 229:/home/pi/Developer/tinyusb/src/device/usbd.c ****     #if CFG_TUD_VIDEO
 230:/home/pi/Developer/tinyusb/src/device/usbd.c ****     {
 231:/home/pi/Developer/tinyusb/src/device/usbd.c ****         .name             = DRIVER_NAME("VIDEO"),
ARM GAS  /tmp/ccRLxfLU.s 			page 6


 232:/home/pi/Developer/tinyusb/src/device/usbd.c ****         .init             = videod_init,
 233:/home/pi/Developer/tinyusb/src/device/usbd.c ****         .deinit           = videod_deinit,
 234:/home/pi/Developer/tinyusb/src/device/usbd.c ****         .reset            = videod_reset,
 235:/home/pi/Developer/tinyusb/src/device/usbd.c ****         .open             = videod_open,
 236:/home/pi/Developer/tinyusb/src/device/usbd.c ****         .control_xfer_cb  = videod_control_xfer_cb,
 237:/home/pi/Developer/tinyusb/src/device/usbd.c ****         .xfer_cb          = videod_xfer_cb,
 238:/home/pi/Developer/tinyusb/src/device/usbd.c ****         .xfer_isr         = NULL,
 239:/home/pi/Developer/tinyusb/src/device/usbd.c ****         .sof              = NULL
 240:/home/pi/Developer/tinyusb/src/device/usbd.c ****     },
 241:/home/pi/Developer/tinyusb/src/device/usbd.c ****     #endif
 242:/home/pi/Developer/tinyusb/src/device/usbd.c **** 
 243:/home/pi/Developer/tinyusb/src/device/usbd.c ****     #if CFG_TUD_MIDI
 244:/home/pi/Developer/tinyusb/src/device/usbd.c ****     {
 245:/home/pi/Developer/tinyusb/src/device/usbd.c ****         .name             = DRIVER_NAME("MIDI"),
 246:/home/pi/Developer/tinyusb/src/device/usbd.c ****         .init             = midid_init,
 247:/home/pi/Developer/tinyusb/src/device/usbd.c ****         .deinit           = midid_deinit,
 248:/home/pi/Developer/tinyusb/src/device/usbd.c ****         .open             = midid_open,
 249:/home/pi/Developer/tinyusb/src/device/usbd.c ****         .reset            = midid_reset,
 250:/home/pi/Developer/tinyusb/src/device/usbd.c ****         .control_xfer_cb  = midid_control_xfer_cb,
 251:/home/pi/Developer/tinyusb/src/device/usbd.c ****         .xfer_cb          = midid_xfer_cb,
 252:/home/pi/Developer/tinyusb/src/device/usbd.c ****         .xfer_isr         = NULL,
 253:/home/pi/Developer/tinyusb/src/device/usbd.c ****         .sof              = NULL
 254:/home/pi/Developer/tinyusb/src/device/usbd.c ****     },
 255:/home/pi/Developer/tinyusb/src/device/usbd.c ****     #endif
 256:/home/pi/Developer/tinyusb/src/device/usbd.c **** 
 257:/home/pi/Developer/tinyusb/src/device/usbd.c ****     #if CFG_TUD_VENDOR
 258:/home/pi/Developer/tinyusb/src/device/usbd.c ****     {
 259:/home/pi/Developer/tinyusb/src/device/usbd.c ****         .name             = DRIVER_NAME("VENDOR"),
 260:/home/pi/Developer/tinyusb/src/device/usbd.c ****         .init             = vendord_init,
 261:/home/pi/Developer/tinyusb/src/device/usbd.c ****         .deinit           = vendord_deinit,
 262:/home/pi/Developer/tinyusb/src/device/usbd.c ****         .reset            = vendord_reset,
 263:/home/pi/Developer/tinyusb/src/device/usbd.c ****         .open             = vendord_open,
 264:/home/pi/Developer/tinyusb/src/device/usbd.c ****         .control_xfer_cb  = tud_vendor_control_xfer_cb,
 265:/home/pi/Developer/tinyusb/src/device/usbd.c ****         .xfer_cb          = vendord_xfer_cb,
 266:/home/pi/Developer/tinyusb/src/device/usbd.c ****         .xfer_isr         = NULL,
 267:/home/pi/Developer/tinyusb/src/device/usbd.c ****         .sof              = NULL
 268:/home/pi/Developer/tinyusb/src/device/usbd.c ****     },
 269:/home/pi/Developer/tinyusb/src/device/usbd.c ****     #endif
 270:/home/pi/Developer/tinyusb/src/device/usbd.c **** 
 271:/home/pi/Developer/tinyusb/src/device/usbd.c ****     #if CFG_TUD_USBTMC
 272:/home/pi/Developer/tinyusb/src/device/usbd.c ****     {
 273:/home/pi/Developer/tinyusb/src/device/usbd.c ****         .name             = DRIVER_NAME("TMC"),
 274:/home/pi/Developer/tinyusb/src/device/usbd.c ****         .init             = usbtmcd_init_cb,
 275:/home/pi/Developer/tinyusb/src/device/usbd.c ****         .deinit           = usbtmcd_deinit,
 276:/home/pi/Developer/tinyusb/src/device/usbd.c ****         .reset            = usbtmcd_reset_cb,
 277:/home/pi/Developer/tinyusb/src/device/usbd.c ****         .open             = usbtmcd_open_cb,
 278:/home/pi/Developer/tinyusb/src/device/usbd.c ****         .control_xfer_cb  = usbtmcd_control_xfer_cb,
 279:/home/pi/Developer/tinyusb/src/device/usbd.c ****         .xfer_cb          = usbtmcd_xfer_cb,
 280:/home/pi/Developer/tinyusb/src/device/usbd.c ****         .xfer_isr         = NULL,
 281:/home/pi/Developer/tinyusb/src/device/usbd.c ****         .sof              = NULL
 282:/home/pi/Developer/tinyusb/src/device/usbd.c ****     },
 283:/home/pi/Developer/tinyusb/src/device/usbd.c ****     #endif
 284:/home/pi/Developer/tinyusb/src/device/usbd.c **** 
 285:/home/pi/Developer/tinyusb/src/device/usbd.c ****     #if CFG_TUD_DFU_RUNTIME
 286:/home/pi/Developer/tinyusb/src/device/usbd.c ****     {
 287:/home/pi/Developer/tinyusb/src/device/usbd.c ****         .name             = DRIVER_NAME("DFU-RUNTIME"),
 288:/home/pi/Developer/tinyusb/src/device/usbd.c ****         .init             = dfu_rtd_init,
ARM GAS  /tmp/ccRLxfLU.s 			page 7


 289:/home/pi/Developer/tinyusb/src/device/usbd.c ****         .deinit           = dfu_rtd_deinit,
 290:/home/pi/Developer/tinyusb/src/device/usbd.c ****         .reset            = dfu_rtd_reset,
 291:/home/pi/Developer/tinyusb/src/device/usbd.c ****         .open             = dfu_rtd_open,
 292:/home/pi/Developer/tinyusb/src/device/usbd.c ****         .control_xfer_cb  = dfu_rtd_control_xfer_cb,
 293:/home/pi/Developer/tinyusb/src/device/usbd.c ****         .xfer_cb          = NULL,
 294:/home/pi/Developer/tinyusb/src/device/usbd.c ****         .xfer_isr         = NULL,
 295:/home/pi/Developer/tinyusb/src/device/usbd.c ****         .sof              = NULL
 296:/home/pi/Developer/tinyusb/src/device/usbd.c ****     },
 297:/home/pi/Developer/tinyusb/src/device/usbd.c ****     #endif
 298:/home/pi/Developer/tinyusb/src/device/usbd.c **** 
 299:/home/pi/Developer/tinyusb/src/device/usbd.c ****     #if CFG_TUD_DFU
 300:/home/pi/Developer/tinyusb/src/device/usbd.c ****     {
 301:/home/pi/Developer/tinyusb/src/device/usbd.c ****         .name             = DRIVER_NAME("DFU"),
 302:/home/pi/Developer/tinyusb/src/device/usbd.c ****         .init             = dfu_moded_init,
 303:/home/pi/Developer/tinyusb/src/device/usbd.c ****         .deinit           = dfu_moded_deinit,
 304:/home/pi/Developer/tinyusb/src/device/usbd.c ****         .reset            = dfu_moded_reset,
 305:/home/pi/Developer/tinyusb/src/device/usbd.c ****         .open             = dfu_moded_open,
 306:/home/pi/Developer/tinyusb/src/device/usbd.c ****         .control_xfer_cb  = dfu_moded_control_xfer_cb,
 307:/home/pi/Developer/tinyusb/src/device/usbd.c ****         .xfer_cb          = NULL,
 308:/home/pi/Developer/tinyusb/src/device/usbd.c ****         .xfer_isr         = NULL,
 309:/home/pi/Developer/tinyusb/src/device/usbd.c ****         .sof              = NULL
 310:/home/pi/Developer/tinyusb/src/device/usbd.c ****     },
 311:/home/pi/Developer/tinyusb/src/device/usbd.c ****     #endif
 312:/home/pi/Developer/tinyusb/src/device/usbd.c **** 
 313:/home/pi/Developer/tinyusb/src/device/usbd.c ****     #if CFG_TUD_ECM_RNDIS || CFG_TUD_NCM
 314:/home/pi/Developer/tinyusb/src/device/usbd.c ****     {
 315:/home/pi/Developer/tinyusb/src/device/usbd.c ****         .name             = DRIVER_NAME("NET"),
 316:/home/pi/Developer/tinyusb/src/device/usbd.c ****         .init             = netd_init,
 317:/home/pi/Developer/tinyusb/src/device/usbd.c ****         .deinit           = netd_deinit,
 318:/home/pi/Developer/tinyusb/src/device/usbd.c ****         .reset            = netd_reset,
 319:/home/pi/Developer/tinyusb/src/device/usbd.c ****         .open             = netd_open,
 320:/home/pi/Developer/tinyusb/src/device/usbd.c ****         .control_xfer_cb  = netd_control_xfer_cb,
 321:/home/pi/Developer/tinyusb/src/device/usbd.c ****         .xfer_cb          = netd_xfer_cb,
 322:/home/pi/Developer/tinyusb/src/device/usbd.c ****         .xfer_isr         = NULL,
 323:/home/pi/Developer/tinyusb/src/device/usbd.c ****         .sof              = NULL,
 324:/home/pi/Developer/tinyusb/src/device/usbd.c ****     },
 325:/home/pi/Developer/tinyusb/src/device/usbd.c ****     #endif
 326:/home/pi/Developer/tinyusb/src/device/usbd.c **** 
 327:/home/pi/Developer/tinyusb/src/device/usbd.c ****     #if CFG_TUD_BTH
 328:/home/pi/Developer/tinyusb/src/device/usbd.c ****     {
 329:/home/pi/Developer/tinyusb/src/device/usbd.c ****         .name             = DRIVER_NAME("BTH"),
 330:/home/pi/Developer/tinyusb/src/device/usbd.c ****         .init             = btd_init,
 331:/home/pi/Developer/tinyusb/src/device/usbd.c ****         .deinit           = btd_deinit,
 332:/home/pi/Developer/tinyusb/src/device/usbd.c ****         .reset            = btd_reset,
 333:/home/pi/Developer/tinyusb/src/device/usbd.c ****         .open             = btd_open,
 334:/home/pi/Developer/tinyusb/src/device/usbd.c ****         .control_xfer_cb  = btd_control_xfer_cb,
 335:/home/pi/Developer/tinyusb/src/device/usbd.c ****         .xfer_cb          = btd_xfer_cb,
 336:/home/pi/Developer/tinyusb/src/device/usbd.c ****         .xfer_isr         = NULL,
 337:/home/pi/Developer/tinyusb/src/device/usbd.c ****         .sof              = NULL
 338:/home/pi/Developer/tinyusb/src/device/usbd.c ****     },
 339:/home/pi/Developer/tinyusb/src/device/usbd.c ****     #endif
 340:/home/pi/Developer/tinyusb/src/device/usbd.c **** 
 341:/home/pi/Developer/tinyusb/src/device/usbd.c ****     #if CFG_TUD_MTP
 342:/home/pi/Developer/tinyusb/src/device/usbd.c ****     {
 343:/home/pi/Developer/tinyusb/src/device/usbd.c ****         .name             = DRIVER_NAME("MTP"),
 344:/home/pi/Developer/tinyusb/src/device/usbd.c ****         .init             = mtpd_init,
 345:/home/pi/Developer/tinyusb/src/device/usbd.c ****         .deinit           = mtpd_deinit,
ARM GAS  /tmp/ccRLxfLU.s 			page 8


 346:/home/pi/Developer/tinyusb/src/device/usbd.c ****         .reset            = mtpd_reset,
 347:/home/pi/Developer/tinyusb/src/device/usbd.c ****         .open             = mtpd_open,
 348:/home/pi/Developer/tinyusb/src/device/usbd.c ****         .control_xfer_cb  = mtpd_control_xfer_cb,
 349:/home/pi/Developer/tinyusb/src/device/usbd.c ****         .xfer_cb          = mtpd_xfer_cb,
 350:/home/pi/Developer/tinyusb/src/device/usbd.c ****         .xfer_isr         = NULL,
 351:/home/pi/Developer/tinyusb/src/device/usbd.c ****         .sof              = NULL
 352:/home/pi/Developer/tinyusb/src/device/usbd.c ****     },
 353:/home/pi/Developer/tinyusb/src/device/usbd.c ****     #endif
 354:/home/pi/Developer/tinyusb/src/device/usbd.c **** 
 355:/home/pi/Developer/tinyusb/src/device/usbd.c ****     #if CFG_TUD_PRINTER
 356:/home/pi/Developer/tinyusb/src/device/usbd.c ****     {
 357:/home/pi/Developer/tinyusb/src/device/usbd.c ****         .name             = DRIVER_NAME("PRINTER"),
 358:/home/pi/Developer/tinyusb/src/device/usbd.c ****         .init             = printerd_init,
 359:/home/pi/Developer/tinyusb/src/device/usbd.c ****         .deinit           = printerd_deinit,
 360:/home/pi/Developer/tinyusb/src/device/usbd.c ****         .reset            = printerd_reset,
 361:/home/pi/Developer/tinyusb/src/device/usbd.c ****         .open             = printerd_open,
 362:/home/pi/Developer/tinyusb/src/device/usbd.c ****         .control_xfer_cb  = printerd_control_xfer_cb,
 363:/home/pi/Developer/tinyusb/src/device/usbd.c ****         .xfer_cb          = printerd_xfer_cb,
 364:/home/pi/Developer/tinyusb/src/device/usbd.c ****         .sof              = NULL
 365:/home/pi/Developer/tinyusb/src/device/usbd.c ****     },
 366:/home/pi/Developer/tinyusb/src/device/usbd.c ****     #endif
 367:/home/pi/Developer/tinyusb/src/device/usbd.c **** };
 368:/home/pi/Developer/tinyusb/src/device/usbd.c **** 
 369:/home/pi/Developer/tinyusb/src/device/usbd.c **** enum { BUILTIN_DRIVER_COUNT = TU_ARRAY_SIZE(_usbd_driver) };
 370:/home/pi/Developer/tinyusb/src/device/usbd.c **** 
 371:/home/pi/Developer/tinyusb/src/device/usbd.c **** // Additional class drivers implemented by application
 372:/home/pi/Developer/tinyusb/src/device/usbd.c **** static const usbd_class_driver_t *_app_driver       = NULL;
 373:/home/pi/Developer/tinyusb/src/device/usbd.c **** static uint8_t                    _app_driver_count = 0;
 374:/home/pi/Developer/tinyusb/src/device/usbd.c **** 
 375:/home/pi/Developer/tinyusb/src/device/usbd.c **** #define TOTAL_DRIVER_COUNT    ((uint8_t) (_app_driver_count + BUILTIN_DRIVER_COUNT))
 376:/home/pi/Developer/tinyusb/src/device/usbd.c **** 
 377:/home/pi/Developer/tinyusb/src/device/usbd.c **** // virtually joins built-in and application drivers together.
 378:/home/pi/Developer/tinyusb/src/device/usbd.c **** // Application is positioned first to allow overwriting built-in ones.
 379:/home/pi/Developer/tinyusb/src/device/usbd.c **** TU_ATTR_ALWAYS_INLINE static inline usbd_class_driver_t const * get_driver(uint8_t drvid) {
 380:/home/pi/Developer/tinyusb/src/device/usbd.c ****   usbd_class_driver_t const *driver = NULL;
 381:/home/pi/Developer/tinyusb/src/device/usbd.c ****   if (drvid < _app_driver_count) {
 382:/home/pi/Developer/tinyusb/src/device/usbd.c ****     // Application drivers
 383:/home/pi/Developer/tinyusb/src/device/usbd.c ****     driver = &_app_driver[drvid];
 384:/home/pi/Developer/tinyusb/src/device/usbd.c ****   } else{
 385:/home/pi/Developer/tinyusb/src/device/usbd.c ****     drvid -= _app_driver_count;
 386:/home/pi/Developer/tinyusb/src/device/usbd.c ****     if (drvid < BUILTIN_DRIVER_COUNT) {
 387:/home/pi/Developer/tinyusb/src/device/usbd.c ****       driver = &_usbd_driver[drvid];
 388:/home/pi/Developer/tinyusb/src/device/usbd.c ****     }
 389:/home/pi/Developer/tinyusb/src/device/usbd.c ****   }
 390:/home/pi/Developer/tinyusb/src/device/usbd.c **** 
 391:/home/pi/Developer/tinyusb/src/device/usbd.c ****   return driver;
 392:/home/pi/Developer/tinyusb/src/device/usbd.c **** }
 393:/home/pi/Developer/tinyusb/src/device/usbd.c **** 
 394:/home/pi/Developer/tinyusb/src/device/usbd.c **** //--------------------------------------------------------------------+
 395:/home/pi/Developer/tinyusb/src/device/usbd.c **** // DCD Event
 396:/home/pi/Developer/tinyusb/src/device/usbd.c **** //--------------------------------------------------------------------+
 397:/home/pi/Developer/tinyusb/src/device/usbd.c **** enum {
 398:/home/pi/Developer/tinyusb/src/device/usbd.c ****   RHPORT_INVALID = 0xFFu
 399:/home/pi/Developer/tinyusb/src/device/usbd.c **** };
 400:/home/pi/Developer/tinyusb/src/device/usbd.c **** static uint8_t _usbd_rhport = RHPORT_INVALID;
 401:/home/pi/Developer/tinyusb/src/device/usbd.c **** 
 402:/home/pi/Developer/tinyusb/src/device/usbd.c **** static OSAL_SPINLOCK_DEF(_usbd_spin, usbd_int_set);
ARM GAS  /tmp/ccRLxfLU.s 			page 9


 403:/home/pi/Developer/tinyusb/src/device/usbd.c **** 
 404:/home/pi/Developer/tinyusb/src/device/usbd.c **** // Event queue: usbd_int_set() is used as mutex in OS NONE config
 405:/home/pi/Developer/tinyusb/src/device/usbd.c **** OSAL_QUEUE_DEF(usbd_int_set, _usbd_qdef, CFG_TUD_TASK_QUEUE_SZ, dcd_event_t);
 406:/home/pi/Developer/tinyusb/src/device/usbd.c **** static osal_queue_t _usbd_q;
 407:/home/pi/Developer/tinyusb/src/device/usbd.c **** 
 408:/home/pi/Developer/tinyusb/src/device/usbd.c **** // Mutex for claiming endpoint
 409:/home/pi/Developer/tinyusb/src/device/usbd.c **** #if OSAL_MUTEX_REQUIRED
 410:/home/pi/Developer/tinyusb/src/device/usbd.c ****   static osal_mutex_def_t _ubsd_mutexdef;
 411:/home/pi/Developer/tinyusb/src/device/usbd.c ****   static osal_mutex_t _usbd_mutex;
 412:/home/pi/Developer/tinyusb/src/device/usbd.c **** #else
 413:/home/pi/Developer/tinyusb/src/device/usbd.c ****   #define _usbd_mutex   NULL
 414:/home/pi/Developer/tinyusb/src/device/usbd.c **** #endif
 415:/home/pi/Developer/tinyusb/src/device/usbd.c **** 
 416:/home/pi/Developer/tinyusb/src/device/usbd.c **** TU_ATTR_ALWAYS_INLINE static inline bool queue_event(dcd_event_t const * event, bool in_isr) {
 417:/home/pi/Developer/tinyusb/src/device/usbd.c ****   TU_ASSERT(osal_queue_send(_usbd_q, event, in_isr));
 418:/home/pi/Developer/tinyusb/src/device/usbd.c ****   tud_event_hook_cb(event->rhport, event->event_id, in_isr);
 419:/home/pi/Developer/tinyusb/src/device/usbd.c ****   return true;
 420:/home/pi/Developer/tinyusb/src/device/usbd.c **** }
 421:/home/pi/Developer/tinyusb/src/device/usbd.c **** 
 422:/home/pi/Developer/tinyusb/src/device/usbd.c **** //--------------------------------------------------------------------+
 423:/home/pi/Developer/tinyusb/src/device/usbd.c **** // Prototypes
 424:/home/pi/Developer/tinyusb/src/device/usbd.c **** //--------------------------------------------------------------------+
 425:/home/pi/Developer/tinyusb/src/device/usbd.c **** static bool usbd_control_xfer_cb(uint8_t rhport, uint8_t ep_addr, xfer_result_t result, uint32_t xf
 426:/home/pi/Developer/tinyusb/src/device/usbd.c **** static bool process_setup_received(uint8_t rhport, tusb_control_request_t const * p_request);
 427:/home/pi/Developer/tinyusb/src/device/usbd.c **** static bool process_set_config(uint8_t rhport, uint8_t cfg_num);
 428:/home/pi/Developer/tinyusb/src/device/usbd.c **** static bool process_get_descriptor(uint8_t rhport, tusb_control_request_t const * p_request);
 429:/home/pi/Developer/tinyusb/src/device/usbd.c **** 
 430:/home/pi/Developer/tinyusb/src/device/usbd.c **** #if CFG_TUD_TEST_MODE
 431:/home/pi/Developer/tinyusb/src/device/usbd.c **** static bool process_test_mode_cb(uint8_t rhport, uint8_t stage, tusb_control_request_t const * requ
 432:/home/pi/Developer/tinyusb/src/device/usbd.c ****   TU_VERIFY(CONTROL_STAGE_ACK == stage);
 433:/home/pi/Developer/tinyusb/src/device/usbd.c ****   uint8_t const selector = tu_u16_high(request->wIndex);
 434:/home/pi/Developer/tinyusb/src/device/usbd.c ****   TU_LOG_USBD("    Enter Test Mode (test selector index: %d)\r\n", selector);
 435:/home/pi/Developer/tinyusb/src/device/usbd.c ****   dcd_enter_test_mode(rhport, (tusb_feature_test_mode_t) selector);
 436:/home/pi/Developer/tinyusb/src/device/usbd.c ****   return true;
 437:/home/pi/Developer/tinyusb/src/device/usbd.c **** }
 438:/home/pi/Developer/tinyusb/src/device/usbd.c **** #endif
 439:/home/pi/Developer/tinyusb/src/device/usbd.c **** 
 440:/home/pi/Developer/tinyusb/src/device/usbd.c **** //--------------------------------------------------------------------+
 441:/home/pi/Developer/tinyusb/src/device/usbd.c **** // Weak stubs: invoked if no strong implementation is available
 442:/home/pi/Developer/tinyusb/src/device/usbd.c **** //--------------------------------------------------------------------+
 443:/home/pi/Developer/tinyusb/src/device/usbd.c **** TU_ATTR_WEAK usbd_class_driver_t const* usbd_app_driver_get_cb(uint8_t* driver_count) {
 444:/home/pi/Developer/tinyusb/src/device/usbd.c ****   *driver_count = 0;
 445:/home/pi/Developer/tinyusb/src/device/usbd.c ****   return NULL;
 446:/home/pi/Developer/tinyusb/src/device/usbd.c **** }
 447:/home/pi/Developer/tinyusb/src/device/usbd.c **** 
 448:/home/pi/Developer/tinyusb/src/device/usbd.c **** TU_ATTR_WEAK bool dcd_edpt_xfer_fifo(uint8_t rhport, uint8_t ep_addr, tu_fifo_t * ff, uint16_t tota
 449:/home/pi/Developer/tinyusb/src/device/usbd.c ****   (void) rhport; (void) ep_addr; (void) ff; (void) total_bytes; (void) is_isr;
 450:/home/pi/Developer/tinyusb/src/device/usbd.c ****   return false;
 451:/home/pi/Developer/tinyusb/src/device/usbd.c **** }
 452:/home/pi/Developer/tinyusb/src/device/usbd.c **** 
 453:/home/pi/Developer/tinyusb/src/device/usbd.c **** TU_ATTR_WEAK bool dcd_configure(uint8_t rhport, uint32_t cfg_id, const void* cfg_param) {
 454:/home/pi/Developer/tinyusb/src/device/usbd.c ****   (void) rhport; (void) cfg_id; (void) cfg_param;
 455:/home/pi/Developer/tinyusb/src/device/usbd.c ****   return false;
 456:/home/pi/Developer/tinyusb/src/device/usbd.c **** }
 457:/home/pi/Developer/tinyusb/src/device/usbd.c **** 
 458:/home/pi/Developer/tinyusb/src/device/usbd.c **** //--------------------------------------------------------------------+
 459:/home/pi/Developer/tinyusb/src/device/usbd.c **** // Debug
ARM GAS  /tmp/ccRLxfLU.s 			page 10


 460:/home/pi/Developer/tinyusb/src/device/usbd.c **** //--------------------------------------------------------------------+
 461:/home/pi/Developer/tinyusb/src/device/usbd.c **** #if CFG_TUSB_DEBUG >= CFG_TUD_LOG_LEVEL
 462:/home/pi/Developer/tinyusb/src/device/usbd.c **** static char const *const _usbd_event_str[DCD_EVENT_COUNT] = {
 463:/home/pi/Developer/tinyusb/src/device/usbd.c ****     "Invalid",
 464:/home/pi/Developer/tinyusb/src/device/usbd.c ****     "Bus Reset",
 465:/home/pi/Developer/tinyusb/src/device/usbd.c ****     "Unplugged",
 466:/home/pi/Developer/tinyusb/src/device/usbd.c ****     "SOF",
 467:/home/pi/Developer/tinyusb/src/device/usbd.c ****     "Suspend",
 468:/home/pi/Developer/tinyusb/src/device/usbd.c ****     "Resume",
 469:/home/pi/Developer/tinyusb/src/device/usbd.c ****     "Setup Received",
 470:/home/pi/Developer/tinyusb/src/device/usbd.c ****     "Xfer Complete",
 471:/home/pi/Developer/tinyusb/src/device/usbd.c ****     "Func Call"
 472:/home/pi/Developer/tinyusb/src/device/usbd.c **** };
 473:/home/pi/Developer/tinyusb/src/device/usbd.c **** 
 474:/home/pi/Developer/tinyusb/src/device/usbd.c **** #endif
 475:/home/pi/Developer/tinyusb/src/device/usbd.c **** 
 476:/home/pi/Developer/tinyusb/src/device/usbd.c **** //--------------------------------------------------------------------+
 477:/home/pi/Developer/tinyusb/src/device/usbd.c **** // Application API
 478:/home/pi/Developer/tinyusb/src/device/usbd.c **** //--------------------------------------------------------------------+
 479:/home/pi/Developer/tinyusb/src/device/usbd.c **** tusb_speed_t tud_speed_get(void) {
 480:/home/pi/Developer/tinyusb/src/device/usbd.c ****   return (tusb_speed_t) _usbd_dev.speed;
 481:/home/pi/Developer/tinyusb/src/device/usbd.c **** }
 482:/home/pi/Developer/tinyusb/src/device/usbd.c **** 
 483:/home/pi/Developer/tinyusb/src/device/usbd.c **** bool tud_connected(void) {
 484:/home/pi/Developer/tinyusb/src/device/usbd.c ****   return _usbd_dev.connected;
 485:/home/pi/Developer/tinyusb/src/device/usbd.c **** }
 486:/home/pi/Developer/tinyusb/src/device/usbd.c **** 
 487:/home/pi/Developer/tinyusb/src/device/usbd.c **** bool tud_mounted(void) {
 488:/home/pi/Developer/tinyusb/src/device/usbd.c ****   return _usbd_dev.cfg_num ? true : false;
 489:/home/pi/Developer/tinyusb/src/device/usbd.c **** }
 490:/home/pi/Developer/tinyusb/src/device/usbd.c **** 
 491:/home/pi/Developer/tinyusb/src/device/usbd.c **** bool tud_suspended(void) {
 492:/home/pi/Developer/tinyusb/src/device/usbd.c ****   return _usbd_dev.suspended;
 493:/home/pi/Developer/tinyusb/src/device/usbd.c **** }
 494:/home/pi/Developer/tinyusb/src/device/usbd.c **** 
 495:/home/pi/Developer/tinyusb/src/device/usbd.c **** bool tud_remote_wakeup(void) {
 496:/home/pi/Developer/tinyusb/src/device/usbd.c ****   // only wake up host if this feature is enabled and we are suspended
 497:/home/pi/Developer/tinyusb/src/device/usbd.c ****   TU_VERIFY(_usbd_dev.suspended && _usbd_dev.remote_wakeup_en);
 498:/home/pi/Developer/tinyusb/src/device/usbd.c ****   dcd_remote_wakeup(_usbd_rhport);
 499:/home/pi/Developer/tinyusb/src/device/usbd.c ****   return true;
 500:/home/pi/Developer/tinyusb/src/device/usbd.c **** }
 501:/home/pi/Developer/tinyusb/src/device/usbd.c **** 
 502:/home/pi/Developer/tinyusb/src/device/usbd.c **** bool tud_disconnect(void) {
 503:/home/pi/Developer/tinyusb/src/device/usbd.c ****   dcd_disconnect(_usbd_rhport);
 504:/home/pi/Developer/tinyusb/src/device/usbd.c ****   return true;
 505:/home/pi/Developer/tinyusb/src/device/usbd.c **** }
 506:/home/pi/Developer/tinyusb/src/device/usbd.c **** 
 507:/home/pi/Developer/tinyusb/src/device/usbd.c **** bool tud_connect(void) {
 508:/home/pi/Developer/tinyusb/src/device/usbd.c ****   dcd_connect(_usbd_rhport);
 509:/home/pi/Developer/tinyusb/src/device/usbd.c ****   return true;
 510:/home/pi/Developer/tinyusb/src/device/usbd.c **** }
 511:/home/pi/Developer/tinyusb/src/device/usbd.c **** 
 512:/home/pi/Developer/tinyusb/src/device/usbd.c **** void tud_sof_cb_enable(bool en) {
 513:/home/pi/Developer/tinyusb/src/device/usbd.c ****   usbd_sof_enable(_usbd_rhport, SOF_CONSUMER_USER, en);
 514:/home/pi/Developer/tinyusb/src/device/usbd.c **** }
 515:/home/pi/Developer/tinyusb/src/device/usbd.c **** 
 516:/home/pi/Developer/tinyusb/src/device/usbd.c **** bool tud_inited(void) {
ARM GAS  /tmp/ccRLxfLU.s 			page 11


 517:/home/pi/Developer/tinyusb/src/device/usbd.c ****   return _usbd_rhport != RHPORT_INVALID;
 518:/home/pi/Developer/tinyusb/src/device/usbd.c **** }
 519:/home/pi/Developer/tinyusb/src/device/usbd.c **** 
 520:/home/pi/Developer/tinyusb/src/device/usbd.c **** bool tud_configure(uint8_t rhport, uint32_t cfg_id, const void* cfg_param) {
 521:/home/pi/Developer/tinyusb/src/device/usbd.c ****   return dcd_configure(rhport, cfg_id, cfg_param);
 522:/home/pi/Developer/tinyusb/src/device/usbd.c **** }
 523:/home/pi/Developer/tinyusb/src/device/usbd.c **** 
 524:/home/pi/Developer/tinyusb/src/device/usbd.c **** bool tud_rhport_init(uint8_t rhport, const tusb_rhport_init_t* rh_init) {
 525:/home/pi/Developer/tinyusb/src/device/usbd.c ****   if (tud_inited()) {
 526:/home/pi/Developer/tinyusb/src/device/usbd.c ****     return true; // skip if already initialized
 527:/home/pi/Developer/tinyusb/src/device/usbd.c ****   }
 528:/home/pi/Developer/tinyusb/src/device/usbd.c ****   TU_ASSERT(rh_init);
 529:/home/pi/Developer/tinyusb/src/device/usbd.c ****  #if CFG_TUSB_DEBUG >= CFG_TUD_LOG_LEVEL
 530:/home/pi/Developer/tinyusb/src/device/usbd.c ****   char const* speed_str = 0;
 531:/home/pi/Developer/tinyusb/src/device/usbd.c ****   switch (rh_init->speed) {
 532:/home/pi/Developer/tinyusb/src/device/usbd.c ****     case TUSB_SPEED_HIGH:
 533:/home/pi/Developer/tinyusb/src/device/usbd.c ****       speed_str = "High";
 534:/home/pi/Developer/tinyusb/src/device/usbd.c ****     break;
 535:/home/pi/Developer/tinyusb/src/device/usbd.c ****     case TUSB_SPEED_FULL:
 536:/home/pi/Developer/tinyusb/src/device/usbd.c ****       speed_str = "Full";
 537:/home/pi/Developer/tinyusb/src/device/usbd.c ****     break;
 538:/home/pi/Developer/tinyusb/src/device/usbd.c ****     case TUSB_SPEED_LOW:
 539:/home/pi/Developer/tinyusb/src/device/usbd.c ****       speed_str = "Low";
 540:/home/pi/Developer/tinyusb/src/device/usbd.c ****     break;
 541:/home/pi/Developer/tinyusb/src/device/usbd.c ****     case TUSB_SPEED_AUTO:
 542:/home/pi/Developer/tinyusb/src/device/usbd.c ****       speed_str = "Auto";
 543:/home/pi/Developer/tinyusb/src/device/usbd.c ****     break;
 544:/home/pi/Developer/tinyusb/src/device/usbd.c ****   default:
 545:/home/pi/Developer/tinyusb/src/device/usbd.c ****     break;
 546:/home/pi/Developer/tinyusb/src/device/usbd.c ****   }
 547:/home/pi/Developer/tinyusb/src/device/usbd.c ****   TU_LOG_USBD("USBD init on controller %u, speed = %s\r\n", rhport, speed_str);
 548:/home/pi/Developer/tinyusb/src/device/usbd.c ****   TU_LOG_INT(CFG_TUD_LOG_LEVEL, sizeof(usbd_device_t));
 549:/home/pi/Developer/tinyusb/src/device/usbd.c ****   TU_LOG_INT(CFG_TUD_LOG_LEVEL, sizeof(dcd_event_t));
 550:/home/pi/Developer/tinyusb/src/device/usbd.c ****   TU_LOG_INT(CFG_TUD_LOG_LEVEL, sizeof(tu_fifo_t));
 551:/home/pi/Developer/tinyusb/src/device/usbd.c ****   TU_LOG_INT(CFG_TUD_LOG_LEVEL, sizeof(tu_edpt_stream_t));
 552:/home/pi/Developer/tinyusb/src/device/usbd.c **** #endif
 553:/home/pi/Developer/tinyusb/src/device/usbd.c **** 
 554:/home/pi/Developer/tinyusb/src/device/usbd.c ****   tu_varclr(&_usbd_dev);
 555:/home/pi/Developer/tinyusb/src/device/usbd.c ****   _usbd_queued_setup = 0;
 556:/home/pi/Developer/tinyusb/src/device/usbd.c **** 
 557:/home/pi/Developer/tinyusb/src/device/usbd.c ****   osal_spin_init(&_usbd_spin);
 558:/home/pi/Developer/tinyusb/src/device/usbd.c **** 
 559:/home/pi/Developer/tinyusb/src/device/usbd.c **** #if OSAL_MUTEX_REQUIRED
 560:/home/pi/Developer/tinyusb/src/device/usbd.c ****   // Init device mutex
 561:/home/pi/Developer/tinyusb/src/device/usbd.c ****   _usbd_mutex = osal_mutex_create(&_ubsd_mutexdef);
 562:/home/pi/Developer/tinyusb/src/device/usbd.c ****   TU_ASSERT(_usbd_mutex);
 563:/home/pi/Developer/tinyusb/src/device/usbd.c **** #endif
 564:/home/pi/Developer/tinyusb/src/device/usbd.c **** 
 565:/home/pi/Developer/tinyusb/src/device/usbd.c ****   // Init device queue & task
 566:/home/pi/Developer/tinyusb/src/device/usbd.c ****   _usbd_q = osal_queue_create(&_usbd_qdef);
 567:/home/pi/Developer/tinyusb/src/device/usbd.c ****   TU_ASSERT(_usbd_q);
 568:/home/pi/Developer/tinyusb/src/device/usbd.c **** 
 569:/home/pi/Developer/tinyusb/src/device/usbd.c ****   // Get application driver if available
 570:/home/pi/Developer/tinyusb/src/device/usbd.c ****   _app_driver = usbd_app_driver_get_cb(&_app_driver_count);
 571:/home/pi/Developer/tinyusb/src/device/usbd.c ****   TU_ASSERT(_app_driver_count + BUILTIN_DRIVER_COUNT <= UINT8_MAX);
 572:/home/pi/Developer/tinyusb/src/device/usbd.c **** 
 573:/home/pi/Developer/tinyusb/src/device/usbd.c ****   // Init class drivers
ARM GAS  /tmp/ccRLxfLU.s 			page 12


 574:/home/pi/Developer/tinyusb/src/device/usbd.c ****   for (uint8_t i = 0; i < TOTAL_DRIVER_COUNT; i++) {
 575:/home/pi/Developer/tinyusb/src/device/usbd.c ****     usbd_class_driver_t const* driver = get_driver(i);
 576:/home/pi/Developer/tinyusb/src/device/usbd.c ****     TU_ASSERT(driver && driver->init);
 577:/home/pi/Developer/tinyusb/src/device/usbd.c ****     TU_LOG_USBD("%s init\r\n", driver->name);
 578:/home/pi/Developer/tinyusb/src/device/usbd.c ****     driver->init();
 579:/home/pi/Developer/tinyusb/src/device/usbd.c ****   }
 580:/home/pi/Developer/tinyusb/src/device/usbd.c **** 
 581:/home/pi/Developer/tinyusb/src/device/usbd.c ****   _usbd_rhport = rhport;
 582:/home/pi/Developer/tinyusb/src/device/usbd.c **** 
 583:/home/pi/Developer/tinyusb/src/device/usbd.c ****   // Init device controller driver
 584:/home/pi/Developer/tinyusb/src/device/usbd.c ****   TU_ASSERT(dcd_init(rhport, rh_init));
 585:/home/pi/Developer/tinyusb/src/device/usbd.c ****   dcd_int_enable(rhport);
 586:/home/pi/Developer/tinyusb/src/device/usbd.c **** 
 587:/home/pi/Developer/tinyusb/src/device/usbd.c ****   return true;
 588:/home/pi/Developer/tinyusb/src/device/usbd.c **** }
 589:/home/pi/Developer/tinyusb/src/device/usbd.c **** 
 590:/home/pi/Developer/tinyusb/src/device/usbd.c **** bool tud_deinit(uint8_t rhport) {
 591:/home/pi/Developer/tinyusb/src/device/usbd.c ****   if (!tud_inited()) {
 592:/home/pi/Developer/tinyusb/src/device/usbd.c ****     return true; // skip if not initialized
 593:/home/pi/Developer/tinyusb/src/device/usbd.c ****   }
 594:/home/pi/Developer/tinyusb/src/device/usbd.c **** 
 595:/home/pi/Developer/tinyusb/src/device/usbd.c ****   TU_LOG_USBD("USBD deinit on controller %u\r\n", rhport);
 596:/home/pi/Developer/tinyusb/src/device/usbd.c **** 
 597:/home/pi/Developer/tinyusb/src/device/usbd.c ****   const uint8_t cfg_num = _usbd_dev.cfg_num;
 598:/home/pi/Developer/tinyusb/src/device/usbd.c **** 
 599:/home/pi/Developer/tinyusb/src/device/usbd.c ****   // Deinit device controller driver
 600:/home/pi/Developer/tinyusb/src/device/usbd.c ****   dcd_int_disable(rhport);
 601:/home/pi/Developer/tinyusb/src/device/usbd.c ****   dcd_disconnect(rhport);
 602:/home/pi/Developer/tinyusb/src/device/usbd.c ****   TU_ASSERT(dcd_deinit(rhport));
 603:/home/pi/Developer/tinyusb/src/device/usbd.c **** 
 604:/home/pi/Developer/tinyusb/src/device/usbd.c ****   // Deinit class drivers
 605:/home/pi/Developer/tinyusb/src/device/usbd.c ****   for (uint8_t i = 0; i < TOTAL_DRIVER_COUNT; i++) {
 606:/home/pi/Developer/tinyusb/src/device/usbd.c ****     usbd_class_driver_t const* driver = get_driver(i);
 607:/home/pi/Developer/tinyusb/src/device/usbd.c ****     if(driver && driver->deinit) {
 608:/home/pi/Developer/tinyusb/src/device/usbd.c ****       TU_LOG_USBD("%s deinit\r\n", driver->name);
 609:/home/pi/Developer/tinyusb/src/device/usbd.c ****       driver->deinit();
 610:/home/pi/Developer/tinyusb/src/device/usbd.c ****     }
 611:/home/pi/Developer/tinyusb/src/device/usbd.c ****   }
 612:/home/pi/Developer/tinyusb/src/device/usbd.c **** 
 613:/home/pi/Developer/tinyusb/src/device/usbd.c ****   tu_varclr(&_usbd_dev); // Clear device data
 614:/home/pi/Developer/tinyusb/src/device/usbd.c **** 
 615:/home/pi/Developer/tinyusb/src/device/usbd.c ****   // Deinit device queue & task
 616:/home/pi/Developer/tinyusb/src/device/usbd.c ****   osal_queue_delete(_usbd_q);
 617:/home/pi/Developer/tinyusb/src/device/usbd.c ****   _usbd_q = NULL;
 618:/home/pi/Developer/tinyusb/src/device/usbd.c **** 
 619:/home/pi/Developer/tinyusb/src/device/usbd.c **** #if OSAL_MUTEX_REQUIRED
 620:/home/pi/Developer/tinyusb/src/device/usbd.c ****   // TODO make sure there is no task waiting on this mutex
 621:/home/pi/Developer/tinyusb/src/device/usbd.c ****   osal_mutex_delete(_usbd_mutex);
 622:/home/pi/Developer/tinyusb/src/device/usbd.c ****   _usbd_mutex = NULL;
 623:/home/pi/Developer/tinyusb/src/device/usbd.c **** #endif
 624:/home/pi/Developer/tinyusb/src/device/usbd.c **** 
 625:/home/pi/Developer/tinyusb/src/device/usbd.c ****   _usbd_rhport = RHPORT_INVALID;
 626:/home/pi/Developer/tinyusb/src/device/usbd.c **** 
 627:/home/pi/Developer/tinyusb/src/device/usbd.c ****   if (cfg_num > 0) {
 628:/home/pi/Developer/tinyusb/src/device/usbd.c ****     tud_umount_cb();
 629:/home/pi/Developer/tinyusb/src/device/usbd.c ****   }
 630:/home/pi/Developer/tinyusb/src/device/usbd.c **** 
ARM GAS  /tmp/ccRLxfLU.s 			page 13


 631:/home/pi/Developer/tinyusb/src/device/usbd.c ****   return true;
 632:/home/pi/Developer/tinyusb/src/device/usbd.c **** }
 633:/home/pi/Developer/tinyusb/src/device/usbd.c **** 
 634:/home/pi/Developer/tinyusb/src/device/usbd.c **** static void configuration_reset(uint8_t rhport) {
  58              		.loc 1 634 49 is_stmt 1 view -0
  59              		.cfi_startproc
  60              		@ args = 0, pretend = 0, frame = 0
  61              		@ frame_needed = 0, uses_anonymous_args = 0
 635:/home/pi/Developer/tinyusb/src/device/usbd.c ****   for (uint8_t i = 0; i < TOTAL_DRIVER_COUNT; i++) {
  62              		.loc 1 635 3 view .LVU8
  63              	.LBB407:
  64              		.loc 1 635 8 view .LVU9
  65              		.loc 1 635 23 view .LVU10
  66              	.LBE407:
 634:/home/pi/Developer/tinyusb/src/device/usbd.c ****   for (uint8_t i = 0; i < TOTAL_DRIVER_COUNT; i++) {
  67              		.loc 1 634 49 is_stmt 0 view .LVU11
  68 0000 2DE9F041 		push	{r4, r5, r6, r7, r8, lr}
  69              		.cfi_def_cfa_offset 24
  70              		.cfi_offset 4, -24
  71              		.cfi_offset 5, -20
  72              		.cfi_offset 6, -16
  73              		.cfi_offset 7, -12
  74              		.cfi_offset 8, -8
  75              		.cfi_offset 14, -4
  76              	.LBB417:
  77              		.loc 1 635 27 view .LVU12
  78 0004 244C     		ldr	r4, .L21
  79 0006 2178     		ldrb	r1, [r4]	@ zero_extendqisi2
  80              		.loc 1 635 3 view .LVU13
  81 0008 FE29     		cmp	r1, #254
  82 000a 18D0     		beq	.L4
  83 000c 0027     		movs	r7, #0
  84 000e 8046     		mov	r8, r0
  85              	.LBB408:
  86              	.LBB409:
  87              	.LBB410:
 387:/home/pi/Developer/tinyusb/src/device/usbd.c ****     }
  88              		.loc 1 387 14 view .LVU14
  89 0010 224E     		ldr	r6, .L21+4
  90 0012 3A46     		mov	r2, r7
 383:/home/pi/Developer/tinyusb/src/device/usbd.c ****   } else{
  91              		.loc 1 383 14 view .LVU15
  92 0014 224D     		ldr	r5, .L21+8
  93              	.LVL3:
  94              	.L9:
 383:/home/pi/Developer/tinyusb/src/device/usbd.c ****   } else{
  95              		.loc 1 383 14 view .LVU16
  96              	.LBE410:
  97              	.LBE409:
 636:/home/pi/Developer/tinyusb/src/device/usbd.c ****     usbd_class_driver_t const* driver = get_driver(i);
  98              		.loc 1 636 5 is_stmt 1 view .LVU17
  99              	.LBB413:
 100              	.LBI409:
 379:/home/pi/Developer/tinyusb/src/device/usbd.c ****   usbd_class_driver_t const *driver = NULL;
 101              		.loc 1 379 65 view .LVU18
 102              	.LBB411:
 380:/home/pi/Developer/tinyusb/src/device/usbd.c ****   if (drvid < _app_driver_count) {
ARM GAS  /tmp/ccRLxfLU.s 			page 14


 103              		.loc 1 380 3 view .LVU19
 381:/home/pi/Developer/tinyusb/src/device/usbd.c ****     // Application drivers
 104              		.loc 1 381 3 view .LVU20
 383:/home/pi/Developer/tinyusb/src/device/usbd.c ****   } else{
 105              		.loc 1 383 5 view .LVU21
 385:/home/pi/Developer/tinyusb/src/device/usbd.c ****     if (drvid < BUILTIN_DRIVER_COUNT) {
 106              		.loc 1 385 5 view .LVU22
 385:/home/pi/Developer/tinyusb/src/device/usbd.c ****     if (drvid < BUILTIN_DRIVER_COUNT) {
 107              		.loc 1 385 11 is_stmt 0 view .LVU23
 108 0016 531A     		subs	r3, r2, r1
 381:/home/pi/Developer/tinyusb/src/device/usbd.c ****     // Application drivers
 109              		.loc 1 381 6 view .LVU24
 110 0018 9142     		cmp	r1, r2
 383:/home/pi/Developer/tinyusb/src/device/usbd.c ****   } else{
 111              		.loc 1 383 26 view .LVU25
 112 001a 02EBC200 		add	r0, r2, r2, lsl #3
 385:/home/pi/Developer/tinyusb/src/device/usbd.c ****     if (drvid < BUILTIN_DRIVER_COUNT) {
 113              		.loc 1 385 11 view .LVU26
 114 001e DBB2     		uxtb	r3, r3
 115              	.LVL4:
 386:/home/pi/Developer/tinyusb/src/device/usbd.c ****       driver = &_usbd_driver[drvid];
 116              		.loc 1 386 5 is_stmt 1 view .LVU27
 381:/home/pi/Developer/tinyusb/src/device/usbd.c ****     // Application drivers
 117              		.loc 1 381 6 is_stmt 0 view .LVU28
 118 0020 29D9     		bls	.L5
 383:/home/pi/Developer/tinyusb/src/device/usbd.c ****   } else{
 119              		.loc 1 383 12 view .LVU29
 120 0022 2B68     		ldr	r3, [r5]
 121              	.LVL5:
 391:/home/pi/Developer/tinyusb/src/device/usbd.c **** }
 122              		.loc 1 391 3 is_stmt 1 view .LVU30
 391:/home/pi/Developer/tinyusb/src/device/usbd.c **** }
 123              		.loc 1 391 3 is_stmt 0 view .LVU31
 124              	.LBE411:
 125              	.LBE413:
 637:/home/pi/Developer/tinyusb/src/device/usbd.c ****     TU_ASSERT(driver,);
 126              		.loc 1 637 5 is_stmt 1 view .LVU32
 127              		.loc 1 637 5 view .LVU33
 128 0024 13EB8003 		adds	r3, r3, r0, lsl #2
 129              	.LVL6:
 130              		.loc 1 637 5 is_stmt 0 view .LVU34
 131 0028 2CD0     		beq	.L6
 132              	.LVL7:
 133              	.L7:
 134              		.loc 1 637 5 is_stmt 1 discriminator 2 view .LVU35
 638:/home/pi/Developer/tinyusb/src/device/usbd.c ****     driver->reset(rhport);
 135              		.loc 1 638 5 discriminator 2 view .LVU36
 136 002a DB68     		ldr	r3, [r3, #12]
 137              	.LVL8:
 138              		.loc 1 638 5 is_stmt 0 discriminator 2 view .LVU37
 139 002c 4046     		mov	r0, r8
 140 002e 9847     		blx	r3
 141              	.LVL9:
 142              		.loc 1 638 5 discriminator 2 view .LVU38
 143              	.LBE408:
 635:/home/pi/Developer/tinyusb/src/device/usbd.c ****     usbd_class_driver_t const* driver = get_driver(i);
 144              		.loc 1 635 47 is_stmt 1 discriminator 2 view .LVU39
ARM GAS  /tmp/ccRLxfLU.s 			page 15


 635:/home/pi/Developer/tinyusb/src/device/usbd.c ****     usbd_class_driver_t const* driver = get_driver(i);
 145              		.loc 1 635 23 discriminator 2 view .LVU40
 635:/home/pi/Developer/tinyusb/src/device/usbd.c ****     usbd_class_driver_t const* driver = get_driver(i);
 146              		.loc 1 635 27 is_stmt 0 discriminator 2 view .LVU41
 147 0030 2178     		ldrb	r1, [r4]	@ zero_extendqisi2
 635:/home/pi/Developer/tinyusb/src/device/usbd.c ****     usbd_class_driver_t const* driver = get_driver(i);
 148              		.loc 1 635 3 discriminator 2 view .LVU42
 149 0032 0137     		adds	r7, r7, #1
 150              	.LVL10:
 635:/home/pi/Developer/tinyusb/src/device/usbd.c ****     usbd_class_driver_t const* driver = get_driver(i);
 151              		.loc 1 635 27 discriminator 2 view .LVU43
 152 0034 8B1C     		adds	r3, r1, #2
 635:/home/pi/Developer/tinyusb/src/device/usbd.c ****     usbd_class_driver_t const* driver = get_driver(i);
 153              		.loc 1 635 3 discriminator 2 view .LVU44
 154 0036 FAB2     		uxtb	r2, r7
 155 0038 DBB2     		uxtb	r3, r3
 156 003a 9342     		cmp	r3, r2
 157 003c EBD8     		bhi	.L9
 158              	.L4:
 635:/home/pi/Developer/tinyusb/src/device/usbd.c ****     usbd_class_driver_t const* driver = get_driver(i);
 159              		.loc 1 635 3 discriminator 2 view .LVU45
 160              	.LBE417:
 639:/home/pi/Developer/tinyusb/src/device/usbd.c ****   }
 640:/home/pi/Developer/tinyusb/src/device/usbd.c **** 
 641:/home/pi/Developer/tinyusb/src/device/usbd.c ****   tu_varclr(&_usbd_dev);
 161              		.loc 1 641 3 is_stmt 1 view .LVU46
 162 003e 194B     		ldr	r3, .L21+12
 163 0040 5022     		movs	r2, #80
 164 0042 0021     		movs	r1, #0
 165 0044 1846     		mov	r0, r3
 166 0046 FFF7FEFF 		bl	memset
 167              	.LVL11:
 642:/home/pi/Developer/tinyusb/src/device/usbd.c ****   (void)memset(_usbd_dev.itf2drv, TUSB_INDEX_INVALID_8, sizeof(_usbd_dev.itf2drv)); // invalid mapp
 168              		.loc 1 642 3 view .LVU47
 169              		.loc 1 642 9 is_stmt 0 view .LVU48
 170 004a 4FF0FF32 		mov	r2, #-1
 171 004e C0F81B20 		str	r2, [r0, #27]	@ unaligned
 172 0052 C0F81F20 		str	r2, [r0, #31]	@ unaligned
 173 0056 C0F82320 		str	r2, [r0, #35]	@ unaligned
 174 005a C0F82720 		str	r2, [r0, #39]	@ unaligned
 643:/home/pi/Developer/tinyusb/src/device/usbd.c ****   (void)memset(_usbd_dev.ep2drv, TUSB_INDEX_INVALID_8, sizeof(_usbd_dev.ep2drv));   // invalid mapp
 175              		.loc 1 643 3 is_stmt 1 view .LVU49
 176              		.loc 1 643 9 is_stmt 0 view .LVU50
 177 005e C0F82B20 		str	r2, [r0, #43]	@ unaligned
 178 0062 C0F82F20 		str	r2, [r0, #47]	@ unaligned
 179 0066 C0F83320 		str	r2, [r0, #51]	@ unaligned
 180 006a C0F83720 		str	r2, [r0, #55]	@ unaligned
 181 006e A0F83B20 		strh	r2, [r0, #59]	@ unaligned
 182              	.L3:
 644:/home/pi/Developer/tinyusb/src/device/usbd.c **** }
 183              		.loc 1 644 1 view .LVU51
 184 0072 BDE8F081 		pop	{r4, r5, r6, r7, r8, pc}
 185              	.LVL12:
 186              	.L5:
 187              	.LBB418:
 188              	.LBB416:
 189              	.LBB414:
ARM GAS  /tmp/ccRLxfLU.s 			page 16


 190              	.LBB412:
 387:/home/pi/Developer/tinyusb/src/device/usbd.c ****     }
 191              		.loc 1 387 7 is_stmt 1 view .LVU52
 386:/home/pi/Developer/tinyusb/src/device/usbd.c ****       driver = &_usbd_driver[drvid];
 192              		.loc 1 386 8 is_stmt 0 view .LVU53
 193 0076 012B     		cmp	r3, #1
 387:/home/pi/Developer/tinyusb/src/device/usbd.c ****     }
 194              		.loc 1 387 14 view .LVU54
 195 0078 03EBC303 		add	r3, r3, r3, lsl #3
 196              	.LVL13:
 386:/home/pi/Developer/tinyusb/src/device/usbd.c ****       driver = &_usbd_driver[drvid];
 197              		.loc 1 386 8 view .LVU55
 198 007c 02D8     		bhi	.L6
 387:/home/pi/Developer/tinyusb/src/device/usbd.c ****     }
 199              		.loc 1 387 14 view .LVU56
 200 007e 06EB8303 		add	r3, r6, r3, lsl #2
 201              	.LVL14:
 391:/home/pi/Developer/tinyusb/src/device/usbd.c **** }
 202              		.loc 1 391 3 is_stmt 1 view .LVU57
 391:/home/pi/Developer/tinyusb/src/device/usbd.c **** }
 203              		.loc 1 391 3 is_stmt 0 view .LVU58
 204              	.LBE412:
 205              	.LBE414:
 637:/home/pi/Developer/tinyusb/src/device/usbd.c ****     driver->reset(rhport);
 206              		.loc 1 637 5 is_stmt 1 view .LVU59
 637:/home/pi/Developer/tinyusb/src/device/usbd.c ****     driver->reset(rhport);
 207              		.loc 1 637 5 view .LVU60
 208 0082 D2E7     		b	.L7
 209              	.LVL15:
 210              	.L6:
 637:/home/pi/Developer/tinyusb/src/device/usbd.c ****     driver->reset(rhport);
 211              		.loc 1 637 5 discriminator 1 view .LVU61
 637:/home/pi/Developer/tinyusb/src/device/usbd.c ****     driver->reset(rhport);
 212              		.loc 1 637 5 discriminator 1 view .LVU62
 637:/home/pi/Developer/tinyusb/src/device/usbd.c ****     driver->reset(rhport);
 213              		.loc 1 637 5 discriminator 1 view .LVU63
 637:/home/pi/Developer/tinyusb/src/device/usbd.c ****     driver->reset(rhport);
 214              		.loc 1 637 5 discriminator 1 view .LVU64
 215              	.LBB415:
 637:/home/pi/Developer/tinyusb/src/device/usbd.c ****     driver->reset(rhport);
 216              		.loc 1 637 5 discriminator 1 view .LVU65
 637:/home/pi/Developer/tinyusb/src/device/usbd.c ****     driver->reset(rhport);
 217              		.loc 1 637 5 discriminator 1 view .LVU66
 218 0084 4FF0E023 		mov	r3, #-536813568
 219 0088 D3F8F03D 		ldr	r3, [r3, #3568]
 220 008c DB07     		lsls	r3, r3, #31
 221 008e F0D5     		bpl	.L3
 637:/home/pi/Developer/tinyusb/src/device/usbd.c ****     driver->reset(rhport);
 222              		.loc 1 637 5 discriminator 3 view .LVU67
 223              		.syntax unified
 224              	@ 637 "/home/pi/Developer/tinyusb/src/device/usbd.c" 1
 225 0090 00BE     		BKPT #0
 226              	
 227              	@ 0 "" 2
 228              		.thumb
 229              		.syntax unified
 230              	.LBE415:
ARM GAS  /tmp/ccRLxfLU.s 			page 17


 231              	.LBE416:
 232              	.LBE418:
 233              		.loc 1 644 1 is_stmt 0 discriminator 3 view .LVU68
 234 0092 BDE8F081 		pop	{r4, r5, r6, r7, r8, pc}
 235              	.L22:
 236 0096 00BF     		.align	2
 237              	.L21:
 238 0098 00000000 		.word	.LANCHOR0
 239 009c 00000000 		.word	.LANCHOR2
 240 00a0 00000000 		.word	.LANCHOR1
 241 00a4 00000000 		.word	.LANCHOR3
 242              		.cfi_endproc
 243              	.LFE484:
 245              		.section	.text.usbd_int_set,"ax",%progbits
 246              		.align	1
 247              		.p2align 2,,3
 248              		.global	usbd_int_set
 249              		.syntax unified
 250              		.thumb
 251              		.thumb_func
 252              		.fpu fpv5-d16
 254              	usbd_int_set:
 255              	.LVL16:
 256              	.LFB502:
 645:/home/pi/Developer/tinyusb/src/device/usbd.c **** 
 646:/home/pi/Developer/tinyusb/src/device/usbd.c **** static void usbd_reset(uint8_t rhport) {
 647:/home/pi/Developer/tinyusb/src/device/usbd.c ****   configuration_reset(rhport);
 648:/home/pi/Developer/tinyusb/src/device/usbd.c **** }
 649:/home/pi/Developer/tinyusb/src/device/usbd.c **** 
 650:/home/pi/Developer/tinyusb/src/device/usbd.c **** bool tud_task_event_ready(void) {
 651:/home/pi/Developer/tinyusb/src/device/usbd.c ****   TU_VERIFY(tud_inited()); // Skip if stack is not initialized
 652:/home/pi/Developer/tinyusb/src/device/usbd.c ****   return !osal_queue_empty(_usbd_q);
 653:/home/pi/Developer/tinyusb/src/device/usbd.c **** }
 654:/home/pi/Developer/tinyusb/src/device/usbd.c **** 
 655:/home/pi/Developer/tinyusb/src/device/usbd.c **** //--------------------------------------------------------------------+
 656:/home/pi/Developer/tinyusb/src/device/usbd.c **** // USBD Task
 657:/home/pi/Developer/tinyusb/src/device/usbd.c **** //--------------------------------------------------------------------+
 658:/home/pi/Developer/tinyusb/src/device/usbd.c **** /* USB Device Driver task
 659:/home/pi/Developer/tinyusb/src/device/usbd.c ****  * This top level thread manages all device controller event and delegates events to class-specific
 660:/home/pi/Developer/tinyusb/src/device/usbd.c ****  * This should be called periodically within the mainloop or rtos thread.
 661:/home/pi/Developer/tinyusb/src/device/usbd.c ****  *
 662:/home/pi/Developer/tinyusb/src/device/usbd.c ****     int main(void) {
 663:/home/pi/Developer/tinyusb/src/device/usbd.c ****       application_init();
 664:/home/pi/Developer/tinyusb/src/device/usbd.c ****       tusb_init(0, TUSB_ROLE_DEVICE);
 665:/home/pi/Developer/tinyusb/src/device/usbd.c **** 
 666:/home/pi/Developer/tinyusb/src/device/usbd.c ****       while(1) { // the mainloop
 667:/home/pi/Developer/tinyusb/src/device/usbd.c ****         application_code();
 668:/home/pi/Developer/tinyusb/src/device/usbd.c ****         tud_task(); // tinyusb device task
 669:/home/pi/Developer/tinyusb/src/device/usbd.c ****       }
 670:/home/pi/Developer/tinyusb/src/device/usbd.c ****     }
 671:/home/pi/Developer/tinyusb/src/device/usbd.c ****  */
 672:/home/pi/Developer/tinyusb/src/device/usbd.c **** void tud_task_ext(uint32_t timeout_ms, bool in_isr) {
 673:/home/pi/Developer/tinyusb/src/device/usbd.c ****   (void) in_isr; // not implemented yet
 674:/home/pi/Developer/tinyusb/src/device/usbd.c **** 
 675:/home/pi/Developer/tinyusb/src/device/usbd.c ****   // Skip if stack is not initialized
 676:/home/pi/Developer/tinyusb/src/device/usbd.c ****   if (!tud_inited()) {
 677:/home/pi/Developer/tinyusb/src/device/usbd.c ****     return;
ARM GAS  /tmp/ccRLxfLU.s 			page 18


 678:/home/pi/Developer/tinyusb/src/device/usbd.c ****   }
 679:/home/pi/Developer/tinyusb/src/device/usbd.c **** 
 680:/home/pi/Developer/tinyusb/src/device/usbd.c ****   // Loop until there are no more events in the queue or CFG_TUD_TASK_EVENTS_PER_RUN is reached
 681:/home/pi/Developer/tinyusb/src/device/usbd.c ****   for (unsigned epr = 0;; epr++) {
 682:/home/pi/Developer/tinyusb/src/device/usbd.c **** #if CFG_TUD_TASK_EVENTS_PER_RUN > 0
 683:/home/pi/Developer/tinyusb/src/device/usbd.c ****     if (epr >= CFG_TUD_TASK_EVENTS_PER_RUN) {
 684:/home/pi/Developer/tinyusb/src/device/usbd.c ****       TU_LOG_USBD("USBD event limit (" TU_XSTRING(CFG_TUD_TASK_EVENTS_PER_RUN) ") reached\r\n");
 685:/home/pi/Developer/tinyusb/src/device/usbd.c ****       break;
 686:/home/pi/Developer/tinyusb/src/device/usbd.c ****     }
 687:/home/pi/Developer/tinyusb/src/device/usbd.c **** #endif
 688:/home/pi/Developer/tinyusb/src/device/usbd.c ****     dcd_event_t event;
 689:/home/pi/Developer/tinyusb/src/device/usbd.c ****     if (!osal_queue_receive(_usbd_q, &event, timeout_ms)) {
 690:/home/pi/Developer/tinyusb/src/device/usbd.c ****       return;
 691:/home/pi/Developer/tinyusb/src/device/usbd.c ****     }
 692:/home/pi/Developer/tinyusb/src/device/usbd.c **** 
 693:/home/pi/Developer/tinyusb/src/device/usbd.c **** #if CFG_TUSB_DEBUG >= CFG_TUD_LOG_LEVEL
 694:/home/pi/Developer/tinyusb/src/device/usbd.c ****     if (event.event_id == DCD_EVENT_SETUP_RECEIVED) {
 695:/home/pi/Developer/tinyusb/src/device/usbd.c ****       TU_LOG_USBD("\r\n"); // extra line for setup
 696:/home/pi/Developer/tinyusb/src/device/usbd.c ****     }
 697:/home/pi/Developer/tinyusb/src/device/usbd.c ****     TU_LOG_USBD("USBD %s ", event.event_id < DCD_EVENT_COUNT ? _usbd_event_str[event.event_id] : "C
 698:/home/pi/Developer/tinyusb/src/device/usbd.c **** #endif
 699:/home/pi/Developer/tinyusb/src/device/usbd.c **** 
 700:/home/pi/Developer/tinyusb/src/device/usbd.c ****     switch (event.event_id) {
 701:/home/pi/Developer/tinyusb/src/device/usbd.c ****       case DCD_EVENT_BUS_RESET:
 702:/home/pi/Developer/tinyusb/src/device/usbd.c ****         TU_LOG_USBD(": %s Speed\r\n", tu_str_speed[event.bus_reset.speed]);
 703:/home/pi/Developer/tinyusb/src/device/usbd.c ****         usbd_reset(event.rhport);
 704:/home/pi/Developer/tinyusb/src/device/usbd.c ****         _usbd_dev.speed = event.bus_reset.speed;
 705:/home/pi/Developer/tinyusb/src/device/usbd.c ****         break;
 706:/home/pi/Developer/tinyusb/src/device/usbd.c **** 
 707:/home/pi/Developer/tinyusb/src/device/usbd.c ****       case DCD_EVENT_UNPLUGGED:
 708:/home/pi/Developer/tinyusb/src/device/usbd.c ****         TU_LOG_USBD("\r\n");
 709:/home/pi/Developer/tinyusb/src/device/usbd.c ****         usbd_reset(event.rhport);
 710:/home/pi/Developer/tinyusb/src/device/usbd.c ****         tud_umount_cb();
 711:/home/pi/Developer/tinyusb/src/device/usbd.c ****         break;
 712:/home/pi/Developer/tinyusb/src/device/usbd.c **** 
 713:/home/pi/Developer/tinyusb/src/device/usbd.c ****       case DCD_EVENT_SETUP_RECEIVED:
 714:/home/pi/Developer/tinyusb/src/device/usbd.c ****         if (_usbd_queued_setup == 0) {
 715:/home/pi/Developer/tinyusb/src/device/usbd.c ****           break;
 716:/home/pi/Developer/tinyusb/src/device/usbd.c ****         }
 717:/home/pi/Developer/tinyusb/src/device/usbd.c ****         _usbd_queued_setup--;
 718:/home/pi/Developer/tinyusb/src/device/usbd.c ****         TU_LOG_BUF(CFG_TUD_LOG_LEVEL, &event.setup_received, 8);
 719:/home/pi/Developer/tinyusb/src/device/usbd.c ****         if (_usbd_queued_setup != 0) {
 720:/home/pi/Developer/tinyusb/src/device/usbd.c ****           TU_LOG_USBD("  Skipped since there is other SETUP in queue\r\n");
 721:/home/pi/Developer/tinyusb/src/device/usbd.c ****           break;
 722:/home/pi/Developer/tinyusb/src/device/usbd.c ****         }
 723:/home/pi/Developer/tinyusb/src/device/usbd.c **** 
 724:/home/pi/Developer/tinyusb/src/device/usbd.c ****         // Mark as connected after receiving 1st setup packet.
 725:/home/pi/Developer/tinyusb/src/device/usbd.c ****         // But it is easier to set it every time instead of wasting time to check then set
 726:/home/pi/Developer/tinyusb/src/device/usbd.c ****         _usbd_dev.connected = 1;
 727:/home/pi/Developer/tinyusb/src/device/usbd.c **** 
 728:/home/pi/Developer/tinyusb/src/device/usbd.c ****         // reset ep state
 729:/home/pi/Developer/tinyusb/src/device/usbd.c ****         _usbd_dev.ep_status[0][TUSB_DIR_OUT] = 0;
 730:/home/pi/Developer/tinyusb/src/device/usbd.c ****         _usbd_dev.ep_status[0][TUSB_DIR_IN] = 0;
 731:/home/pi/Developer/tinyusb/src/device/usbd.c **** 
 732:/home/pi/Developer/tinyusb/src/device/usbd.c ****         // Process control request
 733:/home/pi/Developer/tinyusb/src/device/usbd.c ****         if (!process_setup_received(event.rhport, &event.setup_received)) {
 734:/home/pi/Developer/tinyusb/src/device/usbd.c ****           TU_LOG_USBD("  Stall EP0\r\n");
ARM GAS  /tmp/ccRLxfLU.s 			page 19


 735:/home/pi/Developer/tinyusb/src/device/usbd.c ****           // Failed -> stall both control endpoint IN and OUT
 736:/home/pi/Developer/tinyusb/src/device/usbd.c ****           dcd_edpt_stall(event.rhport, TU_EP0_OUT);
 737:/home/pi/Developer/tinyusb/src/device/usbd.c ****           dcd_edpt_stall(event.rhport, TU_EP0_IN);
 738:/home/pi/Developer/tinyusb/src/device/usbd.c ****         }
 739:/home/pi/Developer/tinyusb/src/device/usbd.c ****         break;
 740:/home/pi/Developer/tinyusb/src/device/usbd.c **** 
 741:/home/pi/Developer/tinyusb/src/device/usbd.c ****       case DCD_EVENT_XFER_COMPLETE: {
 742:/home/pi/Developer/tinyusb/src/device/usbd.c ****         // Invoke the class callback associated with the endpoint address
 743:/home/pi/Developer/tinyusb/src/device/usbd.c ****         uint8_t const ep_addr = event.xfer_complete.ep_addr;
 744:/home/pi/Developer/tinyusb/src/device/usbd.c ****         uint8_t const epnum = tu_edpt_number(ep_addr);
 745:/home/pi/Developer/tinyusb/src/device/usbd.c ****         uint8_t const ep_dir = tu_edpt_dir(ep_addr);
 746:/home/pi/Developer/tinyusb/src/device/usbd.c **** 
 747:/home/pi/Developer/tinyusb/src/device/usbd.c ****         TU_LOG_USBD("on EP %02X with %u bytes\r\n", ep_addr, (unsigned int) event.xfer_complete.len
 748:/home/pi/Developer/tinyusb/src/device/usbd.c **** 
 749:/home/pi/Developer/tinyusb/src/device/usbd.c ****         // Clear busy + claimed
 750:/home/pi/Developer/tinyusb/src/device/usbd.c ****         _usbd_dev.ep_status[epnum][ep_dir] &= (uint8_t) ~(TU_EDPT_STATE_BUSY | TU_EDPT_STATE_CLAIME
 751:/home/pi/Developer/tinyusb/src/device/usbd.c **** 
 752:/home/pi/Developer/tinyusb/src/device/usbd.c ****         if (0 == epnum) {
 753:/home/pi/Developer/tinyusb/src/device/usbd.c ****           usbd_control_xfer_cb(event.rhport, ep_addr, (xfer_result_t) event.xfer_complete.result, e
 754:/home/pi/Developer/tinyusb/src/device/usbd.c ****         } else {
 755:/home/pi/Developer/tinyusb/src/device/usbd.c ****           usbd_class_driver_t const* driver = get_driver(_usbd_dev.ep2drv[epnum][ep_dir]);
 756:/home/pi/Developer/tinyusb/src/device/usbd.c ****           TU_ASSERT(driver,);
 757:/home/pi/Developer/tinyusb/src/device/usbd.c **** 
 758:/home/pi/Developer/tinyusb/src/device/usbd.c ****           TU_LOG_USBD("  %s xfer callback\r\n", driver->name);
 759:/home/pi/Developer/tinyusb/src/device/usbd.c ****           driver->xfer_cb(event.rhport, ep_addr, (xfer_result_t) event.xfer_complete.result, event.
 760:/home/pi/Developer/tinyusb/src/device/usbd.c ****         }
 761:/home/pi/Developer/tinyusb/src/device/usbd.c ****         break;
 762:/home/pi/Developer/tinyusb/src/device/usbd.c ****       }
 763:/home/pi/Developer/tinyusb/src/device/usbd.c **** 
 764:/home/pi/Developer/tinyusb/src/device/usbd.c ****       case DCD_EVENT_SUSPEND:
 765:/home/pi/Developer/tinyusb/src/device/usbd.c ****         // NOTE: When plugging/unplugging device, the D+/D- state are unstable and
 766:/home/pi/Developer/tinyusb/src/device/usbd.c ****         // can accidentally meet the SUSPEND condition ( Bus Idle for 3ms ), which result in a seri
 767:/home/pi/Developer/tinyusb/src/device/usbd.c ****         // e.g suspend -> resume -> unplug/plug. Skip suspend/resume if not connected
 768:/home/pi/Developer/tinyusb/src/device/usbd.c ****         if (_usbd_dev.connected) {
 769:/home/pi/Developer/tinyusb/src/device/usbd.c ****           TU_LOG_USBD(": Remote Wakeup = %u\r\n", _usbd_dev.remote_wakeup_en);
 770:/home/pi/Developer/tinyusb/src/device/usbd.c ****           tud_suspend_cb(_usbd_dev.remote_wakeup_en);
 771:/home/pi/Developer/tinyusb/src/device/usbd.c ****         } else {
 772:/home/pi/Developer/tinyusb/src/device/usbd.c ****           TU_LOG_USBD(" Skipped\r\n");
 773:/home/pi/Developer/tinyusb/src/device/usbd.c ****         }
 774:/home/pi/Developer/tinyusb/src/device/usbd.c ****         break;
 775:/home/pi/Developer/tinyusb/src/device/usbd.c **** 
 776:/home/pi/Developer/tinyusb/src/device/usbd.c ****       case DCD_EVENT_RESUME:
 777:/home/pi/Developer/tinyusb/src/device/usbd.c ****         if (_usbd_dev.connected) {
 778:/home/pi/Developer/tinyusb/src/device/usbd.c ****           TU_LOG_USBD("\r\n");
 779:/home/pi/Developer/tinyusb/src/device/usbd.c ****           tud_resume_cb();
 780:/home/pi/Developer/tinyusb/src/device/usbd.c ****         } else {
 781:/home/pi/Developer/tinyusb/src/device/usbd.c ****           TU_LOG_USBD(" Skipped\r\n");
 782:/home/pi/Developer/tinyusb/src/device/usbd.c ****         }
 783:/home/pi/Developer/tinyusb/src/device/usbd.c ****         break;
 784:/home/pi/Developer/tinyusb/src/device/usbd.c **** 
 785:/home/pi/Developer/tinyusb/src/device/usbd.c ****       case USBD_EVENT_FUNC_CALL:
 786:/home/pi/Developer/tinyusb/src/device/usbd.c ****         TU_LOG_USBD("\r\n");
 787:/home/pi/Developer/tinyusb/src/device/usbd.c ****         if (event.func_call.func != NULL) {
 788:/home/pi/Developer/tinyusb/src/device/usbd.c ****           event.func_call.func(event.func_call.param);
 789:/home/pi/Developer/tinyusb/src/device/usbd.c ****         }
 790:/home/pi/Developer/tinyusb/src/device/usbd.c ****         break;
 791:/home/pi/Developer/tinyusb/src/device/usbd.c **** 
ARM GAS  /tmp/ccRLxfLU.s 			page 20


 792:/home/pi/Developer/tinyusb/src/device/usbd.c ****       case DCD_EVENT_SOF:
 793:/home/pi/Developer/tinyusb/src/device/usbd.c ****         if (tu_bit_test(_usbd_dev.sof_consumer, SOF_CONSUMER_USER)) {
 794:/home/pi/Developer/tinyusb/src/device/usbd.c ****           TU_LOG_USBD("\r\n");
 795:/home/pi/Developer/tinyusb/src/device/usbd.c ****           tud_sof_cb(event.sof.frame_count);
 796:/home/pi/Developer/tinyusb/src/device/usbd.c ****         }
 797:/home/pi/Developer/tinyusb/src/device/usbd.c ****       break;
 798:/home/pi/Developer/tinyusb/src/device/usbd.c **** 
 799:/home/pi/Developer/tinyusb/src/device/usbd.c ****       default:
 800:/home/pi/Developer/tinyusb/src/device/usbd.c ****         TU_BREAKPOINT();
 801:/home/pi/Developer/tinyusb/src/device/usbd.c ****         break;
 802:/home/pi/Developer/tinyusb/src/device/usbd.c ****     }
 803:/home/pi/Developer/tinyusb/src/device/usbd.c **** 
 804:/home/pi/Developer/tinyusb/src/device/usbd.c ****     // allow to exit tud_task() if there is no event in the next run
 805:/home/pi/Developer/tinyusb/src/device/usbd.c ****     timeout_ms = 0;
 806:/home/pi/Developer/tinyusb/src/device/usbd.c ****   }
 807:/home/pi/Developer/tinyusb/src/device/usbd.c **** }
 808:/home/pi/Developer/tinyusb/src/device/usbd.c **** 
 809:/home/pi/Developer/tinyusb/src/device/usbd.c **** //--------------------------------------------------------------------+
 810:/home/pi/Developer/tinyusb/src/device/usbd.c **** // Control Endpoint
 811:/home/pi/Developer/tinyusb/src/device/usbd.c **** //--------------------------------------------------------------------+
 812:/home/pi/Developer/tinyusb/src/device/usbd.c **** 
 813:/home/pi/Developer/tinyusb/src/device/usbd.c **** // Weak hook: invoked when the control transfer's status stage completes
 814:/home/pi/Developer/tinyusb/src/device/usbd.c **** TU_ATTR_WEAK void dcd_edpt0_status_complete(uint8_t rhport, const tusb_control_request_t* request) 
 815:/home/pi/Developer/tinyusb/src/device/usbd.c ****   (void) rhport;
 816:/home/pi/Developer/tinyusb/src/device/usbd.c ****   (void) request;
 817:/home/pi/Developer/tinyusb/src/device/usbd.c **** }
 818:/home/pi/Developer/tinyusb/src/device/usbd.c **** 
 819:/home/pi/Developer/tinyusb/src/device/usbd.c **** uint8_t* usbd_get_ctrl_buf(void) {
 820:/home/pi/Developer/tinyusb/src/device/usbd.c ****   return _ctrl_epbuf.buf;
 821:/home/pi/Developer/tinyusb/src/device/usbd.c **** }
 822:/home/pi/Developer/tinyusb/src/device/usbd.c **** 
 823:/home/pi/Developer/tinyusb/src/device/usbd.c **** // Endpoint used for the Status stage of a control transfer.
 824:/home/pi/Developer/tinyusb/src/device/usbd.c **** // Per USB 2.0 §9.3.1, when wLength == 0 the Direction bit is ignored and the Status
 825:/home/pi/Developer/tinyusb/src/device/usbd.c **** // stage is always IN. Otherwise the Status stage is opposite of the Data stage direction.
 826:/home/pi/Developer/tinyusb/src/device/usbd.c **** TU_ATTR_ALWAYS_INLINE static inline uint8_t status_stage_ep(const tusb_control_request_t* request) 
 827:/home/pi/Developer/tinyusb/src/device/usbd.c ****   return (request->wLength != 0 && request->bmRequestType_bit.direction) ? TU_EP0_OUT : TU_EP0_IN;
 828:/home/pi/Developer/tinyusb/src/device/usbd.c **** }
 829:/home/pi/Developer/tinyusb/src/device/usbd.c **** 
 830:/home/pi/Developer/tinyusb/src/device/usbd.c **** // Queue ZLP status transaction
 831:/home/pi/Developer/tinyusb/src/device/usbd.c **** TU_ATTR_ALWAYS_INLINE static inline bool status_stage_xact(uint8_t rhport, uint8_t ep_status) {
 832:/home/pi/Developer/tinyusb/src/device/usbd.c ****   return usbd_edpt_xfer(rhport, ep_status, NULL, 0, false);
 833:/home/pi/Developer/tinyusb/src/device/usbd.c **** }
 834:/home/pi/Developer/tinyusb/src/device/usbd.c **** 
 835:/home/pi/Developer/tinyusb/src/device/usbd.c **** // Queue a transaction in Data Stage. Each transaction has up to Endpoint0's max
 836:/home/pi/Developer/tinyusb/src/device/usbd.c **** // packet size. This function can also transfer a zero-length packet.
 837:/home/pi/Developer/tinyusb/src/device/usbd.c **** static bool data_stage_xact(uint8_t rhport) {
 838:/home/pi/Developer/tinyusb/src/device/usbd.c ****   usbd_control_xfer_t* const ctrl_xfer = &_usbd_dev.ctrl_xfer;
 839:/home/pi/Developer/tinyusb/src/device/usbd.c ****   const uint16_t xact_len = tu_min16(ctrl_xfer->data_len - ctrl_xfer->total_xferred, CFG_TUD_ENDPOI
 840:/home/pi/Developer/tinyusb/src/device/usbd.c ****   uint8_t ep_addr = TU_EP0_OUT;
 841:/home/pi/Developer/tinyusb/src/device/usbd.c **** 
 842:/home/pi/Developer/tinyusb/src/device/usbd.c ****   if (ctrl_xfer->request.bmRequestType_bit.direction == TUSB_DIR_IN) {
 843:/home/pi/Developer/tinyusb/src/device/usbd.c ****     ep_addr = TU_EP0_IN;
 844:/home/pi/Developer/tinyusb/src/device/usbd.c ****     if (0u != xact_len && ctrl_xfer->buffer != _ctrl_epbuf.buf) {
 845:/home/pi/Developer/tinyusb/src/device/usbd.c ****       TU_VERIFY(0 == tu_memcpy_s(_ctrl_epbuf.buf, CFG_TUD_ENDPOINT0_BUFSIZE, ctrl_xfer->buffer, xac
 846:/home/pi/Developer/tinyusb/src/device/usbd.c ****     }
 847:/home/pi/Developer/tinyusb/src/device/usbd.c ****   }
 848:/home/pi/Developer/tinyusb/src/device/usbd.c **** 
ARM GAS  /tmp/ccRLxfLU.s 			page 21


 849:/home/pi/Developer/tinyusb/src/device/usbd.c ****   return usbd_edpt_xfer(rhport, ep_addr, xact_len ? _ctrl_epbuf.buf : NULL, xact_len, false);
 850:/home/pi/Developer/tinyusb/src/device/usbd.c **** }
 851:/home/pi/Developer/tinyusb/src/device/usbd.c **** 
 852:/home/pi/Developer/tinyusb/src/device/usbd.c **** // Status phase
 853:/home/pi/Developer/tinyusb/src/device/usbd.c **** bool tud_control_status(uint8_t rhport, const tusb_control_request_t* request) {
 854:/home/pi/Developer/tinyusb/src/device/usbd.c ****   // _usbd_dev.ctrl_xfer fields are pre-initialized at process_setup_received entry
 855:/home/pi/Developer/tinyusb/src/device/usbd.c ****   (void) request;
 856:/home/pi/Developer/tinyusb/src/device/usbd.c ****   return status_stage_xact(rhport, status_stage_ep(&_usbd_dev.ctrl_xfer.request));
 857:/home/pi/Developer/tinyusb/src/device/usbd.c **** }
 858:/home/pi/Developer/tinyusb/src/device/usbd.c **** 
 859:/home/pi/Developer/tinyusb/src/device/usbd.c **** // Transmit data to/from the control endpoint. If wLength is zero, a status packet is sent instead.
 860:/home/pi/Developer/tinyusb/src/device/usbd.c **** bool tud_control_xfer(uint8_t rhport, const tusb_control_request_t* request, void* buffer, uint16_t
 861:/home/pi/Developer/tinyusb/src/device/usbd.c ****   // _usbd_dev.ctrl_xfer.request and reset fields are pre-initialized at process_setup_received ent
 862:/home/pi/Developer/tinyusb/src/device/usbd.c ****   (void) request;
 863:/home/pi/Developer/tinyusb/src/device/usbd.c ****   usbd_control_xfer_t* const ctrl_xfer = &_usbd_dev.ctrl_xfer;
 864:/home/pi/Developer/tinyusb/src/device/usbd.c ****   ctrl_xfer->buffer = (uint8_t*) buffer;
 865:/home/pi/Developer/tinyusb/src/device/usbd.c ****   ctrl_xfer->data_len = tu_min16(len, ctrl_xfer->request.wLength);
 866:/home/pi/Developer/tinyusb/src/device/usbd.c **** 
 867:/home/pi/Developer/tinyusb/src/device/usbd.c ****   if (ctrl_xfer->request.wLength > 0U) {
 868:/home/pi/Developer/tinyusb/src/device/usbd.c ****     if (ctrl_xfer->data_len > 0U) {
 869:/home/pi/Developer/tinyusb/src/device/usbd.c ****       TU_ASSERT(buffer);
 870:/home/pi/Developer/tinyusb/src/device/usbd.c ****     }
 871:/home/pi/Developer/tinyusb/src/device/usbd.c ****     TU_ASSERT(data_stage_xact(rhport));
 872:/home/pi/Developer/tinyusb/src/device/usbd.c ****   } else {
 873:/home/pi/Developer/tinyusb/src/device/usbd.c ****     // wLength == 0: Status stage is always IN per USB 2.0 §9.3.1
 874:/home/pi/Developer/tinyusb/src/device/usbd.c ****     TU_ASSERT(status_stage_xact(rhport, TU_EP0_IN));
 875:/home/pi/Developer/tinyusb/src/device/usbd.c ****   }
 876:/home/pi/Developer/tinyusb/src/device/usbd.c **** 
 877:/home/pi/Developer/tinyusb/src/device/usbd.c ****   return true;
 878:/home/pi/Developer/tinyusb/src/device/usbd.c **** }
 879:/home/pi/Developer/tinyusb/src/device/usbd.c **** 
 880:/home/pi/Developer/tinyusb/src/device/usbd.c **** // Callback when a transaction completes on the DATA stage or Status stage of EP0
 881:/home/pi/Developer/tinyusb/src/device/usbd.c **** static bool usbd_control_xfer_cb(uint8_t rhport, uint8_t ep_addr, xfer_result_t result, uint32_t xf
 882:/home/pi/Developer/tinyusb/src/device/usbd.c ****   (void) result;
 883:/home/pi/Developer/tinyusb/src/device/usbd.c ****   usbd_control_xfer_t* const ctrl_xfer = &_usbd_dev.ctrl_xfer;
 884:/home/pi/Developer/tinyusb/src/device/usbd.c **** 
 885:/home/pi/Developer/tinyusb/src/device/usbd.c ****   // Status Stage complete: ep_addr matches the resolved Status stage endpoint
 886:/home/pi/Developer/tinyusb/src/device/usbd.c ****   uint8_t const ep_status = status_stage_ep(&ctrl_xfer->request);
 887:/home/pi/Developer/tinyusb/src/device/usbd.c ****   if (ep_addr == ep_status) {
 888:/home/pi/Developer/tinyusb/src/device/usbd.c ****     TU_ASSERT(0 == xferred_bytes);
 889:/home/pi/Developer/tinyusb/src/device/usbd.c **** 
 890:/home/pi/Developer/tinyusb/src/device/usbd.c ****     // invoke optional dcd hook if available
 891:/home/pi/Developer/tinyusb/src/device/usbd.c ****     dcd_edpt0_status_complete(rhport, &ctrl_xfer->request);
 892:/home/pi/Developer/tinyusb/src/device/usbd.c **** 
 893:/home/pi/Developer/tinyusb/src/device/usbd.c ****     if (NULL != ctrl_xfer->complete_cb) {
 894:/home/pi/Developer/tinyusb/src/device/usbd.c ****       ctrl_xfer->complete_cb(rhport, CONTROL_STAGE_ACK, &ctrl_xfer->request);
 895:/home/pi/Developer/tinyusb/src/device/usbd.c ****     }
 896:/home/pi/Developer/tinyusb/src/device/usbd.c **** 
 897:/home/pi/Developer/tinyusb/src/device/usbd.c ****     return true;
 898:/home/pi/Developer/tinyusb/src/device/usbd.c ****   }
 899:/home/pi/Developer/tinyusb/src/device/usbd.c **** 
 900:/home/pi/Developer/tinyusb/src/device/usbd.c ****   // Data stage progress
 901:/home/pi/Developer/tinyusb/src/device/usbd.c ****   if (ctrl_xfer->request.bmRequestType_bit.direction == TUSB_DIR_OUT) {
 902:/home/pi/Developer/tinyusb/src/device/usbd.c ****     TU_VERIFY(ctrl_xfer->buffer);
 903:/home/pi/Developer/tinyusb/src/device/usbd.c ****     if (ctrl_xfer->buffer != _ctrl_epbuf.buf) {
 904:/home/pi/Developer/tinyusb/src/device/usbd.c ****       memcpy(ctrl_xfer->buffer, _ctrl_epbuf.buf, xferred_bytes);
 905:/home/pi/Developer/tinyusb/src/device/usbd.c ****     }
ARM GAS  /tmp/ccRLxfLU.s 			page 22


 906:/home/pi/Developer/tinyusb/src/device/usbd.c ****     TU_LOG_MEM(CFG_TUD_LOG_LEVEL, ctrl_xfer->buffer, xferred_bytes, 2);
 907:/home/pi/Developer/tinyusb/src/device/usbd.c ****   }
 908:/home/pi/Developer/tinyusb/src/device/usbd.c **** 
 909:/home/pi/Developer/tinyusb/src/device/usbd.c ****   ctrl_xfer->total_xferred += (uint16_t) xferred_bytes;
 910:/home/pi/Developer/tinyusb/src/device/usbd.c ****   ctrl_xfer->buffer += xferred_bytes;
 911:/home/pi/Developer/tinyusb/src/device/usbd.c **** 
 912:/home/pi/Developer/tinyusb/src/device/usbd.c ****   // Data Stage complete when wLength reached or short packet (incl. ZLP) seen
 913:/home/pi/Developer/tinyusb/src/device/usbd.c ****   if ((ctrl_xfer->request.wLength == ctrl_xfer->total_xferred) ||
 914:/home/pi/Developer/tinyusb/src/device/usbd.c ****       (xferred_bytes < CFG_TUD_ENDPOINT0_BUFSIZE)) {
 915:/home/pi/Developer/tinyusb/src/device/usbd.c ****     bool is_ok = true;
 916:/home/pi/Developer/tinyusb/src/device/usbd.c **** 
 917:/home/pi/Developer/tinyusb/src/device/usbd.c ****     if (NULL != ctrl_xfer->complete_cb) {
 918:/home/pi/Developer/tinyusb/src/device/usbd.c ****       // Callback can still stall control in status phase, e.g. OUT data doesn't make sense
 919:/home/pi/Developer/tinyusb/src/device/usbd.c ****       is_ok = ctrl_xfer->complete_cb(rhport, CONTROL_STAGE_DATA, &ctrl_xfer->request);
 920:/home/pi/Developer/tinyusb/src/device/usbd.c ****     }
 921:/home/pi/Developer/tinyusb/src/device/usbd.c **** 
 922:/home/pi/Developer/tinyusb/src/device/usbd.c ****     if (is_ok) {
 923:/home/pi/Developer/tinyusb/src/device/usbd.c ****       TU_ASSERT(status_stage_xact(rhport, ep_status));
 924:/home/pi/Developer/tinyusb/src/device/usbd.c ****     } else {
 925:/home/pi/Developer/tinyusb/src/device/usbd.c ****       // Stall both IN and OUT control endpoint
 926:/home/pi/Developer/tinyusb/src/device/usbd.c ****       dcd_edpt_stall(rhport, TU_EP0_OUT);
 927:/home/pi/Developer/tinyusb/src/device/usbd.c ****       dcd_edpt_stall(rhport, TU_EP0_IN);
 928:/home/pi/Developer/tinyusb/src/device/usbd.c ****     }
 929:/home/pi/Developer/tinyusb/src/device/usbd.c ****   } else {
 930:/home/pi/Developer/tinyusb/src/device/usbd.c ****     // More data to transfer
 931:/home/pi/Developer/tinyusb/src/device/usbd.c ****     TU_ASSERT(data_stage_xact(rhport));
 932:/home/pi/Developer/tinyusb/src/device/usbd.c ****   }
 933:/home/pi/Developer/tinyusb/src/device/usbd.c **** 
 934:/home/pi/Developer/tinyusb/src/device/usbd.c ****   return true;
 935:/home/pi/Developer/tinyusb/src/device/usbd.c **** }
 936:/home/pi/Developer/tinyusb/src/device/usbd.c **** 
 937:/home/pi/Developer/tinyusb/src/device/usbd.c **** //--------------------------------------------------------------------+
 938:/home/pi/Developer/tinyusb/src/device/usbd.c **** // Control Request Parser & Handling
 939:/home/pi/Developer/tinyusb/src/device/usbd.c **** //--------------------------------------------------------------------+
 940:/home/pi/Developer/tinyusb/src/device/usbd.c **** 
 941:/home/pi/Developer/tinyusb/src/device/usbd.c **** // Helper to invoke class driver control request handler
 942:/home/pi/Developer/tinyusb/src/device/usbd.c **** static bool invoke_class_control(uint8_t rhport, usbd_class_driver_t const * driver, tusb_control_r
 943:/home/pi/Developer/tinyusb/src/device/usbd.c ****   _usbd_dev.ctrl_xfer.complete_cb = driver->control_xfer_cb;
 944:/home/pi/Developer/tinyusb/src/device/usbd.c ****   TU_LOG_USBD("  %s control request\r\n", driver->name);
 945:/home/pi/Developer/tinyusb/src/device/usbd.c ****   return driver->control_xfer_cb(rhport, CONTROL_STAGE_SETUP, request);
 946:/home/pi/Developer/tinyusb/src/device/usbd.c **** }
 947:/home/pi/Developer/tinyusb/src/device/usbd.c **** 
 948:/home/pi/Developer/tinyusb/src/device/usbd.c **** // Process a standard request to the device recipient.
 949:/home/pi/Developer/tinyusb/src/device/usbd.c **** static bool process_std_device_request(uint8_t rhport, tusb_control_request_t const * p_request) {
 950:/home/pi/Developer/tinyusb/src/device/usbd.c ****   switch (p_request->bRequest) { //-V2520
 951:/home/pi/Developer/tinyusb/src/device/usbd.c ****     case TUSB_REQ_SET_ADDRESS:
 952:/home/pi/Developer/tinyusb/src/device/usbd.c ****       // Depending on mcu, status phase could be sent either before or after changing device addres
 953:/home/pi/Developer/tinyusb/src/device/usbd.c ****       // or even require stack to not response with status at all
 954:/home/pi/Developer/tinyusb/src/device/usbd.c ****       // Therefore DCD must take full responsibility to response and include zlp status packet if n
 955:/home/pi/Developer/tinyusb/src/device/usbd.c ****       dcd_set_address(rhport, (uint8_t) p_request->wValue);
 956:/home/pi/Developer/tinyusb/src/device/usbd.c ****       _usbd_dev.addressed = 1;
 957:/home/pi/Developer/tinyusb/src/device/usbd.c ****       return true;
 958:/home/pi/Developer/tinyusb/src/device/usbd.c **** 
 959:/home/pi/Developer/tinyusb/src/device/usbd.c ****     case TUSB_REQ_GET_CONFIGURATION: {
 960:/home/pi/Developer/tinyusb/src/device/usbd.c ****       uint8_t cfg_num = _usbd_dev.cfg_num;
 961:/home/pi/Developer/tinyusb/src/device/usbd.c ****       tud_control_xfer(rhport, p_request, &cfg_num, 1);
 962:/home/pi/Developer/tinyusb/src/device/usbd.c ****       return true;
ARM GAS  /tmp/ccRLxfLU.s 			page 23


 963:/home/pi/Developer/tinyusb/src/device/usbd.c ****     }
 964:/home/pi/Developer/tinyusb/src/device/usbd.c **** 
 965:/home/pi/Developer/tinyusb/src/device/usbd.c ****     case TUSB_REQ_SET_CONFIGURATION: {
 966:/home/pi/Developer/tinyusb/src/device/usbd.c ****       uint8_t const cfg_num = (uint8_t) p_request->wValue;
 967:/home/pi/Developer/tinyusb/src/device/usbd.c **** 
 968:/home/pi/Developer/tinyusb/src/device/usbd.c ****       // Only process if new configure is different
 969:/home/pi/Developer/tinyusb/src/device/usbd.c ****       if (_usbd_dev.cfg_num != cfg_num) {
 970:/home/pi/Developer/tinyusb/src/device/usbd.c ****         if (_usbd_dev.cfg_num != 0) {
 971:/home/pi/Developer/tinyusb/src/device/usbd.c ****           // already configured: need to clear all endpoints and driver first
 972:/home/pi/Developer/tinyusb/src/device/usbd.c ****           TU_LOG_USBD("  Clear current Configuration (%u) before switching\r\n", _usbd_dev.cfg_num)
 973:/home/pi/Developer/tinyusb/src/device/usbd.c **** 
 974:/home/pi/Developer/tinyusb/src/device/usbd.c ****           dcd_sof_enable(rhport, false);
 975:/home/pi/Developer/tinyusb/src/device/usbd.c ****           dcd_edpt_close_all(rhport);
 976:/home/pi/Developer/tinyusb/src/device/usbd.c **** 
 977:/home/pi/Developer/tinyusb/src/device/usbd.c ****           // close all drivers and current configured state except bus speed
 978:/home/pi/Developer/tinyusb/src/device/usbd.c ****           const uint8_t speed = _usbd_dev.speed;
 979:/home/pi/Developer/tinyusb/src/device/usbd.c ****           configuration_reset(rhport);
 980:/home/pi/Developer/tinyusb/src/device/usbd.c **** 
 981:/home/pi/Developer/tinyusb/src/device/usbd.c ****           _usbd_dev.speed = speed; // restore speed
 982:/home/pi/Developer/tinyusb/src/device/usbd.c ****         }
 983:/home/pi/Developer/tinyusb/src/device/usbd.c **** 
 984:/home/pi/Developer/tinyusb/src/device/usbd.c ****         _usbd_dev.cfg_num = cfg_num;
 985:/home/pi/Developer/tinyusb/src/device/usbd.c **** 
 986:/home/pi/Developer/tinyusb/src/device/usbd.c ****         // Handle the new configuration
 987:/home/pi/Developer/tinyusb/src/device/usbd.c ****         if (cfg_num == 0) {
 988:/home/pi/Developer/tinyusb/src/device/usbd.c ****           tud_umount_cb();
 989:/home/pi/Developer/tinyusb/src/device/usbd.c ****         } else {
 990:/home/pi/Developer/tinyusb/src/device/usbd.c ****           if (!process_set_config(rhport, cfg_num)) {
 991:/home/pi/Developer/tinyusb/src/device/usbd.c ****             _usbd_dev.cfg_num = 0;
 992:/home/pi/Developer/tinyusb/src/device/usbd.c ****             TU_ASSERT(false);
 993:/home/pi/Developer/tinyusb/src/device/usbd.c ****           }
 994:/home/pi/Developer/tinyusb/src/device/usbd.c ****           tud_mount_cb();
 995:/home/pi/Developer/tinyusb/src/device/usbd.c ****         }
 996:/home/pi/Developer/tinyusb/src/device/usbd.c ****       }
 997:/home/pi/Developer/tinyusb/src/device/usbd.c **** 
 998:/home/pi/Developer/tinyusb/src/device/usbd.c ****       tud_control_status(rhport, p_request);
 999:/home/pi/Developer/tinyusb/src/device/usbd.c ****       return true;
1000:/home/pi/Developer/tinyusb/src/device/usbd.c ****     }
1001:/home/pi/Developer/tinyusb/src/device/usbd.c **** 
1002:/home/pi/Developer/tinyusb/src/device/usbd.c ****     case TUSB_REQ_GET_DESCRIPTOR:
1003:/home/pi/Developer/tinyusb/src/device/usbd.c ****       return process_get_descriptor(rhport, p_request);
1004:/home/pi/Developer/tinyusb/src/device/usbd.c **** 
1005:/home/pi/Developer/tinyusb/src/device/usbd.c ****     case TUSB_REQ_SET_FEATURE:
1006:/home/pi/Developer/tinyusb/src/device/usbd.c ****       switch (p_request->wValue) { //-V2520
1007:/home/pi/Developer/tinyusb/src/device/usbd.c ****         case TUSB_REQ_FEATURE_REMOTE_WAKEUP:
1008:/home/pi/Developer/tinyusb/src/device/usbd.c ****           TU_LOG_USBD("    Enable Remote Wakeup\r\n");
1009:/home/pi/Developer/tinyusb/src/device/usbd.c ****           // Host may enable remote wake up before suspending especially HID device
1010:/home/pi/Developer/tinyusb/src/device/usbd.c ****           _usbd_dev.remote_wakeup_en = 1;
1011:/home/pi/Developer/tinyusb/src/device/usbd.c ****           tud_control_status(rhport, p_request);
1012:/home/pi/Developer/tinyusb/src/device/usbd.c ****           return true;
1013:/home/pi/Developer/tinyusb/src/device/usbd.c **** 
1014:/home/pi/Developer/tinyusb/src/device/usbd.c ****         #if CFG_TUD_TEST_MODE
1015:/home/pi/Developer/tinyusb/src/device/usbd.c ****         case TUSB_REQ_FEATURE_TEST_MODE: {
1016:/home/pi/Developer/tinyusb/src/device/usbd.c ****           // Only handle the test mode if supported and valid
1017:/home/pi/Developer/tinyusb/src/device/usbd.c ****           TU_VERIFY(0 == tu_u16_low(p_request->wIndex));
1018:/home/pi/Developer/tinyusb/src/device/usbd.c **** 
1019:/home/pi/Developer/tinyusb/src/device/usbd.c ****           uint8_t const selector = tu_u16_high(p_request->wIndex);
ARM GAS  /tmp/ccRLxfLU.s 			page 24


1020:/home/pi/Developer/tinyusb/src/device/usbd.c ****           TU_VERIFY(TUSB_FEATURE_TEST_J <= selector && selector <= TUSB_FEATURE_TEST_FORCE_ENABLE);
1021:/home/pi/Developer/tinyusb/src/device/usbd.c **** 
1022:/home/pi/Developer/tinyusb/src/device/usbd.c ****           _usbd_dev.ctrl_xfer.complete_cb = process_test_mode_cb;
1023:/home/pi/Developer/tinyusb/src/device/usbd.c ****           tud_control_status(rhport, p_request);
1024:/home/pi/Developer/tinyusb/src/device/usbd.c ****           return true;
1025:/home/pi/Developer/tinyusb/src/device/usbd.c ****         }
1026:/home/pi/Developer/tinyusb/src/device/usbd.c ****         #endif
1027:/home/pi/Developer/tinyusb/src/device/usbd.c **** 
1028:/home/pi/Developer/tinyusb/src/device/usbd.c ****         // Stall unsupported feature selector
1029:/home/pi/Developer/tinyusb/src/device/usbd.c ****         default: return false;
1030:/home/pi/Developer/tinyusb/src/device/usbd.c ****       }
1031:/home/pi/Developer/tinyusb/src/device/usbd.c **** 
1032:/home/pi/Developer/tinyusb/src/device/usbd.c ****     case TUSB_REQ_CLEAR_FEATURE:
1033:/home/pi/Developer/tinyusb/src/device/usbd.c ****       // Only support remote wakeup for device feature
1034:/home/pi/Developer/tinyusb/src/device/usbd.c ****       TU_VERIFY(TUSB_REQ_FEATURE_REMOTE_WAKEUP == p_request->wValue);
1035:/home/pi/Developer/tinyusb/src/device/usbd.c ****       TU_LOG_USBD("    Disable Remote Wakeup\r\n");
1036:/home/pi/Developer/tinyusb/src/device/usbd.c **** 
1037:/home/pi/Developer/tinyusb/src/device/usbd.c ****       // Host may disable remote wake up after resuming
1038:/home/pi/Developer/tinyusb/src/device/usbd.c ****       _usbd_dev.remote_wakeup_en = 0;
1039:/home/pi/Developer/tinyusb/src/device/usbd.c ****       tud_control_status(rhport, p_request);
1040:/home/pi/Developer/tinyusb/src/device/usbd.c ****       return true;
1041:/home/pi/Developer/tinyusb/src/device/usbd.c **** 
1042:/home/pi/Developer/tinyusb/src/device/usbd.c ****     case TUSB_REQ_GET_STATUS: {
1043:/home/pi/Developer/tinyusb/src/device/usbd.c ****       // Device status bit mask
1044:/home/pi/Developer/tinyusb/src/device/usbd.c ****       // - Bit 0: Self Powered TODO must invoke callback to get actual status
1045:/home/pi/Developer/tinyusb/src/device/usbd.c ****       // - Bit 1: Remote Wakeup enabled
1046:/home/pi/Developer/tinyusb/src/device/usbd.c ****       uint16_t status = (uint16_t) _usbd_dev.dev_state_bm;
1047:/home/pi/Developer/tinyusb/src/device/usbd.c ****       tud_control_xfer(rhport, p_request, &status, 2);
1048:/home/pi/Developer/tinyusb/src/device/usbd.c ****       return true;
1049:/home/pi/Developer/tinyusb/src/device/usbd.c ****     }
1050:/home/pi/Developer/tinyusb/src/device/usbd.c **** 
1051:/home/pi/Developer/tinyusb/src/device/usbd.c ****     default:
1052:/home/pi/Developer/tinyusb/src/device/usbd.c ****       TU_BREAKPOINT();
1053:/home/pi/Developer/tinyusb/src/device/usbd.c ****       return false;
1054:/home/pi/Developer/tinyusb/src/device/usbd.c ****   }
1055:/home/pi/Developer/tinyusb/src/device/usbd.c **** }
1056:/home/pi/Developer/tinyusb/src/device/usbd.c **** 
1057:/home/pi/Developer/tinyusb/src/device/usbd.c **** 
1058:/home/pi/Developer/tinyusb/src/device/usbd.c **** // This handles the actual request and its response.
1059:/home/pi/Developer/tinyusb/src/device/usbd.c **** // Returns false if unable to complete the request, causing caller to stall control endpoints.
1060:/home/pi/Developer/tinyusb/src/device/usbd.c **** static bool process_setup_received(uint8_t rhport, tusb_control_request_t const * p_request) {
1061:/home/pi/Developer/tinyusb/src/device/usbd.c ****   // Initialize control transfer state for this request. The request copy must be
1062:/home/pi/Developer/tinyusb/src/device/usbd.c ****   // visible to usbd_control_xfer_cb when the (asynchronous) status ZLP completes,
1063:/home/pi/Developer/tinyusb/src/device/usbd.c ****   // since the SETUP packet event has already gone out of scope by then.
1064:/home/pi/Developer/tinyusb/src/device/usbd.c ****   usbd_control_xfer_t* const ctrl_xfer = &_usbd_dev.ctrl_xfer;
1065:/home/pi/Developer/tinyusb/src/device/usbd.c ****   ctrl_xfer->request = *p_request;
1066:/home/pi/Developer/tinyusb/src/device/usbd.c ****   ctrl_xfer->buffer = NULL;
1067:/home/pi/Developer/tinyusb/src/device/usbd.c ****   ctrl_xfer->total_xferred = 0;
1068:/home/pi/Developer/tinyusb/src/device/usbd.c ****   ctrl_xfer->data_len = 0;
1069:/home/pi/Developer/tinyusb/src/device/usbd.c ****   ctrl_xfer->complete_cb = NULL;
1070:/home/pi/Developer/tinyusb/src/device/usbd.c **** 
1071:/home/pi/Developer/tinyusb/src/device/usbd.c ****   p_request = &ctrl_xfer->request; // re-direct request pointer to internal copy (modifiable for ha
1072:/home/pi/Developer/tinyusb/src/device/usbd.c ****   TU_ASSERT(p_request->bmRequestType_bit.type < TUSB_REQ_TYPE_INVALID);
1073:/home/pi/Developer/tinyusb/src/device/usbd.c **** 
1074:/home/pi/Developer/tinyusb/src/device/usbd.c ****   // Vendor request
1075:/home/pi/Developer/tinyusb/src/device/usbd.c ****   if ( p_request->bmRequestType_bit.type == TUSB_REQ_TYPE_VENDOR ) {
1076:/home/pi/Developer/tinyusb/src/device/usbd.c ****     ctrl_xfer->complete_cb = tud_vendor_control_xfer_cb;
ARM GAS  /tmp/ccRLxfLU.s 			page 25


1077:/home/pi/Developer/tinyusb/src/device/usbd.c ****     return tud_vendor_control_xfer_cb(rhport, CONTROL_STAGE_SETUP, p_request);
1078:/home/pi/Developer/tinyusb/src/device/usbd.c ****   }
1079:/home/pi/Developer/tinyusb/src/device/usbd.c **** 
1080:/home/pi/Developer/tinyusb/src/device/usbd.c **** #if CFG_TUSB_DEBUG >= CFG_TUD_LOG_LEVEL
1081:/home/pi/Developer/tinyusb/src/device/usbd.c ****   if (TUSB_REQ_TYPE_STANDARD == p_request->bmRequestType_bit.type && p_request->bRequest <= TUSB_RE
1082:/home/pi/Developer/tinyusb/src/device/usbd.c ****     TU_LOG_USBD("  %s", tu_str_std_request[p_request->bRequest]);
1083:/home/pi/Developer/tinyusb/src/device/usbd.c ****     if (TUSB_REQ_GET_DESCRIPTOR != p_request->bRequest) {
1084:/home/pi/Developer/tinyusb/src/device/usbd.c ****       TU_LOG_USBD("\r\n");
1085:/home/pi/Developer/tinyusb/src/device/usbd.c ****     }
1086:/home/pi/Developer/tinyusb/src/device/usbd.c ****   }
1087:/home/pi/Developer/tinyusb/src/device/usbd.c **** #endif
1088:/home/pi/Developer/tinyusb/src/device/usbd.c **** 
1089:/home/pi/Developer/tinyusb/src/device/usbd.c ****   switch (p_request->bmRequestType_bit.recipient) { //-V2520
1090:/home/pi/Developer/tinyusb/src/device/usbd.c ****     //------------- Device Requests e.g in enumeration -------------//
1091:/home/pi/Developer/tinyusb/src/device/usbd.c ****     case TUSB_REQ_RCPT_DEVICE:
1092:/home/pi/Developer/tinyusb/src/device/usbd.c ****       if ( TUSB_REQ_TYPE_CLASS == p_request->bmRequestType_bit.type ) {
1093:/home/pi/Developer/tinyusb/src/device/usbd.c ****         uint8_t const itf = tu_u16_low(p_request->wIndex);
1094:/home/pi/Developer/tinyusb/src/device/usbd.c ****         TU_VERIFY(itf < TU_ARRAY_SIZE(_usbd_dev.itf2drv));
1095:/home/pi/Developer/tinyusb/src/device/usbd.c **** 
1096:/home/pi/Developer/tinyusb/src/device/usbd.c ****         usbd_class_driver_t const * driver = get_driver(_usbd_dev.itf2drv[itf]);
1097:/home/pi/Developer/tinyusb/src/device/usbd.c ****         TU_VERIFY(driver);
1098:/home/pi/Developer/tinyusb/src/device/usbd.c **** 
1099:/home/pi/Developer/tinyusb/src/device/usbd.c ****         // forward to class driver: "non-STD request to Interface"
1100:/home/pi/Developer/tinyusb/src/device/usbd.c ****         return invoke_class_control(rhport, driver, p_request);
1101:/home/pi/Developer/tinyusb/src/device/usbd.c ****       }
1102:/home/pi/Developer/tinyusb/src/device/usbd.c **** 
1103:/home/pi/Developer/tinyusb/src/device/usbd.c ****       if (TUSB_REQ_TYPE_STANDARD != p_request->bmRequestType_bit.type) {
1104:/home/pi/Developer/tinyusb/src/device/usbd.c ****         // Non-standard request is not supported
1105:/home/pi/Developer/tinyusb/src/device/usbd.c ****         TU_BREAKPOINT();
1106:/home/pi/Developer/tinyusb/src/device/usbd.c ****         return false;
1107:/home/pi/Developer/tinyusb/src/device/usbd.c ****       }
1108:/home/pi/Developer/tinyusb/src/device/usbd.c **** 
1109:/home/pi/Developer/tinyusb/src/device/usbd.c ****       return process_std_device_request(rhport, p_request);
1110:/home/pi/Developer/tinyusb/src/device/usbd.c **** 
1111:/home/pi/Developer/tinyusb/src/device/usbd.c ****     //------------- Class/Interface Specific Request -------------//
1112:/home/pi/Developer/tinyusb/src/device/usbd.c ****     case TUSB_REQ_RCPT_INTERFACE: {
1113:/home/pi/Developer/tinyusb/src/device/usbd.c ****       uint8_t itf;
1114:/home/pi/Developer/tinyusb/src/device/usbd.c ****       #if CFG_TUD_PRINTER
1115:/home/pi/Developer/tinyusb/src/device/usbd.c ****       // Printer GET_DEVICE_ID has a weird wIndex = interface (high) | alt (low)
1116:/home/pi/Developer/tinyusb/src/device/usbd.c ****       // attempt to interpret this as a printer request if matched
1117:/home/pi/Developer/tinyusb/src/device/usbd.c ****       if (TUSB_REQ_TYPE_CLASS == p_request->bmRequestType_bit.type &&
1118:/home/pi/Developer/tinyusb/src/device/usbd.c ****           TUSB_DIR_IN == p_request->bmRequestType_bit.direction &&
1119:/home/pi/Developer/tinyusb/src/device/usbd.c ****           TUSB_PRINTER_REQUEST_GET_DEVICE_ID == p_request->bRequest) {
1120:/home/pi/Developer/tinyusb/src/device/usbd.c ****         itf = tu_u16_high(p_request->wIndex);
1121:/home/pi/Developer/tinyusb/src/device/usbd.c ****         if (itf < TU_ARRAY_SIZE(_usbd_dev.itf2drv)) {
1122:/home/pi/Developer/tinyusb/src/device/usbd.c ****           const usbd_class_driver_t * driver = get_driver(_usbd_dev.itf2drv[itf]);
1123:/home/pi/Developer/tinyusb/src/device/usbd.c ****           if (driver != NULL && driver->control_xfer_cb == printerd_control_xfer_cb) {
1124:/home/pi/Developer/tinyusb/src/device/usbd.c ****             if (invoke_class_control(rhport, driver, p_request)) {
1125:/home/pi/Developer/tinyusb/src/device/usbd.c ****               return true;
1126:/home/pi/Developer/tinyusb/src/device/usbd.c ****             }
1127:/home/pi/Developer/tinyusb/src/device/usbd.c ****           }
1128:/home/pi/Developer/tinyusb/src/device/usbd.c ****         }
1129:/home/pi/Developer/tinyusb/src/device/usbd.c ****       }
1130:/home/pi/Developer/tinyusb/src/device/usbd.c ****       #endif
1131:/home/pi/Developer/tinyusb/src/device/usbd.c ****       itf = tu_u16_low(p_request->wIndex);
1132:/home/pi/Developer/tinyusb/src/device/usbd.c ****       TU_VERIFY(itf < TU_ARRAY_SIZE(_usbd_dev.itf2drv));
1133:/home/pi/Developer/tinyusb/src/device/usbd.c **** 
ARM GAS  /tmp/ccRLxfLU.s 			page 26


1134:/home/pi/Developer/tinyusb/src/device/usbd.c ****       usbd_class_driver_t const * driver = get_driver(_usbd_dev.itf2drv[itf]);
1135:/home/pi/Developer/tinyusb/src/device/usbd.c ****       TU_VERIFY(driver);
1136:/home/pi/Developer/tinyusb/src/device/usbd.c **** 
1137:/home/pi/Developer/tinyusb/src/device/usbd.c ****       // all requests to Interface (STD or Class) is forwarded to class driver.
1138:/home/pi/Developer/tinyusb/src/device/usbd.c ****       // notable requests are: GET HID REPORT DESCRIPTOR, SET_INTERFACE, GET_INTERFACE
1139:/home/pi/Developer/tinyusb/src/device/usbd.c ****       if (!invoke_class_control(rhport, driver, p_request)) {
1140:/home/pi/Developer/tinyusb/src/device/usbd.c ****         // For GET_INTERFACE and SET_INTERFACE, it is mandatory to respond even if the class
1141:/home/pi/Developer/tinyusb/src/device/usbd.c ****         // driver doesn't use alternate settings or implement this
1142:/home/pi/Developer/tinyusb/src/device/usbd.c ****         TU_VERIFY(TUSB_REQ_TYPE_STANDARD == p_request->bmRequestType_bit.type);
1143:/home/pi/Developer/tinyusb/src/device/usbd.c **** 
1144:/home/pi/Developer/tinyusb/src/device/usbd.c ****         // Clear complete callback if driver set since it can also stall the request.
1145:/home/pi/Developer/tinyusb/src/device/usbd.c ****         ctrl_xfer->complete_cb = NULL;
1146:/home/pi/Developer/tinyusb/src/device/usbd.c **** 
1147:/home/pi/Developer/tinyusb/src/device/usbd.c ****         switch (p_request->bRequest) { //-V2520
1148:/home/pi/Developer/tinyusb/src/device/usbd.c ****           case TUSB_REQ_GET_INTERFACE: {
1149:/home/pi/Developer/tinyusb/src/device/usbd.c ****             uint8_t alternate = 0;
1150:/home/pi/Developer/tinyusb/src/device/usbd.c ****             tud_control_xfer(rhport, p_request, &alternate, 1);
1151:/home/pi/Developer/tinyusb/src/device/usbd.c ****             break;
1152:/home/pi/Developer/tinyusb/src/device/usbd.c ****           }
1153:/home/pi/Developer/tinyusb/src/device/usbd.c **** 
1154:/home/pi/Developer/tinyusb/src/device/usbd.c ****           case TUSB_REQ_SET_INTERFACE:
1155:/home/pi/Developer/tinyusb/src/device/usbd.c ****             tud_control_status(rhport, p_request);
1156:/home/pi/Developer/tinyusb/src/device/usbd.c ****             break;
1157:/home/pi/Developer/tinyusb/src/device/usbd.c **** 
1158:/home/pi/Developer/tinyusb/src/device/usbd.c ****           default: return false;
1159:/home/pi/Developer/tinyusb/src/device/usbd.c ****         }
1160:/home/pi/Developer/tinyusb/src/device/usbd.c ****       }
1161:/home/pi/Developer/tinyusb/src/device/usbd.c ****       break;
1162:/home/pi/Developer/tinyusb/src/device/usbd.c ****     }
1163:/home/pi/Developer/tinyusb/src/device/usbd.c **** 
1164:/home/pi/Developer/tinyusb/src/device/usbd.c ****     //------------- Endpoint Request -------------//
1165:/home/pi/Developer/tinyusb/src/device/usbd.c ****     case TUSB_REQ_RCPT_ENDPOINT: {
1166:/home/pi/Developer/tinyusb/src/device/usbd.c ****       uint8_t const ep_addr = tu_u16_low(p_request->wIndex);
1167:/home/pi/Developer/tinyusb/src/device/usbd.c ****       uint8_t const ep_num  = tu_edpt_number(ep_addr);
1168:/home/pi/Developer/tinyusb/src/device/usbd.c ****       uint8_t const ep_dir  = tu_edpt_dir(ep_addr);
1169:/home/pi/Developer/tinyusb/src/device/usbd.c **** 
1170:/home/pi/Developer/tinyusb/src/device/usbd.c ****       TU_ASSERT(ep_num < TU_ARRAY_SIZE(_usbd_dev.ep2drv) );
1171:/home/pi/Developer/tinyusb/src/device/usbd.c ****       usbd_class_driver_t const * driver = get_driver(_usbd_dev.ep2drv[ep_num][ep_dir]);
1172:/home/pi/Developer/tinyusb/src/device/usbd.c **** 
1173:/home/pi/Developer/tinyusb/src/device/usbd.c ****       if (TUSB_REQ_TYPE_STANDARD != p_request->bmRequestType_bit.type) {
1174:/home/pi/Developer/tinyusb/src/device/usbd.c ****         // Forward class request to its driver
1175:/home/pi/Developer/tinyusb/src/device/usbd.c ****         TU_VERIFY(driver);
1176:/home/pi/Developer/tinyusb/src/device/usbd.c ****         return invoke_class_control(rhport, driver, p_request);
1177:/home/pi/Developer/tinyusb/src/device/usbd.c ****       } else {
1178:/home/pi/Developer/tinyusb/src/device/usbd.c ****         // Handle STD request to endpoint
1179:/home/pi/Developer/tinyusb/src/device/usbd.c ****         switch (p_request->bRequest) { //-V2520
1180:/home/pi/Developer/tinyusb/src/device/usbd.c ****           case TUSB_REQ_GET_STATUS: {
1181:/home/pi/Developer/tinyusb/src/device/usbd.c ****             uint16_t status = usbd_edpt_stalled(rhport, ep_addr) ? 0x0001u : 0x0000u;
1182:/home/pi/Developer/tinyusb/src/device/usbd.c ****             tud_control_xfer(rhport, p_request, &status, 2);
1183:/home/pi/Developer/tinyusb/src/device/usbd.c ****           }
1184:/home/pi/Developer/tinyusb/src/device/usbd.c ****           break;
1185:/home/pi/Developer/tinyusb/src/device/usbd.c **** 
1186:/home/pi/Developer/tinyusb/src/device/usbd.c ****           case TUSB_REQ_CLEAR_FEATURE:
1187:/home/pi/Developer/tinyusb/src/device/usbd.c ****           case TUSB_REQ_SET_FEATURE: {
1188:/home/pi/Developer/tinyusb/src/device/usbd.c ****             if ( TUSB_REQ_FEATURE_EDPT_HALT == p_request->wValue ) {
1189:/home/pi/Developer/tinyusb/src/device/usbd.c ****               if ( TUSB_REQ_CLEAR_FEATURE ==  p_request->bRequest ) {
1190:/home/pi/Developer/tinyusb/src/device/usbd.c ****                 usbd_edpt_clear_stall(rhport, ep_addr);
ARM GAS  /tmp/ccRLxfLU.s 			page 27


1191:/home/pi/Developer/tinyusb/src/device/usbd.c ****               }else {
1192:/home/pi/Developer/tinyusb/src/device/usbd.c ****                 usbd_edpt_stall(rhport, ep_addr);
1193:/home/pi/Developer/tinyusb/src/device/usbd.c ****               }
1194:/home/pi/Developer/tinyusb/src/device/usbd.c ****             }
1195:/home/pi/Developer/tinyusb/src/device/usbd.c **** 
1196:/home/pi/Developer/tinyusb/src/device/usbd.c ****             if (driver != NULL) {
1197:/home/pi/Developer/tinyusb/src/device/usbd.c ****               // Some classes such as USBTMC needs to clear/re-init its buffer when receiving CLEAR
1198:/home/pi/Developer/tinyusb/src/device/usbd.c ****               // We will also forward std request targeted endpoint to class drivers as well
1199:/home/pi/Developer/tinyusb/src/device/usbd.c **** 
1200:/home/pi/Developer/tinyusb/src/device/usbd.c ****               // STD request must always be ACKed regardless of driver returned value
1201:/home/pi/Developer/tinyusb/src/device/usbd.c ****               // Also clear complete callback if driver set since it can also stall the request.
1202:/home/pi/Developer/tinyusb/src/device/usbd.c ****               (void) invoke_class_control(rhport, driver, p_request);
1203:/home/pi/Developer/tinyusb/src/device/usbd.c ****               ctrl_xfer->complete_cb = NULL;
1204:/home/pi/Developer/tinyusb/src/device/usbd.c **** 
1205:/home/pi/Developer/tinyusb/src/device/usbd.c ****               // skip ZLP status if driver already did that
1206:/home/pi/Developer/tinyusb/src/device/usbd.c ****               if (!(_usbd_dev.ep_status[0][TUSB_DIR_IN] & TU_EDPT_STATE_BUSY)) {
1207:/home/pi/Developer/tinyusb/src/device/usbd.c ****                 tud_control_status(rhport, p_request);
1208:/home/pi/Developer/tinyusb/src/device/usbd.c ****               }
1209:/home/pi/Developer/tinyusb/src/device/usbd.c ****             }
1210:/home/pi/Developer/tinyusb/src/device/usbd.c ****           }
1211:/home/pi/Developer/tinyusb/src/device/usbd.c ****           break;
1212:/home/pi/Developer/tinyusb/src/device/usbd.c **** 
1213:/home/pi/Developer/tinyusb/src/device/usbd.c ****           // Unknown/Unsupported request
1214:/home/pi/Developer/tinyusb/src/device/usbd.c ****           default:
1215:/home/pi/Developer/tinyusb/src/device/usbd.c ****             TU_BREAKPOINT();
1216:/home/pi/Developer/tinyusb/src/device/usbd.c ****             return false;
1217:/home/pi/Developer/tinyusb/src/device/usbd.c ****         }
1218:/home/pi/Developer/tinyusb/src/device/usbd.c ****       }
1219:/home/pi/Developer/tinyusb/src/device/usbd.c ****       break;
1220:/home/pi/Developer/tinyusb/src/device/usbd.c ****     }
1221:/home/pi/Developer/tinyusb/src/device/usbd.c **** 
1222:/home/pi/Developer/tinyusb/src/device/usbd.c ****     // Unknown recipient
1223:/home/pi/Developer/tinyusb/src/device/usbd.c ****     default:
1224:/home/pi/Developer/tinyusb/src/device/usbd.c ****       TU_BREAKPOINT();
1225:/home/pi/Developer/tinyusb/src/device/usbd.c ****       return false;
1226:/home/pi/Developer/tinyusb/src/device/usbd.c ****   }
1227:/home/pi/Developer/tinyusb/src/device/usbd.c **** 
1228:/home/pi/Developer/tinyusb/src/device/usbd.c ****   return true;
1229:/home/pi/Developer/tinyusb/src/device/usbd.c **** }
1230:/home/pi/Developer/tinyusb/src/device/usbd.c **** 
1231:/home/pi/Developer/tinyusb/src/device/usbd.c **** // Process Set Configure Request
1232:/home/pi/Developer/tinyusb/src/device/usbd.c **** // This function parse configuration descriptor & open drivers accordingly
1233:/home/pi/Developer/tinyusb/src/device/usbd.c **** static bool process_set_config(uint8_t rhport, uint8_t cfg_num) {
1234:/home/pi/Developer/tinyusb/src/device/usbd.c ****   // index is cfg_num-1
1235:/home/pi/Developer/tinyusb/src/device/usbd.c ****   const tusb_desc_configuration_t *desc_cfg =
1236:/home/pi/Developer/tinyusb/src/device/usbd.c ****     (const tusb_desc_configuration_t *)tud_descriptor_configuration_cb(cfg_num - 1);
1237:/home/pi/Developer/tinyusb/src/device/usbd.c ****   TU_ASSERT(desc_cfg != NULL && desc_cfg->bDescriptorType == TUSB_DESC_CONFIGURATION);
1238:/home/pi/Developer/tinyusb/src/device/usbd.c **** 
1239:/home/pi/Developer/tinyusb/src/device/usbd.c ****   // Parse configuration descriptor
1240:/home/pi/Developer/tinyusb/src/device/usbd.c ****   _usbd_dev.self_powered = (desc_cfg->bmAttributes & TUSB_DESC_CONFIG_ATT_SELF_POWERED) ? 1u : 0u;
1241:/home/pi/Developer/tinyusb/src/device/usbd.c **** 
1242:/home/pi/Developer/tinyusb/src/device/usbd.c ****   // Parse interface descriptor
1243:/home/pi/Developer/tinyusb/src/device/usbd.c ****   const uint8_t *p_desc   = ((const uint8_t *)desc_cfg) + sizeof(tusb_desc_configuration_t);
1244:/home/pi/Developer/tinyusb/src/device/usbd.c ****   const uint8_t *desc_end = ((const uint8_t *)desc_cfg) + tu_le16toh(desc_cfg->wTotalLength);
1245:/home/pi/Developer/tinyusb/src/device/usbd.c **** 
1246:/home/pi/Developer/tinyusb/src/device/usbd.c ****   while (tu_desc_in_bounds(p_desc, desc_end)) {
1247:/home/pi/Developer/tinyusb/src/device/usbd.c ****     // Class will always start with Interface Association (if any) and then Interface descriptor
ARM GAS  /tmp/ccRLxfLU.s 			page 28


1248:/home/pi/Developer/tinyusb/src/device/usbd.c ****     if (TUSB_DESC_INTERFACE_ASSOCIATION == tu_desc_type(p_desc)) {
1249:/home/pi/Developer/tinyusb/src/device/usbd.c ****       p_desc = tu_desc_next(p_desc); // next to Interface
1250:/home/pi/Developer/tinyusb/src/device/usbd.c ****       continue;
1251:/home/pi/Developer/tinyusb/src/device/usbd.c ****     }
1252:/home/pi/Developer/tinyusb/src/device/usbd.c **** 
1253:/home/pi/Developer/tinyusb/src/device/usbd.c ****     TU_ASSERT(TUSB_DESC_INTERFACE == tu_desc_type(p_desc));
1254:/home/pi/Developer/tinyusb/src/device/usbd.c ****     const tusb_desc_interface_t *desc_itf = (const tusb_desc_interface_t *)p_desc;
1255:/home/pi/Developer/tinyusb/src/device/usbd.c **** 
1256:/home/pi/Developer/tinyusb/src/device/usbd.c ****     // Find driver for this interface
1257:/home/pi/Developer/tinyusb/src/device/usbd.c ****     const uint16_t remaining_len = (uint16_t)(desc_end - p_desc);
1258:/home/pi/Developer/tinyusb/src/device/usbd.c ****     uint8_t        drv_id;
1259:/home/pi/Developer/tinyusb/src/device/usbd.c ****     for (drv_id = 0; drv_id < TOTAL_DRIVER_COUNT; drv_id++) {
1260:/home/pi/Developer/tinyusb/src/device/usbd.c ****       const usbd_class_driver_t *driver = get_driver(drv_id);
1261:/home/pi/Developer/tinyusb/src/device/usbd.c ****       TU_ASSERT(driver);
1262:/home/pi/Developer/tinyusb/src/device/usbd.c ****       const uint16_t drv_len = driver->open(rhport, desc_itf, remaining_len);
1263:/home/pi/Developer/tinyusb/src/device/usbd.c **** 
1264:/home/pi/Developer/tinyusb/src/device/usbd.c ****       if ((sizeof(tusb_desc_interface_t) <= drv_len) && (drv_len <= remaining_len)) {
1265:/home/pi/Developer/tinyusb/src/device/usbd.c ****         // Open successfully
1266:/home/pi/Developer/tinyusb/src/device/usbd.c ****         TU_LOG_USBD("  %s opened\r\n", driver->name);
1267:/home/pi/Developer/tinyusb/src/device/usbd.c **** 
1268:/home/pi/Developer/tinyusb/src/device/usbd.c ****         // bind found driver to all interfaces and endpoint within drv_len
1269:/home/pi/Developer/tinyusb/src/device/usbd.c ****         TU_ASSERT(tu_bind_driver_to_ep_itf(drv_id, _usbd_dev.ep2drv, _usbd_dev.itf2drv, CFG_TUD_INT
1270:/home/pi/Developer/tinyusb/src/device/usbd.c ****                                            drv_len));
1271:/home/pi/Developer/tinyusb/src/device/usbd.c **** 
1272:/home/pi/Developer/tinyusb/src/device/usbd.c ****         p_desc += drv_len; // next Interface
1273:/home/pi/Developer/tinyusb/src/device/usbd.c ****         break; // exit driver find loop
1274:/home/pi/Developer/tinyusb/src/device/usbd.c ****       }
1275:/home/pi/Developer/tinyusb/src/device/usbd.c ****     }
1276:/home/pi/Developer/tinyusb/src/device/usbd.c **** 
1277:/home/pi/Developer/tinyusb/src/device/usbd.c ****     // Failed if there is no supported drivers
1278:/home/pi/Developer/tinyusb/src/device/usbd.c ****     TU_ASSERT(drv_id < TOTAL_DRIVER_COUNT);
1279:/home/pi/Developer/tinyusb/src/device/usbd.c ****   }
1280:/home/pi/Developer/tinyusb/src/device/usbd.c **** 
1281:/home/pi/Developer/tinyusb/src/device/usbd.c ****   return true;
1282:/home/pi/Developer/tinyusb/src/device/usbd.c **** }
1283:/home/pi/Developer/tinyusb/src/device/usbd.c **** 
1284:/home/pi/Developer/tinyusb/src/device/usbd.c **** // return descriptor's buffer and update desc_len
1285:/home/pi/Developer/tinyusb/src/device/usbd.c **** static bool process_get_descriptor(uint8_t rhport, tusb_control_request_t const * p_request) {
1286:/home/pi/Developer/tinyusb/src/device/usbd.c ****   tusb_desc_type_t const desc_type = (tusb_desc_type_t) tu_u16_high(p_request->wValue);
1287:/home/pi/Developer/tinyusb/src/device/usbd.c ****   uint8_t const desc_index = tu_u16_low( p_request->wValue );
1288:/home/pi/Developer/tinyusb/src/device/usbd.c **** 
1289:/home/pi/Developer/tinyusb/src/device/usbd.c ****   switch(desc_type) { //-V2520
1290:/home/pi/Developer/tinyusb/src/device/usbd.c ****     case TUSB_DESC_DEVICE: {
1291:/home/pi/Developer/tinyusb/src/device/usbd.c ****       TU_LOG_USBD(" Device\r\n");
1292:/home/pi/Developer/tinyusb/src/device/usbd.c **** 
1293:/home/pi/Developer/tinyusb/src/device/usbd.c ****       void *desc_device = (void *)(uintptr_t)tud_descriptor_device_cb();
1294:/home/pi/Developer/tinyusb/src/device/usbd.c ****       TU_ASSERT(desc_device);
1295:/home/pi/Developer/tinyusb/src/device/usbd.c **** 
1296:/home/pi/Developer/tinyusb/src/device/usbd.c ****       // Only response with exactly 1 Packet if: not addressed and host requested more data than de
1297:/home/pi/Developer/tinyusb/src/device/usbd.c ****       // This only happens with the very first get device descriptor and EP0 size = 8 or 16.
1298:/home/pi/Developer/tinyusb/src/device/usbd.c ****       if ((CFG_TUD_ENDPOINT0_SIZE < sizeof(tusb_desc_device_t)) && !_usbd_dev.addressed &&
1299:/home/pi/Developer/tinyusb/src/device/usbd.c ****           p_request->wLength > sizeof(tusb_desc_device_t)) {
1300:/home/pi/Developer/tinyusb/src/device/usbd.c ****         // Hack here: we modify the request length to prevent usbd_control response with zlp
1301:/home/pi/Developer/tinyusb/src/device/usbd.c ****         // since we are responding with 1 packet & less data than wLength.
1302:/home/pi/Developer/tinyusb/src/device/usbd.c ****         ((tusb_control_request_t *)(uintptr_t)p_request)->wLength = CFG_TUD_ENDPOINT0_SIZE;
1303:/home/pi/Developer/tinyusb/src/device/usbd.c ****         return tud_control_xfer(rhport, p_request, desc_device, CFG_TUD_ENDPOINT0_SIZE);
1304:/home/pi/Developer/tinyusb/src/device/usbd.c ****       } else {
ARM GAS  /tmp/ccRLxfLU.s 			page 29


1305:/home/pi/Developer/tinyusb/src/device/usbd.c ****         return tud_control_xfer(rhport, p_request, desc_device, sizeof(tusb_desc_device_t));
1306:/home/pi/Developer/tinyusb/src/device/usbd.c ****       }
1307:/home/pi/Developer/tinyusb/src/device/usbd.c ****     }
1308:/home/pi/Developer/tinyusb/src/device/usbd.c ****     // break; // unreachable
1309:/home/pi/Developer/tinyusb/src/device/usbd.c **** 
1310:/home/pi/Developer/tinyusb/src/device/usbd.c ****     case TUSB_DESC_BOS: {
1311:/home/pi/Developer/tinyusb/src/device/usbd.c ****       TU_LOG_USBD(" BOS\r\n");
1312:/home/pi/Developer/tinyusb/src/device/usbd.c **** 
1313:/home/pi/Developer/tinyusb/src/device/usbd.c ****       // requested by host if USB > 2.0 ( i.e 2.1 or 3.x )
1314:/home/pi/Developer/tinyusb/src/device/usbd.c ****       uintptr_t desc_bos = (uintptr_t) tud_descriptor_bos_cb();
1315:/home/pi/Developer/tinyusb/src/device/usbd.c ****       TU_VERIFY(desc_bos != 0);
1316:/home/pi/Developer/tinyusb/src/device/usbd.c **** 
1317:/home/pi/Developer/tinyusb/src/device/usbd.c ****       // Use offsetof to avoid pointer to the odd/misaligned address
1318:/home/pi/Developer/tinyusb/src/device/usbd.c ****       uint16_t const total_len = tu_le16toh( tu_unaligned_read16((const void*) (desc_bos + offsetof
1319:/home/pi/Developer/tinyusb/src/device/usbd.c **** 
1320:/home/pi/Developer/tinyusb/src/device/usbd.c ****       return tud_control_xfer(rhport, p_request, (void*) desc_bos, total_len);
1321:/home/pi/Developer/tinyusb/src/device/usbd.c ****     }
1322:/home/pi/Developer/tinyusb/src/device/usbd.c ****     // break; // unreachable
1323:/home/pi/Developer/tinyusb/src/device/usbd.c **** 
1324:/home/pi/Developer/tinyusb/src/device/usbd.c ****     case TUSB_DESC_CONFIGURATION:
1325:/home/pi/Developer/tinyusb/src/device/usbd.c ****     case TUSB_DESC_OTHER_SPEED_CONFIG: {
1326:/home/pi/Developer/tinyusb/src/device/usbd.c ****       uintptr_t desc_config;
1327:/home/pi/Developer/tinyusb/src/device/usbd.c **** 
1328:/home/pi/Developer/tinyusb/src/device/usbd.c ****       if ( desc_type == TUSB_DESC_CONFIGURATION ) {
1329:/home/pi/Developer/tinyusb/src/device/usbd.c ****         TU_LOG_USBD(" Configuration[%u]\r\n", desc_index);
1330:/home/pi/Developer/tinyusb/src/device/usbd.c ****         desc_config = (uintptr_t) tud_descriptor_configuration_cb(desc_index);
1331:/home/pi/Developer/tinyusb/src/device/usbd.c ****         TU_ASSERT(desc_config != 0);
1332:/home/pi/Developer/tinyusb/src/device/usbd.c ****       }else {
1333:/home/pi/Developer/tinyusb/src/device/usbd.c ****         // Host only request this after getting Device Qualifier descriptor
1334:/home/pi/Developer/tinyusb/src/device/usbd.c ****         TU_LOG_USBD(" Other Speed Configuration\r\n");
1335:/home/pi/Developer/tinyusb/src/device/usbd.c ****         desc_config = (uintptr_t) tud_descriptor_other_speed_configuration_cb(desc_index);
1336:/home/pi/Developer/tinyusb/src/device/usbd.c ****         TU_VERIFY(desc_config != 0);
1337:/home/pi/Developer/tinyusb/src/device/usbd.c ****       }
1338:/home/pi/Developer/tinyusb/src/device/usbd.c **** 
1339:/home/pi/Developer/tinyusb/src/device/usbd.c ****       // Use offsetof to avoid pointer to the odd/misaligned address
1340:/home/pi/Developer/tinyusb/src/device/usbd.c ****       uint16_t const total_len = tu_le16toh( tu_unaligned_read16((const void*) (desc_config + offse
1341:/home/pi/Developer/tinyusb/src/device/usbd.c **** 
1342:/home/pi/Developer/tinyusb/src/device/usbd.c ****       return tud_control_xfer(rhport, p_request, (void*) desc_config, total_len);
1343:/home/pi/Developer/tinyusb/src/device/usbd.c ****     }
1344:/home/pi/Developer/tinyusb/src/device/usbd.c ****     // break; // unreachable
1345:/home/pi/Developer/tinyusb/src/device/usbd.c **** 
1346:/home/pi/Developer/tinyusb/src/device/usbd.c ****     case TUSB_DESC_STRING: {
1347:/home/pi/Developer/tinyusb/src/device/usbd.c ****       TU_LOG_USBD(" String[%u]\r\n", desc_index);
1348:/home/pi/Developer/tinyusb/src/device/usbd.c **** 
1349:/home/pi/Developer/tinyusb/src/device/usbd.c ****       // String Descriptor always uses the desc set from user
1350:/home/pi/Developer/tinyusb/src/device/usbd.c ****       uint8_t const* desc_str = (uint8_t const*) tud_descriptor_string_cb(desc_index, p_request->wI
1351:/home/pi/Developer/tinyusb/src/device/usbd.c ****       TU_VERIFY(desc_str);
1352:/home/pi/Developer/tinyusb/src/device/usbd.c **** 
1353:/home/pi/Developer/tinyusb/src/device/usbd.c ****       // first byte of descriptor is its size
1354:/home/pi/Developer/tinyusb/src/device/usbd.c ****       return tud_control_xfer(rhport, p_request, (void*) (uintptr_t) desc_str, tu_desc_len(desc_str
1355:/home/pi/Developer/tinyusb/src/device/usbd.c ****     }
1356:/home/pi/Developer/tinyusb/src/device/usbd.c ****     // break; // unreachable
1357:/home/pi/Developer/tinyusb/src/device/usbd.c **** 
1358:/home/pi/Developer/tinyusb/src/device/usbd.c ****     case TUSB_DESC_DEVICE_QUALIFIER: {
1359:/home/pi/Developer/tinyusb/src/device/usbd.c ****       TU_LOG_USBD(" Device Qualifier\r\n");
1360:/home/pi/Developer/tinyusb/src/device/usbd.c ****       uint8_t const* desc_qualifier = tud_descriptor_device_qualifier_cb();
1361:/home/pi/Developer/tinyusb/src/device/usbd.c ****       TU_VERIFY(desc_qualifier);
ARM GAS  /tmp/ccRLxfLU.s 			page 30


1362:/home/pi/Developer/tinyusb/src/device/usbd.c ****       return tud_control_xfer(rhport, p_request, (void*) (uintptr_t) desc_qualifier, tu_desc_len(de
1363:/home/pi/Developer/tinyusb/src/device/usbd.c ****     }
1364:/home/pi/Developer/tinyusb/src/device/usbd.c ****     // break; // unreachable
1365:/home/pi/Developer/tinyusb/src/device/usbd.c **** 
1366:/home/pi/Developer/tinyusb/src/device/usbd.c ****     default: return false;
1367:/home/pi/Developer/tinyusb/src/device/usbd.c ****   }
1368:/home/pi/Developer/tinyusb/src/device/usbd.c **** }
1369:/home/pi/Developer/tinyusb/src/device/usbd.c **** 
1370:/home/pi/Developer/tinyusb/src/device/usbd.c **** //--------------------------------------------------------------------+
1371:/home/pi/Developer/tinyusb/src/device/usbd.c **** // DCD Event Handler
1372:/home/pi/Developer/tinyusb/src/device/usbd.c **** //--------------------------------------------------------------------+
1373:/home/pi/Developer/tinyusb/src/device/usbd.c **** TU_ATTR_FAST_FUNC void dcd_event_handler(dcd_event_t const* event, bool in_isr) {
1374:/home/pi/Developer/tinyusb/src/device/usbd.c ****   bool send = false;
1375:/home/pi/Developer/tinyusb/src/device/usbd.c ****   switch (event->event_id) {
1376:/home/pi/Developer/tinyusb/src/device/usbd.c ****     case DCD_EVENT_UNPLUGGED:
1377:/home/pi/Developer/tinyusb/src/device/usbd.c ****       _usbd_dev.connected = 0;
1378:/home/pi/Developer/tinyusb/src/device/usbd.c ****       _usbd_dev.addressed = 0;
1379:/home/pi/Developer/tinyusb/src/device/usbd.c ****       _usbd_dev.cfg_num = 0;
1380:/home/pi/Developer/tinyusb/src/device/usbd.c ****       _usbd_dev.suspended = 0;
1381:/home/pi/Developer/tinyusb/src/device/usbd.c ****       send = true;
1382:/home/pi/Developer/tinyusb/src/device/usbd.c ****       break;
1383:/home/pi/Developer/tinyusb/src/device/usbd.c **** 
1384:/home/pi/Developer/tinyusb/src/device/usbd.c ****     case DCD_EVENT_SUSPEND:
1385:/home/pi/Developer/tinyusb/src/device/usbd.c ****       // NOTE: When plugging/unplugging device, the D+/D- state are unstable and
1386:/home/pi/Developer/tinyusb/src/device/usbd.c ****       // can accidentally meet the SUSPEND condition ( Bus Idle for 3ms ).
1387:/home/pi/Developer/tinyusb/src/device/usbd.c ****       // In addition, some MCUs such as SAMD or boards that haven no VBUS detection cannot distingu
1388:/home/pi/Developer/tinyusb/src/device/usbd.c ****       // suspended vs disconnected. We will skip handling SUSPEND/RESUME event if not currently con
1389:/home/pi/Developer/tinyusb/src/device/usbd.c ****       if (_usbd_dev.connected) {
1390:/home/pi/Developer/tinyusb/src/device/usbd.c ****         _usbd_dev.suspended = 1;
1391:/home/pi/Developer/tinyusb/src/device/usbd.c ****         send = true;
1392:/home/pi/Developer/tinyusb/src/device/usbd.c ****       }
1393:/home/pi/Developer/tinyusb/src/device/usbd.c ****       break;
1394:/home/pi/Developer/tinyusb/src/device/usbd.c **** 
1395:/home/pi/Developer/tinyusb/src/device/usbd.c ****     case DCD_EVENT_RESUME:
1396:/home/pi/Developer/tinyusb/src/device/usbd.c ****       // skip event if not connected (especially required for SAMD)
1397:/home/pi/Developer/tinyusb/src/device/usbd.c ****       if (_usbd_dev.connected) {
1398:/home/pi/Developer/tinyusb/src/device/usbd.c ****         _usbd_dev.suspended = 0;
1399:/home/pi/Developer/tinyusb/src/device/usbd.c ****         send = true;
1400:/home/pi/Developer/tinyusb/src/device/usbd.c ****       }
1401:/home/pi/Developer/tinyusb/src/device/usbd.c ****       break;
1402:/home/pi/Developer/tinyusb/src/device/usbd.c **** 
1403:/home/pi/Developer/tinyusb/src/device/usbd.c ****     case DCD_EVENT_SOF:
1404:/home/pi/Developer/tinyusb/src/device/usbd.c ****       // SOF driver handler in ISR context
1405:/home/pi/Developer/tinyusb/src/device/usbd.c ****       for (uint8_t i = 0; i < TOTAL_DRIVER_COUNT; i++) {
1406:/home/pi/Developer/tinyusb/src/device/usbd.c ****         usbd_class_driver_t const* driver = get_driver(i);
1407:/home/pi/Developer/tinyusb/src/device/usbd.c ****         if (driver && driver->sof) {
1408:/home/pi/Developer/tinyusb/src/device/usbd.c ****           driver->sof(event->rhport, event->sof.frame_count);
1409:/home/pi/Developer/tinyusb/src/device/usbd.c ****         }
1410:/home/pi/Developer/tinyusb/src/device/usbd.c ****       }
1411:/home/pi/Developer/tinyusb/src/device/usbd.c **** 
1412:/home/pi/Developer/tinyusb/src/device/usbd.c ****       // Some MCUs after running dcd_remote_wakeup() does not have way to detect the end of remote 
1413:/home/pi/Developer/tinyusb/src/device/usbd.c ****       // which last 1-15 ms. DCD can use SOF as a clear indicator that bus is back to operational
1414:/home/pi/Developer/tinyusb/src/device/usbd.c ****       if (_usbd_dev.suspended) {
1415:/home/pi/Developer/tinyusb/src/device/usbd.c ****         _usbd_dev.suspended = 0;
1416:/home/pi/Developer/tinyusb/src/device/usbd.c **** 
1417:/home/pi/Developer/tinyusb/src/device/usbd.c ****         dcd_event_t const event_resume = {.rhport = event->rhport, .event_id = DCD_EVENT_RESUME};
1418:/home/pi/Developer/tinyusb/src/device/usbd.c ****         queue_event(&event_resume, in_isr);
ARM GAS  /tmp/ccRLxfLU.s 			page 31


1419:/home/pi/Developer/tinyusb/src/device/usbd.c ****       }
1420:/home/pi/Developer/tinyusb/src/device/usbd.c **** 
1421:/home/pi/Developer/tinyusb/src/device/usbd.c ****       if (tu_bit_test(_usbd_dev.sof_consumer, SOF_CONSUMER_USER)) {
1422:/home/pi/Developer/tinyusb/src/device/usbd.c ****         dcd_event_t const event_sof = {.rhport = event->rhport, .event_id = DCD_EVENT_SOF, .sof.fra
1423:/home/pi/Developer/tinyusb/src/device/usbd.c ****         queue_event(&event_sof, in_isr);
1424:/home/pi/Developer/tinyusb/src/device/usbd.c ****       }
1425:/home/pi/Developer/tinyusb/src/device/usbd.c ****       break;
1426:/home/pi/Developer/tinyusb/src/device/usbd.c **** 
1427:/home/pi/Developer/tinyusb/src/device/usbd.c ****     case DCD_EVENT_SETUP_RECEIVED:
1428:/home/pi/Developer/tinyusb/src/device/usbd.c ****       _usbd_queued_setup++;
1429:/home/pi/Developer/tinyusb/src/device/usbd.c ****       send = true;
1430:/home/pi/Developer/tinyusb/src/device/usbd.c ****       break;
1431:/home/pi/Developer/tinyusb/src/device/usbd.c **** 
1432:/home/pi/Developer/tinyusb/src/device/usbd.c ****     case DCD_EVENT_XFER_COMPLETE: {
1433:/home/pi/Developer/tinyusb/src/device/usbd.c ****       // Invoke the class callback associated with the endpoint address
1434:/home/pi/Developer/tinyusb/src/device/usbd.c ****       uint8_t const ep_addr = event->xfer_complete.ep_addr;
1435:/home/pi/Developer/tinyusb/src/device/usbd.c ****       uint8_t const epnum = tu_edpt_number(ep_addr);
1436:/home/pi/Developer/tinyusb/src/device/usbd.c ****       uint8_t const ep_dir = tu_edpt_dir(ep_addr);
1437:/home/pi/Developer/tinyusb/src/device/usbd.c **** 
1438:/home/pi/Developer/tinyusb/src/device/usbd.c ****       send = true;
1439:/home/pi/Developer/tinyusb/src/device/usbd.c ****       if(epnum > 0) {
1440:/home/pi/Developer/tinyusb/src/device/usbd.c ****         usbd_class_driver_t const* driver = get_driver(_usbd_dev.ep2drv[epnum][ep_dir]);
1441:/home/pi/Developer/tinyusb/src/device/usbd.c **** 
1442:/home/pi/Developer/tinyusb/src/device/usbd.c ****         if (driver && driver->xfer_isr) {
1443:/home/pi/Developer/tinyusb/src/device/usbd.c ****           // Clear busy + claimed
1444:/home/pi/Developer/tinyusb/src/device/usbd.c ****           _usbd_dev.ep_status[epnum][ep_dir] &= (uint8_t) ~(TU_EDPT_STATE_BUSY | TU_EDPT_STATE_CLAI
1445:/home/pi/Developer/tinyusb/src/device/usbd.c **** 
1446:/home/pi/Developer/tinyusb/src/device/usbd.c ****           send = !driver->xfer_isr(event->rhport, ep_addr, (xfer_result_t) event->xfer_complete.res
1447:/home/pi/Developer/tinyusb/src/device/usbd.c **** 
1448:/home/pi/Developer/tinyusb/src/device/usbd.c ****           // xfer_isr() is deferred to xfer_cb(), revert busy/claimed status
1449:/home/pi/Developer/tinyusb/src/device/usbd.c ****           if (send) {
1450:/home/pi/Developer/tinyusb/src/device/usbd.c ****             // set busy + claimed
1451:/home/pi/Developer/tinyusb/src/device/usbd.c ****             _usbd_dev.ep_status[epnum][ep_dir] |= (TU_EDPT_STATE_BUSY | TU_EDPT_STATE_CLAIMED);
1452:/home/pi/Developer/tinyusb/src/device/usbd.c ****           }
1453:/home/pi/Developer/tinyusb/src/device/usbd.c ****         }
1454:/home/pi/Developer/tinyusb/src/device/usbd.c ****       }
1455:/home/pi/Developer/tinyusb/src/device/usbd.c ****       break;
1456:/home/pi/Developer/tinyusb/src/device/usbd.c ****     }
1457:/home/pi/Developer/tinyusb/src/device/usbd.c **** 
1458:/home/pi/Developer/tinyusb/src/device/usbd.c ****     default:
1459:/home/pi/Developer/tinyusb/src/device/usbd.c ****       send = true;
1460:/home/pi/Developer/tinyusb/src/device/usbd.c ****       break;
1461:/home/pi/Developer/tinyusb/src/device/usbd.c ****   }
1462:/home/pi/Developer/tinyusb/src/device/usbd.c **** 
1463:/home/pi/Developer/tinyusb/src/device/usbd.c ****   if (send) {
1464:/home/pi/Developer/tinyusb/src/device/usbd.c ****     queue_event(event, in_isr);
1465:/home/pi/Developer/tinyusb/src/device/usbd.c ****   }
1466:/home/pi/Developer/tinyusb/src/device/usbd.c **** }
1467:/home/pi/Developer/tinyusb/src/device/usbd.c **** 
1468:/home/pi/Developer/tinyusb/src/device/usbd.c **** //--------------------------------------------------------------------+
1469:/home/pi/Developer/tinyusb/src/device/usbd.c **** // USBD API For Class Driver
1470:/home/pi/Developer/tinyusb/src/device/usbd.c **** //--------------------------------------------------------------------+
1471:/home/pi/Developer/tinyusb/src/device/usbd.c **** 
1472:/home/pi/Developer/tinyusb/src/device/usbd.c **** void usbd_int_set(bool enabled) {
 257              		.loc 1 1472 33 is_stmt 1 view -0
 258              		.cfi_startproc
 259              		@ args = 0, pretend = 0, frame = 0
ARM GAS  /tmp/ccRLxfLU.s 			page 32


 260              		@ frame_needed = 0, uses_anonymous_args = 0
 261              		@ link register save eliminated.
1473:/home/pi/Developer/tinyusb/src/device/usbd.c ****   if (enabled) {
 262              		.loc 1 1473 3 view .LVU70
 263              	.LBB421:
 264              	.LBB422:
1474:/home/pi/Developer/tinyusb/src/device/usbd.c ****     dcd_int_enable(_usbd_rhport);
 265              		.loc 1 1474 5 is_stmt 0 view .LVU71
 266 0000 034B     		ldr	r3, .L25
 267              	.LBE422:
 268              	.LBE421:
1473:/home/pi/Developer/tinyusb/src/device/usbd.c ****   if (enabled) {
 269              		.loc 1 1473 6 view .LVU72
 270 0002 10B1     		cbz	r0, .L24
 271              	.LBB424:
 272              	.LBI421:
1472:/home/pi/Developer/tinyusb/src/device/usbd.c ****   if (enabled) {
 273              		.loc 1 1472 6 is_stmt 1 view .LVU73
 274              	.LVL17:
 275              	.LBB423:
 276              		.loc 1 1474 5 view .LVU74
 277 0004 1878     		ldrb	r0, [r3]	@ zero_extendqisi2
 278              	.LVL18:
 279              		.loc 1 1474 5 is_stmt 0 view .LVU75
 280 0006 FFF7FEBF 		b	dcd_int_enable
 281              	.LVL19:
 282              	.L24:
 283              		.loc 1 1474 5 view .LVU76
 284              	.LBE423:
 285              	.LBE424:
1475:/home/pi/Developer/tinyusb/src/device/usbd.c ****   } else {
1476:/home/pi/Developer/tinyusb/src/device/usbd.c ****     dcd_int_disable(_usbd_rhport);
 286              		.loc 1 1476 5 is_stmt 1 view .LVU77
 287 000a 1878     		ldrb	r0, [r3]	@ zero_extendqisi2
 288              	.LVL20:
 289              		.loc 1 1476 5 is_stmt 0 view .LVU78
 290 000c FFF7FEBF 		b	dcd_int_disable
 291              	.LVL21:
 292              	.L26:
 293              		.align	2
 294              	.L25:
 295 0010 00000000 		.word	.LANCHOR4
 296              		.cfi_endproc
 297              	.LFE502:
 299              		.section	.text.tud_event_hook_cb,"ax",%progbits
 300              		.align	1
 301              		.p2align 2,,3
 302              		.weak	tud_event_hook_cb
 303              		.syntax unified
 304              		.thumb
 305              		.thumb_func
 306              		.fpu fpv5-d16
 308              	tud_event_hook_cb:
 309              	.LVL22:
 310              	.LFB451:
  48:/home/pi/Developer/tinyusb/src/device/usbd.c ****   (void) rhport; (void) eventid; (void) in_isr;
 311              		.loc 1 48 84 is_stmt 1 view -0
ARM GAS  /tmp/ccRLxfLU.s 			page 33


 312              		.cfi_startproc
 313              		@ args = 0, pretend = 0, frame = 0
 314              		@ frame_needed = 0, uses_anonymous_args = 0
 315              		@ link register save eliminated.
  49:/home/pi/Developer/tinyusb/src/device/usbd.c **** }
 316              		.loc 1 49 3 view .LVU80
  49:/home/pi/Developer/tinyusb/src/device/usbd.c **** }
 317              		.loc 1 49 18 view .LVU81
  49:/home/pi/Developer/tinyusb/src/device/usbd.c **** }
 318              		.loc 1 49 34 view .LVU82
  50:/home/pi/Developer/tinyusb/src/device/usbd.c **** 
 319              		.loc 1 50 1 is_stmt 0 view .LVU83
 320 0000 7047     		bx	lr
 321              		.cfi_endproc
 322              	.LFE451:
 324 0002 00BF     		.section	.text.tud_sof_cb,"ax",%progbits
 325              		.align	1
 326              		.p2align 2,,3
 327              		.weak	tud_sof_cb
 328              		.syntax unified
 329              		.thumb
 330              		.thumb_func
 331              		.fpu fpv5-d16
 333              	tud_sof_cb:
 334              	.LVL23:
 335              	.LFB452:
  52:/home/pi/Developer/tinyusb/src/device/usbd.c ****   (void) frame_count;
 336              		.loc 1 52 52 is_stmt 1 view -0
 337              		.cfi_startproc
 338              		@ args = 0, pretend = 0, frame = 0
 339              		@ frame_needed = 0, uses_anonymous_args = 0
 340              		@ link register save eliminated.
  53:/home/pi/Developer/tinyusb/src/device/usbd.c **** }
 341              		.loc 1 53 3 view .LVU85
  54:/home/pi/Developer/tinyusb/src/device/usbd.c **** 
 342              		.loc 1 54 1 is_stmt 0 view .LVU86
 343 0000 7047     		bx	lr
 344              		.cfi_endproc
 345              	.LFE452:
 347 0002 00BF     		.section	.text.tud_descriptor_bos_cb,"ax",%progbits
 348              		.align	1
 349              		.p2align 2,,3
 350              		.weak	tud_descriptor_bos_cb
 351              		.syntax unified
 352              		.thumb
 353              		.thumb_func
 354              		.fpu fpv5-d16
 356              	tud_descriptor_bos_cb:
 357              	.LFB453:
  56:/home/pi/Developer/tinyusb/src/device/usbd.c ****   return NULL;
 358              		.loc 1 56 57 is_stmt 1 view -0
 359              		.cfi_startproc
 360              		@ args = 0, pretend = 0, frame = 0
 361              		@ frame_needed = 0, uses_anonymous_args = 0
 362              		@ link register save eliminated.
  57:/home/pi/Developer/tinyusb/src/device/usbd.c **** }
 363              		.loc 1 57 3 view .LVU88
ARM GAS  /tmp/ccRLxfLU.s 			page 34


  58:/home/pi/Developer/tinyusb/src/device/usbd.c **** 
 364              		.loc 1 58 1 is_stmt 0 view .LVU89
 365 0000 0020     		movs	r0, #0
 366 0002 7047     		bx	lr
 367              		.cfi_endproc
 368              	.LFE453:
 370              		.section	.text.tud_descriptor_device_qualifier_cb,"ax",%progbits
 371              		.align	1
 372              		.p2align 2,,3
 373              		.weak	tud_descriptor_device_qualifier_cb
 374              		.syntax unified
 375              		.thumb
 376              		.thumb_func
 377              		.fpu fpv5-d16
 379              	tud_descriptor_device_qualifier_cb:
 380              	.LFB529:
 381              		.cfi_startproc
 382              		@ args = 0, pretend = 0, frame = 0
 383              		@ frame_needed = 0, uses_anonymous_args = 0
 384              		@ link register save eliminated.
 385 0000 0020     		movs	r0, #0
 386 0002 7047     		bx	lr
 387              		.cfi_endproc
 388              	.LFE529:
 390              		.section	.text.tud_descriptor_other_speed_configuration_cb,"ax",%progbits
 391              		.align	1
 392              		.p2align 2,,3
 393              		.weak	tud_descriptor_other_speed_configuration_cb
 394              		.syntax unified
 395              		.thumb
 396              		.thumb_func
 397              		.fpu fpv5-d16
 399              	tud_descriptor_other_speed_configuration_cb:
 400              	.LVL24:
 401              	.LFB455:
  64:/home/pi/Developer/tinyusb/src/device/usbd.c ****   (void) index;
 402              		.loc 1 64 88 is_stmt 1 view -0
 403              		.cfi_startproc
 404              		@ args = 0, pretend = 0, frame = 0
 405              		@ frame_needed = 0, uses_anonymous_args = 0
 406              		@ link register save eliminated.
  65:/home/pi/Developer/tinyusb/src/device/usbd.c ****   return NULL;
 407              		.loc 1 65 3 view .LVU91
  66:/home/pi/Developer/tinyusb/src/device/usbd.c **** }
 408              		.loc 1 66 3 view .LVU92
  67:/home/pi/Developer/tinyusb/src/device/usbd.c **** 
 409              		.loc 1 67 1 is_stmt 0 view .LVU93
 410 0000 0020     		movs	r0, #0
 411              	.LVL25:
  67:/home/pi/Developer/tinyusb/src/device/usbd.c **** 
 412              		.loc 1 67 1 view .LVU94
 413 0002 7047     		bx	lr
 414              		.cfi_endproc
 415              	.LFE455:
 417              		.section	.text.tud_mount_cb,"ax",%progbits
 418              		.align	1
 419              		.p2align 2,,3
ARM GAS  /tmp/ccRLxfLU.s 			page 35


 420              		.weak	tud_mount_cb
 421              		.syntax unified
 422              		.thumb
 423              		.thumb_func
 424              		.fpu fpv5-d16
 426              	tud_mount_cb:
 427              	.LFB456:
  69:/home/pi/Developer/tinyusb/src/device/usbd.c **** }
 428              		.loc 1 69 38 is_stmt 1 view -0
 429              		.cfi_startproc
 430              		@ args = 0, pretend = 0, frame = 0
 431              		@ frame_needed = 0, uses_anonymous_args = 0
 432              		@ link register save eliminated.
  70:/home/pi/Developer/tinyusb/src/device/usbd.c **** 
 433              		.loc 1 70 1 view .LVU96
 434 0000 7047     		bx	lr
 435              		.cfi_endproc
 436              	.LFE456:
 438 0002 00BF     		.section	.text.tud_umount_cb,"ax",%progbits
 439              		.align	1
 440              		.p2align 2,,3
 441              		.weak	tud_umount_cb
 442              		.syntax unified
 443              		.thumb
 444              		.thumb_func
 445              		.fpu fpv5-d16
 447              	tud_umount_cb:
 448              	.LFB531:
 449              		.cfi_startproc
 450              		@ args = 0, pretend = 0, frame = 0
 451              		@ frame_needed = 0, uses_anonymous_args = 0
 452              		@ link register save eliminated.
 453 0000 7047     		bx	lr
 454              		.cfi_endproc
 455              	.LFE531:
 457 0002 00BF     		.section	.text.tud_suspend_cb,"ax",%progbits
 458              		.align	1
 459              		.p2align 2,,3
 460              		.weak	tud_suspend_cb
 461              		.syntax unified
 462              		.thumb
 463              		.thumb_func
 464              		.fpu fpv5-d16
 466              	tud_suspend_cb:
 467              	.LVL26:
 468              	.LFB458:
  75:/home/pi/Developer/tinyusb/src/device/usbd.c ****   (void) remote_wakeup_en;
 469              		.loc 1 75 57 view -0
 470              		.cfi_startproc
 471              		@ args = 0, pretend = 0, frame = 0
 472              		@ frame_needed = 0, uses_anonymous_args = 0
 473              		@ link register save eliminated.
  76:/home/pi/Developer/tinyusb/src/device/usbd.c **** }
 474              		.loc 1 76 3 view .LVU98
  77:/home/pi/Developer/tinyusb/src/device/usbd.c **** 
 475              		.loc 1 77 1 is_stmt 0 view .LVU99
 476 0000 7047     		bx	lr
ARM GAS  /tmp/ccRLxfLU.s 			page 36


 477              		.cfi_endproc
 478              	.LFE458:
 480 0002 00BF     		.section	.text.tud_resume_cb,"ax",%progbits
 481              		.align	1
 482              		.p2align 2,,3
 483              		.weak	tud_resume_cb
 484              		.syntax unified
 485              		.thumb
 486              		.thumb_func
 487              		.fpu fpv5-d16
 489              	tud_resume_cb:
 490              	.LFB533:
 491              		.cfi_startproc
 492              		@ args = 0, pretend = 0, frame = 0
 493              		@ frame_needed = 0, uses_anonymous_args = 0
 494              		@ link register save eliminated.
 495 0000 7047     		bx	lr
 496              		.cfi_endproc
 497              	.LFE533:
 499 0002 00BF     		.section	.text.dcd_deinit,"ax",%progbits
 500              		.align	1
 501              		.p2align 2,,3
 502              		.weak	dcd_deinit
 503              		.syntax unified
 504              		.thumb
 505              		.thumb_func
 506              		.fpu fpv5-d16
 508              	dcd_deinit:
 509              	.LVL27:
 510              	.LFB461:
  87:/home/pi/Developer/tinyusb/src/device/usbd.c ****   (void) rhport;
 511              		.loc 1 87 46 is_stmt 1 view -0
 512              		.cfi_startproc
 513              		@ args = 0, pretend = 0, frame = 0
 514              		@ frame_needed = 0, uses_anonymous_args = 0
 515              		@ link register save eliminated.
  88:/home/pi/Developer/tinyusb/src/device/usbd.c ****   return false;
 516              		.loc 1 88 3 view .LVU101
  89:/home/pi/Developer/tinyusb/src/device/usbd.c **** }
 517              		.loc 1 89 3 view .LVU102
  90:/home/pi/Developer/tinyusb/src/device/usbd.c **** 
 518              		.loc 1 90 1 is_stmt 0 view .LVU103
 519 0000 0020     		movs	r0, #0
 520              	.LVL28:
  90:/home/pi/Developer/tinyusb/src/device/usbd.c **** 
 521              		.loc 1 90 1 view .LVU104
 522 0002 7047     		bx	lr
 523              		.cfi_endproc
 524              	.LFE461:
 526              		.section	.text.dcd_connect,"ax",%progbits
 527              		.align	1
 528              		.p2align 2,,3
 529              		.weak	dcd_connect
 530              		.syntax unified
 531              		.thumb
 532              		.thumb_func
 533              		.fpu fpv5-d16
ARM GAS  /tmp/ccRLxfLU.s 			page 37


 535              	dcd_connect:
 536              	.LVL29:
 537              	.LFB462:
  92:/home/pi/Developer/tinyusb/src/device/usbd.c ****   (void) rhport;
 538              		.loc 1 92 47 is_stmt 1 view -0
 539              		.cfi_startproc
 540              		@ args = 0, pretend = 0, frame = 0
 541              		@ frame_needed = 0, uses_anonymous_args = 0
 542              		@ link register save eliminated.
  93:/home/pi/Developer/tinyusb/src/device/usbd.c **** }
 543              		.loc 1 93 3 view .LVU106
  94:/home/pi/Developer/tinyusb/src/device/usbd.c **** 
 544              		.loc 1 94 1 is_stmt 0 view .LVU107
 545 0000 7047     		bx	lr
 546              		.cfi_endproc
 547              	.LFE462:
 549 0002 00BF     		.section	.text.dcd_disconnect,"ax",%progbits
 550              		.align	1
 551              		.p2align 2,,3
 552              		.weak	dcd_disconnect
 553              		.syntax unified
 554              		.thumb
 555              		.thumb_func
 556              		.fpu fpv5-d16
 558              	dcd_disconnect:
 559              	.LFB527:
 560              		.cfi_startproc
 561              		@ args = 0, pretend = 0, frame = 0
 562              		@ frame_needed = 0, uses_anonymous_args = 0
 563              		@ link register save eliminated.
 564 0000 7047     		bx	lr
 565              		.cfi_endproc
 566              	.LFE527:
 568 0002 00BF     		.section	.text.dcd_dcache_clean,"ax",%progbits
 569              		.align	1
 570              		.p2align 2,,3
 571              		.weak	dcd_dcache_clean
 572              		.syntax unified
 573              		.thumb
 574              		.thumb_func
 575              		.fpu fpv5-d16
 577              	dcd_dcache_clean:
 578              	.LVL30:
 579              	.LFB464:
 100:/home/pi/Developer/tinyusb/src/device/usbd.c ****   (void) addr; (void) data_size;
 580              		.loc 1 100 74 is_stmt 1 view -0
 581              		.cfi_startproc
 582              		@ args = 0, pretend = 0, frame = 0
 583              		@ frame_needed = 0, uses_anonymous_args = 0
 584              		@ link register save eliminated.
 101:/home/pi/Developer/tinyusb/src/device/usbd.c ****   return true;
 585              		.loc 1 101 3 view .LVU109
 101:/home/pi/Developer/tinyusb/src/device/usbd.c ****   return true;
 586              		.loc 1 101 16 view .LVU110
 102:/home/pi/Developer/tinyusb/src/device/usbd.c **** }
 587              		.loc 1 102 3 view .LVU111
 103:/home/pi/Developer/tinyusb/src/device/usbd.c **** 
ARM GAS  /tmp/ccRLxfLU.s 			page 38


 588              		.loc 1 103 1 is_stmt 0 view .LVU112
 589 0000 0120     		movs	r0, #1
 590              	.LVL31:
 103:/home/pi/Developer/tinyusb/src/device/usbd.c **** 
 591              		.loc 1 103 1 view .LVU113
 592 0002 7047     		bx	lr
 593              		.cfi_endproc
 594              	.LFE464:
 596              		.section	.text.dcd_dcache_invalidate,"ax",%progbits
 597              		.align	1
 598              		.p2align 2,,3
 599              		.weak	dcd_dcache_invalidate
 600              		.syntax unified
 601              		.thumb
 602              		.thumb_func
 603              		.fpu fpv5-d16
 605              	dcd_dcache_invalidate:
 606              	.LFB523:
 607              		.cfi_startproc
 608              		@ args = 0, pretend = 0, frame = 0
 609              		@ frame_needed = 0, uses_anonymous_args = 0
 610              		@ link register save eliminated.
 611 0000 0120     		movs	r0, #1
 612 0002 7047     		bx	lr
 613              		.cfi_endproc
 614              	.LFE523:
 616              		.section	.text.dcd_dcache_clean_invalidate,"ax",%progbits
 617              		.align	1
 618              		.p2align 2,,3
 619              		.weak	dcd_dcache_clean_invalidate
 620              		.syntax unified
 621              		.thumb
 622              		.thumb_func
 623              		.fpu fpv5-d16
 625              	dcd_dcache_clean_invalidate:
 626              	.LFB525:
 627              		.cfi_startproc
 628              		@ args = 0, pretend = 0, frame = 0
 629              		@ frame_needed = 0, uses_anonymous_args = 0
 630              		@ link register save eliminated.
 631 0000 0120     		movs	r0, #1
 632 0002 7047     		bx	lr
 633              		.cfi_endproc
 634              	.LFE525:
 636              		.section	.text.usbd_app_driver_get_cb,"ax",%progbits
 637              		.align	1
 638              		.p2align 2,,3
 639              		.weak	usbd_app_driver_get_cb
 640              		.syntax unified
 641              		.thumb
 642              		.thumb_func
 643              		.fpu fpv5-d16
 645              	usbd_app_driver_get_cb:
 646              	.LVL32:
 647              	.LFB469:
 443:/home/pi/Developer/tinyusb/src/device/usbd.c ****   *driver_count = 0;
 648              		.loc 1 443 87 is_stmt 1 view -0
ARM GAS  /tmp/ccRLxfLU.s 			page 39


 649              		.cfi_startproc
 650              		@ args = 0, pretend = 0, frame = 0
 651              		@ frame_needed = 0, uses_anonymous_args = 0
 652              		@ link register save eliminated.
 444:/home/pi/Developer/tinyusb/src/device/usbd.c ****   return NULL;
 653              		.loc 1 444 3 view .LVU115
 444:/home/pi/Developer/tinyusb/src/device/usbd.c ****   return NULL;
 654              		.loc 1 444 17 is_stmt 0 view .LVU116
 655 0000 0022     		movs	r2, #0
 443:/home/pi/Developer/tinyusb/src/device/usbd.c ****   *driver_count = 0;
 656              		.loc 1 443 87 view .LVU117
 657 0002 0346     		mov	r3, r0
 446:/home/pi/Developer/tinyusb/src/device/usbd.c **** 
 658              		.loc 1 446 1 view .LVU118
 659 0004 1046     		mov	r0, r2
 660              	.LVL33:
 444:/home/pi/Developer/tinyusb/src/device/usbd.c ****   return NULL;
 661              		.loc 1 444 17 view .LVU119
 662 0006 1A70     		strb	r2, [r3]
 445:/home/pi/Developer/tinyusb/src/device/usbd.c **** }
 663              		.loc 1 445 3 is_stmt 1 view .LVU120
 446:/home/pi/Developer/tinyusb/src/device/usbd.c **** 
 664              		.loc 1 446 1 is_stmt 0 view .LVU121
 665 0008 7047     		bx	lr
 666              		.cfi_endproc
 667              	.LFE469:
 669 000a 00BF     		.section	.text.dcd_edpt_xfer_fifo,"ax",%progbits
 670              		.align	1
 671              		.p2align 2,,3
 672              		.weak	dcd_edpt_xfer_fifo
 673              		.syntax unified
 674              		.thumb
 675              		.thumb_func
 676              		.fpu fpv5-d16
 678              	dcd_edpt_xfer_fifo:
 679              	.LVL34:
 680              	.LFB470:
 448:/home/pi/Developer/tinyusb/src/device/usbd.c ****   (void) rhport; (void) ep_addr; (void) ff; (void) total_bytes; (void) is_isr;
 681              		.loc 1 448 122 is_stmt 1 view -0
 682              		.cfi_startproc
 683              		@ args = 4, pretend = 0, frame = 0
 684              		@ frame_needed = 0, uses_anonymous_args = 0
 685              		@ link register save eliminated.
 449:/home/pi/Developer/tinyusb/src/device/usbd.c ****   return false;
 686              		.loc 1 449 3 view .LVU123
 449:/home/pi/Developer/tinyusb/src/device/usbd.c ****   return false;
 687              		.loc 1 449 18 view .LVU124
 449:/home/pi/Developer/tinyusb/src/device/usbd.c ****   return false;
 688              		.loc 1 449 34 view .LVU125
 449:/home/pi/Developer/tinyusb/src/device/usbd.c ****   return false;
 689              		.loc 1 449 45 view .LVU126
 449:/home/pi/Developer/tinyusb/src/device/usbd.c ****   return false;
 690              		.loc 1 449 65 view .LVU127
 450:/home/pi/Developer/tinyusb/src/device/usbd.c **** }
 691              		.loc 1 450 3 view .LVU128
 451:/home/pi/Developer/tinyusb/src/device/usbd.c **** 
 692              		.loc 1 451 1 is_stmt 0 view .LVU129
ARM GAS  /tmp/ccRLxfLU.s 			page 40


 693 0000 0020     		movs	r0, #0
 694              	.LVL35:
 451:/home/pi/Developer/tinyusb/src/device/usbd.c **** 
 695              		.loc 1 451 1 view .LVU130
 696 0002 7047     		bx	lr
 697              		.cfi_endproc
 698              	.LFE470:
 700              		.section	.text.dcd_configure,"ax",%progbits
 701              		.align	1
 702              		.p2align 2,,3
 703              		.weak	dcd_configure
 704              		.syntax unified
 705              		.thumb
 706              		.thumb_func
 707              		.fpu fpv5-d16
 709              	dcd_configure:
 710              	.LVL36:
 711              	.LFB471:
 453:/home/pi/Developer/tinyusb/src/device/usbd.c ****   (void) rhport; (void) cfg_id; (void) cfg_param;
 712              		.loc 1 453 89 is_stmt 1 view -0
 713              		.cfi_startproc
 714              		@ args = 0, pretend = 0, frame = 0
 715              		@ frame_needed = 0, uses_anonymous_args = 0
 716              		@ link register save eliminated.
 454:/home/pi/Developer/tinyusb/src/device/usbd.c ****   return false;
 717              		.loc 1 454 3 view .LVU132
 454:/home/pi/Developer/tinyusb/src/device/usbd.c ****   return false;
 718              		.loc 1 454 18 view .LVU133
 454:/home/pi/Developer/tinyusb/src/device/usbd.c ****   return false;
 719              		.loc 1 454 33 view .LVU134
 455:/home/pi/Developer/tinyusb/src/device/usbd.c **** }
 720              		.loc 1 455 3 view .LVU135
 456:/home/pi/Developer/tinyusb/src/device/usbd.c **** 
 721              		.loc 1 456 1 is_stmt 0 view .LVU136
 722 0000 0020     		movs	r0, #0
 723              	.LVL37:
 456:/home/pi/Developer/tinyusb/src/device/usbd.c **** 
 724              		.loc 1 456 1 view .LVU137
 725 0002 7047     		bx	lr
 726              		.cfi_endproc
 727              	.LFE471:
 729              		.section	.text.tud_speed_get,"ax",%progbits
 730              		.align	1
 731              		.p2align 2,,3
 732              		.global	tud_speed_get
 733              		.syntax unified
 734              		.thumb
 735              		.thumb_func
 736              		.fpu fpv5-d16
 738              	tud_speed_get:
 739              	.LFB472:
 479:/home/pi/Developer/tinyusb/src/device/usbd.c ****   return (tusb_speed_t) _usbd_dev.speed;
 740              		.loc 1 479 34 is_stmt 1 view -0
 741              		.cfi_startproc
 742              		@ args = 0, pretend = 0, frame = 0
 743              		@ frame_needed = 0, uses_anonymous_args = 0
 744              		@ link register save eliminated.
ARM GAS  /tmp/ccRLxfLU.s 			page 41


 480:/home/pi/Developer/tinyusb/src/device/usbd.c **** }
 745              		.loc 1 480 3 view .LVU139
 480:/home/pi/Developer/tinyusb/src/device/usbd.c **** }
 746              		.loc 1 480 10 is_stmt 0 view .LVU140
 747 0000 014B     		ldr	r3, .L46
 481:/home/pi/Developer/tinyusb/src/device/usbd.c **** 
 748              		.loc 1 481 1 view .LVU141
 749 0002 587E     		ldrb	r0, [r3, #25]	@ zero_extendqisi2
 750 0004 7047     		bx	lr
 751              	.L47:
 752 0006 00BF     		.align	2
 753              	.L46:
 754 0008 00000000 		.word	.LANCHOR3
 755              		.cfi_endproc
 756              	.LFE472:
 758              		.section	.text.tud_connected,"ax",%progbits
 759              		.align	1
 760              		.p2align 2,,3
 761              		.global	tud_connected
 762              		.syntax unified
 763              		.thumb
 764              		.thumb_func
 765              		.fpu fpv5-d16
 767              	tud_connected:
 768              	.LFB473:
 483:/home/pi/Developer/tinyusb/src/device/usbd.c ****   return _usbd_dev.connected;
 769              		.loc 1 483 26 is_stmt 1 view -0
 770              		.cfi_startproc
 771              		@ args = 0, pretend = 0, frame = 0
 772              		@ frame_needed = 0, uses_anonymous_args = 0
 773              		@ link register save eliminated.
 484:/home/pi/Developer/tinyusb/src/device/usbd.c **** }
 774              		.loc 1 484 3 view .LVU143
 484:/home/pi/Developer/tinyusb/src/device/usbd.c **** }
 775              		.loc 1 484 19 is_stmt 0 view .LVU144
 776 0000 024B     		ldr	r3, .L49
 777 0002 187D     		ldrb	r0, [r3, #20]	@ zero_extendqisi2
 485:/home/pi/Developer/tinyusb/src/device/usbd.c **** 
 778              		.loc 1 485 1 view .LVU145
 779 0004 0038     		subs	r0, r0, #0
 780 0006 18BF     		it	ne
 781 0008 0120     		movne	r0, #1
 782 000a 7047     		bx	lr
 783              	.L50:
 784              		.align	2
 785              	.L49:
 786 000c 00000000 		.word	.LANCHOR3
 787              		.cfi_endproc
 788              	.LFE473:
 790              		.section	.text.tud_mounted,"ax",%progbits
 791              		.align	1
 792              		.p2align 2,,3
 793              		.global	tud_mounted
 794              		.syntax unified
 795              		.thumb
 796              		.thumb_func
 797              		.fpu fpv5-d16
ARM GAS  /tmp/ccRLxfLU.s 			page 42


 799              	tud_mounted:
 800              	.LFB474:
 487:/home/pi/Developer/tinyusb/src/device/usbd.c ****   return _usbd_dev.cfg_num ? true : false;
 801              		.loc 1 487 24 is_stmt 1 view -0
 802              		.cfi_startproc
 803              		@ args = 0, pretend = 0, frame = 0
 804              		@ frame_needed = 0, uses_anonymous_args = 0
 805              		@ link register save eliminated.
 488:/home/pi/Developer/tinyusb/src/device/usbd.c **** }
 806              		.loc 1 488 3 view .LVU147
 488:/home/pi/Developer/tinyusb/src/device/usbd.c **** }
 807              		.loc 1 488 19 is_stmt 0 view .LVU148
 808 0000 024B     		ldr	r3, .L52
 488:/home/pi/Developer/tinyusb/src/device/usbd.c **** }
 809              		.loc 1 488 35 view .LVU149
 810 0002 187E     		ldrb	r0, [r3, #24]	@ zero_extendqisi2
 489:/home/pi/Developer/tinyusb/src/device/usbd.c **** 
 811              		.loc 1 489 1 view .LVU150
 812 0004 0038     		subs	r0, r0, #0
 813 0006 18BF     		it	ne
 814 0008 0120     		movne	r0, #1
 815 000a 7047     		bx	lr
 816              	.L53:
 817              		.align	2
 818              	.L52:
 819 000c 00000000 		.word	.LANCHOR3
 820              		.cfi_endproc
 821              	.LFE474:
 823              		.section	.text.tud_suspended,"ax",%progbits
 824              		.align	1
 825              		.p2align 2,,3
 826              		.global	tud_suspended
 827              		.syntax unified
 828              		.thumb
 829              		.thumb_func
 830              		.fpu fpv5-d16
 832              	tud_suspended:
 833              	.LFB475:
 491:/home/pi/Developer/tinyusb/src/device/usbd.c ****   return _usbd_dev.suspended;
 834              		.loc 1 491 26 is_stmt 1 view -0
 835              		.cfi_startproc
 836              		@ args = 0, pretend = 0, frame = 0
 837              		@ frame_needed = 0, uses_anonymous_args = 0
 838              		@ link register save eliminated.
 492:/home/pi/Developer/tinyusb/src/device/usbd.c **** }
 839              		.loc 1 492 3 view .LVU152
 492:/home/pi/Developer/tinyusb/src/device/usbd.c **** }
 840              		.loc 1 492 19 is_stmt 0 view .LVU153
 841 0000 024B     		ldr	r3, .L55
 842 0002 987D     		ldrb	r0, [r3, #22]	@ zero_extendqisi2
 493:/home/pi/Developer/tinyusb/src/device/usbd.c **** 
 843              		.loc 1 493 1 view .LVU154
 844 0004 0038     		subs	r0, r0, #0
 845 0006 18BF     		it	ne
 846 0008 0120     		movne	r0, #1
 847 000a 7047     		bx	lr
 848              	.L56:
ARM GAS  /tmp/ccRLxfLU.s 			page 43


 849              		.align	2
 850              	.L55:
 851 000c 00000000 		.word	.LANCHOR3
 852              		.cfi_endproc
 853              	.LFE475:
 855              		.section	.text.tud_remote_wakeup,"ax",%progbits
 856              		.align	1
 857              		.p2align 2,,3
 858              		.global	tud_remote_wakeup
 859              		.syntax unified
 860              		.thumb
 861              		.thumb_func
 862              		.fpu fpv5-d16
 864              	tud_remote_wakeup:
 865              	.LFB476:
 495:/home/pi/Developer/tinyusb/src/device/usbd.c ****   // only wake up host if this feature is enabled and we are suspended
 866              		.loc 1 495 30 is_stmt 1 view -0
 867              		.cfi_startproc
 868              		@ args = 0, pretend = 0, frame = 0
 869              		@ frame_needed = 0, uses_anonymous_args = 0
 497:/home/pi/Developer/tinyusb/src/device/usbd.c ****   dcd_remote_wakeup(_usbd_rhport);
 870              		.loc 1 497 3 view .LVU156
 497:/home/pi/Developer/tinyusb/src/device/usbd.c ****   dcd_remote_wakeup(_usbd_rhport);
 871              		.loc 1 497 3 view .LVU157
 872 0000 084A     		ldr	r2, .L63
 495:/home/pi/Developer/tinyusb/src/device/usbd.c ****   // only wake up host if this feature is enabled and we are suspended
 873              		.loc 1 495 30 is_stmt 0 view .LVU158
 874 0002 08B5     		push	{r3, lr}
 875              		.cfi_def_cfa_offset 8
 876              		.cfi_offset 3, -8
 877              		.cfi_offset 14, -4
 497:/home/pi/Developer/tinyusb/src/device/usbd.c ****   dcd_remote_wakeup(_usbd_rhport);
 878              		.loc 1 497 3 view .LVU159
 879 0004 937D     		ldrb	r3, [r2, #22]	@ zero_extendqisi2
 880 0006 03F0FF00 		and	r0, r3, #255
 881 000a 1BB1     		cbz	r3, .L58
 497:/home/pi/Developer/tinyusb/src/device/usbd.c ****   dcd_remote_wakeup(_usbd_rhport);
 882              		.loc 1 497 3 discriminator 2 view .LVU160
 883 000c D07D     		ldrb	r0, [r2, #23]	@ zero_extendqisi2
 884 000e 10F00200 		ands	r0, r0, #2
 885 0012 00D1     		bne	.L62
 886              	.L58:
 500:/home/pi/Developer/tinyusb/src/device/usbd.c **** 
 887              		.loc 1 500 1 view .LVU161
 888 0014 08BD     		pop	{r3, pc}
 889              	.L62:
 497:/home/pi/Developer/tinyusb/src/device/usbd.c ****   dcd_remote_wakeup(_usbd_rhport);
 890              		.loc 1 497 3 is_stmt 1 discriminator 4 view .LVU162
 498:/home/pi/Developer/tinyusb/src/device/usbd.c ****   return true;
 891              		.loc 1 498 3 discriminator 4 view .LVU163
 892 0016 044B     		ldr	r3, .L63+4
 893 0018 1878     		ldrb	r0, [r3]	@ zero_extendqisi2
 894 001a FFF7FEFF 		bl	dcd_remote_wakeup
 895              	.LVL38:
 499:/home/pi/Developer/tinyusb/src/device/usbd.c **** }
 896              		.loc 1 499 3 discriminator 4 view .LVU164
 499:/home/pi/Developer/tinyusb/src/device/usbd.c **** }
ARM GAS  /tmp/ccRLxfLU.s 			page 44


 897              		.loc 1 499 10 is_stmt 0 discriminator 4 view .LVU165
 898 001e 0120     		movs	r0, #1
 500:/home/pi/Developer/tinyusb/src/device/usbd.c **** 
 899              		.loc 1 500 1 discriminator 4 view .LVU166
 900 0020 08BD     		pop	{r3, pc}
 901              	.L64:
 902 0022 00BF     		.align	2
 903              	.L63:
 904 0024 00000000 		.word	.LANCHOR3
 905 0028 00000000 		.word	.LANCHOR4
 906              		.cfi_endproc
 907              	.LFE476:
 909              		.section	.text.tud_disconnect,"ax",%progbits
 910              		.align	1
 911              		.p2align 2,,3
 912              		.global	tud_disconnect
 913              		.syntax unified
 914              		.thumb
 915              		.thumb_func
 916              		.fpu fpv5-d16
 918              	tud_disconnect:
 919              	.LFB477:
 502:/home/pi/Developer/tinyusb/src/device/usbd.c ****   dcd_disconnect(_usbd_rhport);
 920              		.loc 1 502 27 is_stmt 1 view -0
 921              		.cfi_startproc
 922              		@ args = 0, pretend = 0, frame = 0
 923              		@ frame_needed = 0, uses_anonymous_args = 0
 503:/home/pi/Developer/tinyusb/src/device/usbd.c ****   return true;
 924              		.loc 1 503 3 view .LVU168
 502:/home/pi/Developer/tinyusb/src/device/usbd.c ****   dcd_disconnect(_usbd_rhport);
 925              		.loc 1 502 27 is_stmt 0 view .LVU169
 926 0000 08B5     		push	{r3, lr}
 927              		.cfi_def_cfa_offset 8
 928              		.cfi_offset 3, -8
 929              		.cfi_offset 14, -4
 503:/home/pi/Developer/tinyusb/src/device/usbd.c ****   return true;
 930              		.loc 1 503 3 view .LVU170
 931 0002 034B     		ldr	r3, .L67
 932 0004 1878     		ldrb	r0, [r3]	@ zero_extendqisi2
 933 0006 FFF7FEFF 		bl	dcd_disconnect
 934              	.LVL39:
 504:/home/pi/Developer/tinyusb/src/device/usbd.c **** }
 935              		.loc 1 504 3 is_stmt 1 view .LVU171
 505:/home/pi/Developer/tinyusb/src/device/usbd.c **** 
 936              		.loc 1 505 1 is_stmt 0 view .LVU172
 937 000a 0120     		movs	r0, #1
 938 000c 08BD     		pop	{r3, pc}
 939              	.L68:
 940 000e 00BF     		.align	2
 941              	.L67:
 942 0010 00000000 		.word	.LANCHOR4
 943              		.cfi_endproc
 944              	.LFE477:
 946              		.section	.text.tud_connect,"ax",%progbits
 947              		.align	1
 948              		.p2align 2,,3
 949              		.global	tud_connect
ARM GAS  /tmp/ccRLxfLU.s 			page 45


 950              		.syntax unified
 951              		.thumb
 952              		.thumb_func
 953              		.fpu fpv5-d16
 955              	tud_connect:
 956              	.LFB478:
 507:/home/pi/Developer/tinyusb/src/device/usbd.c ****   dcd_connect(_usbd_rhport);
 957              		.loc 1 507 24 is_stmt 1 view -0
 958              		.cfi_startproc
 959              		@ args = 0, pretend = 0, frame = 0
 960              		@ frame_needed = 0, uses_anonymous_args = 0
 508:/home/pi/Developer/tinyusb/src/device/usbd.c ****   return true;
 961              		.loc 1 508 3 view .LVU174
 507:/home/pi/Developer/tinyusb/src/device/usbd.c ****   dcd_connect(_usbd_rhport);
 962              		.loc 1 507 24 is_stmt 0 view .LVU175
 963 0000 08B5     		push	{r3, lr}
 964              		.cfi_def_cfa_offset 8
 965              		.cfi_offset 3, -8
 966              		.cfi_offset 14, -4
 508:/home/pi/Developer/tinyusb/src/device/usbd.c ****   return true;
 967              		.loc 1 508 3 view .LVU176
 968 0002 034B     		ldr	r3, .L71
 969 0004 1878     		ldrb	r0, [r3]	@ zero_extendqisi2
 970 0006 FFF7FEFF 		bl	dcd_connect
 971              	.LVL40:
 509:/home/pi/Developer/tinyusb/src/device/usbd.c **** }
 972              		.loc 1 509 3 is_stmt 1 view .LVU177
 510:/home/pi/Developer/tinyusb/src/device/usbd.c **** 
 973              		.loc 1 510 1 is_stmt 0 view .LVU178
 974 000a 0120     		movs	r0, #1
 975 000c 08BD     		pop	{r3, pc}
 976              	.L72:
 977 000e 00BF     		.align	2
 978              	.L71:
 979 0010 00000000 		.word	.LANCHOR4
 980              		.cfi_endproc
 981              	.LFE478:
 983              		.section	.text.tud_sof_cb_enable,"ax",%progbits
 984              		.align	1
 985              		.p2align 2,,3
 986              		.global	tud_sof_cb_enable
 987              		.syntax unified
 988              		.thumb
 989              		.thumb_func
 990              		.fpu fpv5-d16
 992              	tud_sof_cb_enable:
 993              	.LVL41:
 994              	.LFB479:
 512:/home/pi/Developer/tinyusb/src/device/usbd.c ****   usbd_sof_enable(_usbd_rhport, SOF_CONSUMER_USER, en);
 995              		.loc 1 512 33 is_stmt 1 view -0
 996              		.cfi_startproc
 997              		@ args = 0, pretend = 0, frame = 0
 998              		@ frame_needed = 0, uses_anonymous_args = 0
 999              		@ link register save eliminated.
 513:/home/pi/Developer/tinyusb/src/device/usbd.c **** }
 1000              		.loc 1 513 3 view .LVU180
 1001              	.LBB427:
ARM GAS  /tmp/ccRLxfLU.s 			page 46


 1002              	.LBB428:
1477:/home/pi/Developer/tinyusb/src/device/usbd.c ****   }
1478:/home/pi/Developer/tinyusb/src/device/usbd.c **** }
1479:/home/pi/Developer/tinyusb/src/device/usbd.c **** 
1480:/home/pi/Developer/tinyusb/src/device/usbd.c **** void usbd_spin_lock(bool in_isr) {
1481:/home/pi/Developer/tinyusb/src/device/usbd.c ****   osal_spin_lock(&_usbd_spin, in_isr);
1482:/home/pi/Developer/tinyusb/src/device/usbd.c **** }
1483:/home/pi/Developer/tinyusb/src/device/usbd.c **** void usbd_spin_unlock(bool in_isr) {
1484:/home/pi/Developer/tinyusb/src/device/usbd.c ****   osal_spin_unlock(&_usbd_spin, in_isr);
1485:/home/pi/Developer/tinyusb/src/device/usbd.c **** }
1486:/home/pi/Developer/tinyusb/src/device/usbd.c **** 
1487:/home/pi/Developer/tinyusb/src/device/usbd.c **** // Parse consecutive endpoint descriptors (IN & OUT)
1488:/home/pi/Developer/tinyusb/src/device/usbd.c **** bool usbd_open_edpt_pair(uint8_t rhport, const uint8_t *p_desc, uint8_t ep_count, uint8_t xfer_type
1489:/home/pi/Developer/tinyusb/src/device/usbd.c ****                          uint8_t *ep_in) {
1490:/home/pi/Developer/tinyusb/src/device/usbd.c ****   for (int i = 0; i < ep_count; i++) {
1491:/home/pi/Developer/tinyusb/src/device/usbd.c ****     const tusb_desc_endpoint_t *desc_ep = (const tusb_desc_endpoint_t *)p_desc;
1492:/home/pi/Developer/tinyusb/src/device/usbd.c **** 
1493:/home/pi/Developer/tinyusb/src/device/usbd.c ****     TU_ASSERT(TUSB_DESC_ENDPOINT == desc_ep->bDescriptorType && xfer_type == desc_ep->bmAttributes.
1494:/home/pi/Developer/tinyusb/src/device/usbd.c ****     TU_ASSERT(usbd_edpt_open(rhport, desc_ep));
1495:/home/pi/Developer/tinyusb/src/device/usbd.c **** 
1496:/home/pi/Developer/tinyusb/src/device/usbd.c ****     if (tu_edpt_dir(desc_ep->bEndpointAddress) == TUSB_DIR_IN) {
1497:/home/pi/Developer/tinyusb/src/device/usbd.c ****       (*ep_in) = desc_ep->bEndpointAddress;
1498:/home/pi/Developer/tinyusb/src/device/usbd.c ****     } else {
1499:/home/pi/Developer/tinyusb/src/device/usbd.c ****       (*ep_out) = desc_ep->bEndpointAddress;
1500:/home/pi/Developer/tinyusb/src/device/usbd.c ****     }
1501:/home/pi/Developer/tinyusb/src/device/usbd.c **** 
1502:/home/pi/Developer/tinyusb/src/device/usbd.c ****     p_desc = tu_desc_next(p_desc);
1503:/home/pi/Developer/tinyusb/src/device/usbd.c ****   }
1504:/home/pi/Developer/tinyusb/src/device/usbd.c **** 
1505:/home/pi/Developer/tinyusb/src/device/usbd.c ****   return true;
1506:/home/pi/Developer/tinyusb/src/device/usbd.c **** }
1507:/home/pi/Developer/tinyusb/src/device/usbd.c **** 
1508:/home/pi/Developer/tinyusb/src/device/usbd.c **** // Helper to defer an isr function
1509:/home/pi/Developer/tinyusb/src/device/usbd.c **** void usbd_defer_func(osal_task_func_t func, void* param, bool in_isr) {
1510:/home/pi/Developer/tinyusb/src/device/usbd.c ****   dcd_event_t event = {
1511:/home/pi/Developer/tinyusb/src/device/usbd.c ****       .rhport   = 0,
1512:/home/pi/Developer/tinyusb/src/device/usbd.c ****       .event_id = USBD_EVENT_FUNC_CALL,
1513:/home/pi/Developer/tinyusb/src/device/usbd.c ****   };
1514:/home/pi/Developer/tinyusb/src/device/usbd.c ****   event.func_call.func  = func;
1515:/home/pi/Developer/tinyusb/src/device/usbd.c ****   event.func_call.param = param;
1516:/home/pi/Developer/tinyusb/src/device/usbd.c **** 
1517:/home/pi/Developer/tinyusb/src/device/usbd.c ****   queue_event(&event, in_isr);
1518:/home/pi/Developer/tinyusb/src/device/usbd.c **** }
1519:/home/pi/Developer/tinyusb/src/device/usbd.c **** 
1520:/home/pi/Developer/tinyusb/src/device/usbd.c **** //--------------------------------------------------------------------+
1521:/home/pi/Developer/tinyusb/src/device/usbd.c **** // USBD Endpoint API
1522:/home/pi/Developer/tinyusb/src/device/usbd.c **** //--------------------------------------------------------------------+
1523:/home/pi/Developer/tinyusb/src/device/usbd.c **** 
1524:/home/pi/Developer/tinyusb/src/device/usbd.c **** bool usbd_edpt_open(uint8_t rhport, tusb_desc_endpoint_t const* desc_ep) {
1525:/home/pi/Developer/tinyusb/src/device/usbd.c ****   rhport = _usbd_rhport;
1526:/home/pi/Developer/tinyusb/src/device/usbd.c **** 
1527:/home/pi/Developer/tinyusb/src/device/usbd.c ****   TU_ASSERT(tu_edpt_number(desc_ep->bEndpointAddress) < CFG_TUD_ENDPPOINT_MAX);
1528:/home/pi/Developer/tinyusb/src/device/usbd.c ****   TU_ASSERT(tu_edpt_validate(desc_ep, (tusb_speed_t)_usbd_dev.speed));
1529:/home/pi/Developer/tinyusb/src/device/usbd.c **** 
1530:/home/pi/Developer/tinyusb/src/device/usbd.c ****   return dcd_edpt_open(rhport, desc_ep);
1531:/home/pi/Developer/tinyusb/src/device/usbd.c **** }
1532:/home/pi/Developer/tinyusb/src/device/usbd.c **** 
ARM GAS  /tmp/ccRLxfLU.s 			page 47


1533:/home/pi/Developer/tinyusb/src/device/usbd.c **** bool usbd_edpt_claim(uint8_t rhport, uint8_t ep_addr) {
1534:/home/pi/Developer/tinyusb/src/device/usbd.c ****   (void) rhport;
1535:/home/pi/Developer/tinyusb/src/device/usbd.c **** 
1536:/home/pi/Developer/tinyusb/src/device/usbd.c ****   // TODO add this check later, also make sure we don't starve an out endpoint while suspending
1537:/home/pi/Developer/tinyusb/src/device/usbd.c ****   // TU_VERIFY(tud_ready());
1538:/home/pi/Developer/tinyusb/src/device/usbd.c **** 
1539:/home/pi/Developer/tinyusb/src/device/usbd.c ****   uint8_t const epnum = tu_edpt_number(ep_addr);
1540:/home/pi/Developer/tinyusb/src/device/usbd.c ****   uint8_t const dir = tu_edpt_dir(ep_addr);
1541:/home/pi/Developer/tinyusb/src/device/usbd.c ****   return tu_edpt_claim(&_usbd_dev.ep_status[epnum][dir], _usbd_mutex);
1542:/home/pi/Developer/tinyusb/src/device/usbd.c **** }
1543:/home/pi/Developer/tinyusb/src/device/usbd.c **** 
1544:/home/pi/Developer/tinyusb/src/device/usbd.c **** bool usbd_edpt_release(uint8_t rhport, uint8_t ep_addr) {
1545:/home/pi/Developer/tinyusb/src/device/usbd.c ****   (void) rhport;
1546:/home/pi/Developer/tinyusb/src/device/usbd.c **** 
1547:/home/pi/Developer/tinyusb/src/device/usbd.c ****   uint8_t const epnum = tu_edpt_number(ep_addr);
1548:/home/pi/Developer/tinyusb/src/device/usbd.c ****   uint8_t const dir = tu_edpt_dir(ep_addr);
1549:/home/pi/Developer/tinyusb/src/device/usbd.c ****   return tu_edpt_release(&_usbd_dev.ep_status[epnum][dir], _usbd_mutex);
1550:/home/pi/Developer/tinyusb/src/device/usbd.c **** }
1551:/home/pi/Developer/tinyusb/src/device/usbd.c **** 
1552:/home/pi/Developer/tinyusb/src/device/usbd.c **** bool usbd_edpt_xfer(uint8_t rhport, uint8_t ep_addr, uint8_t* buffer, uint16_t total_bytes, bool is
1553:/home/pi/Developer/tinyusb/src/device/usbd.c ****   rhport = _usbd_rhport;
1554:/home/pi/Developer/tinyusb/src/device/usbd.c **** 
1555:/home/pi/Developer/tinyusb/src/device/usbd.c ****   uint8_t const epnum = tu_edpt_number(ep_addr);
1556:/home/pi/Developer/tinyusb/src/device/usbd.c ****   uint8_t const dir = tu_edpt_dir(ep_addr);
1557:/home/pi/Developer/tinyusb/src/device/usbd.c **** 
1558:/home/pi/Developer/tinyusb/src/device/usbd.c ****   // TODO skip ready() check for now since enumeration also use this API
1559:/home/pi/Developer/tinyusb/src/device/usbd.c ****   // TU_VERIFY(tud_ready());
1560:/home/pi/Developer/tinyusb/src/device/usbd.c **** 
1561:/home/pi/Developer/tinyusb/src/device/usbd.c ****   TU_LOG_USBD("  Queue EP %02X with %u bytes ...\r\n", ep_addr, total_bytes);
1562:/home/pi/Developer/tinyusb/src/device/usbd.c **** #if CFG_TUD_LOG_LEVEL >= 3
1563:/home/pi/Developer/tinyusb/src/device/usbd.c ****   if(dir == TUSB_DIR_IN) {
1564:/home/pi/Developer/tinyusb/src/device/usbd.c ****     TU_LOG_MEM(CFG_TUD_LOG_LEVEL, buffer, total_bytes, 2);
1565:/home/pi/Developer/tinyusb/src/device/usbd.c ****   }
1566:/home/pi/Developer/tinyusb/src/device/usbd.c **** #endif
1567:/home/pi/Developer/tinyusb/src/device/usbd.c **** 
1568:/home/pi/Developer/tinyusb/src/device/usbd.c ****   // Attempt to transfer on a busy endpoint, sound like an race condition !
1569:/home/pi/Developer/tinyusb/src/device/usbd.c ****   TU_ASSERT((_usbd_dev.ep_status[epnum][dir] & TU_EDPT_STATE_BUSY) == 0);
1570:/home/pi/Developer/tinyusb/src/device/usbd.c **** 
1571:/home/pi/Developer/tinyusb/src/device/usbd.c ****   // Set busy first since the actual transfer can be complete before dcd_edpt_xfer()
1572:/home/pi/Developer/tinyusb/src/device/usbd.c ****   // could return and USBD task can preempt and clear the busy
1573:/home/pi/Developer/tinyusb/src/device/usbd.c ****   _usbd_dev.ep_status[epnum][dir] |= TU_EDPT_STATE_BUSY;
1574:/home/pi/Developer/tinyusb/src/device/usbd.c **** 
1575:/home/pi/Developer/tinyusb/src/device/usbd.c ****   if (dcd_edpt_xfer(rhport, ep_addr, buffer, total_bytes, is_isr)) {
1576:/home/pi/Developer/tinyusb/src/device/usbd.c ****     return true;
1577:/home/pi/Developer/tinyusb/src/device/usbd.c ****   } else {
1578:/home/pi/Developer/tinyusb/src/device/usbd.c ****     // DCD error, mark endpoint as ready to allow next transfer
1579:/home/pi/Developer/tinyusb/src/device/usbd.c ****     _usbd_dev.ep_status[epnum][dir] &= (uint8_t) ~(TU_EDPT_STATE_BUSY | TU_EDPT_STATE_CLAIMED);
1580:/home/pi/Developer/tinyusb/src/device/usbd.c ****     TU_LOG_USBD("FAILED\r\n");
1581:/home/pi/Developer/tinyusb/src/device/usbd.c ****     TU_BREAKPOINT();
1582:/home/pi/Developer/tinyusb/src/device/usbd.c ****     return false;
1583:/home/pi/Developer/tinyusb/src/device/usbd.c ****   }
1584:/home/pi/Developer/tinyusb/src/device/usbd.c **** }
1585:/home/pi/Developer/tinyusb/src/device/usbd.c **** 
1586:/home/pi/Developer/tinyusb/src/device/usbd.c **** // The number of bytes has to be given explicitly to allow more flexible control of how many
1587:/home/pi/Developer/tinyusb/src/device/usbd.c **** // bytes should be written and second to keep the return value free to give back a boolean
1588:/home/pi/Developer/tinyusb/src/device/usbd.c **** // success message. If total_bytes is too big, the FIFO will copy only what is available
1589:/home/pi/Developer/tinyusb/src/device/usbd.c **** // into the USB buffer!
ARM GAS  /tmp/ccRLxfLU.s 			page 48


1590:/home/pi/Developer/tinyusb/src/device/usbd.c **** bool usbd_edpt_xfer_fifo(uint8_t rhport, uint8_t ep_addr, tu_fifo_t* ff, uint16_t total_bytes, bool
1591:/home/pi/Developer/tinyusb/src/device/usbd.c ****   #if CFG_TUD_EDPT_DEDICATED_HWFIFO
1592:/home/pi/Developer/tinyusb/src/device/usbd.c ****   rhport = _usbd_rhport;
1593:/home/pi/Developer/tinyusb/src/device/usbd.c **** 
1594:/home/pi/Developer/tinyusb/src/device/usbd.c ****   uint8_t const epnum = tu_edpt_number(ep_addr);
1595:/home/pi/Developer/tinyusb/src/device/usbd.c ****   uint8_t const dir = tu_edpt_dir(ep_addr);
1596:/home/pi/Developer/tinyusb/src/device/usbd.c **** 
1597:/home/pi/Developer/tinyusb/src/device/usbd.c ****   TU_LOG_USBD("  Queue FIFO EP %02X with %u bytes ... ", ep_addr, total_bytes);
1598:/home/pi/Developer/tinyusb/src/device/usbd.c **** 
1599:/home/pi/Developer/tinyusb/src/device/usbd.c ****   // Attempt to transfer on a busy endpoint, sound like a race condition !
1600:/home/pi/Developer/tinyusb/src/device/usbd.c ****   TU_ASSERT((_usbd_dev.ep_status[epnum][dir] & TU_EDPT_STATE_BUSY) == 0);
1601:/home/pi/Developer/tinyusb/src/device/usbd.c **** 
1602:/home/pi/Developer/tinyusb/src/device/usbd.c ****   // Set busy first since the actual transfer can be complete before dcd_edpt_xfer() could return
1603:/home/pi/Developer/tinyusb/src/device/usbd.c ****   // and usbd task can preempt and clear the busy
1604:/home/pi/Developer/tinyusb/src/device/usbd.c ****   _usbd_dev.ep_status[epnum][dir] |= TU_EDPT_STATE_BUSY;
1605:/home/pi/Developer/tinyusb/src/device/usbd.c **** 
1606:/home/pi/Developer/tinyusb/src/device/usbd.c ****   if (dcd_edpt_xfer_fifo(rhport, ep_addr, ff, total_bytes, is_isr)) {
1607:/home/pi/Developer/tinyusb/src/device/usbd.c ****     TU_LOG_USBD("OK\r\n");
1608:/home/pi/Developer/tinyusb/src/device/usbd.c ****     return true;
1609:/home/pi/Developer/tinyusb/src/device/usbd.c ****   } else {
1610:/home/pi/Developer/tinyusb/src/device/usbd.c ****     // DCD error, mark endpoint as ready to allow next transfer
1611:/home/pi/Developer/tinyusb/src/device/usbd.c ****     _usbd_dev.ep_status[epnum][dir] &= (uint8_t) ~(TU_EDPT_STATE_BUSY | TU_EDPT_STATE_CLAIMED);
1612:/home/pi/Developer/tinyusb/src/device/usbd.c ****     TU_LOG_USBD("failed\r\n");
1613:/home/pi/Developer/tinyusb/src/device/usbd.c ****     TU_BREAKPOINT();
1614:/home/pi/Developer/tinyusb/src/device/usbd.c ****     return false;
1615:/home/pi/Developer/tinyusb/src/device/usbd.c ****   }
1616:/home/pi/Developer/tinyusb/src/device/usbd.c ****   #else
1617:/home/pi/Developer/tinyusb/src/device/usbd.c ****   (void)rhport;
1618:/home/pi/Developer/tinyusb/src/device/usbd.c ****   (void)ep_addr;
1619:/home/pi/Developer/tinyusb/src/device/usbd.c ****   (void)ff;
1620:/home/pi/Developer/tinyusb/src/device/usbd.c ****   (void)total_bytes;
1621:/home/pi/Developer/tinyusb/src/device/usbd.c ****   (void)is_isr;
1622:/home/pi/Developer/tinyusb/src/device/usbd.c ****   return false;
1623:/home/pi/Developer/tinyusb/src/device/usbd.c ****   #endif
1624:/home/pi/Developer/tinyusb/src/device/usbd.c **** }
1625:/home/pi/Developer/tinyusb/src/device/usbd.c **** 
1626:/home/pi/Developer/tinyusb/src/device/usbd.c **** bool usbd_edpt_busy(uint8_t rhport, uint8_t ep_addr) {
1627:/home/pi/Developer/tinyusb/src/device/usbd.c ****   (void) rhport;
1628:/home/pi/Developer/tinyusb/src/device/usbd.c **** 
1629:/home/pi/Developer/tinyusb/src/device/usbd.c ****   uint8_t const epnum = tu_edpt_number(ep_addr);
1630:/home/pi/Developer/tinyusb/src/device/usbd.c ****   uint8_t const dir = tu_edpt_dir(ep_addr);
1631:/home/pi/Developer/tinyusb/src/device/usbd.c **** 
1632:/home/pi/Developer/tinyusb/src/device/usbd.c ****   return (_usbd_dev.ep_status[epnum][dir] & TU_EDPT_STATE_BUSY) != 0;
1633:/home/pi/Developer/tinyusb/src/device/usbd.c **** }
1634:/home/pi/Developer/tinyusb/src/device/usbd.c **** 
1635:/home/pi/Developer/tinyusb/src/device/usbd.c **** void usbd_edpt_stall(uint8_t rhport, uint8_t ep_addr) {
1636:/home/pi/Developer/tinyusb/src/device/usbd.c ****   rhport = _usbd_rhport;
1637:/home/pi/Developer/tinyusb/src/device/usbd.c **** 
1638:/home/pi/Developer/tinyusb/src/device/usbd.c ****   uint8_t const epnum = tu_edpt_number(ep_addr);
1639:/home/pi/Developer/tinyusb/src/device/usbd.c ****   uint8_t const dir = tu_edpt_dir(ep_addr);
1640:/home/pi/Developer/tinyusb/src/device/usbd.c **** 
1641:/home/pi/Developer/tinyusb/src/device/usbd.c ****   // only stalled if currently cleared
1642:/home/pi/Developer/tinyusb/src/device/usbd.c ****   TU_LOG_USBD("    Stall EP %02X\r\n", ep_addr);
1643:/home/pi/Developer/tinyusb/src/device/usbd.c ****   dcd_edpt_stall(rhport, ep_addr);
1644:/home/pi/Developer/tinyusb/src/device/usbd.c ****   _usbd_dev.ep_status[epnum][dir] |= (TU_EDPT_STATE_STALLED | TU_EDPT_STATE_BUSY);
1645:/home/pi/Developer/tinyusb/src/device/usbd.c **** }
1646:/home/pi/Developer/tinyusb/src/device/usbd.c **** 
ARM GAS  /tmp/ccRLxfLU.s 			page 49


1647:/home/pi/Developer/tinyusb/src/device/usbd.c **** void usbd_edpt_clear_stall(uint8_t rhport, uint8_t ep_addr) {
1648:/home/pi/Developer/tinyusb/src/device/usbd.c ****   rhport = _usbd_rhport;
1649:/home/pi/Developer/tinyusb/src/device/usbd.c **** 
1650:/home/pi/Developer/tinyusb/src/device/usbd.c ****   uint8_t const epnum = tu_edpt_number(ep_addr);
1651:/home/pi/Developer/tinyusb/src/device/usbd.c ****   uint8_t const dir = tu_edpt_dir(ep_addr);
1652:/home/pi/Developer/tinyusb/src/device/usbd.c **** 
1653:/home/pi/Developer/tinyusb/src/device/usbd.c ****   // only clear if currently stalled
1654:/home/pi/Developer/tinyusb/src/device/usbd.c ****   TU_LOG_USBD("    Clear Stall EP %02X\r\n", ep_addr);
1655:/home/pi/Developer/tinyusb/src/device/usbd.c ****   dcd_edpt_clear_stall(rhport, ep_addr);
1656:/home/pi/Developer/tinyusb/src/device/usbd.c ****   _usbd_dev.ep_status[epnum][dir] &= (uint8_t) ~(TU_EDPT_STATE_STALLED | TU_EDPT_STATE_BUSY);
1657:/home/pi/Developer/tinyusb/src/device/usbd.c **** }
1658:/home/pi/Developer/tinyusb/src/device/usbd.c **** 
1659:/home/pi/Developer/tinyusb/src/device/usbd.c **** bool usbd_edpt_stalled(uint8_t rhport, uint8_t ep_addr) {
1660:/home/pi/Developer/tinyusb/src/device/usbd.c ****   (void) rhport;
1661:/home/pi/Developer/tinyusb/src/device/usbd.c **** 
1662:/home/pi/Developer/tinyusb/src/device/usbd.c ****   uint8_t const epnum = tu_edpt_number(ep_addr);
1663:/home/pi/Developer/tinyusb/src/device/usbd.c ****   uint8_t const dir = tu_edpt_dir(ep_addr);
1664:/home/pi/Developer/tinyusb/src/device/usbd.c **** 
1665:/home/pi/Developer/tinyusb/src/device/usbd.c ****   return (_usbd_dev.ep_status[epnum][dir] & TU_EDPT_STATE_STALLED) != 0;
1666:/home/pi/Developer/tinyusb/src/device/usbd.c **** }
1667:/home/pi/Developer/tinyusb/src/device/usbd.c **** 
1668:/home/pi/Developer/tinyusb/src/device/usbd.c **** /**
1669:/home/pi/Developer/tinyusb/src/device/usbd.c ****  * usbd_edpt_close will disable an endpoint.
1670:/home/pi/Developer/tinyusb/src/device/usbd.c ****  * In progress transfers on this EP may be delivered after this call.
1671:/home/pi/Developer/tinyusb/src/device/usbd.c ****  */
1672:/home/pi/Developer/tinyusb/src/device/usbd.c **** void usbd_edpt_close(uint8_t rhport, uint8_t ep_addr) {
1673:/home/pi/Developer/tinyusb/src/device/usbd.c **** #ifdef TUP_DCD_EDPT_ISO_ALLOC
1674:/home/pi/Developer/tinyusb/src/device/usbd.c ****   (void) rhport; (void) ep_addr;
1675:/home/pi/Developer/tinyusb/src/device/usbd.c ****   // ISO alloc/activate Should be used instead
1676:/home/pi/Developer/tinyusb/src/device/usbd.c **** #else
1677:/home/pi/Developer/tinyusb/src/device/usbd.c ****   rhport = _usbd_rhport;
1678:/home/pi/Developer/tinyusb/src/device/usbd.c **** 
1679:/home/pi/Developer/tinyusb/src/device/usbd.c ****   TU_LOG_USBD("  CLOSING Endpoint: 0x%02X\r\n", ep_addr);
1680:/home/pi/Developer/tinyusb/src/device/usbd.c **** 
1681:/home/pi/Developer/tinyusb/src/device/usbd.c ****   uint8_t const epnum = tu_edpt_number(ep_addr);
1682:/home/pi/Developer/tinyusb/src/device/usbd.c ****   uint8_t const dir = tu_edpt_dir(ep_addr);
1683:/home/pi/Developer/tinyusb/src/device/usbd.c **** 
1684:/home/pi/Developer/tinyusb/src/device/usbd.c ****   dcd_edpt_close(rhport, ep_addr);
1685:/home/pi/Developer/tinyusb/src/device/usbd.c ****   _usbd_dev.ep_status[epnum][dir] = 0;
1686:/home/pi/Developer/tinyusb/src/device/usbd.c **** #endif
1687:/home/pi/Developer/tinyusb/src/device/usbd.c **** 
1688:/home/pi/Developer/tinyusb/src/device/usbd.c ****   return;
1689:/home/pi/Developer/tinyusb/src/device/usbd.c **** }
1690:/home/pi/Developer/tinyusb/src/device/usbd.c **** 
1691:/home/pi/Developer/tinyusb/src/device/usbd.c **** void usbd_sof_enable(uint8_t rhport, sof_consumer_t consumer, bool en) {
1692:/home/pi/Developer/tinyusb/src/device/usbd.c ****   rhport = _usbd_rhport;
1693:/home/pi/Developer/tinyusb/src/device/usbd.c **** 
1694:/home/pi/Developer/tinyusb/src/device/usbd.c ****   uint8_t consumer_old = _usbd_dev.sof_consumer;
 1003              		.loc 1 1694 11 is_stmt 0 view .LVU181
 1004 0000 0F49     		ldr	r1, .L78
 1005              	.LBE428:
 1006              	.LBE427:
 513:/home/pi/Developer/tinyusb/src/device/usbd.c **** }
 1007              		.loc 1 513 3 view .LVU182
 1008 0002 104A     		ldr	r2, .L78+4
 1009              	.LBB432:
 1010              	.LBB429:
ARM GAS  /tmp/ccRLxfLU.s 			page 50


 1011              		.loc 1 1694 11 view .LVU183
 1012 0004 8B7E     		ldrb	r3, [r1, #26]	@ zero_extendqisi2
 1013              	.LBE429:
 1014              	.LBE432:
 513:/home/pi/Developer/tinyusb/src/device/usbd.c **** }
 1015              		.loc 1 513 3 view .LVU184
 1016 0006 92F800C0 		ldrb	ip, [r2]	@ zero_extendqisi2
 1017              	.LVL42:
 1018              	.LBB433:
 1019              	.LBI427:
1691:/home/pi/Developer/tinyusb/src/device/usbd.c ****   rhport = _usbd_rhport;
 1020              		.loc 1 1691 6 is_stmt 1 view .LVU185
 1021              	.LBB430:
1692:/home/pi/Developer/tinyusb/src/device/usbd.c **** 
 1022              		.loc 1 1692 3 view .LVU186
 1023              		.loc 1 1694 3 view .LVU187
 1024              		.loc 1 1694 11 is_stmt 0 view .LVU188
 1025 000a DBB2     		uxtb	r3, r3
 1026              	.LVL43:
1695:/home/pi/Developer/tinyusb/src/device/usbd.c ****   // Keep track how many class instances need the SOF interrupt
1696:/home/pi/Developer/tinyusb/src/device/usbd.c ****   if (en) {
 1027              		.loc 1 1696 3 is_stmt 1 view .LVU189
1697:/home/pi/Developer/tinyusb/src/device/usbd.c ****     _usbd_dev.sof_consumer |= (uint8_t)(1 << consumer);
 1028              		.loc 1 1697 28 is_stmt 0 view .LVU190
 1029 000c 8A7E     		ldrb	r2, [r1, #26]	@ zero_extendqisi2
1696:/home/pi/Developer/tinyusb/src/device/usbd.c ****     _usbd_dev.sof_consumer |= (uint8_t)(1 << consumer);
 1030              		.loc 1 1696 6 view .LVU191
 1031 000e 60B1     		cbz	r0, .L74
 1032              		.loc 1 1697 5 is_stmt 1 view .LVU192
 1033              		.loc 1 1697 28 is_stmt 0 view .LVU193
 1034 0010 42F00102 		orr	r2, r2, #1
 1035 0014 8A76     		strb	r2, [r1, #26]
 1036              	.L75:
1698:/home/pi/Developer/tinyusb/src/device/usbd.c ****   } else {
1699:/home/pi/Developer/tinyusb/src/device/usbd.c ****     _usbd_dev.sof_consumer &= (uint8_t)(~(1 << consumer));
1700:/home/pi/Developer/tinyusb/src/device/usbd.c ****   }
1701:/home/pi/Developer/tinyusb/src/device/usbd.c **** 
1702:/home/pi/Developer/tinyusb/src/device/usbd.c ****   // Test logically unequal
1703:/home/pi/Developer/tinyusb/src/device/usbd.c ****   if(!_usbd_dev.sof_consumer != !consumer_old) {
 1037              		.loc 1 1703 3 is_stmt 1 view .LVU194
 1038              		.loc 1 1703 16 is_stmt 0 view .LVU195
 1039 0016 8A7E     		ldrb	r2, [r1, #26]	@ zero_extendqisi2
 1040              		.loc 1 1703 5 view .LVU196
 1041 0018 B3FA83F3 		clz	r3, r3
 1042              	.LVL44:
 1043              		.loc 1 1703 5 view .LVU197
 1044 001c B2FA82F2 		clz	r2, r2
 1045 0020 5B09     		lsrs	r3, r3, #5
 1046 0022 5209     		lsrs	r2, r2, #5
 1047 0024 9A42     		cmp	r2, r3
 1048 0026 04D1     		bne	.L77
 1049              	.LBE430:
 1050              	.LBE433:
 514:/home/pi/Developer/tinyusb/src/device/usbd.c **** 
 1051              		.loc 1 514 1 view .LVU198
 1052 0028 7047     		bx	lr
 1053              	.LVL45:
ARM GAS  /tmp/ccRLxfLU.s 			page 51


 1054              	.L74:
 1055              	.LBB434:
 1056              	.LBB431:
1699:/home/pi/Developer/tinyusb/src/device/usbd.c ****   }
 1057              		.loc 1 1699 5 is_stmt 1 view .LVU199
1699:/home/pi/Developer/tinyusb/src/device/usbd.c ****   }
 1058              		.loc 1 1699 28 is_stmt 0 view .LVU200
 1059 002a 02F0FE02 		and	r2, r2, #254
 1060 002e 8A76     		strb	r2, [r1, #26]
 1061 0030 F1E7     		b	.L75
 1062              	.LVL46:
 1063              	.L77:
1704:/home/pi/Developer/tinyusb/src/device/usbd.c ****     dcd_sof_enable(rhport, _usbd_dev.sof_consumer);
 1064              		.loc 1 1704 5 is_stmt 1 view .LVU201
 1065              		.loc 1 1704 37 is_stmt 0 view .LVU202
 1066 0032 897E     		ldrb	r1, [r1, #26]	@ zero_extendqisi2
 1067              		.loc 1 1704 5 view .LVU203
 1068 0034 6046     		mov	r0, ip
 1069              	.LVL47:
 1070              		.loc 1 1704 5 view .LVU204
 1071 0036 0039     		subs	r1, r1, #0
 1072 0038 18BF     		it	ne
 1073 003a 0121     		movne	r1, #1
 1074 003c FFF7FEBF 		b	dcd_sof_enable
 1075              	.LVL48:
 1076              	.L79:
 1077              		.loc 1 1704 5 view .LVU205
 1078              		.align	2
 1079              	.L78:
 1080 0040 00000000 		.word	.LANCHOR3
 1081 0044 00000000 		.word	.LANCHOR4
 1082              	.LBE431:
 1083              	.LBE434:
 1084              		.cfi_endproc
 1085              	.LFE479:
 1087              		.section	.text.tud_inited,"ax",%progbits
 1088              		.align	1
 1089              		.p2align 2,,3
 1090              		.global	tud_inited
 1091              		.syntax unified
 1092              		.thumb
 1093              		.thumb_func
 1094              		.fpu fpv5-d16
 1096              	tud_inited:
 1097              	.LFB480:
 516:/home/pi/Developer/tinyusb/src/device/usbd.c ****   return _usbd_rhport != RHPORT_INVALID;
 1098              		.loc 1 516 23 is_stmt 1 view -0
 1099              		.cfi_startproc
 1100              		@ args = 0, pretend = 0, frame = 0
 1101              		@ frame_needed = 0, uses_anonymous_args = 0
 1102              		@ link register save eliminated.
 517:/home/pi/Developer/tinyusb/src/device/usbd.c **** }
 1103              		.loc 1 517 3 view .LVU207
 517:/home/pi/Developer/tinyusb/src/device/usbd.c **** }
 1104              		.loc 1 517 23 is_stmt 0 view .LVU208
 1105 0000 024B     		ldr	r3, .L81
 1106 0002 1878     		ldrb	r0, [r3]	@ zero_extendqisi2
ARM GAS  /tmp/ccRLxfLU.s 			page 52


 518:/home/pi/Developer/tinyusb/src/device/usbd.c **** 
 1107              		.loc 1 518 1 view .LVU209
 1108 0004 FF38     		subs	r0, r0, #255
 1109 0006 18BF     		it	ne
 1110 0008 0120     		movne	r0, #1
 1111 000a 7047     		bx	lr
 1112              	.L82:
 1113              		.align	2
 1114              	.L81:
 1115 000c 00000000 		.word	.LANCHOR4
 1116              		.cfi_endproc
 1117              	.LFE480:
 1119              		.section	.text.tud_configure,"ax",%progbits
 1120              		.align	1
 1121              		.p2align 2,,3
 1122              		.global	tud_configure
 1123              		.syntax unified
 1124              		.thumb
 1125              		.thumb_func
 1126              		.fpu fpv5-d16
 1128              	tud_configure:
 1129              	.LVL49:
 1130              	.LFB481:
 520:/home/pi/Developer/tinyusb/src/device/usbd.c ****   return dcd_configure(rhport, cfg_id, cfg_param);
 1131              		.loc 1 520 76 is_stmt 1 view -0
 1132              		.cfi_startproc
 1133              		@ args = 0, pretend = 0, frame = 0
 1134              		@ frame_needed = 0, uses_anonymous_args = 0
 521:/home/pi/Developer/tinyusb/src/device/usbd.c **** }
 1135              		.loc 1 521 3 view .LVU211
 520:/home/pi/Developer/tinyusb/src/device/usbd.c ****   return dcd_configure(rhport, cfg_id, cfg_param);
 1136              		.loc 1 520 76 is_stmt 0 view .LVU212
 1137 0000 08B5     		push	{r3, lr}
 1138              		.cfi_def_cfa_offset 8
 1139              		.cfi_offset 3, -8
 1140              		.cfi_offset 14, -4
 521:/home/pi/Developer/tinyusb/src/device/usbd.c **** }
 1141              		.loc 1 521 10 view .LVU213
 1142 0002 FFF7FEFF 		bl	dcd_configure
 1143              	.LVL50:
 522:/home/pi/Developer/tinyusb/src/device/usbd.c **** 
 1144              		.loc 1 522 1 view .LVU214
 1145 0006 08BD     		pop	{r3, pc}
 1146              		.cfi_endproc
 1147              	.LFE481:
 1149              		.section	.text.tud_rhport_init,"ax",%progbits
 1150              		.align	1
 1151              		.p2align 2,,3
 1152              		.global	tud_rhport_init
 1153              		.syntax unified
 1154              		.thumb
 1155              		.thumb_func
 1156              		.fpu fpv5-d16
 1158              	tud_rhport_init:
 1159              	.LVL51:
 1160              	.LFB482:
 524:/home/pi/Developer/tinyusb/src/device/usbd.c ****   if (tud_inited()) {
ARM GAS  /tmp/ccRLxfLU.s 			page 53


 1161              		.loc 1 524 73 is_stmt 1 view -0
 1162              		.cfi_startproc
 1163              		@ args = 0, pretend = 0, frame = 0
 1164              		@ frame_needed = 0, uses_anonymous_args = 0
 525:/home/pi/Developer/tinyusb/src/device/usbd.c ****     return true; // skip if already initialized
 1165              		.loc 1 525 3 view .LVU216
 1166              	.LBB435:
 1167              	.LBI435:
 516:/home/pi/Developer/tinyusb/src/device/usbd.c ****   return _usbd_rhport != RHPORT_INVALID;
 1168              		.loc 1 516 6 view .LVU217
 1169              	.LBB436:
 517:/home/pi/Developer/tinyusb/src/device/usbd.c **** }
 1170              		.loc 1 517 3 view .LVU218
 1171              	.LBE436:
 1172              	.LBE435:
 524:/home/pi/Developer/tinyusb/src/device/usbd.c ****   if (tud_inited()) {
 1173              		.loc 1 524 73 is_stmt 0 view .LVU219
 1174 0000 2DE9F047 		push	{r4, r5, r6, r7, r8, r9, r10, lr}
 1175              		.cfi_def_cfa_offset 32
 1176              		.cfi_offset 4, -32
 1177              		.cfi_offset 5, -28
 1178              		.cfi_offset 6, -24
 1179              		.cfi_offset 7, -20
 1180              		.cfi_offset 8, -16
 1181              		.cfi_offset 9, -12
 1182              		.cfi_offset 10, -8
 1183              		.cfi_offset 14, -4
 1184              	.LBB438:
 1185              	.LBB437:
 517:/home/pi/Developer/tinyusb/src/device/usbd.c **** }
 1186              		.loc 1 517 23 view .LVU220
 1187 0004 364E     		ldr	r6, .L117
 1188              	.LBE437:
 1189              	.LBE438:
 525:/home/pi/Developer/tinyusb/src/device/usbd.c ****     return true; // skip if already initialized
 1190              		.loc 1 525 6 view .LVU221
 1191 0006 3378     		ldrb	r3, [r6]	@ zero_extendqisi2
 1192 0008 FF2B     		cmp	r3, #255
 1193 000a 4BD1     		bne	.L96
 528:/home/pi/Developer/tinyusb/src/device/usbd.c ****  #if CFG_TUSB_DEBUG >= CFG_TUD_LOG_LEVEL
 1194              		.loc 1 528 3 is_stmt 1 view .LVU222
 528:/home/pi/Developer/tinyusb/src/device/usbd.c ****  #if CFG_TUSB_DEBUG >= CFG_TUD_LOG_LEVEL
 1195              		.loc 1 528 3 view .LVU223
 1196 000c 0C46     		mov	r4, r1
 1197 000e 0029     		cmp	r1, #0
 1198 0010 5DD0     		beq	.L116
 528:/home/pi/Developer/tinyusb/src/device/usbd.c ****  #if CFG_TUSB_DEBUG >= CFG_TUD_LOG_LEVEL
 1199              		.loc 1 528 3 discriminator 2 view .LVU224
 554:/home/pi/Developer/tinyusb/src/device/usbd.c ****   _usbd_queued_setup = 0;
 1200              		.loc 1 554 3 discriminator 2 view .LVU225
 1201 0012 5022     		movs	r2, #80
 1202 0014 0021     		movs	r1, #0
 1203              	.LVL52:
 1204              	.LBB439:
 1205              	.LBB440:
 1206              		.file 2 "/home/pi/Developer/tinyusb/src/osal/osal_none.h"
   1:/home/pi/Developer/tinyusb/src/osal/osal_none.h **** /*
ARM GAS  /tmp/ccRLxfLU.s 			page 54


   2:/home/pi/Developer/tinyusb/src/osal/osal_none.h ****  * The MIT License (MIT)
   3:/home/pi/Developer/tinyusb/src/osal/osal_none.h ****  *
   4:/home/pi/Developer/tinyusb/src/osal/osal_none.h ****  * Copyright (c) 2019 Ha Thach (tinyusb.org)
   5:/home/pi/Developer/tinyusb/src/osal/osal_none.h ****  *
   6:/home/pi/Developer/tinyusb/src/osal/osal_none.h ****  * Permission is hereby granted, free of charge, to any person obtaining a copy
   7:/home/pi/Developer/tinyusb/src/osal/osal_none.h ****  * of this software and associated documentation files (the "Software"), to deal
   8:/home/pi/Developer/tinyusb/src/osal/osal_none.h ****  * in the Software without restriction, including without limitation the rights
   9:/home/pi/Developer/tinyusb/src/osal/osal_none.h ****  * to use, copy, modify, merge, publish, distribute, sublicense, and/or sell
  10:/home/pi/Developer/tinyusb/src/osal/osal_none.h ****  * copies of the Software, and to permit persons to whom the Software is
  11:/home/pi/Developer/tinyusb/src/osal/osal_none.h ****  * furnished to do so, subject to the following conditions:
  12:/home/pi/Developer/tinyusb/src/osal/osal_none.h ****  *
  13:/home/pi/Developer/tinyusb/src/osal/osal_none.h ****  * The above copyright notice and this permission notice shall be included in
  14:/home/pi/Developer/tinyusb/src/osal/osal_none.h ****  * all copies or substantial portions of the Software.
  15:/home/pi/Developer/tinyusb/src/osal/osal_none.h ****  *
  16:/home/pi/Developer/tinyusb/src/osal/osal_none.h ****  * THE SOFTWARE IS PROVIDED "AS IS", WITHOUT WARRANTY OF ANY KIND, EXPRESS OR
  17:/home/pi/Developer/tinyusb/src/osal/osal_none.h ****  * IMPLIED, INCLUDING BUT NOT LIMITED TO THE WARRANTIES OF MERCHANTABILITY,
  18:/home/pi/Developer/tinyusb/src/osal/osal_none.h ****  * FITNESS FOR A PARTICULAR PURPOSE AND NONINFRINGEMENT. IN NO EVENT SHALL THE
  19:/home/pi/Developer/tinyusb/src/osal/osal_none.h ****  * AUTHORS OR COPYRIGHT HOLDERS BE LIABLE FOR ANY CLAIM, DAMAGES OR OTHER
  20:/home/pi/Developer/tinyusb/src/osal/osal_none.h ****  * LIABILITY, WHETHER IN AN ACTION OF CONTRACT, TORT OR OTHERWISE, ARISING FROM,
  21:/home/pi/Developer/tinyusb/src/osal/osal_none.h ****  * OUT OF OR IN CONNECTION WITH THE SOFTWARE OR THE USE OR OTHER DEALINGS IN
  22:/home/pi/Developer/tinyusb/src/osal/osal_none.h ****  * THE SOFTWARE.
  23:/home/pi/Developer/tinyusb/src/osal/osal_none.h ****  *
  24:/home/pi/Developer/tinyusb/src/osal/osal_none.h ****  * This file is part of the TinyUSB stack.
  25:/home/pi/Developer/tinyusb/src/osal/osal_none.h ****  */
  26:/home/pi/Developer/tinyusb/src/osal/osal_none.h **** 
  27:/home/pi/Developer/tinyusb/src/osal/osal_none.h **** #ifndef TUSB_OSAL_NONE_H_
  28:/home/pi/Developer/tinyusb/src/osal/osal_none.h **** #define TUSB_OSAL_NONE_H_
  29:/home/pi/Developer/tinyusb/src/osal/osal_none.h **** 
  30:/home/pi/Developer/tinyusb/src/osal/osal_none.h **** #ifdef __cplusplus
  31:/home/pi/Developer/tinyusb/src/osal/osal_none.h **** extern "C" {
  32:/home/pi/Developer/tinyusb/src/osal/osal_none.h **** #endif
  33:/home/pi/Developer/tinyusb/src/osal/osal_none.h **** 
  34:/home/pi/Developer/tinyusb/src/osal/osal_none.h **** // osal_time_millis() is not provided, tusb_time_millis_api() must be implemented by user applicati
  35:/home/pi/Developer/tinyusb/src/osal/osal_none.h **** 
  36:/home/pi/Developer/tinyusb/src/osal/osal_none.h **** //--------------------------------------------------------------------+
  37:/home/pi/Developer/tinyusb/src/osal/osal_none.h **** // Spinlock API
  38:/home/pi/Developer/tinyusb/src/osal/osal_none.h **** //--------------------------------------------------------------------+
  39:/home/pi/Developer/tinyusb/src/osal/osal_none.h **** // Note: This implementation is designed for bare-metal single-core systems without RTOS.
  40:/home/pi/Developer/tinyusb/src/osal/osal_none.h **** // - Supports nested locking within the same execution context
  41:/home/pi/Developer/tinyusb/src/osal/osal_none.h **** // - NOT suitable for true SMP (Symmetric Multi-Processing) systems
  42:/home/pi/Developer/tinyusb/src/osal/osal_none.h **** // - NOT thread-safe for multi-threaded environments
  43:/home/pi/Developer/tinyusb/src/osal/osal_none.h **** // - Primarily manages interrupt enable/disable state for critical sections
  44:/home/pi/Developer/tinyusb/src/osal/osal_none.h **** typedef struct {
  45:/home/pi/Developer/tinyusb/src/osal/osal_none.h ****   void (* interrupt_set)(bool enabled);
  46:/home/pi/Developer/tinyusb/src/osal/osal_none.h ****   uint32_t nested_count;
  47:/home/pi/Developer/tinyusb/src/osal/osal_none.h **** } osal_spinlock_t;
  48:/home/pi/Developer/tinyusb/src/osal/osal_none.h **** 
  49:/home/pi/Developer/tinyusb/src/osal/osal_none.h **** // For SMP, spinlock must be locked by hardware, cannot just use interrupt
  50:/home/pi/Developer/tinyusb/src/osal/osal_none.h **** #define OSAL_SPINLOCK_DEF(_name, _int_set) \
  51:/home/pi/Developer/tinyusb/src/osal/osal_none.h ****   osal_spinlock_t _name = { .interrupt_set = _int_set, .nested_count = 0 }
  52:/home/pi/Developer/tinyusb/src/osal/osal_none.h **** 
  53:/home/pi/Developer/tinyusb/src/osal/osal_none.h **** TU_ATTR_ALWAYS_INLINE static inline void osal_spin_init(osal_spinlock_t *ctx) {
  54:/home/pi/Developer/tinyusb/src/osal/osal_none.h ****   (void) ctx;
  55:/home/pi/Developer/tinyusb/src/osal/osal_none.h **** }
  56:/home/pi/Developer/tinyusb/src/osal/osal_none.h **** 
  57:/home/pi/Developer/tinyusb/src/osal/osal_none.h **** TU_ATTR_ALWAYS_INLINE static inline void osal_spin_lock(osal_spinlock_t *ctx, bool in_isr) {
  58:/home/pi/Developer/tinyusb/src/osal/osal_none.h ****   // Disable interrupts first to make nested_count increment atomic
ARM GAS  /tmp/ccRLxfLU.s 			page 55


  59:/home/pi/Developer/tinyusb/src/osal/osal_none.h ****   if (!in_isr && ctx->nested_count == 0) {
  60:/home/pi/Developer/tinyusb/src/osal/osal_none.h ****     ctx->interrupt_set(false);
  61:/home/pi/Developer/tinyusb/src/osal/osal_none.h ****   }
  62:/home/pi/Developer/tinyusb/src/osal/osal_none.h ****   ctx->nested_count++;
  63:/home/pi/Developer/tinyusb/src/osal/osal_none.h **** }
  64:/home/pi/Developer/tinyusb/src/osal/osal_none.h **** 
  65:/home/pi/Developer/tinyusb/src/osal/osal_none.h **** TU_ATTR_ALWAYS_INLINE static inline void osal_spin_unlock(osal_spinlock_t *ctx, bool in_isr) {
  66:/home/pi/Developer/tinyusb/src/osal/osal_none.h ****   if (ctx->nested_count == 0) {
  67:/home/pi/Developer/tinyusb/src/osal/osal_none.h ****     return; // spin is not locked to begin with
  68:/home/pi/Developer/tinyusb/src/osal/osal_none.h ****   }
  69:/home/pi/Developer/tinyusb/src/osal/osal_none.h **** 
  70:/home/pi/Developer/tinyusb/src/osal/osal_none.h ****   ctx->nested_count--;
  71:/home/pi/Developer/tinyusb/src/osal/osal_none.h **** 
  72:/home/pi/Developer/tinyusb/src/osal/osal_none.h ****   // Only re-enable interrupts when fully unlocked
  73:/home/pi/Developer/tinyusb/src/osal/osal_none.h ****   if (!in_isr && ctx->nested_count == 0) {
  74:/home/pi/Developer/tinyusb/src/osal/osal_none.h ****     ctx->interrupt_set(true);
  75:/home/pi/Developer/tinyusb/src/osal/osal_none.h ****   }
  76:/home/pi/Developer/tinyusb/src/osal/osal_none.h **** }
  77:/home/pi/Developer/tinyusb/src/osal/osal_none.h **** 
  78:/home/pi/Developer/tinyusb/src/osal/osal_none.h **** //--------------------------------------------------------------------+
  79:/home/pi/Developer/tinyusb/src/osal/osal_none.h **** // Binary Semaphore API
  80:/home/pi/Developer/tinyusb/src/osal/osal_none.h **** //--------------------------------------------------------------------+
  81:/home/pi/Developer/tinyusb/src/osal/osal_none.h **** typedef struct {
  82:/home/pi/Developer/tinyusb/src/osal/osal_none.h ****   volatile uint16_t count;
  83:/home/pi/Developer/tinyusb/src/osal/osal_none.h **** } osal_semaphore_def_t;
  84:/home/pi/Developer/tinyusb/src/osal/osal_none.h **** 
  85:/home/pi/Developer/tinyusb/src/osal/osal_none.h **** typedef osal_semaphore_def_t* osal_semaphore_t;
  86:/home/pi/Developer/tinyusb/src/osal/osal_none.h **** 
  87:/home/pi/Developer/tinyusb/src/osal/osal_none.h **** TU_ATTR_ALWAYS_INLINE static inline osal_semaphore_t osal_semaphore_create(osal_semaphore_def_t* se
  88:/home/pi/Developer/tinyusb/src/osal/osal_none.h ****   semdef->count = 0;
  89:/home/pi/Developer/tinyusb/src/osal/osal_none.h ****   return semdef;
  90:/home/pi/Developer/tinyusb/src/osal/osal_none.h **** }
  91:/home/pi/Developer/tinyusb/src/osal/osal_none.h **** 
  92:/home/pi/Developer/tinyusb/src/osal/osal_none.h **** TU_ATTR_ALWAYS_INLINE static inline bool osal_semaphore_delete(osal_semaphore_t semd_hdl) {
  93:/home/pi/Developer/tinyusb/src/osal/osal_none.h ****   (void) semd_hdl;
  94:/home/pi/Developer/tinyusb/src/osal/osal_none.h ****   return true; // nothing to do
  95:/home/pi/Developer/tinyusb/src/osal/osal_none.h **** }
  96:/home/pi/Developer/tinyusb/src/osal/osal_none.h **** 
  97:/home/pi/Developer/tinyusb/src/osal/osal_none.h **** 
  98:/home/pi/Developer/tinyusb/src/osal/osal_none.h **** TU_ATTR_ALWAYS_INLINE static inline bool osal_semaphore_post(osal_semaphore_t sem_hdl, bool in_isr)
  99:/home/pi/Developer/tinyusb/src/osal/osal_none.h ****   (void) in_isr;
 100:/home/pi/Developer/tinyusb/src/osal/osal_none.h ****   sem_hdl->count++;
 101:/home/pi/Developer/tinyusb/src/osal/osal_none.h ****   return true;
 102:/home/pi/Developer/tinyusb/src/osal/osal_none.h **** }
 103:/home/pi/Developer/tinyusb/src/osal/osal_none.h **** 
 104:/home/pi/Developer/tinyusb/src/osal/osal_none.h **** // TODO blocking for now
 105:/home/pi/Developer/tinyusb/src/osal/osal_none.h **** TU_ATTR_ALWAYS_INLINE static inline bool osal_semaphore_wait(osal_semaphore_t sem_hdl, uint32_t mse
 106:/home/pi/Developer/tinyusb/src/osal/osal_none.h ****   (void) msec;
 107:/home/pi/Developer/tinyusb/src/osal/osal_none.h **** 
 108:/home/pi/Developer/tinyusb/src/osal/osal_none.h ****   while (sem_hdl->count == 0) {}
 109:/home/pi/Developer/tinyusb/src/osal/osal_none.h ****   sem_hdl->count--;
 110:/home/pi/Developer/tinyusb/src/osal/osal_none.h **** 
 111:/home/pi/Developer/tinyusb/src/osal/osal_none.h ****   return true;
 112:/home/pi/Developer/tinyusb/src/osal/osal_none.h **** }
 113:/home/pi/Developer/tinyusb/src/osal/osal_none.h **** 
 114:/home/pi/Developer/tinyusb/src/osal/osal_none.h **** TU_ATTR_ALWAYS_INLINE static inline void osal_semaphore_reset(osal_semaphore_t sem_hdl) {
 115:/home/pi/Developer/tinyusb/src/osal/osal_none.h ****   sem_hdl->count = 0;
ARM GAS  /tmp/ccRLxfLU.s 			page 56


 116:/home/pi/Developer/tinyusb/src/osal/osal_none.h **** }
 117:/home/pi/Developer/tinyusb/src/osal/osal_none.h **** 
 118:/home/pi/Developer/tinyusb/src/osal/osal_none.h **** //--------------------------------------------------------------------+
 119:/home/pi/Developer/tinyusb/src/osal/osal_none.h **** // MUTEX API
 120:/home/pi/Developer/tinyusb/src/osal/osal_none.h **** // Within tinyusb, mutex is never used in ISR context
 121:/home/pi/Developer/tinyusb/src/osal/osal_none.h **** //--------------------------------------------------------------------+
 122:/home/pi/Developer/tinyusb/src/osal/osal_none.h **** typedef osal_semaphore_def_t osal_mutex_def_t;
 123:/home/pi/Developer/tinyusb/src/osal/osal_none.h **** typedef osal_semaphore_t osal_mutex_t;
 124:/home/pi/Developer/tinyusb/src/osal/osal_none.h **** 
 125:/home/pi/Developer/tinyusb/src/osal/osal_none.h **** #if OSAL_MUTEX_REQUIRED
 126:/home/pi/Developer/tinyusb/src/osal/osal_none.h **** // Note: multiple cores MCUs usually do provide IPC API for mutex
 127:/home/pi/Developer/tinyusb/src/osal/osal_none.h **** // or we can use std atomic function
 128:/home/pi/Developer/tinyusb/src/osal/osal_none.h **** 
 129:/home/pi/Developer/tinyusb/src/osal/osal_none.h **** TU_ATTR_ALWAYS_INLINE static inline osal_mutex_t osal_mutex_create(osal_mutex_def_t* mdef) {
 130:/home/pi/Developer/tinyusb/src/osal/osal_none.h ****   mdef->count = 1;
 131:/home/pi/Developer/tinyusb/src/osal/osal_none.h ****   return mdef;
 132:/home/pi/Developer/tinyusb/src/osal/osal_none.h **** }
 133:/home/pi/Developer/tinyusb/src/osal/osal_none.h **** 
 134:/home/pi/Developer/tinyusb/src/osal/osal_none.h **** TU_ATTR_ALWAYS_INLINE static inline bool osal_mutex_delete(osal_mutex_t mutex_hdl) {
 135:/home/pi/Developer/tinyusb/src/osal/osal_none.h ****   (void) mutex_hdl;
 136:/home/pi/Developer/tinyusb/src/osal/osal_none.h ****   return true; // nothing to do
 137:/home/pi/Developer/tinyusb/src/osal/osal_none.h **** }
 138:/home/pi/Developer/tinyusb/src/osal/osal_none.h **** 
 139:/home/pi/Developer/tinyusb/src/osal/osal_none.h **** TU_ATTR_ALWAYS_INLINE static inline bool osal_mutex_lock (osal_mutex_t mutex_hdl, uint32_t msec) {
 140:/home/pi/Developer/tinyusb/src/osal/osal_none.h ****   return osal_semaphore_wait(mutex_hdl, msec);
 141:/home/pi/Developer/tinyusb/src/osal/osal_none.h **** }
 142:/home/pi/Developer/tinyusb/src/osal/osal_none.h **** 
 143:/home/pi/Developer/tinyusb/src/osal/osal_none.h **** TU_ATTR_ALWAYS_INLINE static inline bool osal_mutex_unlock(osal_mutex_t mutex_hdl) {
 144:/home/pi/Developer/tinyusb/src/osal/osal_none.h ****   return osal_semaphore_post(mutex_hdl, false);
 145:/home/pi/Developer/tinyusb/src/osal/osal_none.h **** }
 146:/home/pi/Developer/tinyusb/src/osal/osal_none.h **** 
 147:/home/pi/Developer/tinyusb/src/osal/osal_none.h **** #else
 148:/home/pi/Developer/tinyusb/src/osal/osal_none.h **** 
 149:/home/pi/Developer/tinyusb/src/osal/osal_none.h **** #define osal_mutex_create(_mdef)          (NULL)
 150:/home/pi/Developer/tinyusb/src/osal/osal_none.h **** #define osal_mutex_lock(_mutex_hdl, _ms)  (true)
 151:/home/pi/Developer/tinyusb/src/osal/osal_none.h **** #define osal_mutex_unlock(_mutex_hdl)     (true)
 152:/home/pi/Developer/tinyusb/src/osal/osal_none.h **** 
 153:/home/pi/Developer/tinyusb/src/osal/osal_none.h **** #endif
 154:/home/pi/Developer/tinyusb/src/osal/osal_none.h **** 
 155:/home/pi/Developer/tinyusb/src/osal/osal_none.h **** //--------------------------------------------------------------------+
 156:/home/pi/Developer/tinyusb/src/osal/osal_none.h **** // QUEUE API
 157:/home/pi/Developer/tinyusb/src/osal/osal_none.h **** //--------------------------------------------------------------------+
 158:/home/pi/Developer/tinyusb/src/osal/osal_none.h **** #include "common/tusb_fifo.h"
 159:/home/pi/Developer/tinyusb/src/osal/osal_none.h **** 
 160:/home/pi/Developer/tinyusb/src/osal/osal_none.h **** typedef struct {
 161:/home/pi/Developer/tinyusb/src/osal/osal_none.h ****   void (* interrupt_set)(bool enabled);
 162:/home/pi/Developer/tinyusb/src/osal/osal_none.h ****   uint16_t  item_size;
 163:/home/pi/Developer/tinyusb/src/osal/osal_none.h ****   tu_fifo_t ff;
 164:/home/pi/Developer/tinyusb/src/osal/osal_none.h **** } osal_queue_def_t;
 165:/home/pi/Developer/tinyusb/src/osal/osal_none.h **** 
 166:/home/pi/Developer/tinyusb/src/osal/osal_none.h **** typedef osal_queue_def_t* osal_queue_t;
 167:/home/pi/Developer/tinyusb/src/osal/osal_none.h **** 
 168:/home/pi/Developer/tinyusb/src/osal/osal_none.h **** // _int_set is used as mutex in OS NONE (disable/enable USB ISR)
 169:/home/pi/Developer/tinyusb/src/osal/osal_none.h **** #define OSAL_QUEUE_DEF(_int_set, _name, _depth, _type)                                             
 170:/home/pi/Developer/tinyusb/src/osal/osal_none.h ****   uint8_t          _name##_buf[_depth * sizeof(_type)];                                            
 171:/home/pi/Developer/tinyusb/src/osal/osal_none.h ****   osal_queue_def_t _name = {.interrupt_set = _int_set,                                             
 172:/home/pi/Developer/tinyusb/src/osal/osal_none.h ****                             .item_size     = sizeof(_type),                                        
ARM GAS  /tmp/ccRLxfLU.s 			page 57


 173:/home/pi/Developer/tinyusb/src/osal/osal_none.h ****                             .ff            = TU_FIFO_INIT(_name##_buf, _depth * sizeof(_type), fals
 174:/home/pi/Developer/tinyusb/src/osal/osal_none.h **** 
 175:/home/pi/Developer/tinyusb/src/osal/osal_none.h **** TU_ATTR_ALWAYS_INLINE static inline osal_queue_t osal_queue_create(osal_queue_def_t* qdef) {
 176:/home/pi/Developer/tinyusb/src/osal/osal_none.h ****   tu_fifo_clear(&qdef->ff);
 1207              		.loc 2 176 3 is_stmt 0 discriminator 2 view .LVU226
 1208 0016 DFF8DC80 		ldr	r8, .L117+20
 1209 001a 0546     		mov	r5, r0
 1210              	.LBE440:
 1211              	.LBE439:
 554:/home/pi/Developer/tinyusb/src/device/usbd.c ****   _usbd_queued_setup = 0;
 1212              		.loc 1 554 3 discriminator 2 view .LVU227
 1213 001c 3148     		ldr	r0, .L117+4
 1214              	.LVL53:
 555:/home/pi/Developer/tinyusb/src/device/usbd.c **** 
 1215              		.loc 1 555 22 discriminator 2 view .LVU228
 1216 001e 4FF00009 		mov	r9, #0
 554:/home/pi/Developer/tinyusb/src/device/usbd.c ****   _usbd_queued_setup = 0;
 1217              		.loc 1 554 3 discriminator 2 view .LVU229
 1218 0022 FFF7FEFF 		bl	memset
 1219              	.LVL54:
 555:/home/pi/Developer/tinyusb/src/device/usbd.c **** 
 1220              		.loc 1 555 3 is_stmt 1 discriminator 2 view .LVU230
 555:/home/pi/Developer/tinyusb/src/device/usbd.c **** 
 1221              		.loc 1 555 22 is_stmt 0 discriminator 2 view .LVU231
 1222 0026 304B     		ldr	r3, .L117+8
 1223              	.LBB443:
 1224              	.LBB441:
 1225              		.loc 2 176 3 discriminator 2 view .LVU232
 1226 0028 08F10800 		add	r0, r8, #8
 1227              	.LBE441:
 1228              	.LBE443:
 570:/home/pi/Developer/tinyusb/src/device/usbd.c ****   TU_ASSERT(_app_driver_count + BUILTIN_DRIVER_COUNT <= UINT8_MAX);
 1229              		.loc 1 570 17 discriminator 2 view .LVU233
 1230 002c 2F4F     		ldr	r7, .L117+12
 555:/home/pi/Developer/tinyusb/src/device/usbd.c **** 
 1231              		.loc 1 555 22 discriminator 2 view .LVU234
 1232 002e 83F80090 		strb	r9, [r3]
 557:/home/pi/Developer/tinyusb/src/device/usbd.c **** 
 1233              		.loc 1 557 3 is_stmt 1 discriminator 2 view .LVU235
 1234              	.LVL55:
  54:/home/pi/Developer/tinyusb/src/osal/osal_none.h **** }
 1235              		.loc 2 54 3 discriminator 2 view .LVU236
 566:/home/pi/Developer/tinyusb/src/device/usbd.c ****   TU_ASSERT(_usbd_q);
 1236              		.loc 1 566 3 discriminator 2 view .LVU237
 1237              	.LBB444:
 1238              	.LBI439:
 175:/home/pi/Developer/tinyusb/src/osal/osal_none.h ****   tu_fifo_clear(&qdef->ff);
 1239              		.loc 2 175 50 discriminator 2 view .LVU238
 1240              	.LBB442:
 1241              		.loc 2 176 3 discriminator 2 view .LVU239
 1242 0032 FFF7FEFF 		bl	tu_fifo_clear
 1243              	.LVL56:
 177:/home/pi/Developer/tinyusb/src/osal/osal_none.h ****   return (osal_queue_t) qdef;
 1244              		.loc 2 177 3 discriminator 2 view .LVU240
 1245              		.loc 2 177 3 is_stmt 0 discriminator 2 view .LVU241
 1246              	.LBE442:
 1247              	.LBE444:
ARM GAS  /tmp/ccRLxfLU.s 			page 58


 566:/home/pi/Developer/tinyusb/src/device/usbd.c ****   TU_ASSERT(_usbd_q);
 1248              		.loc 1 566 11 discriminator 2 view .LVU242
 1249 0036 2E4B     		ldr	r3, .L117+16
 570:/home/pi/Developer/tinyusb/src/device/usbd.c ****   TU_ASSERT(_app_driver_count + BUILTIN_DRIVER_COUNT <= UINT8_MAX);
 1250              		.loc 1 570 17 discriminator 2 view .LVU243
 1251 0038 3846     		mov	r0, r7
 570:/home/pi/Developer/tinyusb/src/device/usbd.c ****   TU_ASSERT(_app_driver_count + BUILTIN_DRIVER_COUNT <= UINT8_MAX);
 1252              		.loc 1 570 15 discriminator 2 view .LVU244
 1253 003a DFF8BCA0 		ldr	r10, .L117+24
 566:/home/pi/Developer/tinyusb/src/device/usbd.c ****   TU_ASSERT(_usbd_q);
 1254              		.loc 1 566 11 discriminator 2 view .LVU245
 1255 003e C3F80080 		str	r8, [r3]
 567:/home/pi/Developer/tinyusb/src/device/usbd.c **** 
 1256              		.loc 1 567 3 is_stmt 1 discriminator 2 view .LVU246
 567:/home/pi/Developer/tinyusb/src/device/usbd.c **** 
 1257              		.loc 1 567 3 discriminator 2 view .LVU247
 567:/home/pi/Developer/tinyusb/src/device/usbd.c **** 
 1258              		.loc 1 567 3 discriminator 2 view .LVU248
 570:/home/pi/Developer/tinyusb/src/device/usbd.c ****   TU_ASSERT(_app_driver_count + BUILTIN_DRIVER_COUNT <= UINT8_MAX);
 1259              		.loc 1 570 3 discriminator 2 view .LVU249
 570:/home/pi/Developer/tinyusb/src/device/usbd.c ****   TU_ASSERT(_app_driver_count + BUILTIN_DRIVER_COUNT <= UINT8_MAX);
 1260              		.loc 1 570 17 is_stmt 0 discriminator 2 view .LVU250
 1261 0042 FFF7FEFF 		bl	usbd_app_driver_get_cb
 1262              	.LVL57:
 571:/home/pi/Developer/tinyusb/src/device/usbd.c **** 
 1263              		.loc 1 571 3 discriminator 2 view .LVU251
 1264 0046 97F800C0 		ldrb	ip, [r7]	@ zero_extendqisi2
 570:/home/pi/Developer/tinyusb/src/device/usbd.c ****   TU_ASSERT(_app_driver_count + BUILTIN_DRIVER_COUNT <= UINT8_MAX);
 1265              		.loc 1 570 15 discriminator 2 view .LVU252
 1266 004a CAF80000 		str	r0, [r10]
 571:/home/pi/Developer/tinyusb/src/device/usbd.c **** 
 1267              		.loc 1 571 3 is_stmt 1 discriminator 2 view .LVU253
 571:/home/pi/Developer/tinyusb/src/device/usbd.c **** 
 1268              		.loc 1 571 3 discriminator 2 view .LVU254
 1269 004e BCF1FD0F 		cmp	ip, #253
 1270 0052 31D8     		bhi	.L92
 1271              	.LBB445:
 1272              	.LBB446:
 1273              	.LBB447:
 1274              	.LBB448:
 387:/home/pi/Developer/tinyusb/src/device/usbd.c ****     }
 1275              		.loc 1 387 14 is_stmt 0 view .LVU255
 1276 0054 DFF8A480 		ldr	r8, .L117+28
 1277 0058 4B46     		mov	r3, r9
 1278              	.L89:
 1279              	.LVL58:
 387:/home/pi/Developer/tinyusb/src/device/usbd.c ****     }
 1280              		.loc 1 387 14 view .LVU256
 1281              	.LBE448:
 1282              	.LBE447:
 575:/home/pi/Developer/tinyusb/src/device/usbd.c ****     TU_ASSERT(driver && driver->init);
 1283              		.loc 1 575 5 is_stmt 1 view .LVU257
 1284              	.LBB454:
 1285              	.LBI447:
 379:/home/pi/Developer/tinyusb/src/device/usbd.c ****   usbd_class_driver_t const *driver = NULL;
 1286              		.loc 1 379 65 view .LVU258
 1287              	.LBB449:
ARM GAS  /tmp/ccRLxfLU.s 			page 59


 380:/home/pi/Developer/tinyusb/src/device/usbd.c ****   if (drvid < _app_driver_count) {
 1288              		.loc 1 380 3 view .LVU259
 381:/home/pi/Developer/tinyusb/src/device/usbd.c ****     // Application drivers
 1289              		.loc 1 381 3 view .LVU260
 383:/home/pi/Developer/tinyusb/src/device/usbd.c ****   } else{
 1290              		.loc 1 383 5 view .LVU261
 385:/home/pi/Developer/tinyusb/src/device/usbd.c ****     if (drvid < BUILTIN_DRIVER_COUNT) {
 1291              		.loc 1 385 5 view .LVU262
 385:/home/pi/Developer/tinyusb/src/device/usbd.c ****     if (drvid < BUILTIN_DRIVER_COUNT) {
 1292              		.loc 1 385 5 is_stmt 0 view .LVU263
 1293              	.LBE449:
 1294              	.LBE454:
 576:/home/pi/Developer/tinyusb/src/device/usbd.c ****     TU_LOG_USBD("%s init\r\n", driver->name);
 1295              		.loc 1 576 5 is_stmt 1 view .LVU264
 577:/home/pi/Developer/tinyusb/src/device/usbd.c ****     driver->init();
 1296              		.loc 1 577 45 view .LVU265
 578:/home/pi/Developer/tinyusb/src/device/usbd.c ****   }
 1297              		.loc 1 578 5 view .LVU266
 1298              	.LBB455:
 1299              	.LBB450:
 385:/home/pi/Developer/tinyusb/src/device/usbd.c ****     if (drvid < BUILTIN_DRIVER_COUNT) {
 1300              		.loc 1 385 11 is_stmt 0 view .LVU267
 1301 005a A3EB0C02 		sub	r2, r3, ip
 381:/home/pi/Developer/tinyusb/src/device/usbd.c ****     // Application drivers
 1302              		.loc 1 381 6 view .LVU268
 1303 005e 6345     		cmp	r3, ip
 383:/home/pi/Developer/tinyusb/src/device/usbd.c ****   } else{
 1304              		.loc 1 383 26 view .LVU269
 1305 0060 03EBC301 		add	r1, r3, r3, lsl #3
 1306              	.LBE450:
 1307              	.LBE455:
 1308              	.LBE446:
 574:/home/pi/Developer/tinyusb/src/device/usbd.c ****     usbd_class_driver_t const* driver = get_driver(i);
 1309              		.loc 1 574 3 view .LVU270
 1310 0064 09F10109 		add	r9, r9, #1
 1311              	.LBB460:
 1312              	.LBB456:
 1313              	.LBB451:
 385:/home/pi/Developer/tinyusb/src/device/usbd.c ****     if (drvid < BUILTIN_DRIVER_COUNT) {
 1314              		.loc 1 385 11 view .LVU271
 1315 0068 D3B2     		uxtb	r3, r2
 1316              	.LVL59:
 386:/home/pi/Developer/tinyusb/src/device/usbd.c ****       driver = &_usbd_driver[drvid];
 1317              		.loc 1 386 5 is_stmt 1 view .LVU272
 381:/home/pi/Developer/tinyusb/src/device/usbd.c ****     // Application drivers
 1318              		.loc 1 381 6 is_stmt 0 view .LVU273
 1319 006a 1FD2     		bcs	.L91
 383:/home/pi/Developer/tinyusb/src/device/usbd.c ****   } else{
 1320              		.loc 1 383 12 view .LVU274
 1321 006c DAF80030 		ldr	r3, [r10]
 1322              	.LVL60:
 391:/home/pi/Developer/tinyusb/src/device/usbd.c **** }
 1323              		.loc 1 391 3 is_stmt 1 view .LVU275
 391:/home/pi/Developer/tinyusb/src/device/usbd.c **** }
 1324              		.loc 1 391 3 is_stmt 0 view .LVU276
 1325              	.LBE451:
 1326              	.LBE456:
ARM GAS  /tmp/ccRLxfLU.s 			page 60


 576:/home/pi/Developer/tinyusb/src/device/usbd.c ****     TU_LOG_USBD("%s init\r\n", driver->name);
 1327              		.loc 1 576 5 is_stmt 1 view .LVU277
 576:/home/pi/Developer/tinyusb/src/device/usbd.c ****     TU_LOG_USBD("%s init\r\n", driver->name);
 1328              		.loc 1 576 5 view .LVU278
 1329 0070 13EB8103 		adds	r3, r3, r1, lsl #2
 1330              	.LVL61:
 576:/home/pi/Developer/tinyusb/src/device/usbd.c ****     TU_LOG_USBD("%s init\r\n", driver->name);
 1331              		.loc 1 576 5 is_stmt 0 view .LVU279
 1332 0074 20D0     		beq	.L92
 1333              	.LVL62:
 1334              	.L93:
 576:/home/pi/Developer/tinyusb/src/device/usbd.c ****     TU_LOG_USBD("%s init\r\n", driver->name);
 1335              		.loc 1 576 5 discriminator 2 view .LVU280
 1336 0076 5B68     		ldr	r3, [r3, #4]
 1337              	.LVL63:
 576:/home/pi/Developer/tinyusb/src/device/usbd.c ****     TU_LOG_USBD("%s init\r\n", driver->name);
 1338              		.loc 1 576 5 discriminator 2 view .LVU281
 1339 0078 F3B1     		cbz	r3, .L92
 578:/home/pi/Developer/tinyusb/src/device/usbd.c ****   }
 1340              		.loc 1 578 5 discriminator 4 view .LVU282
 1341 007a 9847     		blx	r3
 1342              	.LVL64:
 1343              	.LBE460:
 574:/home/pi/Developer/tinyusb/src/device/usbd.c ****     usbd_class_driver_t const* driver = get_driver(i);
 1344              		.loc 1 574 47 is_stmt 1 discriminator 4 view .LVU283
 574:/home/pi/Developer/tinyusb/src/device/usbd.c ****     usbd_class_driver_t const* driver = get_driver(i);
 1345              		.loc 1 574 23 discriminator 4 view .LVU284
 574:/home/pi/Developer/tinyusb/src/device/usbd.c ****     usbd_class_driver_t const* driver = get_driver(i);
 1346              		.loc 1 574 27 is_stmt 0 discriminator 4 view .LVU285
 1347 007c 97F800C0 		ldrb	ip, [r7]	@ zero_extendqisi2
 574:/home/pi/Developer/tinyusb/src/device/usbd.c ****     usbd_class_driver_t const* driver = get_driver(i);
 1348              		.loc 1 574 3 discriminator 4 view .LVU286
 1349 0080 5FFA89F3 		uxtb	r3, r9
 574:/home/pi/Developer/tinyusb/src/device/usbd.c ****     usbd_class_driver_t const* driver = get_driver(i);
 1350              		.loc 1 574 27 discriminator 4 view .LVU287
 1351 0084 0CF10202 		add	r2, ip, #2
 574:/home/pi/Developer/tinyusb/src/device/usbd.c ****     usbd_class_driver_t const* driver = get_driver(i);
 1352              		.loc 1 574 3 discriminator 4 view .LVU288
 1353 0088 D2B2     		uxtb	r2, r2
 1354 008a 9A42     		cmp	r2, r3
 1355 008c E5D8     		bhi	.L89
 1356              	.LBE445:
 581:/home/pi/Developer/tinyusb/src/device/usbd.c **** 
 1357              		.loc 1 581 3 is_stmt 1 view .LVU289
 584:/home/pi/Developer/tinyusb/src/device/usbd.c ****   dcd_int_enable(rhport);
 1358              		.loc 1 584 3 is_stmt 0 view .LVU290
 1359 008e 2146     		mov	r1, r4
 1360 0090 2846     		mov	r0, r5
 581:/home/pi/Developer/tinyusb/src/device/usbd.c **** 
 1361              		.loc 1 581 16 view .LVU291
 1362 0092 3570     		strb	r5, [r6]
 584:/home/pi/Developer/tinyusb/src/device/usbd.c ****   dcd_int_enable(rhport);
 1363              		.loc 1 584 3 is_stmt 1 view .LVU292
 584:/home/pi/Developer/tinyusb/src/device/usbd.c ****   dcd_int_enable(rhport);
 1364              		.loc 1 584 3 view .LVU293
 1365 0094 FFF7FEFF 		bl	dcd_init
 1366              	.LVL65:
ARM GAS  /tmp/ccRLxfLU.s 			page 61


 1367 0098 0446     		mov	r4, r0
 1368              	.LVL66:
 584:/home/pi/Developer/tinyusb/src/device/usbd.c ****   dcd_int_enable(rhport);
 1369              		.loc 1 584 3 is_stmt 0 view .LVU294
 1370 009a C0B1     		cbz	r0, .L116
 584:/home/pi/Developer/tinyusb/src/device/usbd.c ****   dcd_int_enable(rhport);
 1371              		.loc 1 584 3 is_stmt 1 discriminator 2 view .LVU295
 585:/home/pi/Developer/tinyusb/src/device/usbd.c **** 
 1372              		.loc 1 585 3 discriminator 2 view .LVU296
 1373 009c 2846     		mov	r0, r5
 1374 009e FFF7FEFF 		bl	dcd_int_enable
 1375              	.LVL67:
 587:/home/pi/Developer/tinyusb/src/device/usbd.c **** }
 1376              		.loc 1 587 3 discriminator 2 view .LVU297
 587:/home/pi/Developer/tinyusb/src/device/usbd.c **** }
 1377              		.loc 1 587 10 is_stmt 0 discriminator 2 view .LVU298
 1378 00a2 00E0     		b	.L86
 1379              	.LVL68:
 1380              	.L96:
 526:/home/pi/Developer/tinyusb/src/device/usbd.c ****   }
 1381              		.loc 1 526 12 view .LVU299
 1382 00a4 0124     		movs	r4, #1
 1383              	.LVL69:
 1384              	.L86:
 588:/home/pi/Developer/tinyusb/src/device/usbd.c **** 
 1385              		.loc 1 588 1 view .LVU300
 1386 00a6 2046     		mov	r0, r4
 1387 00a8 BDE8F087 		pop	{r4, r5, r6, r7, r8, r9, r10, pc}
 1388              	.LVL70:
 1389              	.L91:
 1390              	.LBB462:
 1391              	.LBB461:
 1392              	.LBB457:
 1393              	.LBB452:
 387:/home/pi/Developer/tinyusb/src/device/usbd.c ****     }
 1394              		.loc 1 387 7 is_stmt 1 view .LVU301
 387:/home/pi/Developer/tinyusb/src/device/usbd.c ****     }
 1395              		.loc 1 387 14 is_stmt 0 view .LVU302
 1396 00ac 03EBC302 		add	r2, r3, r3, lsl #3
 386:/home/pi/Developer/tinyusb/src/device/usbd.c ****       driver = &_usbd_driver[drvid];
 1397              		.loc 1 386 8 view .LVU303
 1398 00b0 012B     		cmp	r3, #1
 387:/home/pi/Developer/tinyusb/src/device/usbd.c ****     }
 1399              		.loc 1 387 14 view .LVU304
 1400 00b2 08EB8203 		add	r3, r8, r2, lsl #2
 1401              	.LVL71:
 391:/home/pi/Developer/tinyusb/src/device/usbd.c **** }
 1402              		.loc 1 391 3 is_stmt 1 view .LVU305
 391:/home/pi/Developer/tinyusb/src/device/usbd.c **** }
 1403              		.loc 1 391 3 is_stmt 0 view .LVU306
 1404              	.LBE452:
 1405              	.LBE457:
 576:/home/pi/Developer/tinyusb/src/device/usbd.c ****     TU_LOG_USBD("%s init\r\n", driver->name);
 1406              		.loc 1 576 5 is_stmt 1 view .LVU307
 576:/home/pi/Developer/tinyusb/src/device/usbd.c ****     TU_LOG_USBD("%s init\r\n", driver->name);
 1407              		.loc 1 576 5 view .LVU308
 1408              	.LBB458:
ARM GAS  /tmp/ccRLxfLU.s 			page 62


 1409              	.LBB453:
 386:/home/pi/Developer/tinyusb/src/device/usbd.c ****       driver = &_usbd_driver[drvid];
 1410              		.loc 1 386 8 is_stmt 0 view .LVU309
 1411 00b6 DED9     		bls	.L93
 1412              	.LVL72:
 1413              	.L92:
 386:/home/pi/Developer/tinyusb/src/device/usbd.c ****       driver = &_usbd_driver[drvid];
 1414              		.loc 1 386 8 view .LVU310
 1415              	.LBE453:
 1416              	.LBE458:
 576:/home/pi/Developer/tinyusb/src/device/usbd.c ****     TU_LOG_USBD("%s init\r\n", driver->name);
 1417              		.loc 1 576 5 is_stmt 1 discriminator 3 view .LVU311
 576:/home/pi/Developer/tinyusb/src/device/usbd.c ****     TU_LOG_USBD("%s init\r\n", driver->name);
 1418              		.loc 1 576 5 discriminator 3 view .LVU312
 576:/home/pi/Developer/tinyusb/src/device/usbd.c ****     TU_LOG_USBD("%s init\r\n", driver->name);
 1419              		.loc 1 576 5 discriminator 3 view .LVU313
 576:/home/pi/Developer/tinyusb/src/device/usbd.c ****     TU_LOG_USBD("%s init\r\n", driver->name);
 1420              		.loc 1 576 5 discriminator 3 view .LVU314
 1421              	.LBB459:
 576:/home/pi/Developer/tinyusb/src/device/usbd.c ****     TU_LOG_USBD("%s init\r\n", driver->name);
 1422              		.loc 1 576 5 discriminator 3 view .LVU315
 576:/home/pi/Developer/tinyusb/src/device/usbd.c ****     TU_LOG_USBD("%s init\r\n", driver->name);
 1423              		.loc 1 576 5 discriminator 3 view .LVU316
 1424 00b8 4FF0E023 		mov	r3, #-536813568
 1425 00bc D3F8F03D 		ldr	r3, [r3, #3568]
 1426 00c0 DA07     		lsls	r2, r3, #31
 1427 00c2 00D5     		bpl	.L112
 576:/home/pi/Developer/tinyusb/src/device/usbd.c ****     TU_LOG_USBD("%s init\r\n", driver->name);
 1428              		.loc 1 576 5 discriminator 5 view .LVU317
 1429              		.syntax unified
 1430              	@ 576 "/home/pi/Developer/tinyusb/src/device/usbd.c" 1
 1431 00c4 00BE     		BKPT #0
 1432              	
 1433              	@ 0 "" 2
 1434              	.LVL73:
 1435              		.thumb
 1436              		.syntax unified
 1437              	.L112:
 576:/home/pi/Developer/tinyusb/src/device/usbd.c ****     TU_LOG_USBD("%s init\r\n", driver->name);
 1438              		.loc 1 576 5 is_stmt 0 discriminator 5 view .LVU318
 1439              	.LBE459:
 1440 00c6 0024     		movs	r4, #0
 1441              	.LBE461:
 1442              	.LBE462:
 588:/home/pi/Developer/tinyusb/src/device/usbd.c **** 
 1443              		.loc 1 588 1 discriminator 5 view .LVU319
 1444 00c8 2046     		mov	r0, r4
 1445 00ca BDE8F087 		pop	{r4, r5, r6, r7, r8, r9, r10, pc}
 1446              	.L116:
 584:/home/pi/Developer/tinyusb/src/device/usbd.c ****   dcd_int_enable(rhport);
 1447              		.loc 1 584 3 is_stmt 1 discriminator 1 view .LVU320
 584:/home/pi/Developer/tinyusb/src/device/usbd.c ****   dcd_int_enable(rhport);
 1448              		.loc 1 584 3 discriminator 1 view .LVU321
 584:/home/pi/Developer/tinyusb/src/device/usbd.c ****   dcd_int_enable(rhport);
 1449              		.loc 1 584 3 discriminator 1 view .LVU322
 584:/home/pi/Developer/tinyusb/src/device/usbd.c ****   dcd_int_enable(rhport);
 1450              		.loc 1 584 3 discriminator 1 view .LVU323
ARM GAS  /tmp/ccRLxfLU.s 			page 63


 1451              	.LBB463:
 584:/home/pi/Developer/tinyusb/src/device/usbd.c ****   dcd_int_enable(rhport);
 1452              		.loc 1 584 3 discriminator 1 view .LVU324
 1453              	.LVL74:
 584:/home/pi/Developer/tinyusb/src/device/usbd.c ****   dcd_int_enable(rhport);
 1454              		.loc 1 584 3 discriminator 1 view .LVU325
 1455 00ce 4FF0E023 		mov	r3, #-536813568
 1456 00d2 D3F8F03D 		ldr	r3, [r3, #3568]
 1457 00d6 DB07     		lsls	r3, r3, #31
 1458 00d8 F5D5     		bpl	.L112
 584:/home/pi/Developer/tinyusb/src/device/usbd.c ****   dcd_int_enable(rhport);
 1459              		.loc 1 584 3 discriminator 3 view .LVU326
 1460              		.syntax unified
 1461              	@ 584 "/home/pi/Developer/tinyusb/src/device/usbd.c" 1
 1462 00da 00BE     		BKPT #0
 1463              	
 1464              	@ 0 "" 2
 1465              		.thumb
 1466              		.syntax unified
 1467 00dc E3E7     		b	.L86
 1468              	.L118:
 1469 00de 00BF     		.align	2
 1470              	.L117:
 1471 00e0 00000000 		.word	.LANCHOR4
 1472 00e4 00000000 		.word	.LANCHOR3
 1473 00e8 00000000 		.word	.LANCHOR5
 1474 00ec 00000000 		.word	.LANCHOR0
 1475 00f0 00000000 		.word	.LANCHOR7
 1476 00f4 00000000 		.word	.LANCHOR6
 1477 00f8 00000000 		.word	.LANCHOR1
 1478 00fc 00000000 		.word	.LANCHOR2
 1479              	.LBE463:
 1480              		.cfi_endproc
 1481              	.LFE482:
 1483              		.section	.text.tud_deinit,"ax",%progbits
 1484              		.align	1
 1485              		.p2align 2,,3
 1486              		.global	tud_deinit
 1487              		.syntax unified
 1488              		.thumb
 1489              		.thumb_func
 1490              		.fpu fpv5-d16
 1492              	tud_deinit:
 1493              	.LVL75:
 1494              	.LFB483:
 590:/home/pi/Developer/tinyusb/src/device/usbd.c ****   if (!tud_inited()) {
 1495              		.loc 1 590 33 view -0
 1496              		.cfi_startproc
 1497              		@ args = 0, pretend = 0, frame = 0
 1498              		@ frame_needed = 0, uses_anonymous_args = 0
 591:/home/pi/Developer/tinyusb/src/device/usbd.c ****     return true; // skip if not initialized
 1499              		.loc 1 591 3 view .LVU328
 1500              	.LBB464:
 1501              	.LBI464:
 516:/home/pi/Developer/tinyusb/src/device/usbd.c ****   return _usbd_rhport != RHPORT_INVALID;
 1502              		.loc 1 516 6 view .LVU329
 1503              	.LBB465:
ARM GAS  /tmp/ccRLxfLU.s 			page 64


 517:/home/pi/Developer/tinyusb/src/device/usbd.c **** }
 1504              		.loc 1 517 3 view .LVU330
 1505              	.LBE465:
 1506              	.LBE464:
 590:/home/pi/Developer/tinyusb/src/device/usbd.c ****   if (!tud_inited()) {
 1507              		.loc 1 590 33 is_stmt 0 view .LVU331
 1508 0000 2DE9F047 		push	{r4, r5, r6, r7, r8, r9, r10, lr}
 1509              		.cfi_def_cfa_offset 32
 1510              		.cfi_offset 4, -32
 1511              		.cfi_offset 5, -28
 1512              		.cfi_offset 6, -24
 1513              		.cfi_offset 7, -20
 1514              		.cfi_offset 8, -16
 1515              		.cfi_offset 9, -12
 1516              		.cfi_offset 10, -8
 1517              		.cfi_offset 14, -4
 1518              	.LBB467:
 1519              	.LBB466:
 517:/home/pi/Developer/tinyusb/src/device/usbd.c **** }
 1520              		.loc 1 517 23 view .LVU332
 1521 0004 2D4D     		ldr	r5, .L143
 1522              	.LBE466:
 1523              	.LBE467:
 591:/home/pi/Developer/tinyusb/src/device/usbd.c ****     return true; // skip if not initialized
 1524              		.loc 1 591 6 view .LVU333
 1525 0006 2B78     		ldrb	r3, [r5]	@ zero_extendqisi2
 1526 0008 FF2B     		cmp	r3, #255
 1527 000a 44D0     		beq	.L128
 595:/home/pi/Developer/tinyusb/src/device/usbd.c **** 
 1528              		.loc 1 595 58 is_stmt 1 view .LVU334
 597:/home/pi/Developer/tinyusb/src/device/usbd.c **** 
 1529              		.loc 1 597 3 view .LVU335
