ARM GAS  /tmp/cc3fe7I0.s 			page 1


   1              		.cpu cortex-m7
   2              		.eabi_attribute 28, 1
   3              		.eabi_attribute 20, 1
   4              		.eabi_attribute 21, 1
   5              		.eabi_attribute 23, 3
   6              		.eabi_attribute 24, 1
   7              		.eabi_attribute 25, 1
   8              		.eabi_attribute 26, 1
   9              		.eabi_attribute 30, 2
  10              		.eabi_attribute 34, 1
  11              		.eabi_attribute 18, 4
  12              		.file	"TinyUsbCdcExternal.cpp"
  13              		.text
  14              	.Ltext0:
  15              		.cfi_sections	.debug_frame
  16              		.section	.text._ZN5daisy9DaisySeedD2Ev,"axG",%progbits,_ZN5daisy9DaisySeedD5Ev,comdat
  17              		.align	1
  18              		.p2align 2,,3
  19              		.weak	_ZN5daisy9DaisySeedD2Ev
  20              		.arch armv7e-m
  21              		.syntax unified
  22              		.thumb
  23              		.thumb_func
  24              		.fpu fpv5-d16
  26              	_ZN5daisy9DaisySeedD2Ev:
  27              	.LVL0:
  28              	.LFB2555:
  29              		.file 1 "../../libDaisy/src/daisy_seed.h"
   1:../../libDaisy/src/daisy_seed.h **** #pragma once
   2:../../libDaisy/src/daisy_seed.h **** #ifndef DSY_SEED_H
   3:../../libDaisy/src/daisy_seed.h **** #define DSY_SEED_H
   4:../../libDaisy/src/daisy_seed.h **** 
   5:../../libDaisy/src/daisy_seed.h **** #include "daisy.h"
   6:../../libDaisy/src/daisy_seed.h **** 
   7:../../libDaisy/src/daisy_seed.h **** //Uncomment this out if you're still using the rev2 hardware
   8:../../libDaisy/src/daisy_seed.h **** //#define SEED_REV2
   9:../../libDaisy/src/daisy_seed.h **** 
  10:../../libDaisy/src/daisy_seed.h **** namespace daisy
  11:../../libDaisy/src/daisy_seed.h **** {
  12:../../libDaisy/src/daisy_seed.h **** /**
  13:../../libDaisy/src/daisy_seed.h ****    @brief This is the higher-level interface for the Daisy board. \n 
  14:../../libDaisy/src/daisy_seed.h ****     All basic peripheral configuration/initialization is setup here. \n
  15:../../libDaisy/src/daisy_seed.h **** 
  16:../../libDaisy/src/daisy_seed.h ****    @ingroup boards
  17:../../libDaisy/src/daisy_seed.h **** */
  18:../../libDaisy/src/daisy_seed.h **** class DaisySeed
  19:../../libDaisy/src/daisy_seed.h **** {
  20:../../libDaisy/src/daisy_seed.h ****   public:
  21:../../libDaisy/src/daisy_seed.h ****     DaisySeed() {}
  22:../../libDaisy/src/daisy_seed.h ****     ~DaisySeed() {}
  30              		.loc 1 22 5 view -0
  31              		.cfi_startproc
  32              		@ args = 0, pretend = 0, frame = 0
  33              		@ frame_needed = 0, uses_anonymous_args = 0
  34              		@ link register save eliminated.
  35              	.LBB83:
  36              	.LBI83:
ARM GAS  /tmp/cc3fe7I0.s 			page 2


  37              		.file 2 "../../libDaisy/src/sys/system.h"
   1:../../libDaisy/src/sys/system.h **** #ifndef DSY_SYSTEM_H
   2:../../libDaisy/src/sys/system.h **** #define DSY_SYSTEM_H
   3:../../libDaisy/src/sys/system.h **** 
   4:../../libDaisy/src/sys/system.h **** #ifndef UNIT_TEST // for unit tests, a dummy implementation is provided below
   5:../../libDaisy/src/sys/system.h **** 
   6:../../libDaisy/src/sys/system.h **** #include <cstdint>
   7:../../libDaisy/src/sys/system.h **** #include "per/tim.h"
   8:../../libDaisy/src/sys/system.h **** 
   9:../../libDaisy/src/sys/system.h **** namespace daisy
  10:../../libDaisy/src/sys/system.h **** {
  11:../../libDaisy/src/sys/system.h **** /** A handle for interacting with the Core System.
  12:../../libDaisy/src/sys/system.h ****  ** This includes the Clock tree, MPU, global DMA initialization,
  13:../../libDaisy/src/sys/system.h ****  ** cache handling, and any other necessary global initiailzation
  14:../../libDaisy/src/sys/system.h ****  **
  15:../../libDaisy/src/sys/system.h ****  ** @author shensley
  16:../../libDaisy/src/sys/system.h ****  ** @ingroup system
  17:../../libDaisy/src/sys/system.h ****  */
  18:../../libDaisy/src/sys/system.h **** class System
  19:../../libDaisy/src/sys/system.h **** {
  20:../../libDaisy/src/sys/system.h ****   public:
  21:../../libDaisy/src/sys/system.h ****     /** Contains settings for initializing the System */
  22:../../libDaisy/src/sys/system.h ****     struct Config
  23:../../libDaisy/src/sys/system.h ****     {
  24:../../libDaisy/src/sys/system.h ****         /** Specifies the system clock frequency that feeds APB/AHB clocks, etc. */
  25:../../libDaisy/src/sys/system.h ****         enum class SysClkFreq
  26:../../libDaisy/src/sys/system.h ****         {
  27:../../libDaisy/src/sys/system.h ****             FREQ_400MHZ,
  28:../../libDaisy/src/sys/system.h ****             FREQ_480MHZ,
  29:../../libDaisy/src/sys/system.h ****         };
  30:../../libDaisy/src/sys/system.h **** 
  31:../../libDaisy/src/sys/system.h ****         /** Method to call on the struct to set to defaults
  32:../../libDaisy/src/sys/system.h ****          ** CPU Freq set to 400MHz
  33:../../libDaisy/src/sys/system.h ****          ** Cache Enabled
  34:../../libDaisy/src/sys/system.h ****          ** */
  35:../../libDaisy/src/sys/system.h ****         void Defaults()
  36:../../libDaisy/src/sys/system.h ****         {
  37:../../libDaisy/src/sys/system.h ****             cpu_freq    = SysClkFreq::FREQ_400MHZ;
  38:../../libDaisy/src/sys/system.h ****             use_dcache  = true;
  39:../../libDaisy/src/sys/system.h ****             use_icache  = true;
  40:../../libDaisy/src/sys/system.h ****             skip_clocks = false;
  41:../../libDaisy/src/sys/system.h ****         }
  42:../../libDaisy/src/sys/system.h **** 
  43:../../libDaisy/src/sys/system.h ****         /** Method to call on the struct to set to boost mode:
  44:../../libDaisy/src/sys/system.h ****          ** CPU Freq set to 480MHz
  45:../../libDaisy/src/sys/system.h ****          ** Cache Enabled
  46:../../libDaisy/src/sys/system.h ****          ** */
  47:../../libDaisy/src/sys/system.h ****         void Boost()
  48:../../libDaisy/src/sys/system.h ****         {
  49:../../libDaisy/src/sys/system.h ****             cpu_freq    = SysClkFreq::FREQ_480MHZ;
  50:../../libDaisy/src/sys/system.h ****             use_dcache  = true;
  51:../../libDaisy/src/sys/system.h ****             use_icache  = true;
  52:../../libDaisy/src/sys/system.h ****             skip_clocks = false;
  53:../../libDaisy/src/sys/system.h ****         }
  54:../../libDaisy/src/sys/system.h **** 
  55:../../libDaisy/src/sys/system.h ****         SysClkFreq cpu_freq;
  56:../../libDaisy/src/sys/system.h ****         bool       use_dcache;
ARM GAS  /tmp/cc3fe7I0.s 			page 3


  57:../../libDaisy/src/sys/system.h ****         bool       use_icache;
  58:../../libDaisy/src/sys/system.h ****         bool       skip_clocks;
  59:../../libDaisy/src/sys/system.h ****     };
  60:../../libDaisy/src/sys/system.h **** 
  61:../../libDaisy/src/sys/system.h ****     /** Describes the different regions of memory available to the Daisy */
  62:../../libDaisy/src/sys/system.h ****     enum MemoryRegion
  63:../../libDaisy/src/sys/system.h ****     {
  64:../../libDaisy/src/sys/system.h ****         INTERNAL_FLASH = 0,
  65:../../libDaisy/src/sys/system.h ****         ITCMRAM,
  66:../../libDaisy/src/sys/system.h ****         DTCMRAM,
  67:../../libDaisy/src/sys/system.h ****         SRAM_D1,
  68:../../libDaisy/src/sys/system.h ****         SRAM_D2,
  69:../../libDaisy/src/sys/system.h ****         SRAM_D3,
  70:../../libDaisy/src/sys/system.h ****         SDRAM,
  71:../../libDaisy/src/sys/system.h ****         QSPI,
  72:../../libDaisy/src/sys/system.h ****         INVALID_ADDRESS,
  73:../../libDaisy/src/sys/system.h ****     };
  74:../../libDaisy/src/sys/system.h **** 
  75:../../libDaisy/src/sys/system.h ****     /** Bootloader struct for controlling bootloading parameters */
  76:../../libDaisy/src/sys/system.h ****     struct BootInfo
  77:../../libDaisy/src/sys/system.h ****     {
  78:../../libDaisy/src/sys/system.h ****         enum class Type : uint32_t
  79:../../libDaisy/src/sys/system.h ****         {
  80:../../libDaisy/src/sys/system.h ****             INVALID      = 0x00000000,
  81:../../libDaisy/src/sys/system.h ****             JUMP         = 0xDEADBEEF,
  82:../../libDaisy/src/sys/system.h ****             SKIP_TIMEOUT = 0x5AFEB007,
  83:../../libDaisy/src/sys/system.h ****             INF_TIMEOUT  = 0xB0074EFA,
  84:../../libDaisy/src/sys/system.h ****         } status;
  85:../../libDaisy/src/sys/system.h ****         uint32_t data;
  86:../../libDaisy/src/sys/system.h ****         enum class Version : uint32_t
  87:../../libDaisy/src/sys/system.h ****         {
  88:../../libDaisy/src/sys/system.h ****             LT_v6_0 = 0, // Less than v6.0
  89:../../libDaisy/src/sys/system.h ****             NONE,        // No bootloader present
  90:../../libDaisy/src/sys/system.h ****             v6_0,        // v6.0
  91:../../libDaisy/src/sys/system.h ****             v6_1,        // v6.1 or greater
  92:../../libDaisy/src/sys/system.h ****             LAST
  93:../../libDaisy/src/sys/system.h ****         } version;
  94:../../libDaisy/src/sys/system.h ****     };
  95:../../libDaisy/src/sys/system.h **** 
  96:../../libDaisy/src/sys/system.h ****     System() {}
  97:../../libDaisy/src/sys/system.h ****     ~System() {}
  38              		.loc 2 97 5 view .LVU1
  39              		.loc 2 97 5 is_stmt 0 view .LVU2
  40              	.LBE83:
  41              	.LBB84:
  42              	.LBI84:
  43              		.file 3 "../../libDaisy/src/hid/usb.h"
   1:../../libDaisy/src/hid/usb.h **** #pragma once
   2:../../libDaisy/src/hid/usb.h **** #ifndef DSY_HID_USB_H
   3:../../libDaisy/src/hid/usb.h **** #define DSY_HID_USB_H
   4:../../libDaisy/src/hid/usb.h **** #include <stdint.h>
   5:../../libDaisy/src/hid/usb.h **** #include <stdlib.h>
   6:../../libDaisy/src/hid/usb.h **** 
   7:../../libDaisy/src/hid/usb.h **** namespace daisy
   8:../../libDaisy/src/hid/usb.h **** /** @addtogroup human_interface
   9:../../libDaisy/src/hid/usb.h ****     @{
  10:../../libDaisy/src/hid/usb.h **** */
ARM GAS  /tmp/cc3fe7I0.s 			page 4


  11:../../libDaisy/src/hid/usb.h **** 
  12:../../libDaisy/src/hid/usb.h **** {
  13:../../libDaisy/src/hid/usb.h **** /** 
  14:../../libDaisy/src/hid/usb.h ****     @brief Interface for initializing and using the USB Peripherals on the daisy
  15:../../libDaisy/src/hid/usb.h ****     @author Stephen Hensley
  16:../../libDaisy/src/hid/usb.h ****     @date December 2019
  17:../../libDaisy/src/hid/usb.h **** */
  18:../../libDaisy/src/hid/usb.h **** class UsbHandle
  19:../../libDaisy/src/hid/usb.h **** {
  20:../../libDaisy/src/hid/usb.h ****   public:
  21:../../libDaisy/src/hid/usb.h ****     /** Return values for USBHandle Functions */
  22:../../libDaisy/src/hid/usb.h ****     enum class Result
  23:../../libDaisy/src/hid/usb.h ****     {
  24:../../libDaisy/src/hid/usb.h ****         OK,
  25:../../libDaisy/src/hid/usb.h ****         ERR,
  26:../../libDaisy/src/hid/usb.h ****     };
  27:../../libDaisy/src/hid/usb.h **** 
  28:../../libDaisy/src/hid/usb.h ****     /** Specified which of the two USB Peripherals to initialize. */
  29:../../libDaisy/src/hid/usb.h ****     enum UsbPeriph
  30:../../libDaisy/src/hid/usb.h ****     {
  31:../../libDaisy/src/hid/usb.h ****         FS_INTERNAL, /**< Internal pin */
  32:../../libDaisy/src/hid/usb.h ****         FS_EXTERNAL, /**< FS External D+ pin is Pin 38 (GPIO32). FS External D- pin is Pin 37 (GPIO
  33:../../libDaisy/src/hid/usb.h ****         FS_BOTH,     /**< Both */
  34:../../libDaisy/src/hid/usb.h ****     };
  35:../../libDaisy/src/hid/usb.h **** 
  36:../../libDaisy/src/hid/usb.h **** 
  37:../../libDaisy/src/hid/usb.h ****     /** Function called upon reception of a buffer */
  38:../../libDaisy/src/hid/usb.h ****     typedef void (*ReceiveCallback)(uint8_t* buff, uint32_t* len);
  39:../../libDaisy/src/hid/usb.h **** 
  40:../../libDaisy/src/hid/usb.h ****     UsbHandle() {}
  41:../../libDaisy/src/hid/usb.h **** 
  42:../../libDaisy/src/hid/usb.h ****     ~UsbHandle() {}
  44              		.loc 3 42 5 is_stmt 1 view .LVU3
  45              		.loc 3 42 5 is_stmt 0 view .LVU4
  46              	.LBE84:
  47              	.LBB85:
  48              	.LBI85:
  49              		.file 4 "../../libDaisy/src/per/adc.h"
   1:../../libDaisy/src/per/adc.h **** #pragma once
   2:../../libDaisy/src/per/adc.h **** #ifndef DSY_ADC_H
   3:../../libDaisy/src/per/adc.h **** #define DSY_ADC_H /**< Macro */
   4:../../libDaisy/src/per/adc.h **** #include <stdint.h>
   5:../../libDaisy/src/per/adc.h **** #include <stdlib.h>
   6:../../libDaisy/src/per/adc.h **** #include "daisy_core.h"
   7:../../libDaisy/src/per/adc.h **** #include "per/gpio.h"
   8:../../libDaisy/src/per/adc.h **** 
   9:../../libDaisy/src/per/adc.h **** #define DSY_ADC_MAX_CHANNELS 16 /**< Maximum number of ADC channels */
  10:../../libDaisy/src/per/adc.h **** 
  11:../../libDaisy/src/per/adc.h **** namespace daisy
  12:../../libDaisy/src/per/adc.h **** {
  13:../../libDaisy/src/per/adc.h **** /** @addtogroup per_analog
  14:../../libDaisy/src/per/adc.h ****     @{
  15:../../libDaisy/src/per/adc.h **** */
  16:../../libDaisy/src/per/adc.h **** 
  17:../../libDaisy/src/per/adc.h **** /* While there may not be many configuration options here,
  18:../../libDaisy/src/per/adc.h **** using a struct like this allows us to add more configuration
  19:../../libDaisy/src/per/adc.h **** later without breaking existing functionality.
ARM GAS  /tmp/cc3fe7I0.s 			page 5


  20:../../libDaisy/src/per/adc.h **** */
  21:../../libDaisy/src/per/adc.h **** 
  22:../../libDaisy/src/per/adc.h **** /** @brief   Configuration Structure for an ADC Channel 
  23:../../libDaisy/src/per/adc.h ****  *  @details This can be used to configure a a single input, 
  24:../../libDaisy/src/per/adc.h ****  *           or a multiplexed input, allowing up to 8 inputs on 
  25:../../libDaisy/src/per/adc.h ****  *           one channel.
  26:../../libDaisy/src/per/adc.h ****  *  @note    Sharing data lines to multiple muxes _is_ possible, but
  27:../../libDaisy/src/per/adc.h ****  *           each channel sharing data lines must be set to the maximum
  28:../../libDaisy/src/per/adc.h ****  *           number of channels, even if some multiplexers have fewer
  29:../../libDaisy/src/per/adc.h ****  *           inputs connected.
  30:../../libDaisy/src/per/adc.h **** */
  31:../../libDaisy/src/per/adc.h **** struct AdcChannelConfig
  32:../../libDaisy/src/per/adc.h **** {
  33:../../libDaisy/src/per/adc.h ****     /** Which pin to use for multiplexing */
  34:../../libDaisy/src/per/adc.h ****     enum MuxPin
  35:../../libDaisy/src/per/adc.h ****     {
  36:../../libDaisy/src/per/adc.h ****         MUX_SEL_0,    /**< & */
  37:../../libDaisy/src/per/adc.h ****         MUX_SEL_1,    /**< & */
  38:../../libDaisy/src/per/adc.h ****         MUX_SEL_2,    /**< & */
  39:../../libDaisy/src/per/adc.h ****         MUX_SEL_LAST, /**< & */
  40:../../libDaisy/src/per/adc.h ****     };
  41:../../libDaisy/src/per/adc.h **** 
  42:../../libDaisy/src/per/adc.h ****     /** \brief per channel conversion speed added to fixed time based on bitdepth, etc. */
  43:../../libDaisy/src/per/adc.h ****     enum ConversionSpeed
  44:../../libDaisy/src/per/adc.h ****     {
  45:../../libDaisy/src/per/adc.h ****         SPEED_1CYCLES_5,
  46:../../libDaisy/src/per/adc.h ****         SPEED_2CYCLES_5,
  47:../../libDaisy/src/per/adc.h ****         SPEED_8CYCLES_5,
  48:../../libDaisy/src/per/adc.h ****         SPEED_16CYCLES_5,
  49:../../libDaisy/src/per/adc.h ****         SPEED_32CYCLES_5,
  50:../../libDaisy/src/per/adc.h ****         SPEED_64CYCLES_5,
  51:../../libDaisy/src/per/adc.h ****         SPEED_387CYCLES_5,
  52:../../libDaisy/src/per/adc.h ****         SPEED_810CYCLES_5,
  53:../../libDaisy/src/per/adc.h ****     };
  54:../../libDaisy/src/per/adc.h **** 
  55:../../libDaisy/src/per/adc.h ****     /** Initializes a single ADC pin as an ADC. 
  56:../../libDaisy/src/per/adc.h ****     \param pin Pin to init.
  57:../../libDaisy/src/per/adc.h ****     \param speed conversion speed for this pin defaults to 8.5 cycles
  58:../../libDaisy/src/per/adc.h ****      */
  59:../../libDaisy/src/per/adc.h ****     void InitSingle(dsy_gpio_pin pin, ConversionSpeed speed = SPEED_8CYCLES_5);
  60:../../libDaisy/src/per/adc.h **** 
  61:../../libDaisy/src/per/adc.h ****     /** 
  62:../../libDaisy/src/per/adc.h ****     Initializes a single ADC pin as a Multiplexed ADC.
  63:../../libDaisy/src/per/adc.h ****     Requires a CD405X Multiplexer connected to the pin.
  64:../../libDaisy/src/per/adc.h ****     You only need to supply the mux pins that are required,
  65:../../libDaisy/src/per/adc.h ****     e.g. a 4052 mux would only require mux_0 and mux_1.
  66:../../libDaisy/src/per/adc.h ****     Internal Callbacks handle the pin addressing.
  67:../../libDaisy/src/per/adc.h ****     \param adc_pin &
  68:../../libDaisy/src/per/adc.h ****     \param mux_channels must be 1-8
  69:../../libDaisy/src/per/adc.h ****     \param mux_0 First mux pin
  70:../../libDaisy/src/per/adc.h ****     \param mux_1 Second mux pin
  71:../../libDaisy/src/per/adc.h ****     \param mux_2 Third mux pin
  72:../../libDaisy/src/per/adc.h ****     \param speed conversion speed for this pin defaults to 8.5 cycles
  73:../../libDaisy/src/per/adc.h ****     */
  74:../../libDaisy/src/per/adc.h ****     void InitMux(dsy_gpio_pin    adc_pin,
  75:../../libDaisy/src/per/adc.h ****                  size_t          mux_channels,
  76:../../libDaisy/src/per/adc.h ****                  dsy_gpio_pin    mux_0,
ARM GAS  /tmp/cc3fe7I0.s 			page 6


  77:../../libDaisy/src/per/adc.h ****                  dsy_gpio_pin    mux_1 = {DSY_GPIOX, 0},
  78:../../libDaisy/src/per/adc.h ****                  dsy_gpio_pin    mux_2 = {DSY_GPIOX, 0},
  79:../../libDaisy/src/per/adc.h ****                  ConversionSpeed speed = SPEED_8CYCLES_5);
  80:../../libDaisy/src/per/adc.h **** 
  81:../../libDaisy/src/per/adc.h ****     dsy_gpio        pin_;                   /**< & */
  82:../../libDaisy/src/per/adc.h ****     dsy_gpio        mux_pin_[MUX_SEL_LAST]; /**< & */
  83:../../libDaisy/src/per/adc.h ****     uint8_t         mux_channels_;          /**< & */
  84:../../libDaisy/src/per/adc.h ****     ConversionSpeed speed_;
  85:../../libDaisy/src/per/adc.h **** };
  86:../../libDaisy/src/per/adc.h **** 
  87:../../libDaisy/src/per/adc.h **** /**
  88:../../libDaisy/src/per/adc.h ****    @brief Handler for analog to digital conversion
  89:../../libDaisy/src/per/adc.h **** */
  90:../../libDaisy/src/per/adc.h **** class AdcHandle
  91:../../libDaisy/src/per/adc.h **** {
  92:../../libDaisy/src/per/adc.h ****   public:
  93:../../libDaisy/src/per/adc.h ****     /** Supported oversampling amounts */
  94:../../libDaisy/src/per/adc.h ****     enum OverSampling
  95:../../libDaisy/src/per/adc.h ****     {
  96:../../libDaisy/src/per/adc.h ****         OVS_NONE, /**< & */
  97:../../libDaisy/src/per/adc.h ****         OVS_4,    /**< & */
  98:../../libDaisy/src/per/adc.h ****         OVS_8,    /**< & */
  99:../../libDaisy/src/per/adc.h ****         OVS_16,   /**< & */
 100:../../libDaisy/src/per/adc.h ****         OVS_32,   /**< & */
 101:../../libDaisy/src/per/adc.h ****         OVS_64,   /**< & */
 102:../../libDaisy/src/per/adc.h ****         OVS_128,  /**< & */
 103:../../libDaisy/src/per/adc.h ****         OVS_256,  /**< & */
 104:../../libDaisy/src/per/adc.h ****         OVS_512,  /**< & */
 105:../../libDaisy/src/per/adc.h ****         OVS_1024, /**< & */
 106:../../libDaisy/src/per/adc.h ****         OVS_LAST, /**< & */
 107:../../libDaisy/src/per/adc.h ****     };
 108:../../libDaisy/src/per/adc.h **** 
 109:../../libDaisy/src/per/adc.h ****     AdcHandle() {}
 110:../../libDaisy/src/per/adc.h ****     ~AdcHandle() {}
  50              		.loc 4 110 5 is_stmt 1 view .LVU5
  51              		.loc 4 110 5 is_stmt 0 view .LVU6
  52              	.LBE85:
  53              	.LBB86:
  54              	.LBI86:
  55              		.file 5 "../../libDaisy/src/hid/audio.h"
   1:../../libDaisy/src/hid/audio.h **** #ifndef DSY_AUDIO_H
   2:../../libDaisy/src/hid/audio.h **** #define DSY_AUDIO_H /**< & */
   3:../../libDaisy/src/hid/audio.h **** 
   4:../../libDaisy/src/hid/audio.h **** #include "per/sai.h"
   5:../../libDaisy/src/hid/audio.h **** 
   6:../../libDaisy/src/hid/audio.h **** namespace daisy
   7:../../libDaisy/src/hid/audio.h **** {
   8:../../libDaisy/src/hid/audio.h **** /** @brief Audio Engine Handle
   9:../../libDaisy/src/hid/audio.h ****  *  @ingroup audio 
  10:../../libDaisy/src/hid/audio.h ****  *  @details This class allows for higher level access to an audio engine.
  11:../../libDaisy/src/hid/audio.h ****  *           If you're using a SOM like the DaisySeed or DaisyPatchSM (or any 
  12:../../libDaisy/src/hid/audio.h ****  *            board that includes one of those objects) then the intialization
  13:../../libDaisy/src/hid/audio.h ****  *            is already taken  care of.
  14:../../libDaisy/src/hid/audio.h ****  *           If you're setting up your own custom hardware, or need to make changes
  15:../../libDaisy/src/hid/audio.h ****  *           you will have to take the following steps:
  16:../../libDaisy/src/hid/audio.h ****  *             1. Create and Initialize an SaiHandle or two depending on your requirements
  17:../../libDaisy/src/hid/audio.h ****  *             2. Initialize the Audio Handle with the desired settings and the Initialized SaiHand
ARM GAS  /tmp/cc3fe7I0.s 			page 7


  18:../../libDaisy/src/hid/audio.h ****  *             3. If the connected codec requires special configuration or initialization, do so
  19:../../libDaisy/src/hid/audio.h ****  *             4. Write a callback method using either the AudioCallback or the InterleavingAudioCa
  20:../../libDaisy/src/hid/audio.h ****  *             5. Start the Audio using one of the StartAudio function
  21:../../libDaisy/src/hid/audio.h ****  */
  22:../../libDaisy/src/hid/audio.h **** class AudioHandle
  23:../../libDaisy/src/hid/audio.h **** {
  24:../../libDaisy/src/hid/audio.h ****   public:
  25:../../libDaisy/src/hid/audio.h ****     /** Manually configurable details about the Audio Engine */
  26:../../libDaisy/src/hid/audio.h ****     /** TODO: Figure out how to get samplerate in here. */
  27:../../libDaisy/src/hid/audio.h ****     struct Config
  28:../../libDaisy/src/hid/audio.h ****     {
  29:../../libDaisy/src/hid/audio.h ****         /** number of samples to process per callback */
  30:../../libDaisy/src/hid/audio.h ****         size_t blocksize;
  31:../../libDaisy/src/hid/audio.h **** 
  32:../../libDaisy/src/hid/audio.h ****         /**< Sample rate of audio */
  33:../../libDaisy/src/hid/audio.h ****         SaiHandle::Config::SampleRate samplerate;
  34:../../libDaisy/src/hid/audio.h **** 
  35:../../libDaisy/src/hid/audio.h ****         /** factor for adjustment before and after callback for hardware that may have extra headro
  36:../../libDaisy/src/hid/audio.h ****         float postgain;
  37:../../libDaisy/src/hid/audio.h **** 
  38:../../libDaisy/src/hid/audio.h ****         /** factor for additional one-sided compensation to audio path for hardware that may
  39:../../libDaisy/src/hid/audio.h ****          *  have unequal input/output ranges
  40:../../libDaisy/src/hid/audio.h ****          */
  41:../../libDaisy/src/hid/audio.h ****         float output_compensation;
  42:../../libDaisy/src/hid/audio.h **** 
  43:../../libDaisy/src/hid/audio.h ****         /** Sets default values for config struct */
  44:../../libDaisy/src/hid/audio.h ****         Config()
  45:../../libDaisy/src/hid/audio.h ****         : blocksize(48),
  46:../../libDaisy/src/hid/audio.h ****           samplerate(SaiHandle::Config::SampleRate::SAI_48KHZ),
  47:../../libDaisy/src/hid/audio.h ****           postgain(1.f),
  48:../../libDaisy/src/hid/audio.h ****           output_compensation(1.f)
  49:../../libDaisy/src/hid/audio.h ****         {
  50:../../libDaisy/src/hid/audio.h ****         }
  51:../../libDaisy/src/hid/audio.h ****     };
  52:../../libDaisy/src/hid/audio.h **** 
  53:../../libDaisy/src/hid/audio.h ****     enum class Result
  54:../../libDaisy/src/hid/audio.h ****     {
  55:../../libDaisy/src/hid/audio.h ****         OK,
  56:../../libDaisy/src/hid/audio.h ****         ERR,
  57:../../libDaisy/src/hid/audio.h ****     };
  58:../../libDaisy/src/hid/audio.h **** 
  59:../../libDaisy/src/hid/audio.h ****     /** Non-Interleaving input buffer
  60:../../libDaisy/src/hid/audio.h ****      * Buffer arranged by float[chn][sample] 
  61:../../libDaisy/src/hid/audio.h ****      * const so that the user can't modify the input
  62:../../libDaisy/src/hid/audio.h ****      */
  63:../../libDaisy/src/hid/audio.h ****     typedef const float* const* InputBuffer;
  64:../../libDaisy/src/hid/audio.h **** 
  65:../../libDaisy/src/hid/audio.h ****     /** Non-Interleaving output buffer
  66:../../libDaisy/src/hid/audio.h ****      * Arranged by float[chn][sample] 
  67:../../libDaisy/src/hid/audio.h ****      */
  68:../../libDaisy/src/hid/audio.h ****     typedef float** OutputBuffer;
  69:../../libDaisy/src/hid/audio.h **** 
  70:../../libDaisy/src/hid/audio.h ****     /** Type for a Non-Interleaving audio callback 
  71:../../libDaisy/src/hid/audio.h ****      * Non-Interleaving audio callbacks in daisy will be of this type
  72:../../libDaisy/src/hid/audio.h ****      */
  73:../../libDaisy/src/hid/audio.h ****     typedef void (*AudioCallback)(InputBuffer  in,
  74:../../libDaisy/src/hid/audio.h ****                                   OutputBuffer out,
ARM GAS  /tmp/cc3fe7I0.s 			page 8


  75:../../libDaisy/src/hid/audio.h ****                                   size_t       size);
  76:../../libDaisy/src/hid/audio.h **** 
  77:../../libDaisy/src/hid/audio.h ****     /** Interleaving Input buffer
  78:../../libDaisy/src/hid/audio.h ****      ** audio is prepared as { L0, R0, L1, R1, . . . LN, RN }]
  79:../../libDaisy/src/hid/audio.h ****      ** this is const, as the user shouldn't modify it
  80:../../libDaisy/src/hid/audio.h ****     */
  81:../../libDaisy/src/hid/audio.h ****     typedef const float* InterleavingInputBuffer;
  82:../../libDaisy/src/hid/audio.h **** 
  83:../../libDaisy/src/hid/audio.h ****     /** Interleaving Output buffer 
  84:../../libDaisy/src/hid/audio.h ****      ** audio is prepared as { L0, R0, L1, R1, . . . LN, RN }
  85:../../libDaisy/src/hid/audio.h ****     */
  86:../../libDaisy/src/hid/audio.h ****     typedef float* InterleavingOutputBuffer;
  87:../../libDaisy/src/hid/audio.h **** 
  88:../../libDaisy/src/hid/audio.h ****     /** Interleaving Audio Callback 
  89:../../libDaisy/src/hid/audio.h ****      * Interleaving audio callbacks in daisy must be of this type
  90:../../libDaisy/src/hid/audio.h ****      */
  91:../../libDaisy/src/hid/audio.h ****     typedef void (*InterleavingAudioCallback)(InterleavingInputBuffer  in,
  92:../../libDaisy/src/hid/audio.h ****                                               InterleavingOutputBuffer out,
  93:../../libDaisy/src/hid/audio.h ****                                               size_t                   size);
  94:../../libDaisy/src/hid/audio.h **** 
  95:../../libDaisy/src/hid/audio.h ****     AudioHandle() : pimpl_(nullptr) {}
  96:../../libDaisy/src/hid/audio.h ****     ~AudioHandle() {}
  56              		.loc 5 96 5 is_stmt 1 view .LVU7
  57              		.loc 5 96 5 is_stmt 0 view .LVU8
  58              	.LBE86:
  59              		.loc 1 22 19 view .LVU9
  60 0000 7047     		bx	lr
  61              		.cfi_endproc
  62              	.LFE2555:
  64              		.weak	_ZN5daisy9DaisySeedD1Ev
  65              		.thumb_set _ZN5daisy9DaisySeedD1Ev,_ZN5daisy9DaisySeedD2Ev
  66 0002 00BF     		.section	.text.dsy_tinyusb_irq_handler,"ax",%progbits
  67              		.align	1
  68              		.p2align 2,,3
  69              		.global	dsy_tinyusb_irq_handler
  70              		.syntax unified
  71              		.thumb
  72              		.thumb_func
  73              		.fpu fpv5-d16
  75              	dsy_tinyusb_irq_handler:
  76              	.LFB2665:
  77              		.file 6 "TinyUsbCdcExternal.cpp"
   1:TinyUsbCdcExternal.cpp **** #include "daisy_seed.h"
   2:TinyUsbCdcExternal.cpp **** #include "tusb.h"
   3:TinyUsbCdcExternal.cpp **** 
   4:TinyUsbCdcExternal.cpp **** using namespace daisy;
   5:TinyUsbCdcExternal.cpp **** 
   6:TinyUsbCdcExternal.cpp **** DaisySeed hw;
   7:TinyUsbCdcExternal.cpp **** 
   8:TinyUsbCdcExternal.cpp **** extern "C" void dsy_tinyusb_irq_handler(void)
   9:TinyUsbCdcExternal.cpp **** {
  78              		.loc 6 9 1 is_stmt 1 view -0
  79              		.cfi_startproc
  80              		@ args = 0, pretend = 0, frame = 0
  81              		@ frame_needed = 0, uses_anonymous_args = 0
  82              		@ link register save eliminated.
  10:TinyUsbCdcExternal.cpp ****     tud_int_handler(0);
ARM GAS  /tmp/cc3fe7I0.s 			page 9


  83              		.loc 6 10 5 view .LVU11
  84              		.loc 6 10 20 is_stmt 0 view .LVU12
  85 0000 0020     		movs	r0, #0
  86 0002 FFF7FEBF 		b	dcd_int_handler
  87              	.LVL1:
  88              		.cfi_endproc
  89              	.LFE2665:
  91 0006 00BF     		.section	.rodata.board_get_unique_id.str1.4,"aMS",%progbits,1
  92              		.align	2
  93              	.LC1:
  94 0000 44414953 		.ascii	"DAISYSEEDCDC01\000"
  94      59534545 
  94      44434443 
  94      303100
  95              		.section	.text.board_get_unique_id,"ax",%progbits
  96              		.align	1
  97              		.p2align 2,,3
  98              		.global	board_get_unique_id
  99              		.syntax unified
 100              		.thumb
 101              		.thumb_func
 102              		.fpu fpv5-d16
 104              	board_get_unique_id:
 105              	.LVL2:
 106              	.LFB2666:
  11:TinyUsbCdcExternal.cpp **** }
  12:TinyUsbCdcExternal.cpp **** 
  13:TinyUsbCdcExternal.cpp **** extern "C" size_t board_get_unique_id(uint8_t id[], size_t max_len)
  14:TinyUsbCdcExternal.cpp **** {
 107              		.loc 6 14 1 is_stmt 1 view -0
 108              		.cfi_startproc
 109              		@ args = 0, pretend = 0, frame = 0
 110              		@ frame_needed = 0, uses_anonymous_args = 0
 111              		@ link register save eliminated.
  15:TinyUsbCdcExternal.cpp ****     const char* serial = "DAISYSEEDCDC01";
 112              		.loc 6 15 5 view .LVU14
  16:TinyUsbCdcExternal.cpp ****     size_t n = 14;
 113              		.loc 6 16 5 view .LVU15
  17:TinyUsbCdcExternal.cpp ****     if(n > max_len)
 114              		.loc 6 17 5 view .LVU16
 115 0000 0D29     		cmp	r1, #13
  14:TinyUsbCdcExternal.cpp ****     const char* serial = "DAISYSEEDCDC01";
 116              		.loc 6 14 1 is_stmt 0 view .LVU17
 117 0002 8446     		mov	ip, r0
 118              		.loc 6 17 5 view .LVU18
 119 0004 13D8     		bhi	.L8
 120              	.LVL3:
  18:TinyUsbCdcExternal.cpp ****         n = max_len;
  19:TinyUsbCdcExternal.cpp ****     for(size_t i = 0; i < n; i++)
 121              		.loc 6 19 5 is_stmt 1 view .LVU19
 122              	.LBB87:
 123              		.loc 6 19 25 view .LVU20
 124 0006 0846     		mov	r0, r1
 125              	.LVL4:
 126              		.loc 6 19 25 is_stmt 0 view .LVU21
 127 0008 99B1     		cbz	r1, .L9
 128              	.LVL5:
ARM GAS  /tmp/cc3fe7I0.s 			page 10


 129              	.L5:
 130              		.loc 6 19 25 view .LVU22
 131 000a 0CF1FF33 		add	r3, ip, #-1
 132 000e 4421     		movs	r1, #68
 133              	.LVL6:
 134              		.loc 6 19 25 view .LVU23
 135              	.LBE87:
  14:TinyUsbCdcExternal.cpp ****     const char* serial = "DAISYSEEDCDC01";
 136              		.loc 6 14 1 view .LVU24
 137 0010 10B4     		push	{r4}
 138              		.cfi_def_cfa_offset 4
 139              		.cfi_offset 4, -4
 140 0012 084C     		ldr	r4, .L15
 141 0014 01E0     		b	.L7
 142              	.LVL7:
 143              	.L14:
 144              	.LBB88:
  20:TinyUsbCdcExternal.cpp ****         id[i] = (uint8_t)serial[i];
 145              		.loc 6 20 17 view .LVU25
 146 0016 14F8011F 		ldrb	r1, [r4, #1]!	@ zero_extendqisi2
 147              	.LVL8:
 148              	.L7:
 149              		.loc 6 20 9 is_stmt 1 discriminator 2 view .LVU26
  19:TinyUsbCdcExternal.cpp ****         id[i] = (uint8_t)serial[i];
 150              		.loc 6 19 25 is_stmt 0 discriminator 2 view .LVU27
 151 001a 9A1C     		adds	r2, r3, #2
 152              		.loc 6 20 15 discriminator 2 view .LVU28
 153 001c 5970     		strb	r1, [r3, #1]
  19:TinyUsbCdcExternal.cpp ****         id[i] = (uint8_t)serial[i];
 154              		.loc 6 19 5 is_stmt 1 discriminator 2 view .LVU29
 155              		.loc 6 20 15 is_stmt 0 discriminator 2 view .LVU30
 156 001e 0133     		adds	r3, r3, #1
 157              	.LVL9:
  19:TinyUsbCdcExternal.cpp ****         id[i] = (uint8_t)serial[i];
 158              		.loc 6 19 25 is_stmt 1 discriminator 2 view .LVU31
 159 0020 A2EB0C02 		sub	r2, r2, ip
 160 0024 9042     		cmp	r0, r2
 161 0026 F6D8     		bhi	.L14
 162              	.LBE88:
  21:TinyUsbCdcExternal.cpp ****     return n;
  22:TinyUsbCdcExternal.cpp **** }
 163              		.loc 6 22 1 is_stmt 0 view .LVU32
 164 0028 5DF8044B 		ldr	r4, [sp], #4
 165              		.cfi_restore 4
 166              		.cfi_def_cfa_offset 0
 167 002c 7047     		bx	lr
 168              	.LVL10:
 169              	.L8:
  16:TinyUsbCdcExternal.cpp ****     if(n > max_len)
 170              		.loc 6 16 12 view .LVU33
 171 002e 0E20     		movs	r0, #14
 172              	.LVL11:
  16:TinyUsbCdcExternal.cpp ****     if(n > max_len)
 173              		.loc 6 16 12 view .LVU34
 174 0030 EBE7     		b	.L5
 175              	.LVL12:
 176              	.L9:
ARM GAS  /tmp/cc3fe7I0.s 			page 11


  21:TinyUsbCdcExternal.cpp ****     return n;
 177              		.loc 6 21 5 is_stmt 1 view .LVU35
 178              		.loc 6 22 1 is_stmt 0 view .LVU36
 179 0032 7047     		bx	lr
 180              	.L16:
 181              		.align	2
 182              	.L15:
 183 0034 00000000 		.word	.LC1
 184              		.cfi_endproc
 185              	.LFE2666:
 187              		.section	.text.startup.main,"ax",%progbits
 188              		.align	1
 189              		.p2align 2,,3
 190              		.global	main
 191              		.syntax unified
 192              		.thumb
 193              		.thumb_func
 194              		.fpu fpv5-d16
 196              	main:
 197              	.LFB2669:
  23:TinyUsbCdcExternal.cpp **** 
  24:TinyUsbCdcExternal.cpp **** static void led_blinking_task()
  25:TinyUsbCdcExternal.cpp **** {
  26:TinyUsbCdcExternal.cpp ****     static uint32_t start_ms = 0;
  27:TinyUsbCdcExternal.cpp ****     static bool led_state = false;
  28:TinyUsbCdcExternal.cpp ****     uint32_t interval = tud_mounted() ? 1000 : 250;
  29:TinyUsbCdcExternal.cpp **** 
  30:TinyUsbCdcExternal.cpp ****     if(System::GetNow() - start_ms < interval)
  31:TinyUsbCdcExternal.cpp ****         return;
  32:TinyUsbCdcExternal.cpp ****     start_ms += interval;
  33:TinyUsbCdcExternal.cpp ****     hw.SetLed(led_state);
  34:TinyUsbCdcExternal.cpp ****     led_state = !led_state;
  35:TinyUsbCdcExternal.cpp **** }
  36:TinyUsbCdcExternal.cpp **** 
  37:TinyUsbCdcExternal.cpp **** static void cdc_task()
  38:TinyUsbCdcExternal.cpp **** {
  39:TinyUsbCdcExternal.cpp ****     if(tud_cdc_available())
  40:TinyUsbCdcExternal.cpp ****     {
  41:TinyUsbCdcExternal.cpp ****         char buf[64];
  42:TinyUsbCdcExternal.cpp ****         uint32_t count = tud_cdc_read(buf, sizeof(buf));
  43:TinyUsbCdcExternal.cpp ****         tud_cdc_write(buf, count);
  44:TinyUsbCdcExternal.cpp ****         tud_cdc_write_flush();
  45:TinyUsbCdcExternal.cpp ****     }
  46:TinyUsbCdcExternal.cpp **** }
  47:TinyUsbCdcExternal.cpp **** 
  48:TinyUsbCdcExternal.cpp **** int main(void)
  49:TinyUsbCdcExternal.cpp **** {
 198              		.loc 6 49 1 is_stmt 1 view -0
 199              		.cfi_startproc
 200              		@ Volatile: function does not return.
 201              		@ args = 0, pretend = 0, frame = 72
 202              		@ frame_needed = 0, uses_anonymous_args = 0
  50:TinyUsbCdcExternal.cpp ****     hw.Configure();
 203              		.loc 6 50 5 view .LVU38
  49:TinyUsbCdcExternal.cpp ****     hw.Configure();
 204              		.loc 6 49 1 is_stmt 0 view .LVU39
 205 0000 80B5     		push	{r7, lr}
ARM GAS  /tmp/cc3fe7I0.s 			page 12


 206              		.cfi_def_cfa_offset 8
 207              		.cfi_offset 7, -8
 208              		.cfi_offset 14, -4
 209              		.loc 6 50 17 view .LVU40
 210 0002 2348     		ldr	r0, .L26
  49:TinyUsbCdcExternal.cpp ****     hw.Configure();
 211              		.loc 6 49 1 view .LVU41
 212 0004 92B0     		sub	sp, sp, #72
 213              		.cfi_def_cfa_offset 80
 214              		.loc 6 50 17 view .LVU42
 215 0006 FFF7FEFF 		bl	_ZN5daisy9DaisySeed9ConfigureEv
 216              	.LVL13:
  51:TinyUsbCdcExternal.cpp ****     hw.Init();
 217              		.loc 6 51 5 is_stmt 1 view .LVU43
 218              		.loc 6 51 12 is_stmt 0 view .LVU44
 219 000a 0021     		movs	r1, #0
 220 000c 2048     		ldr	r0, .L26
 221 000e FFF7FEFF 		bl	_ZN5daisy9DaisySeed4InitEb
 222              	.LVL14:
  52:TinyUsbCdcExternal.cpp ****     hw.usb_handle.Init(UsbHandle::FS_EXTERNAL);
 223              		.loc 6 52 5 is_stmt 1 view .LVU45
 224              		.loc 6 52 23 is_stmt 0 view .LVU46
 225 0012 0121     		movs	r1, #1
 226 0014 1F48     		ldr	r0, .L26+4
 227 0016 FFF7FEFF 		bl	_ZN5daisy9UsbHandle4InitENS0_9UsbPeriphE
 228              	.LVL15:
  53:TinyUsbCdcExternal.cpp **** 
  54:TinyUsbCdcExternal.cpp ****     tusb_rhport_init_t dev_init = {.role = TUSB_ROLE_DEVICE, .speed = TUSB_SPEED_AUTO};
 229              		.loc 6 54 5 is_stmt 1 view .LVU47
 230              		.loc 6 54 24 is_stmt 0 view .LVU48
 231 001a 1F4B     		ldr	r3, .L26+8
  55:TinyUsbCdcExternal.cpp ****     tusb_init(0, &dev_init);
 232              		.loc 6 55 5 view .LVU49
 233 001c 01A9     		add	r1, sp, #4
 234 001e 0020     		movs	r0, #0
  54:TinyUsbCdcExternal.cpp ****     tusb_init(0, &dev_init);
 235              		.loc 6 54 24 view .LVU50
 236 0020 1B88     		ldrh	r3, [r3]
 237 0022 1E4D     		ldr	r5, .L26+12
 238 0024 1E4E     		ldr	r6, .L26+16
 239 0026 ADF80430 		strh	r3, [sp, #4]	@ movhi
 240              		.loc 6 55 5 is_stmt 1 view .LVU51
 241 002a FFF7FEFF 		bl	tusb_rhport_init
 242              	.LVL16:
 243              	.L20:
  56:TinyUsbCdcExternal.cpp **** 
  57:TinyUsbCdcExternal.cpp ****     while(1)
 244              		.loc 6 57 5 discriminator 1 view .LVU52
  58:TinyUsbCdcExternal.cpp ****     {
  59:TinyUsbCdcExternal.cpp ****         tud_task();
 245              		.loc 6 59 9 discriminator 1 view .LVU53
 246              	.LBB105:
 247              	.LBI105:
 248              		.file 7 "/home/pi/Developer/tinyusb/src/device/usbd.h"
   1:/home/pi/Developer/tinyusb/src/device/usbd.h **** /*
   2:/home/pi/Developer/tinyusb/src/device/usbd.h ****  * The MIT License (MIT)
   3:/home/pi/Developer/tinyusb/src/device/usbd.h ****  *
ARM GAS  /tmp/cc3fe7I0.s 			page 13


   4:/home/pi/Developer/tinyusb/src/device/usbd.h ****  * Copyright (c) 2019 Ha Thach (tinyusb.org)
   5:/home/pi/Developer/tinyusb/src/device/usbd.h ****  *
   6:/home/pi/Developer/tinyusb/src/device/usbd.h ****  * Permission is hereby granted, free of charge, to any person obtaining a copy
   7:/home/pi/Developer/tinyusb/src/device/usbd.h ****  * of this software and associated documentation files (the "Software"), to deal
   8:/home/pi/Developer/tinyusb/src/device/usbd.h ****  * in the Software without restriction, including without limitation the rights
   9:/home/pi/Developer/tinyusb/src/device/usbd.h ****  * to use, copy, modify, merge, publish, distribute, sublicense, and/or sell
  10:/home/pi/Developer/tinyusb/src/device/usbd.h ****  * copies of the Software, and to permit persons to whom the Software is
  11:/home/pi/Developer/tinyusb/src/device/usbd.h ****  * furnished to do so, subject to the following conditions:
  12:/home/pi/Developer/tinyusb/src/device/usbd.h ****  *
  13:/home/pi/Developer/tinyusb/src/device/usbd.h ****  * The above copyright notice and this permission notice shall be included in
  14:/home/pi/Developer/tinyusb/src/device/usbd.h ****  * all copies or substantial portions of the Software.
  15:/home/pi/Developer/tinyusb/src/device/usbd.h ****  *
  16:/home/pi/Developer/tinyusb/src/device/usbd.h ****  * THE SOFTWARE IS PROVIDED "AS IS", WITHOUT WARRANTY OF ANY KIND, EXPRESS OR
  17:/home/pi/Developer/tinyusb/src/device/usbd.h ****  * IMPLIED, INCLUDING BUT NOT LIMITED TO THE WARRANTIES OF MERCHANTABILITY,
  18:/home/pi/Developer/tinyusb/src/device/usbd.h ****  * FITNESS FOR A PARTICULAR PURPOSE AND NONINFRINGEMENT. IN NO EVENT SHALL THE
  19:/home/pi/Developer/tinyusb/src/device/usbd.h ****  * AUTHORS OR COPYRIGHT HOLDERS BE LIABLE FOR ANY CLAIM, DAMAGES OR OTHER
  20:/home/pi/Developer/tinyusb/src/device/usbd.h ****  * LIABILITY, WHETHER IN AN ACTION OF CONTRACT, TORT OR OTHERWISE, ARISING FROM,
  21:/home/pi/Developer/tinyusb/src/device/usbd.h ****  * OUT OF OR IN CONNECTION WITH THE SOFTWARE OR THE USE OR OTHER DEALINGS IN
  22:/home/pi/Developer/tinyusb/src/device/usbd.h ****  * THE SOFTWARE.
  23:/home/pi/Developer/tinyusb/src/device/usbd.h ****  *
  24:/home/pi/Developer/tinyusb/src/device/usbd.h ****  * This file is part of the TinyUSB stack.
  25:/home/pi/Developer/tinyusb/src/device/usbd.h ****  */
  26:/home/pi/Developer/tinyusb/src/device/usbd.h **** 
  27:/home/pi/Developer/tinyusb/src/device/usbd.h **** #ifndef TUSB_USBD_H_
  28:/home/pi/Developer/tinyusb/src/device/usbd.h **** #define TUSB_USBD_H_
  29:/home/pi/Developer/tinyusb/src/device/usbd.h **** 
  30:/home/pi/Developer/tinyusb/src/device/usbd.h **** #include "common/tusb_common.h"
  31:/home/pi/Developer/tinyusb/src/device/usbd.h **** 
  32:/home/pi/Developer/tinyusb/src/device/usbd.h **** #ifdef __cplusplus
  33:/home/pi/Developer/tinyusb/src/device/usbd.h **** extern "C" {
  34:/home/pi/Developer/tinyusb/src/device/usbd.h **** #endif
  35:/home/pi/Developer/tinyusb/src/device/usbd.h **** 
  36:/home/pi/Developer/tinyusb/src/device/usbd.h **** // ConfigID for tud_configure()
  37:/home/pi/Developer/tinyusb/src/device/usbd.h **** enum {
  38:/home/pi/Developer/tinyusb/src/device/usbd.h ****   TUD_CFGID_INVALID = 0,
  39:/home/pi/Developer/tinyusb/src/device/usbd.h ****   TUD_CFGID_DWC2 = 100,
  40:/home/pi/Developer/tinyusb/src/device/usbd.h **** };
  41:/home/pi/Developer/tinyusb/src/device/usbd.h **** 
  42:/home/pi/Developer/tinyusb/src/device/usbd.h **** typedef struct {
  43:/home/pi/Developer/tinyusb/src/device/usbd.h ****   uint16_t bm_double_buffered; // bitmap of IN endpoints to be double buffered, only effective for 
  44:/home/pi/Developer/tinyusb/src/device/usbd.h ****   bool vbus_sensing; // Vbus pin is used for device connection detection, mandatory for tud_umount_
  45:/home/pi/Developer/tinyusb/src/device/usbd.h **** } tud_configure_dwc2_t;
  46:/home/pi/Developer/tinyusb/src/device/usbd.h **** 
  47:/home/pi/Developer/tinyusb/src/device/usbd.h ****   #ifndef CFG_TUD_CONFIGURE_DWC2_DEFAULT
  48:/home/pi/Developer/tinyusb/src/device/usbd.h ****     #define CFG_TUD_CONFIGURE_DWC2_DEFAULT {.bm_double_buffered = 0, .vbus_sensing = CFG_TUD_VBUS_D
  49:/home/pi/Developer/tinyusb/src/device/usbd.h ****   #endif
  50:/home/pi/Developer/tinyusb/src/device/usbd.h **** 
  51:/home/pi/Developer/tinyusb/src/device/usbd.h **** typedef union {
  52:/home/pi/Developer/tinyusb/src/device/usbd.h ****   tud_configure_dwc2_t dwc2;
  53:/home/pi/Developer/tinyusb/src/device/usbd.h **** } tud_configure_param_t;
  54:/home/pi/Developer/tinyusb/src/device/usbd.h **** 
  55:/home/pi/Developer/tinyusb/src/device/usbd.h **** //--------------------------------------------------------------------+
  56:/home/pi/Developer/tinyusb/src/device/usbd.h **** // Application API
  57:/home/pi/Developer/tinyusb/src/device/usbd.h **** //--------------------------------------------------------------------+
  58:/home/pi/Developer/tinyusb/src/device/usbd.h **** 
  59:/home/pi/Developer/tinyusb/src/device/usbd.h **** // Configure device stack behavior with dynamic or port-specific parameters.
  60:/home/pi/Developer/tinyusb/src/device/usbd.h **** // Should be called before initialization of the device stack
ARM GAS  /tmp/cc3fe7I0.s 			page 14


  61:/home/pi/Developer/tinyusb/src/device/usbd.h **** // - cfg_id   : configure ID from TUD_CFGID_* enum values
  62:/home/pi/Developer/tinyusb/src/device/usbd.h **** // - cfg_param: configure data, structure depends on the ID
  63:/home/pi/Developer/tinyusb/src/device/usbd.h **** bool tud_configure(uint8_t rhport, uint32_t cfg_id, const void* cfg_param);
  64:/home/pi/Developer/tinyusb/src/device/usbd.h **** 
  65:/home/pi/Developer/tinyusb/src/device/usbd.h **** // New API to replace tud_init() to init device stack on specific roothub port
  66:/home/pi/Developer/tinyusb/src/device/usbd.h **** // Must be called in the same task/context as tud_task() if RTOS is used
  67:/home/pi/Developer/tinyusb/src/device/usbd.h **** bool tud_rhport_init(uint8_t rhport, const tusb_rhport_init_t* rh_init);
  68:/home/pi/Developer/tinyusb/src/device/usbd.h **** 
  69:/home/pi/Developer/tinyusb/src/device/usbd.h **** // Init device stack on roothub port
  70:/home/pi/Developer/tinyusb/src/device/usbd.h **** #if TUSB_VERSION_NUMBER > 2000  // 0.20.0
  71:/home/pi/Developer/tinyusb/src/device/usbd.h **** TU_ATTR_DEPRECATED("Please use tusb_init(rhport, rh_init) instead")
  72:/home/pi/Developer/tinyusb/src/device/usbd.h **** #endif
  73:/home/pi/Developer/tinyusb/src/device/usbd.h **** TU_ATTR_ALWAYS_INLINE static inline bool tud_init (uint8_t rhport) {
  74:/home/pi/Developer/tinyusb/src/device/usbd.h ****   const tusb_rhport_init_t rh_init = {
  75:/home/pi/Developer/tinyusb/src/device/usbd.h ****     .role = TUSB_ROLE_DEVICE,
  76:/home/pi/Developer/tinyusb/src/device/usbd.h ****     .speed = TUD_OPT_HIGH_SPEED ? TUSB_SPEED_HIGH : TUSB_SPEED_FULL
  77:/home/pi/Developer/tinyusb/src/device/usbd.h ****   };
  78:/home/pi/Developer/tinyusb/src/device/usbd.h ****   return tud_rhport_init(rhport, &rh_init);
  79:/home/pi/Developer/tinyusb/src/device/usbd.h **** }
  80:/home/pi/Developer/tinyusb/src/device/usbd.h **** 
  81:/home/pi/Developer/tinyusb/src/device/usbd.h **** // Deinit device stack on roothub port
  82:/home/pi/Developer/tinyusb/src/device/usbd.h **** // Must be called in the same task/context as tud_task() if RTOS is used
  83:/home/pi/Developer/tinyusb/src/device/usbd.h **** bool tud_deinit(uint8_t rhport);
  84:/home/pi/Developer/tinyusb/src/device/usbd.h **** 
  85:/home/pi/Developer/tinyusb/src/device/usbd.h **** // Check if device stack is already initialized
  86:/home/pi/Developer/tinyusb/src/device/usbd.h **** bool tud_inited(void);
  87:/home/pi/Developer/tinyusb/src/device/usbd.h **** 
  88:/home/pi/Developer/tinyusb/src/device/usbd.h **** // Task function should be called in main/rtos loop, extended version of tud_task()
  89:/home/pi/Developer/tinyusb/src/device/usbd.h **** // - timeout_ms: millisecond to wait, zero = no wait, 0xFFFFFFFF = wait forever
  90:/home/pi/Developer/tinyusb/src/device/usbd.h **** // - in_isr: if function is called in ISR
  91:/home/pi/Developer/tinyusb/src/device/usbd.h **** void tud_task_ext(uint32_t timeout_ms, bool in_isr);
  92:/home/pi/Developer/tinyusb/src/device/usbd.h **** 
  93:/home/pi/Developer/tinyusb/src/device/usbd.h **** // Task function should be called in main/rtos loop
  94:/home/pi/Developer/tinyusb/src/device/usbd.h **** TU_ATTR_ALWAYS_INLINE static inline
  95:/home/pi/Developer/tinyusb/src/device/usbd.h **** void tud_task (void) {
 249              		.loc 7 95 6 discriminator 1 view .LVU54
 250              	.LBB106:
  96:/home/pi/Developer/tinyusb/src/device/usbd.h ****   tud_task_ext(UINT32_MAX, false);
 251              		.loc 7 96 3 discriminator 1 view .LVU55
 252              		.loc 7 96 15 is_stmt 0 discriminator 1 view .LVU56
 253 002e 0021     		movs	r1, #0
 254 0030 4FF0FF30 		mov	r0, #-1
 255 0034 FFF7FEFF 		bl	tud_task_ext
 256              	.LVL17:
 257              	.LBE106:
 258              	.LBE105:
  60:TinyUsbCdcExternal.cpp ****         led_blinking_task();
 259              		.loc 6 60 9 is_stmt 1 discriminator 1 view .LVU57
 260              	.LBB107:
 261              	.LBI107:
  24:TinyUsbCdcExternal.cpp **** {
 262              		.loc 6 24 13 discriminator 1 view .LVU58
 263              	.LBB108:
  26:TinyUsbCdcExternal.cpp ****     static bool led_state = false;
 264              		.loc 6 26 5 discriminator 1 view .LVU59
  27:TinyUsbCdcExternal.cpp ****     uint32_t interval = tud_mounted() ? 1000 : 250;
 265              		.loc 6 27 5 discriminator 1 view .LVU60
ARM GAS  /tmp/cc3fe7I0.s 			page 15


  28:TinyUsbCdcExternal.cpp **** 
 266              		.loc 6 28 5 discriminator 1 view .LVU61
  28:TinyUsbCdcExternal.cpp **** 
 267              		.loc 6 28 36 is_stmt 0 discriminator 1 view .LVU62
 268 0038 FFF7FEFF 		bl	tud_mounted
 269              	.LVL18:
  28:TinyUsbCdcExternal.cpp **** 
 270              		.loc 6 28 39 discriminator 1 view .LVU63
 271 003c 0028     		cmp	r0, #0
 272 003e 14BF     		ite	ne
 273 0040 4FF47A74 		movne	r4, #1000
 274 0044 FA24     		moveq	r4, #250
 275              	.LVL19:
  30:TinyUsbCdcExternal.cpp ****         return;
 276              		.loc 6 30 5 is_stmt 1 discriminator 1 view .LVU64
  30:TinyUsbCdcExternal.cpp ****         return;
 277              		.loc 6 30 22 is_stmt 0 discriminator 1 view .LVU65
 278 0046 FFF7FEFF 		bl	_ZN5daisy6System6GetNowEv
 279              	.LVL20:
  32:TinyUsbCdcExternal.cpp ****     hw.SetLed(led_state);
 280              		.loc 6 32 5 is_stmt 1 discriminator 1 view .LVU66
  30:TinyUsbCdcExternal.cpp ****         return;
 281              		.loc 6 30 25 is_stmt 0 discriminator 1 view .LVU67
 282 004a 2A68     		ldr	r2, [r5]
  30:TinyUsbCdcExternal.cpp ****         return;
 283              		.loc 6 30 22 discriminator 1 view .LVU68
 284 004c 0346     		mov	r3, r0
  33:TinyUsbCdcExternal.cpp ****     led_state = !led_state;
 285              		.loc 6 33 14 discriminator 1 view .LVU69
 286 004e 1048     		ldr	r0, .L26
  32:TinyUsbCdcExternal.cpp ****     hw.SetLed(led_state);
 287              		.loc 6 32 14 discriminator 1 view .LVU70
 288 0050 1719     		adds	r7, r2, r4
  30:TinyUsbCdcExternal.cpp ****         return;
 289              		.loc 6 30 25 discriminator 1 view .LVU71
 290 0052 9B1A     		subs	r3, r3, r2
  30:TinyUsbCdcExternal.cpp ****         return;
 291              		.loc 6 30 5 discriminator 1 view .LVU72
 292 0054 A342     		cmp	r3, r4
 293 0056 07D3     		bcc	.L19
  33:TinyUsbCdcExternal.cpp ****     led_state = !led_state;
 294              		.loc 6 33 14 view .LVU73
 295 0058 3178     		ldrb	r1, [r6]	@ zero_extendqisi2
  32:TinyUsbCdcExternal.cpp ****     hw.SetLed(led_state);
 296              		.loc 6 32 14 view .LVU74
 297 005a 2F60     		str	r7, [r5]
  33:TinyUsbCdcExternal.cpp ****     led_state = !led_state;
 298              		.loc 6 33 5 is_stmt 1 view .LVU75
  33:TinyUsbCdcExternal.cpp ****     led_state = !led_state;
 299              		.loc 6 33 14 is_stmt 0 view .LVU76
 300 005c FFF7FEFF 		bl	_ZN5daisy9DaisySeed6SetLedEb
 301              	.LVL21:
  34:TinyUsbCdcExternal.cpp **** }
 302              		.loc 6 34 5 is_stmt 1 view .LVU77
  34:TinyUsbCdcExternal.cpp **** }
 303              		.loc 6 34 17 is_stmt 0 view .LVU78
 304 0060 3378     		ldrb	r3, [r6]	@ zero_extendqisi2
ARM GAS  /tmp/cc3fe7I0.s 			page 16


 305 0062 83F00103 		eor	r3, r3, #1
  34:TinyUsbCdcExternal.cpp **** }
 306              		.loc 6 34 15 view .LVU79
 307 0066 3370     		strb	r3, [r6]
 308              	.L19:
 309              	.LBE108:
 310              	.LBE107:
  61:TinyUsbCdcExternal.cpp ****         cdc_task();
 311              		.loc 6 61 9 is_stmt 1 view .LVU80
 312              	.LBB109:
 313              	.LBI109:
  37:TinyUsbCdcExternal.cpp **** {
 314              		.loc 6 37 13 view .LVU81
 315              	.LBE109:
  39:TinyUsbCdcExternal.cpp ****     {
 316              		.loc 6 39 5 view .LVU82
 317              	.LBB124:
 318              	.LBB110:
 319              	.LBB111:
 320              	.LBI111:
 321              		.file 8 "/home/pi/Developer/tinyusb/src/class/cdc/cdc_device.h"
   1:/home/pi/Developer/tinyusb/src/class/cdc/cdc_device.h **** /*
   2:/home/pi/Developer/tinyusb/src/class/cdc/cdc_device.h ****  * The MIT License (MIT)
   3:/home/pi/Developer/tinyusb/src/class/cdc/cdc_device.h ****  *
   4:/home/pi/Developer/tinyusb/src/class/cdc/cdc_device.h ****  * Copyright (c) 2019 Ha Thach (tinyusb.org)
   5:/home/pi/Developer/tinyusb/src/class/cdc/cdc_device.h ****  *
   6:/home/pi/Developer/tinyusb/src/class/cdc/cdc_device.h ****  * Permission is hereby granted, free of charge, to any person obtaining a copy
   7:/home/pi/Developer/tinyusb/src/class/cdc/cdc_device.h ****  * of this software and associated documentation files (the "Software"), to deal
   8:/home/pi/Developer/tinyusb/src/class/cdc/cdc_device.h ****  * in the Software without restriction, including without limitation the rights
   9:/home/pi/Developer/tinyusb/src/class/cdc/cdc_device.h ****  * to use, copy, modify, merge, publish, distribute, sublicense, and/or sell
  10:/home/pi/Developer/tinyusb/src/class/cdc/cdc_device.h ****  * copies of the Software, and to permit persons to whom the Software is
  11:/home/pi/Developer/tinyusb/src/class/cdc/cdc_device.h ****  * furnished to do so, subject to the following conditions:
  12:/home/pi/Developer/tinyusb/src/class/cdc/cdc_device.h ****  *
  13:/home/pi/Developer/tinyusb/src/class/cdc/cdc_device.h ****  * The above copyright notice and this permission notice shall be included in
  14:/home/pi/Developer/tinyusb/src/class/cdc/cdc_device.h ****  * all copies or substantial portions of the Software.
  15:/home/pi/Developer/tinyusb/src/class/cdc/cdc_device.h ****  *
  16:/home/pi/Developer/tinyusb/src/class/cdc/cdc_device.h ****  * THE SOFTWARE IS PROVIDED "AS IS", WITHOUT WARRANTY OF ANY KIND, EXPRESS OR
  17:/home/pi/Developer/tinyusb/src/class/cdc/cdc_device.h ****  * IMPLIED, INCLUDING BUT NOT LIMITED TO THE WARRANTIES OF MERCHANTABILITY,
  18:/home/pi/Developer/tinyusb/src/class/cdc/cdc_device.h ****  * FITNESS FOR A PARTICULAR PURPOSE AND NONINFRINGEMENT. IN NO EVENT SHALL THE
  19:/home/pi/Developer/tinyusb/src/class/cdc/cdc_device.h ****  * AUTHORS OR COPYRIGHT HOLDERS BE LIABLE FOR ANY CLAIM, DAMAGES OR OTHER
  20:/home/pi/Developer/tinyusb/src/class/cdc/cdc_device.h ****  * LIABILITY, WHETHER IN AN ACTION OF CONTRACT, TORT OR OTHERWISE, ARISING FROM,
  21:/home/pi/Developer/tinyusb/src/class/cdc/cdc_device.h ****  * OUT OF OR IN CONNECTION WITH THE SOFTWARE OR THE USE OR OTHER DEALINGS IN
  22:/home/pi/Developer/tinyusb/src/class/cdc/cdc_device.h ****  * THE SOFTWARE.
  23:/home/pi/Developer/tinyusb/src/class/cdc/cdc_device.h ****  *
  24:/home/pi/Developer/tinyusb/src/class/cdc/cdc_device.h ****  * This file is part of the TinyUSB stack.
  25:/home/pi/Developer/tinyusb/src/class/cdc/cdc_device.h ****  */
  26:/home/pi/Developer/tinyusb/src/class/cdc/cdc_device.h **** 
  27:/home/pi/Developer/tinyusb/src/class/cdc/cdc_device.h **** #ifndef TUSB_CDC_DEVICE_H_
  28:/home/pi/Developer/tinyusb/src/class/cdc/cdc_device.h **** #define TUSB_CDC_DEVICE_H_
  29:/home/pi/Developer/tinyusb/src/class/cdc/cdc_device.h **** 
  30:/home/pi/Developer/tinyusb/src/class/cdc/cdc_device.h **** #include "cdc.h"
  31:/home/pi/Developer/tinyusb/src/class/cdc/cdc_device.h **** 
  32:/home/pi/Developer/tinyusb/src/class/cdc/cdc_device.h **** #ifdef __cplusplus
  33:/home/pi/Developer/tinyusb/src/class/cdc/cdc_device.h ****  extern "C" {
  34:/home/pi/Developer/tinyusb/src/class/cdc/cdc_device.h **** #endif
  35:/home/pi/Developer/tinyusb/src/class/cdc/cdc_device.h **** 
  36:/home/pi/Developer/tinyusb/src/class/cdc/cdc_device.h **** //--------------------------------------------------------------------+
ARM GAS  /tmp/cc3fe7I0.s 			page 17


  37:/home/pi/Developer/tinyusb/src/class/cdc/cdc_device.h **** // Class Driver Configuration
  38:/home/pi/Developer/tinyusb/src/class/cdc/cdc_device.h **** //--------------------------------------------------------------------+
  39:/home/pi/Developer/tinyusb/src/class/cdc/cdc_device.h **** #ifndef CFG_TUD_CDC_NOTIFY
  40:/home/pi/Developer/tinyusb/src/class/cdc/cdc_device.h ****   #define CFG_TUD_CDC_NOTIFY    0
  41:/home/pi/Developer/tinyusb/src/class/cdc/cdc_device.h **** #endif
  42:/home/pi/Developer/tinyusb/src/class/cdc/cdc_device.h **** 
  43:/home/pi/Developer/tinyusb/src/class/cdc/cdc_device.h **** #ifndef CFG_TUD_CDC_TX_BUFSIZE
  44:/home/pi/Developer/tinyusb/src/class/cdc/cdc_device.h ****   #define CFG_TUD_CDC_TX_BUFSIZE TUD_EPSIZE_BULK_MAX
  45:/home/pi/Developer/tinyusb/src/class/cdc/cdc_device.h **** #endif
  46:/home/pi/Developer/tinyusb/src/class/cdc/cdc_device.h **** 
  47:/home/pi/Developer/tinyusb/src/class/cdc/cdc_device.h **** #ifndef CFG_TUD_CDC_RX_BUFSIZE
  48:/home/pi/Developer/tinyusb/src/class/cdc/cdc_device.h ****   #define CFG_TUD_CDC_RX_BUFSIZE TUD_EPSIZE_BULK_MAX
  49:/home/pi/Developer/tinyusb/src/class/cdc/cdc_device.h **** #endif
  50:/home/pi/Developer/tinyusb/src/class/cdc/cdc_device.h **** 
  51:/home/pi/Developer/tinyusb/src/class/cdc/cdc_device.h **** // EP_BUFSIZE is separated to RX_EPSIZE and TX_EPSIZE
  52:/home/pi/Developer/tinyusb/src/class/cdc/cdc_device.h **** #ifndef CFG_TUD_CDC_RX_EPSIZE
  53:/home/pi/Developer/tinyusb/src/class/cdc/cdc_device.h ****   #ifdef CFG_TUD_CDC_EP_BUFSIZE
  54:/home/pi/Developer/tinyusb/src/class/cdc/cdc_device.h ****     #define CFG_TUD_CDC_RX_EPSIZE CFG_TUD_CDC_EP_BUFSIZE
  55:/home/pi/Developer/tinyusb/src/class/cdc/cdc_device.h ****   #else
  56:/home/pi/Developer/tinyusb/src/class/cdc/cdc_device.h ****     #define CFG_TUD_CDC_RX_EPSIZE TUD_EPSIZE_BULK_MAX
  57:/home/pi/Developer/tinyusb/src/class/cdc/cdc_device.h ****   #endif
  58:/home/pi/Developer/tinyusb/src/class/cdc/cdc_device.h **** #endif
  59:/home/pi/Developer/tinyusb/src/class/cdc/cdc_device.h **** 
  60:/home/pi/Developer/tinyusb/src/class/cdc/cdc_device.h **** #ifndef CFG_TUD_CDC_TX_EPSIZE
  61:/home/pi/Developer/tinyusb/src/class/cdc/cdc_device.h ****   #ifdef CFG_TUD_CDC_EP_BUFSIZE
  62:/home/pi/Developer/tinyusb/src/class/cdc/cdc_device.h ****     #define CFG_TUD_CDC_TX_EPSIZE  CFG_TUD_CDC_EP_BUFSIZE
  63:/home/pi/Developer/tinyusb/src/class/cdc/cdc_device.h ****   #else
  64:/home/pi/Developer/tinyusb/src/class/cdc/cdc_device.h ****     #define CFG_TUD_CDC_TX_EPSIZE TUD_EPSIZE_BULK_MAX
  65:/home/pi/Developer/tinyusb/src/class/cdc/cdc_device.h ****   #endif
  66:/home/pi/Developer/tinyusb/src/class/cdc/cdc_device.h **** #endif
  67:/home/pi/Developer/tinyusb/src/class/cdc/cdc_device.h **** 
  68:/home/pi/Developer/tinyusb/src/class/cdc/cdc_device.h **** // Enable multi-packet RX transfer with ZLP termination for better throughput. Requires host suppor
  69:/home/pi/Developer/tinyusb/src/class/cdc/cdc_device.h **** #ifndef CFG_TUD_CDC_RX_NEED_ZLP
  70:/home/pi/Developer/tinyusb/src/class/cdc/cdc_device.h ****   #define CFG_TUD_CDC_RX_NEED_ZLP 0
  71:/home/pi/Developer/tinyusb/src/class/cdc/cdc_device.h **** #endif
  72:/home/pi/Developer/tinyusb/src/class/cdc/cdc_device.h **** 
  73:/home/pi/Developer/tinyusb/src/class/cdc/cdc_device.h **** // Keep rx fifo data even with bus reset or disconnect
  74:/home/pi/Developer/tinyusb/src/class/cdc/cdc_device.h **** #ifndef CFG_TUD_CDC_RX_PERSISTENT
  75:/home/pi/Developer/tinyusb/src/class/cdc/cdc_device.h ****   #define CFG_TUD_CDC_RX_PERSISTENT 0
  76:/home/pi/Developer/tinyusb/src/class/cdc/cdc_device.h **** #endif
  77:/home/pi/Developer/tinyusb/src/class/cdc/cdc_device.h **** 
  78:/home/pi/Developer/tinyusb/src/class/cdc/cdc_device.h **** // Keep tx fifo data even with bus reset or disconnect
  79:/home/pi/Developer/tinyusb/src/class/cdc/cdc_device.h **** #ifndef CFG_TUD_CDC_TX_PERSISTENT
  80:/home/pi/Developer/tinyusb/src/class/cdc/cdc_device.h ****   #define CFG_TUD_CDC_TX_PERSISTENT 0
  81:/home/pi/Developer/tinyusb/src/class/cdc/cdc_device.h **** #endif
  82:/home/pi/Developer/tinyusb/src/class/cdc/cdc_device.h **** 
  83:/home/pi/Developer/tinyusb/src/class/cdc/cdc_device.h **** // If not connected, tx fifo can be overwritten
  84:/home/pi/Developer/tinyusb/src/class/cdc/cdc_device.h **** #ifndef CFG_TUD_CDC_TX_OVERWRITABLE_IF_NOT_CONNECTED
  85:/home/pi/Developer/tinyusb/src/class/cdc/cdc_device.h ****   #define CFG_TUD_CDC_TX_OVERWRITABLE_IF_NOT_CONNECTED 1
  86:/home/pi/Developer/tinyusb/src/class/cdc/cdc_device.h **** #endif
  87:/home/pi/Developer/tinyusb/src/class/cdc/cdc_device.h **** 
  88:/home/pi/Developer/tinyusb/src/class/cdc/cdc_device.h **** // Backward compatible: tud_cdc_configure_t and tud_cdc_configure() are no longer used.
  89:/home/pi/Developer/tinyusb/src/class/cdc/cdc_device.h **** // Configuration is now done via compile-time macros above.
  90:/home/pi/Developer/tinyusb/src/class/cdc/cdc_device.h **** typedef struct {
  91:/home/pi/Developer/tinyusb/src/class/cdc/cdc_device.h ****   bool rx_persistent;
  92:/home/pi/Developer/tinyusb/src/class/cdc/cdc_device.h ****   bool tx_persistent;
  93:/home/pi/Developer/tinyusb/src/class/cdc/cdc_device.h ****   bool tx_overwritabe_if_not_connected;
ARM GAS  /tmp/cc3fe7I0.s 			page 18


  94:/home/pi/Developer/tinyusb/src/class/cdc/cdc_device.h **** } tud_cdc_configure_t;
  95:/home/pi/Developer/tinyusb/src/class/cdc/cdc_device.h **** 
  96:/home/pi/Developer/tinyusb/src/class/cdc/cdc_device.h **** #define tud_cdc_configure(_cfg)          ((void)(_cfg))
  97:/home/pi/Developer/tinyusb/src/class/cdc/cdc_device.h **** #define tud_cdc_configure_fifo_t         tud_cdc_configure_t
  98:/home/pi/Developer/tinyusb/src/class/cdc/cdc_device.h **** #define tud_cdc_configure_fifo(_cfg)     ((void)(_cfg))
  99:/home/pi/Developer/tinyusb/src/class/cdc/cdc_device.h **** 
 100:/home/pi/Developer/tinyusb/src/class/cdc/cdc_device.h **** //--------------------------------------------------------------------+
 101:/home/pi/Developer/tinyusb/src/class/cdc/cdc_device.h **** // Application API (Multiple Ports) i.e. CFG_TUD_CDC > 1
 102:/home/pi/Developer/tinyusb/src/class/cdc/cdc_device.h **** //--------------------------------------------------------------------+
 103:/home/pi/Developer/tinyusb/src/class/cdc/cdc_device.h **** 
 104:/home/pi/Developer/tinyusb/src/class/cdc/cdc_device.h **** // Check if the interface is ready
 105:/home/pi/Developer/tinyusb/src/class/cdc/cdc_device.h **** bool tud_cdc_n_ready(uint8_t itf);
 106:/home/pi/Developer/tinyusb/src/class/cdc/cdc_device.h **** 
 107:/home/pi/Developer/tinyusb/src/class/cdc/cdc_device.h **** // Check if the terminal is connected to this port
 108:/home/pi/Developer/tinyusb/src/class/cdc/cdc_device.h **** bool tud_cdc_n_connected(uint8_t itf);
 109:/home/pi/Developer/tinyusb/src/class/cdc/cdc_device.h **** 
 110:/home/pi/Developer/tinyusb/src/class/cdc/cdc_device.h **** // Get the current line state. Bit 0:  DTR (Data Terminal Ready), Bit 1: RTS (Request to Send)
 111:/home/pi/Developer/tinyusb/src/class/cdc/cdc_device.h **** uint8_t tud_cdc_n_get_line_state(uint8_t itf);
 112:/home/pi/Developer/tinyusb/src/class/cdc/cdc_device.h **** 
 113:/home/pi/Developer/tinyusb/src/class/cdc/cdc_device.h **** // Get current line encoding: bit rate, stop bits parity etc ..
 114:/home/pi/Developer/tinyusb/src/class/cdc/cdc_device.h **** void tud_cdc_n_get_line_coding(uint8_t itf, cdc_line_coding_t* coding);
 115:/home/pi/Developer/tinyusb/src/class/cdc/cdc_device.h **** 
 116:/home/pi/Developer/tinyusb/src/class/cdc/cdc_device.h **** // Set special character that will trigger tud_cdc_rx_wanted_cb() callback on receiving
 117:/home/pi/Developer/tinyusb/src/class/cdc/cdc_device.h **** void tud_cdc_n_set_wanted_char(uint8_t itf, char wanted);
 118:/home/pi/Developer/tinyusb/src/class/cdc/cdc_device.h **** 
 119:/home/pi/Developer/tinyusb/src/class/cdc/cdc_device.h **** // Get the number of bytes available for reading
 120:/home/pi/Developer/tinyusb/src/class/cdc/cdc_device.h **** uint32_t tud_cdc_n_available(uint8_t itf);
 121:/home/pi/Developer/tinyusb/src/class/cdc/cdc_device.h **** 
 122:/home/pi/Developer/tinyusb/src/class/cdc/cdc_device.h **** // Read received bytes
 123:/home/pi/Developer/tinyusb/src/class/cdc/cdc_device.h **** uint32_t tud_cdc_n_read(uint8_t itf, void* buffer, uint32_t bufsize);
 124:/home/pi/Developer/tinyusb/src/class/cdc/cdc_device.h **** 
 125:/home/pi/Developer/tinyusb/src/class/cdc/cdc_device.h **** // Read a byte, return -1 if there is none
 126:/home/pi/Developer/tinyusb/src/class/cdc/cdc_device.h **** TU_ATTR_ALWAYS_INLINE static inline int32_t tud_cdc_n_read_char(uint8_t itf) {
 127:/home/pi/Developer/tinyusb/src/class/cdc/cdc_device.h ****   uint8_t ch;
 128:/home/pi/Developer/tinyusb/src/class/cdc/cdc_device.h ****   return tud_cdc_n_read(itf, &ch, 1) ? (int32_t) ch : -1;
 129:/home/pi/Developer/tinyusb/src/class/cdc/cdc_device.h **** }
 130:/home/pi/Developer/tinyusb/src/class/cdc/cdc_device.h **** 
 131:/home/pi/Developer/tinyusb/src/class/cdc/cdc_device.h **** // Clear the received FIFO
 132:/home/pi/Developer/tinyusb/src/class/cdc/cdc_device.h **** void tud_cdc_n_read_flush(uint8_t itf);
 133:/home/pi/Developer/tinyusb/src/class/cdc/cdc_device.h **** 
 134:/home/pi/Developer/tinyusb/src/class/cdc/cdc_device.h **** // Get a byte from FIFO without removing it
 135:/home/pi/Developer/tinyusb/src/class/cdc/cdc_device.h **** bool tud_cdc_n_peek(uint8_t itf, uint8_t* ui8);
 136:/home/pi/Developer/tinyusb/src/class/cdc/cdc_device.h **** 
 137:/home/pi/Developer/tinyusb/src/class/cdc/cdc_device.h **** // Write bytes to TX FIFO, data may remain in the FIFO for a while
 138:/home/pi/Developer/tinyusb/src/class/cdc/cdc_device.h **** uint32_t tud_cdc_n_write(uint8_t itf, void const* buffer, uint32_t bufsize);
 139:/home/pi/Developer/tinyusb/src/class/cdc/cdc_device.h **** 
 140:/home/pi/Developer/tinyusb/src/class/cdc/cdc_device.h **** // Write a byte
 141:/home/pi/Developer/tinyusb/src/class/cdc/cdc_device.h **** TU_ATTR_ALWAYS_INLINE static inline uint32_t tud_cdc_n_write_char(uint8_t itf, char ch) {
 142:/home/pi/Developer/tinyusb/src/class/cdc/cdc_device.h ****   return tud_cdc_n_write(itf, &ch, 1);
 143:/home/pi/Developer/tinyusb/src/class/cdc/cdc_device.h **** }
 144:/home/pi/Developer/tinyusb/src/class/cdc/cdc_device.h **** 
 145:/home/pi/Developer/tinyusb/src/class/cdc/cdc_device.h **** // Write a null-terminated string
 146:/home/pi/Developer/tinyusb/src/class/cdc/cdc_device.h **** TU_ATTR_ALWAYS_INLINE static inline uint32_t tud_cdc_n_write_str(uint8_t itf, char const* str) {
 147:/home/pi/Developer/tinyusb/src/class/cdc/cdc_device.h ****   return tud_cdc_n_write(itf, str, strlen(str));
 148:/home/pi/Developer/tinyusb/src/class/cdc/cdc_device.h **** }
 149:/home/pi/Developer/tinyusb/src/class/cdc/cdc_device.h **** 
 150:/home/pi/Developer/tinyusb/src/class/cdc/cdc_device.h **** // Force sending data if possible, return number of forced bytes
ARM GAS  /tmp/cc3fe7I0.s 			page 19


 151:/home/pi/Developer/tinyusb/src/class/cdc/cdc_device.h **** uint32_t tud_cdc_n_write_flush(uint8_t itf);
 152:/home/pi/Developer/tinyusb/src/class/cdc/cdc_device.h **** 
 153:/home/pi/Developer/tinyusb/src/class/cdc/cdc_device.h **** // Return the number of bytes (characters) available for writing to TX FIFO buffer in a single n_wr
 154:/home/pi/Developer/tinyusb/src/class/cdc/cdc_device.h **** uint32_t tud_cdc_n_write_available(uint8_t itf);
 155:/home/pi/Developer/tinyusb/src/class/cdc/cdc_device.h **** 
 156:/home/pi/Developer/tinyusb/src/class/cdc/cdc_device.h **** // Clear the TX FIFO
 157:/home/pi/Developer/tinyusb/src/class/cdc/cdc_device.h **** bool tud_cdc_n_write_clear(uint8_t itf);
 158:/home/pi/Developer/tinyusb/src/class/cdc/cdc_device.h **** 
 159:/home/pi/Developer/tinyusb/src/class/cdc/cdc_device.h **** #if CFG_TUD_CDC_NOTIFY
 160:/home/pi/Developer/tinyusb/src/class/cdc/cdc_device.h **** bool tud_cdc_n_notify_msg(uint8_t itf, cdc_notify_msg_t *msg);
 161:/home/pi/Developer/tinyusb/src/class/cdc/cdc_device.h **** 
 162:/home/pi/Developer/tinyusb/src/class/cdc/cdc_device.h **** // Send UART status notification: DCD, DSR etc ..
 163:/home/pi/Developer/tinyusb/src/class/cdc/cdc_device.h **** TU_ATTR_ALWAYS_INLINE static inline bool tud_cdc_n_notify_uart_state(uint8_t                       
 164:/home/pi/Developer/tinyusb/src/class/cdc/cdc_device.h ****                                                                      const cdc_notify_uart_state_t 
 165:/home/pi/Developer/tinyusb/src/class/cdc/cdc_device.h ****   cdc_notify_msg_t notify_msg;
 166:/home/pi/Developer/tinyusb/src/class/cdc/cdc_device.h ****   notify_msg.request.bmRequestType = CDC_REQ_TYPE_NOTIF;
 167:/home/pi/Developer/tinyusb/src/class/cdc/cdc_device.h ****   notify_msg.request.bRequest      = CDC_NOTIF_SERIAL_STATE;
 168:/home/pi/Developer/tinyusb/src/class/cdc/cdc_device.h ****   notify_msg.request.wValue        = 0;
 169:/home/pi/Developer/tinyusb/src/class/cdc/cdc_device.h ****   notify_msg.request.wIndex        = 0; // filled later
 170:/home/pi/Developer/tinyusb/src/class/cdc/cdc_device.h ****   notify_msg.request.wLength       = sizeof(cdc_notify_uart_state_t);
 171:/home/pi/Developer/tinyusb/src/class/cdc/cdc_device.h ****   notify_msg.serial_state          = *state;
 172:/home/pi/Developer/tinyusb/src/class/cdc/cdc_device.h ****   return tud_cdc_n_notify_msg(itf, &notify_msg);
 173:/home/pi/Developer/tinyusb/src/class/cdc/cdc_device.h **** }
 174:/home/pi/Developer/tinyusb/src/class/cdc/cdc_device.h **** 
 175:/home/pi/Developer/tinyusb/src/class/cdc/cdc_device.h **** // Send connection speed change notification
 176:/home/pi/Developer/tinyusb/src/class/cdc/cdc_device.h **** TU_ATTR_ALWAYS_INLINE static inline bool
 177:/home/pi/Developer/tinyusb/src/class/cdc/cdc_device.h **** tud_cdc_n_notify_conn_speed_change(uint8_t itf, const cdc_notify_conn_speed_change_t *conn_speed_ch
 178:/home/pi/Developer/tinyusb/src/class/cdc/cdc_device.h ****   cdc_notify_msg_t notify_msg;
 179:/home/pi/Developer/tinyusb/src/class/cdc/cdc_device.h ****   notify_msg.request.bmRequestType = CDC_REQ_TYPE_NOTIF;
 180:/home/pi/Developer/tinyusb/src/class/cdc/cdc_device.h ****   notify_msg.request.bRequest      = CDC_NOTIF_CONNECTION_SPEED_CHANGE;
 181:/home/pi/Developer/tinyusb/src/class/cdc/cdc_device.h ****   notify_msg.request.wValue        = 0;
 182:/home/pi/Developer/tinyusb/src/class/cdc/cdc_device.h ****   notify_msg.request.wIndex        = 0; // filled later
 183:/home/pi/Developer/tinyusb/src/class/cdc/cdc_device.h ****   notify_msg.request.wLength       = sizeof(cdc_notify_conn_speed_change_t);
 184:/home/pi/Developer/tinyusb/src/class/cdc/cdc_device.h ****   notify_msg.conn_speed_change     = *conn_speed_change;
 185:/home/pi/Developer/tinyusb/src/class/cdc/cdc_device.h ****   return tud_cdc_n_notify_msg(itf, &notify_msg);
 186:/home/pi/Developer/tinyusb/src/class/cdc/cdc_device.h **** }
 187:/home/pi/Developer/tinyusb/src/class/cdc/cdc_device.h **** 
 188:/home/pi/Developer/tinyusb/src/class/cdc/cdc_device.h **** TU_ATTR_ALWAYS_INLINE static inline bool tud_cdc_notify_msg(cdc_notify_msg_t *msg) {
 189:/home/pi/Developer/tinyusb/src/class/cdc/cdc_device.h ****   return tud_cdc_n_notify_msg(0, msg);
 190:/home/pi/Developer/tinyusb/src/class/cdc/cdc_device.h **** }
 191:/home/pi/Developer/tinyusb/src/class/cdc/cdc_device.h **** 
 192:/home/pi/Developer/tinyusb/src/class/cdc/cdc_device.h **** TU_ATTR_ALWAYS_INLINE static inline bool tud_cdc_notify_uart_state(const cdc_notify_uart_state_t* s
 193:/home/pi/Developer/tinyusb/src/class/cdc/cdc_device.h ****  return tud_cdc_n_notify_uart_state(0, state);
 194:/home/pi/Developer/tinyusb/src/class/cdc/cdc_device.h **** }
 195:/home/pi/Developer/tinyusb/src/class/cdc/cdc_device.h **** 
 196:/home/pi/Developer/tinyusb/src/class/cdc/cdc_device.h **** TU_ATTR_ALWAYS_INLINE static inline bool tud_cdc_notify_conn_speed_change(const cdc_notify_conn_spe
 197:/home/pi/Developer/tinyusb/src/class/cdc/cdc_device.h ****   return tud_cdc_n_notify_conn_speed_change(0, conn_speed_change);
 198:/home/pi/Developer/tinyusb/src/class/cdc/cdc_device.h **** }
 199:/home/pi/Developer/tinyusb/src/class/cdc/cdc_device.h **** #endif
 200:/home/pi/Developer/tinyusb/src/class/cdc/cdc_device.h **** 
 201:/home/pi/Developer/tinyusb/src/class/cdc/cdc_device.h **** //--------------------------------------------------------------------+
 202:/home/pi/Developer/tinyusb/src/class/cdc/cdc_device.h **** // Application API (Single Port)
 203:/home/pi/Developer/tinyusb/src/class/cdc/cdc_device.h **** //--------------------------------------------------------------------+
 204:/home/pi/Developer/tinyusb/src/class/cdc/cdc_device.h **** 
 205:/home/pi/Developer/tinyusb/src/class/cdc/cdc_device.h **** TU_ATTR_ALWAYS_INLINE static inline bool tud_cdc_ready(void) {
 206:/home/pi/Developer/tinyusb/src/class/cdc/cdc_device.h ****   return tud_cdc_n_ready(0);
 207:/home/pi/Developer/tinyusb/src/class/cdc/cdc_device.h **** }
ARM GAS  /tmp/cc3fe7I0.s 			page 20


 208:/home/pi/Developer/tinyusb/src/class/cdc/cdc_device.h **** 
 209:/home/pi/Developer/tinyusb/src/class/cdc/cdc_device.h **** TU_ATTR_ALWAYS_INLINE static inline bool tud_cdc_connected(void) {
 210:/home/pi/Developer/tinyusb/src/class/cdc/cdc_device.h ****   return tud_cdc_n_connected(0);
 211:/home/pi/Developer/tinyusb/src/class/cdc/cdc_device.h **** }
 212:/home/pi/Developer/tinyusb/src/class/cdc/cdc_device.h **** 
 213:/home/pi/Developer/tinyusb/src/class/cdc/cdc_device.h **** TU_ATTR_ALWAYS_INLINE static inline uint8_t tud_cdc_get_line_state(void) {
 214:/home/pi/Developer/tinyusb/src/class/cdc/cdc_device.h ****   return tud_cdc_n_get_line_state(0);
 215:/home/pi/Developer/tinyusb/src/class/cdc/cdc_device.h **** }
 216:/home/pi/Developer/tinyusb/src/class/cdc/cdc_device.h **** 
 217:/home/pi/Developer/tinyusb/src/class/cdc/cdc_device.h **** TU_ATTR_ALWAYS_INLINE static inline void tud_cdc_get_line_coding(cdc_line_coding_t* coding) {
 218:/home/pi/Developer/tinyusb/src/class/cdc/cdc_device.h ****   tud_cdc_n_get_line_coding(0, coding);
 219:/home/pi/Developer/tinyusb/src/class/cdc/cdc_device.h **** }
 220:/home/pi/Developer/tinyusb/src/class/cdc/cdc_device.h **** 
 221:/home/pi/Developer/tinyusb/src/class/cdc/cdc_device.h **** TU_ATTR_ALWAYS_INLINE static inline void tud_cdc_set_wanted_char(char wanted) {
 222:/home/pi/Developer/tinyusb/src/class/cdc/cdc_device.h ****   tud_cdc_n_set_wanted_char(0, wanted);
 223:/home/pi/Developer/tinyusb/src/class/cdc/cdc_device.h **** }
 224:/home/pi/Developer/tinyusb/src/class/cdc/cdc_device.h **** 
 225:/home/pi/Developer/tinyusb/src/class/cdc/cdc_device.h **** TU_ATTR_ALWAYS_INLINE static inline uint32_t tud_cdc_available(void) {
 322              		.loc 8 225 46 view .LVU83
 323              	.LBB112:
 226:/home/pi/Developer/tinyusb/src/class/cdc/cdc_device.h ****   return tud_cdc_n_available(0);
 324              		.loc 8 226 3 view .LVU84
 325              		.loc 8 226 29 is_stmt 0 view .LVU85
 326 0068 0020     		movs	r0, #0
 327 006a FFF7FEFF 		bl	tud_cdc_n_available
 328              	.LVL22:
 329              	.LBE112:
 330              	.LBE111:
  39:TinyUsbCdcExternal.cpp ****     {
 331              		.loc 6 39 5 view .LVU86
 332 006e 0028     		cmp	r0, #0
 333 0070 DDD0     		beq	.L20
 334              	.LBB113:
  41:TinyUsbCdcExternal.cpp ****         uint32_t count = tud_cdc_read(buf, sizeof(buf));
 335              		.loc 6 41 9 is_stmt 1 view .LVU87
  42:TinyUsbCdcExternal.cpp ****         tud_cdc_write(buf, count);
 336              		.loc 6 42 9 view .LVU88
 337              	.LVL23:
 338              	.LBB114:
 339              	.LBI114:
 227:/home/pi/Developer/tinyusb/src/class/cdc/cdc_device.h **** }
 228:/home/pi/Developer/tinyusb/src/class/cdc/cdc_device.h **** 
 229:/home/pi/Developer/tinyusb/src/class/cdc/cdc_device.h **** TU_ATTR_ALWAYS_INLINE static inline int32_t tud_cdc_read_char(void) {
 230:/home/pi/Developer/tinyusb/src/class/cdc/cdc_device.h ****   return tud_cdc_n_read_char(0);
 231:/home/pi/Developer/tinyusb/src/class/cdc/cdc_device.h **** }
 232:/home/pi/Developer/tinyusb/src/class/cdc/cdc_device.h **** 
 233:/home/pi/Developer/tinyusb/src/class/cdc/cdc_device.h **** TU_ATTR_ALWAYS_INLINE static inline uint32_t tud_cdc_read(void* buffer, uint32_t bufsize) {
 340              		.loc 8 233 46 view .LVU89
 341              	.LBB115:
 234:/home/pi/Developer/tinyusb/src/class/cdc/cdc_device.h ****   return tud_cdc_n_read(0, buffer, bufsize);
 342              		.loc 8 234 3 view .LVU90
 343              		.loc 8 234 24 is_stmt 0 view .LVU91
 344 0072 02A9     		add	r1, sp, #8
 345              	.LVL24:
 346              		.loc 8 234 24 view .LVU92
 347 0074 4022     		movs	r2, #64
 348 0076 0020     		movs	r0, #0
ARM GAS  /tmp/cc3fe7I0.s 			page 21


 349 0078 FFF7FEFF 		bl	tud_cdc_n_read
 350              	.LVL25:
 351              		.loc 8 234 24 view .LVU93
 352              	.LBE115:
 353              	.LBE114:
 354              	.LBB117:
 355              	.LBB118:
 235:/home/pi/Developer/tinyusb/src/class/cdc/cdc_device.h **** }
 236:/home/pi/Developer/tinyusb/src/class/cdc/cdc_device.h **** 
 237:/home/pi/Developer/tinyusb/src/class/cdc/cdc_device.h **** TU_ATTR_ALWAYS_INLINE static inline void tud_cdc_read_flush(void) {
 238:/home/pi/Developer/tinyusb/src/class/cdc/cdc_device.h ****   tud_cdc_n_read_flush(0);
 239:/home/pi/Developer/tinyusb/src/class/cdc/cdc_device.h **** }
 240:/home/pi/Developer/tinyusb/src/class/cdc/cdc_device.h **** 
 241:/home/pi/Developer/tinyusb/src/class/cdc/cdc_device.h **** TU_ATTR_ALWAYS_INLINE static inline bool tud_cdc_peek(uint8_t* ui8) {
 242:/home/pi/Developer/tinyusb/src/class/cdc/cdc_device.h ****   return tud_cdc_n_peek(0, ui8);
 243:/home/pi/Developer/tinyusb/src/class/cdc/cdc_device.h **** }
 244:/home/pi/Developer/tinyusb/src/class/cdc/cdc_device.h **** 
 245:/home/pi/Developer/tinyusb/src/class/cdc/cdc_device.h **** TU_ATTR_ALWAYS_INLINE static inline uint32_t tud_cdc_write_char(char ch) {
 246:/home/pi/Developer/tinyusb/src/class/cdc/cdc_device.h ****   return tud_cdc_n_write_char(0, ch);
 247:/home/pi/Developer/tinyusb/src/class/cdc/cdc_device.h **** }
 248:/home/pi/Developer/tinyusb/src/class/cdc/cdc_device.h **** 
 249:/home/pi/Developer/tinyusb/src/class/cdc/cdc_device.h **** TU_ATTR_ALWAYS_INLINE static inline uint32_t tud_cdc_write(void const* buffer, uint32_t bufsize) {
 250:/home/pi/Developer/tinyusb/src/class/cdc/cdc_device.h ****   return tud_cdc_n_write(0, buffer, bufsize);
 356              		.loc 8 250 25 view .LVU94
 357 007c 02A9     		add	r1, sp, #8
 358              	.LBE118:
 359              	.LBE117:
 360              	.LBB120:
 361              	.LBB116:
 234:/home/pi/Developer/tinyusb/src/class/cdc/cdc_device.h ****   return tud_cdc_n_read(0, buffer, bufsize);
 362              		.loc 8 234 24 view .LVU95
 363 007e 0246     		mov	r2, r0
 364              	.LVL26:
 234:/home/pi/Developer/tinyusb/src/class/cdc/cdc_device.h ****   return tud_cdc_n_read(0, buffer, bufsize);
 365              		.loc 8 234 24 view .LVU96
 366              	.LBE116:
 367              	.LBE120:
  43:TinyUsbCdcExternal.cpp ****         tud_cdc_write_flush();
 368              		.loc 6 43 9 is_stmt 1 view .LVU97
 369              	.LBB121:
 370              	.LBI117:
 249:/home/pi/Developer/tinyusb/src/class/cdc/cdc_device.h ****   return tud_cdc_n_write(0, buffer, bufsize);
 371              		.loc 8 249 46 view .LVU98
 372              	.LBB119:
 373              		.loc 8 250 3 view .LVU99
 374              		.loc 8 250 25 is_stmt 0 view .LVU100
 375 0080 0020     		movs	r0, #0
 376              	.LVL27:
 377              		.loc 8 250 25 view .LVU101
 378 0082 FFF7FEFF 		bl	tud_cdc_n_write
 379              	.LVL28:
 380              		.loc 8 250 25 view .LVU102
 381              	.LBE119:
 382              	.LBE121:
  44:TinyUsbCdcExternal.cpp ****     }
 383              		.loc 6 44 9 is_stmt 1 view .LVU103
 384              	.LBB122:
ARM GAS  /tmp/cc3fe7I0.s 			page 22


 385              	.LBI122:
 251:/home/pi/Developer/tinyusb/src/class/cdc/cdc_device.h **** }
 252:/home/pi/Developer/tinyusb/src/class/cdc/cdc_device.h **** 
 253:/home/pi/Developer/tinyusb/src/class/cdc/cdc_device.h **** TU_ATTR_ALWAYS_INLINE static inline uint32_t tud_cdc_write_str(char const* str) {
 254:/home/pi/Developer/tinyusb/src/class/cdc/cdc_device.h ****   return tud_cdc_n_write_str(0, str);
 255:/home/pi/Developer/tinyusb/src/class/cdc/cdc_device.h **** }
 256:/home/pi/Developer/tinyusb/src/class/cdc/cdc_device.h **** 
 257:/home/pi/Developer/tinyusb/src/class/cdc/cdc_device.h **** TU_ATTR_ALWAYS_INLINE static inline uint32_t tud_cdc_write_flush(void) {
 386              		.loc 8 257 46 view .LVU104
 387              	.LBB123:
 258:/home/pi/Developer/tinyusb/src/class/cdc/cdc_device.h ****   return tud_cdc_n_write_flush(0);
 388              		.loc 8 258 3 view .LVU105
 389              		.loc 8 258 31 is_stmt 0 view .LVU106
 390 0086 0020     		movs	r0, #0
 391 0088 FFF7FEFF 		bl	tud_cdc_n_write_flush
 392              	.LVL29:
 393              	.LBE123:
 394              	.LBE122:
 395              	.LBE113:
 396 008c CFE7     		b	.L20
 397              	.L27:
 398 008e 00BF     		.align	2
 399              	.L26:
 400 0090 00000000 		.word	.LANCHOR0
 401 0094 24000000 		.word	.LANCHOR0+36
 402 0098 00000000 		.word	.LANCHOR1
 403 009c 00000000 		.word	.LANCHOR2
 404 00a0 00000000 		.word	.LANCHOR3
 405              	.LBE110:
 406              	.LBE124:
 407              		.cfi_endproc
 408              	.LFE2669:
 410              		.section	.text.startup._GLOBAL__sub_I_hw,"ax",%progbits
 411              		.align	1
 412              		.p2align 2,,3
 413              		.syntax unified
 414              		.thumb
 415              		.thumb_func
 416              		.fpu fpv5-d16
 418              	_GLOBAL__sub_I_hw:
 419              	.LFB2688:
  62:TinyUsbCdcExternal.cpp ****     }
  63:TinyUsbCdcExternal.cpp **** }
 420              		.loc 6 63 1 is_stmt 1 view -0
 421              		.cfi_startproc
 422              		@ args = 0, pretend = 0, frame = 0
 423              		@ frame_needed = 0, uses_anonymous_args = 0
 424              		@ link register save eliminated.
 425              	.LBB146:
 426              	.LBI146:
 427              		.loc 6 63 1 view .LVU108
 428              	.LVL30:
 429              	.LBB147:
 430              	.LBB148:
 431              	.LBI148:
  21:../../libDaisy/src/daisy_seed.h ****     ~DaisySeed() {}
 432              		.loc 1 21 5 view .LVU109
ARM GAS  /tmp/cc3fe7I0.s 			page 23


 433              	.LBB149:
 434              	.LBB150:
 435              	.LBI150:
 436              		.file 9 "../../libDaisy/src/per/qspi.h"
   1:../../libDaisy/src/per/qspi.h **** #ifndef DSY_QSPI
   2:../../libDaisy/src/per/qspi.h **** #define DSY_QSPI /**< Macro */
   3:../../libDaisy/src/per/qspi.h **** 
   4:../../libDaisy/src/per/qspi.h **** #ifndef UNIT_TEST // for unit tests, a dummy implementation
   5:../../libDaisy/src/per/qspi.h **** 
   6:../../libDaisy/src/per/qspi.h **** #include <cstdint>
   7:../../libDaisy/src/per/qspi.h **** #include "daisy_core.h" // Added for dsy_gpio_pin typedef
   8:../../libDaisy/src/per/qspi.h **** 
   9:../../libDaisy/src/per/qspi.h **** #define DSY_QSPI_TEXT       \
  10:../../libDaisy/src/per/qspi.h ****     __attribute__((section( \
  11:../../libDaisy/src/per/qspi.h ****         ".qspiflash_text"))) /**< used for reading memory in memory_mapped mode. */
  12:../../libDaisy/src/per/qspi.h **** #define DSY_QSPI_DATA       \
  13:../../libDaisy/src/per/qspi.h ****     __attribute__((section( \
  14:../../libDaisy/src/per/qspi.h ****         ".qspiflash_data"))) /**< used for reading memory in memory_mapped mode. */
  15:../../libDaisy/src/per/qspi.h **** #define DSY_QSPI_BSS        \
  16:../../libDaisy/src/per/qspi.h ****     __attribute__((section( \
  17:../../libDaisy/src/per/qspi.h ****         ".qspiflash_bss"))) /**< used for reading memory in memory_mapped mode. */
  18:../../libDaisy/src/per/qspi.h **** 
  19:../../libDaisy/src/per/qspi.h **** namespace daisy
  20:../../libDaisy/src/per/qspi.h **** {
  21:../../libDaisy/src/per/qspi.h **** /** @addtogroup serial
  22:../../libDaisy/src/per/qspi.h **** @{
  23:../../libDaisy/src/per/qspi.h **** */
  24:../../libDaisy/src/per/qspi.h **** 
  25:../../libDaisy/src/per/qspi.h **** /** 
  26:../../libDaisy/src/per/qspi.h ****  Driver for QSPI peripheral to interface with external flash memory. \n 
  27:../../libDaisy/src/per/qspi.h ****     Currently supported QSPI Devices: \n 
  28:../../libDaisy/src/per/qspi.h ****     * IS25LP080D
  29:../../libDaisy/src/per/qspi.h **** */
  30:../../libDaisy/src/per/qspi.h **** class QSPIHandle
  31:../../libDaisy/src/per/qspi.h **** {
  32:../../libDaisy/src/per/qspi.h ****   public:
  33:../../libDaisy/src/per/qspi.h ****     enum Result
  34:../../libDaisy/src/per/qspi.h ****     {
  35:../../libDaisy/src/per/qspi.h ****         OK = 0,
  36:../../libDaisy/src/per/qspi.h ****         ERR
  37:../../libDaisy/src/per/qspi.h ****     };
  38:../../libDaisy/src/per/qspi.h **** 
  39:../../libDaisy/src/per/qspi.h ****     /** Indicates the current status of the module. 
  40:../../libDaisy/src/per/qspi.h ****          *  Warnings are indicated by a leading W.
  41:../../libDaisy/src/per/qspi.h ****          *  Errors are indicated by a leading E and cause an immediate exit.
  42:../../libDaisy/src/per/qspi.h ****          * 
  43:../../libDaisy/src/per/qspi.h ****          *  \param GOOD - No errors have been reported.
  44:../../libDaisy/src/per/qspi.h ****          *  \param E_HAL_ERROR - HAL code did not return HAL_OK.
  45:../../libDaisy/src/per/qspi.h ****          *  \param E_SWITCHING_MODES - An error was encountered while switching QSPI peripheral mod
  46:../../libDaisy/src/per/qspi.h ****          *  \param E_INVALID_MODE - QSPI should not be written to while the program is executing fr
  47:../../libDaisy/src/per/qspi.h ****          */
  48:../../libDaisy/src/per/qspi.h ****     enum Status
  49:../../libDaisy/src/per/qspi.h ****     {
  50:../../libDaisy/src/per/qspi.h ****         GOOD = 0,
  51:../../libDaisy/src/per/qspi.h ****         E_HAL_ERROR,
  52:../../libDaisy/src/per/qspi.h ****         E_SWITCHING_MODES,
  53:../../libDaisy/src/per/qspi.h ****         E_INVALID_MODE,
ARM GAS  /tmp/cc3fe7I0.s 			page 24


  54:../../libDaisy/src/per/qspi.h ****     };
  55:../../libDaisy/src/per/qspi.h **** 
  56:../../libDaisy/src/per/qspi.h ****     /** Configuration structure for interfacing with QSPI Driver */
  57:../../libDaisy/src/per/qspi.h ****     struct Config
  58:../../libDaisy/src/per/qspi.h ****     {
  59:../../libDaisy/src/per/qspi.h ****         /** Flash Devices supported. (Both of these are more-or-less the same, just different sizes
  60:../../libDaisy/src/per/qspi.h ****         enum Device
  61:../../libDaisy/src/per/qspi.h ****         {
  62:../../libDaisy/src/per/qspi.h ****             IS25LP080D,  /**< & */
  63:../../libDaisy/src/per/qspi.h ****             IS25LP064A,  /**< & */
  64:../../libDaisy/src/per/qspi.h ****             DEVICE_LAST, /**< & */
  65:../../libDaisy/src/per/qspi.h ****         };
  66:../../libDaisy/src/per/qspi.h **** 
  67:../../libDaisy/src/per/qspi.h ****         /** 
  68:../../libDaisy/src/per/qspi.h ****         Modes of operation.
  69:../../libDaisy/src/per/qspi.h ****         Memory Mapped mode: QSPI configured so that the QSPI can be
  70:../../libDaisy/src/per/qspi.h ****         read from starting address 0x90000000. Writing is not
  71:../../libDaisy/src/per/qspi.h ****         possible in this mode. \n 
  72:../../libDaisy/src/per/qspi.h ****         Indirect Polling mode: Device driver enabled. 
  73:../../libDaisy/src/per/qspi.h ****         */
  74:../../libDaisy/src/per/qspi.h ****         enum Mode
  75:../../libDaisy/src/per/qspi.h ****         {
  76:../../libDaisy/src/per/qspi.h ****             MEMORY_MAPPED,    /**< & */
  77:../../libDaisy/src/per/qspi.h ****             INDIRECT_POLLING, /**< & */
  78:../../libDaisy/src/per/qspi.h ****             MODE_LAST,
  79:../../libDaisy/src/per/qspi.h ****         };
  80:../../libDaisy/src/per/qspi.h **** 
  81:../../libDaisy/src/per/qspi.h ****         //SCK,  CE# (active low)
  82:../../libDaisy/src/per/qspi.h ****         struct
  83:../../libDaisy/src/per/qspi.h ****         {
  84:../../libDaisy/src/per/qspi.h ****             dsy_gpio_pin io0; /**< & */
  85:../../libDaisy/src/per/qspi.h ****             dsy_gpio_pin io1; /**< & */
  86:../../libDaisy/src/per/qspi.h ****             dsy_gpio_pin io2; /**< & */
  87:../../libDaisy/src/per/qspi.h ****             dsy_gpio_pin io3; /**< & */
  88:../../libDaisy/src/per/qspi.h ****             dsy_gpio_pin clk; /**< & */
  89:../../libDaisy/src/per/qspi.h ****             dsy_gpio_pin ncs; /**< & */
  90:../../libDaisy/src/per/qspi.h ****         } pin_config;
  91:../../libDaisy/src/per/qspi.h **** 
  92:../../libDaisy/src/per/qspi.h ****         Device device;
  93:../../libDaisy/src/per/qspi.h ****         Mode   mode;
  94:../../libDaisy/src/per/qspi.h ****     };
  95:../../libDaisy/src/per/qspi.h **** 
  96:../../libDaisy/src/per/qspi.h ****     /** 
  97:../../libDaisy/src/per/qspi.h ****         Initializes QSPI peripheral, and Resets, and prepares memory for access.
  98:../../libDaisy/src/per/qspi.h ****         \param config should be populated with the mode, device and pin_config before calling this 
  99:../../libDaisy/src/per/qspi.h ****         \return Result::OK or Result::ERR
 100:../../libDaisy/src/per/qspi.h ****         */
 101:../../libDaisy/src/per/qspi.h ****     Result Init(const Config& config);
 102:../../libDaisy/src/per/qspi.h **** 
 103:../../libDaisy/src/per/qspi.h ****     /** Returns the current config. */
 104:../../libDaisy/src/per/qspi.h ****     const Config& GetConfig() const;
 105:../../libDaisy/src/per/qspi.h **** 
 106:../../libDaisy/src/per/qspi.h ****     // Couldn't this just be called before anything else in init? That
 107:../../libDaisy/src/per/qspi.h ****     // would make manually calling it unnecessary.
 108:../../libDaisy/src/per/qspi.h ****     /** 
 109:../../libDaisy/src/per/qspi.h ****         Deinitializes the peripheral
 110:../../libDaisy/src/per/qspi.h ****         This should be called before reinitializing QSPI in a different mode.
ARM GAS  /tmp/cc3fe7I0.s 			page 25


 111:../../libDaisy/src/per/qspi.h ****         \return Result::OK or Result::ERR
 112:../../libDaisy/src/per/qspi.h ****         */
 113:../../libDaisy/src/per/qspi.h ****     Result DeInit();
 114:../../libDaisy/src/per/qspi.h **** 
 115:../../libDaisy/src/per/qspi.h ****     /** 
 116:../../libDaisy/src/per/qspi.h ****         Writes a single page to to the specified address on the QSPI chip.
 117:../../libDaisy/src/per/qspi.h ****         For IS25LP*, page size is 256 bytes.
 118:../../libDaisy/src/per/qspi.h ****         \param address Address to write to
 119:../../libDaisy/src/per/qspi.h ****         \param size Buffer size
 120:../../libDaisy/src/per/qspi.h ****         \param buffer Buffer to write
 121:../../libDaisy/src/per/qspi.h ****         \return Result::OK or Result::ERR
 122:../../libDaisy/src/per/qspi.h ****         */
 123:../../libDaisy/src/per/qspi.h ****     Result WritePage(uint32_t address, uint32_t size, uint8_t* buffer);
 124:../../libDaisy/src/per/qspi.h **** 
 125:../../libDaisy/src/per/qspi.h ****     /** 
 126:../../libDaisy/src/per/qspi.h ****         Writes data in buffer to to the QSPI. Starting at address to address+size 
 127:../../libDaisy/src/per/qspi.h ****         \param address Address to write to
 128:../../libDaisy/src/per/qspi.h ****         \param size Buffer size
 129:../../libDaisy/src/per/qspi.h ****         \param buffer Buffer to write
 130:../../libDaisy/src/per/qspi.h ****         \return Result::OK or Result::ERR
 131:../../libDaisy/src/per/qspi.h ****         */
 132:../../libDaisy/src/per/qspi.h ****     Result Write(uint32_t address, uint32_t size, uint8_t* buffer);
 133:../../libDaisy/src/per/qspi.h **** 
 134:../../libDaisy/src/per/qspi.h ****     /** 
 135:../../libDaisy/src/per/qspi.h ****         Erases the area specified on the chip.
 136:../../libDaisy/src/per/qspi.h ****         Erasures will happen by 4K, 32K or 64K increments.
 137:../../libDaisy/src/per/qspi.h ****         Smallest erase possible is 4kB at a time. (on IS25LP*)
 138:../../libDaisy/src/per/qspi.h ****         \param start_addr Address to begin erasing from
 139:../../libDaisy/src/per/qspi.h ****         \param end_addr  Address to stop erasing at
 140:../../libDaisy/src/per/qspi.h ****         \return Result::OK or Result::ERR
 141:../../libDaisy/src/per/qspi.h ****         */
 142:../../libDaisy/src/per/qspi.h ****     Result Erase(uint32_t start_addr, uint32_t end_addr);
 143:../../libDaisy/src/per/qspi.h **** 
 144:../../libDaisy/src/per/qspi.h ****     /**  
 145:../../libDaisy/src/per/qspi.h ****          Erases a single sector of the chip.  
 146:../../libDaisy/src/per/qspi.h ****         TODO: Document the size of this function. 
 147:../../libDaisy/src/per/qspi.h ****         \param address Address of sector to erase
 148:../../libDaisy/src/per/qspi.h ****         \return Result::OK or Result::ERR
 149:../../libDaisy/src/per/qspi.h ****         */
 150:../../libDaisy/src/per/qspi.h ****     Result EraseSector(uint32_t address);
 151:../../libDaisy/src/per/qspi.h **** 
 152:../../libDaisy/src/per/qspi.h ****     /** Returns the current class status. Useful for debugging.
 153:../../libDaisy/src/per/qspi.h ****      *  \returns Status
 154:../../libDaisy/src/per/qspi.h ****      */
 155:../../libDaisy/src/per/qspi.h ****     Status GetStatus();
 156:../../libDaisy/src/per/qspi.h **** 
 157:../../libDaisy/src/per/qspi.h ****     /** Returns a pointer to the actual memory used 
 158:../../libDaisy/src/per/qspi.h ****      *  The memory at this address is read-only
 159:../../libDaisy/src/per/qspi.h ****      *  to write to it use the Write function.
 160:../../libDaisy/src/per/qspi.h ****      * 
 161:../../libDaisy/src/per/qspi.h ****      *  \param offset returns the pointer starting this 
 162:../../libDaisy/src/per/qspi.h ****      *                many bytes into the memory
 163:../../libDaisy/src/per/qspi.h ****     */
 164:../../libDaisy/src/per/qspi.h ****     void* GetData(uint32_t offset = 0);
 165:../../libDaisy/src/per/qspi.h **** 
 166:../../libDaisy/src/per/qspi.h ****     QSPIHandle() : pimpl_(nullptr) {}
 437              		.loc 9 166 5 view .LVU110
ARM GAS  /tmp/cc3fe7I0.s 			page 26


 438              	.LBB151:
 439              	.LBB152:
 440              		.loc 9 166 34 is_stmt 0 view .LVU111
 441 0000 0448     		ldr	r0, .L29
 442 0002 0023     		movs	r3, #0
 443              	.LBE152:
 444              	.LBE151:
 445              	.LBE150:
 446              	.LBE149:
 447              	.LBE148:
   6:TinyUsbCdcExternal.cpp **** 
 448              		.loc 6 6 11 view .LVU112
 449 0004 044A     		ldr	r2, .L29+4
 450 0006 0549     		ldr	r1, .L29+8
 451              	.LBB169:
 452              	.LBB168:
 453              	.LBB155:
 454              	.LBB154:
 455              	.LBB153:
 456              		.loc 9 166 34 view .LVU113
 457 0008 0360     		str	r3, [r0]
 458              	.LVL31:
 459              		.loc 9 166 34 view .LVU114
 460              	.LBE153:
 461              	.LBE154:
 462              	.LBE155:
 463              	.LBB156:
 464              	.LBI156:
  95:../../libDaisy/src/hid/audio.h ****     ~AudioHandle() {}
 465              		.loc 5 95 5 is_stmt 1 view .LVU115
 466              	.LBB157:
 467              	.LBB158:
  95:../../libDaisy/src/hid/audio.h ****     ~AudioHandle() {}
 468              		.loc 5 95 35 is_stmt 0 view .LVU116
 469 000a 4361     		str	r3, [r0, #20]
 470              	.LVL32:
  95:../../libDaisy/src/hid/audio.h ****     ~AudioHandle() {}
 471              		.loc 5 95 35 view .LVU117
 472              	.LBE158:
 473              	.LBE157:
 474              	.LBE156:
 475              	.LBB159:
 476              	.LBI159:
 109:../../libDaisy/src/per/adc.h ****     ~AdcHandle() {}
 477              		.loc 4 109 5 is_stmt 1 view .LVU118
 109:../../libDaisy/src/per/adc.h ****     ~AdcHandle() {}
 478              		.loc 4 109 5 is_stmt 0 view .LVU119
 479              	.LBE159:
 480              	.LBB160:
 481              	.LBI160:
 482              		.file 10 "../../libDaisy/src/per/dac.h"
   1:../../libDaisy/src/per/dac.h **** #pragma once
   2:../../libDaisy/src/per/dac.h **** #ifndef DSY_DAC_H
   3:../../libDaisy/src/per/dac.h **** #define DSY_DAC_H
   4:../../libDaisy/src/per/dac.h **** 
   5:../../libDaisy/src/per/dac.h **** #include "daisy_core.h"
   6:../../libDaisy/src/per/dac.h **** 
ARM GAS  /tmp/cc3fe7I0.s 			page 27


   7:../../libDaisy/src/per/dac.h **** namespace daisy
   8:../../libDaisy/src/per/dac.h **** {
   9:../../libDaisy/src/per/dac.h **** /** @brief DAC handle for Built-in DAC Peripheral 
  10:../../libDaisy/src/per/dac.h ****  *  @ingroup per_analog
  11:../../libDaisy/src/per/dac.h ****  ** 
  12:../../libDaisy/src/per/dac.h ****  ** For now only Normal Mode is supported,
  13:../../libDaisy/src/per/dac.h ****  ** Sample and hold mode provides reduced power consumption, but requires a bit more setup.
  14:../../libDaisy/src/per/dac.h ****  **
  15:../../libDaisy/src/per/dac.h ****  ** For now connecting the DAC through other internal peripherals is also not supported.
  16:../../libDaisy/src/per/dac.h ****  **
  17:../../libDaisy/src/per/dac.h ****  ** Since the DAC channels have dedicated pins we don't need to pass in a pin config like with
  18:../../libDaisy/src/per/dac.h ****  ** other modules. However, it is still important to not try to use the DAC pins for anything else.
  19:../../libDaisy/src/per/dac.h ****  ** DAC Channel 1 is on PA4, and DAC Channel 2 is on PA5
  20:../../libDaisy/src/per/dac.h ****  ***/
  21:../../libDaisy/src/per/dac.h **** class DacHandle
  22:../../libDaisy/src/per/dac.h **** {
  23:../../libDaisy/src/per/dac.h ****   public:
  24:../../libDaisy/src/per/dac.h ****     /** Return Values for the DacHandle class */
  25:../../libDaisy/src/per/dac.h ****     enum class Result
  26:../../libDaisy/src/per/dac.h ****     {
  27:../../libDaisy/src/per/dac.h ****         OK,
  28:../../libDaisy/src/per/dac.h ****         ERR,
  29:../../libDaisy/src/per/dac.h ****     };
  30:../../libDaisy/src/per/dac.h **** 
  31:../../libDaisy/src/per/dac.h ****     /** Selects which channel(s) will be configured for use. */
  32:../../libDaisy/src/per/dac.h ****     enum class Channel
  33:../../libDaisy/src/per/dac.h ****     {
  34:../../libDaisy/src/per/dac.h ****         ONE,
  35:../../libDaisy/src/per/dac.h ****         TWO,
  36:../../libDaisy/src/per/dac.h ****         BOTH,
  37:../../libDaisy/src/per/dac.h ****     };
  38:../../libDaisy/src/per/dac.h **** 
  39:../../libDaisy/src/per/dac.h ****     /** Sets the Mode for the DAC channels.
  40:../../libDaisy/src/per/dac.h ****      **
  41:../../libDaisy/src/per/dac.h ****      ** Polling mode uses the blocking mode to transmit a single value at a time.
  42:../../libDaisy/src/per/dac.h ****      **
  43:../../libDaisy/src/per/dac.h ****      ** DMA mode uses a buffer, and periodically transmits it triggering a 
  44:../../libDaisy/src/per/dac.h ****      ** callback to fill the buffer when it is ready for more samples.
  45:../../libDaisy/src/per/dac.h ****      ***/
  46:../../libDaisy/src/per/dac.h ****     enum class Mode
  47:../../libDaisy/src/per/dac.h ****     {
  48:../../libDaisy/src/per/dac.h ****         POLLING,
  49:../../libDaisy/src/per/dac.h ****         DMA,
  50:../../libDaisy/src/per/dac.h ****     };
  51:../../libDaisy/src/per/dac.h **** 
  52:../../libDaisy/src/per/dac.h ****     /** Sets the number of bits per sample transmitted out of the DAC.
  53:../../libDaisy/src/per/dac.h ****      ** The output range will be: 0V - VDDA
  54:../../libDaisy/src/per/dac.h ****      ** The resolution will be roughly: bitdepth / (VDDA - 0V) 
  55:../../libDaisy/src/per/dac.h ****      ***/
  56:../../libDaisy/src/per/dac.h ****     enum class BitDepth
  57:../../libDaisy/src/per/dac.h ****     {
  58:../../libDaisy/src/per/dac.h ****         BITS_8,
  59:../../libDaisy/src/per/dac.h ****         BITS_12
  60:../../libDaisy/src/per/dac.h ****     };
  61:../../libDaisy/src/per/dac.h **** 
  62:../../libDaisy/src/per/dac.h ****     /** Sets whether the DAC output is buffered for higher drive ability. */
  63:../../libDaisy/src/per/dac.h ****     enum class BufferState
ARM GAS  /tmp/cc3fe7I0.s 			page 28


  64:../../libDaisy/src/per/dac.h ****     {
  65:../../libDaisy/src/per/dac.h ****         ENABLED,
  66:../../libDaisy/src/per/dac.h ****         DISABLED,
  67:../../libDaisy/src/per/dac.h ****     };
  68:../../libDaisy/src/per/dac.h **** 
  69:../../libDaisy/src/per/dac.h ****     /** Configuration structure for initializing the DAC structure. */
  70:../../libDaisy/src/per/dac.h ****     struct Config
  71:../../libDaisy/src/per/dac.h ****     {
  72:../../libDaisy/src/per/dac.h ****         /** Target Samplerate in Hz used to configure the internal 
  73:../../libDaisy/src/per/dac.h ****          ** timebase for DMA mode. Does nothing in POLLING mode.
  74:../../libDaisy/src/per/dac.h ****          ** If the value is 0 at Init time this will default to 48000Hz 
  75:../../libDaisy/src/per/dac.h ****          ** otherwise the driver will attempt meet the target.*/
  76:../../libDaisy/src/per/dac.h ****         uint32_t target_samplerate;
  77:../../libDaisy/src/per/dac.h **** 
  78:../../libDaisy/src/per/dac.h ****         Channel     chn;
  79:../../libDaisy/src/per/dac.h ****         Mode        mode;
  80:../../libDaisy/src/per/dac.h ****         BitDepth    bitdepth;
  81:../../libDaisy/src/per/dac.h ****         BufferState buff_state;
  82:../../libDaisy/src/per/dac.h ****     };
  83:../../libDaisy/src/per/dac.h **** 
  84:../../libDaisy/src/per/dac.h ****     DacHandle() : pimpl_(nullptr) {}
 483              		.loc 10 84 5 is_stmt 1 view .LVU120
 484              	.LBB161:
 485              	.LBB162:
 486              		.loc 10 84 33 is_stmt 0 view .LVU121
 487 000c 0362     		str	r3, [r0, #32]
 488              	.LVL33:
 489              		.loc 10 84 33 view .LVU122
 490              	.LBE162:
 491              	.LBE161:
 492              	.LBE160:
 493              	.LBB163:
 494              	.LBI163:
  40:../../libDaisy/src/hid/usb.h **** 
 495              		.loc 3 40 5 is_stmt 1 view .LVU123
  40:../../libDaisy/src/hid/usb.h **** 
 496              		.loc 3 40 5 is_stmt 0 view .LVU124
 497              	.LBE163:
 498              	.LBB164:
 499              	.LBI164:
  96:../../libDaisy/src/sys/system.h ****     ~System() {}
 500              		.loc 2 96 5 is_stmt 1 view .LVU125
  96:../../libDaisy/src/sys/system.h ****     ~System() {}
 501              		.loc 2 96 5 is_stmt 0 view .LVU126
 502              	.LBE164:
 503              	.LBB165:
 504              	.LBI165:
 505              		.file 11 "../../libDaisy/src/per/sai.h"
   1:../../libDaisy/src/per/sai.h **** #pragma once
   2:../../libDaisy/src/per/sai.h **** #ifndef DSY_SAI_H
   3:../../libDaisy/src/per/sai.h **** #define DSY_SAI_H
   4:../../libDaisy/src/per/sai.h **** 
   5:../../libDaisy/src/per/sai.h **** #include "daisy_core.h"
   6:../../libDaisy/src/per/sai.h **** 
   7:../../libDaisy/src/per/sai.h **** namespace daisy
   8:../../libDaisy/src/per/sai.h **** {
   9:../../libDaisy/src/per/sai.h **** /** 
ARM GAS  /tmp/cc3fe7I0.s 			page 29


  10:../../libDaisy/src/per/sai.h ****  * Support for I2S Audio Protocol with different bit-depth, samplerate options
  11:../../libDaisy/src/per/sai.h ****  * Allows for master or slave, as well as freedom of selecting direction, 
  12:../../libDaisy/src/per/sai.h ****  * and other behavior for each peripheral, and block.
  13:../../libDaisy/src/per/sai.h ****  * 
  14:../../libDaisy/src/per/sai.h ****  * DMA Transfer commands must use buffers located within non-cached memory or use cache maintenance
  15:../../libDaisy/src/per/sai.h ****  * To declare an unitialized global element in the DMA memory section:
  16:../../libDaisy/src/per/sai.h ****  *    int32_t DSY_DMA_BUFFER_SECTOR my_buffer[96];
  17:../../libDaisy/src/per/sai.h ****  *
  18:../../libDaisy/src/per/sai.h ****  * Callback functions will be called once per half of the buffer. In the above example, 
  19:../../libDaisy/src/per/sai.h ****  * the callback function would be called once for every 48 samples.
  20:../../libDaisy/src/per/sai.h ****  * 
  21:../../libDaisy/src/per/sai.h ****  * Use SAI Handle like this:
  22:../../libDaisy/src/per/sai.h ****  * 
  23:../../libDaisy/src/per/sai.h ****  *  SaiHandle::Config sai_config;
  24:../../libDaisy/src/per/sai.h ****  *  sai_config.periph          = SaiHandle::Config::Peripheral::SAI_1;
  25:../../libDaisy/src/per/sai.h ****  *  sai_config.sr              = SaiHandle::Config::SampleRate::SAI_48KHZ;
  26:../../libDaisy/src/per/sai.h ****  *  sai_config.bit_depth       = SaiHandle::Config::BitDepth::SAI_24BIT;
  27:../../libDaisy/src/per/sai.h ****  *  sai_config.a_sync          = SaiHandle::Config::Sync::MASTER;
  28:../../libDaisy/src/per/sai.h ****  *  sai_config.b_sync          = SaiHandle::Config::Sync::SLAVE;
  29:../../libDaisy/src/per/sai.h ****  *  sai_config.a_dir           = SaiHandle::Config::Direction::RECEIVE;
  30:../../libDaisy/src/per/sai.h ****  *  sai_config.b_dir           = SaiHandle::Config::Direction::TRANSMIT;
  31:../../libDaisy/src/per/sai.h ****  *  sai_config.pin_config.fs   = {DSY_GPIOE, 4};
  32:../../libDaisy/src/per/sai.h ****  *  sai_config.pin_config.mclk = {DSY_GPIOE, 2};
  33:../../libDaisy/src/per/sai.h ****  *  sai_config.pin_config.sck  = {DSY_GPIOE, 5};
  34:../../libDaisy/src/per/sai.h ****  *  sai_config.pin_config.sa   = {DSY_GPIOE, 6};
  35:../../libDaisy/src/per/sai.h ****  *  sai_config.pin_config.sb   = {DSY_GPIOE, 3};
  36:../../libDaisy/src/per/sai.h ****  *  // Then Initialize
  37:../../libDaisy/src/per/sai.h ****  *  SaiHandle sai;
  38:../../libDaisy/src/per/sai.h ****  *  sai.Init(sai_config);
  39:../../libDaisy/src/per/sai.h ****  *  // Now you can use it:
  40:../../libDaisy/src/per/sai.h ****  *  sai.StartDma(. . .);
  41:../../libDaisy/src/per/sai.h ****  */
  42:../../libDaisy/src/per/sai.h **** class SaiHandle
  43:../../libDaisy/src/per/sai.h **** {
  44:../../libDaisy/src/per/sai.h ****   public:
  45:../../libDaisy/src/per/sai.h ****     /** Contains settings for initialising an SAI Interface */
  46:../../libDaisy/src/per/sai.h ****     struct Config
  47:../../libDaisy/src/per/sai.h ****     {
  48:../../libDaisy/src/per/sai.h ****         /** Specifies the internal peripheral to use (mapped to different hardware pins) */
  49:../../libDaisy/src/per/sai.h ****         enum class Peripheral
  50:../../libDaisy/src/per/sai.h ****         {
  51:../../libDaisy/src/per/sai.h ****             SAI_1,
  52:../../libDaisy/src/per/sai.h ****             SAI_2,
  53:../../libDaisy/src/per/sai.h ****         };
  54:../../libDaisy/src/per/sai.h **** 
  55:../../libDaisy/src/per/sai.h ****         /** Rate at which samples will be streaming to/from the device. */
  56:../../libDaisy/src/per/sai.h ****         enum class SampleRate
  57:../../libDaisy/src/per/sai.h ****         {
  58:../../libDaisy/src/per/sai.h ****             SAI_8KHZ,
  59:../../libDaisy/src/per/sai.h ****             SAI_16KHZ,
  60:../../libDaisy/src/per/sai.h ****             SAI_32KHZ,
  61:../../libDaisy/src/per/sai.h ****             SAI_48KHZ,
  62:../../libDaisy/src/per/sai.h ****             SAI_96KHZ,
  63:../../libDaisy/src/per/sai.h ****         };
  64:../../libDaisy/src/per/sai.h **** 
  65:../../libDaisy/src/per/sai.h ****         /** Bit Depth that the hardware expects to be transferred to/from the device. */
  66:../../libDaisy/src/per/sai.h ****         enum class BitDepth
ARM GAS  /tmp/cc3fe7I0.s 			page 30


  67:../../libDaisy/src/per/sai.h ****         {
  68:../../libDaisy/src/per/sai.h ****             SAI_16BIT,
  69:../../libDaisy/src/per/sai.h ****             SAI_24BIT,
  70:../../libDaisy/src/per/sai.h ****             SAI_32BIT,
  71:../../libDaisy/src/per/sai.h ****         };
  72:../../libDaisy/src/per/sai.h **** 
  73:../../libDaisy/src/per/sai.h ****         /** Specifies whether a particular block is the master or the slave 
  74:../../libDaisy/src/per/sai.h ****          ** If both are set to slave, no MCLK signal will be used, and it is
  75:../../libDaisy/src/per/sai.h ****          ** expected that the codec will have its own xtal.
  76:../../libDaisy/src/per/sai.h ****          */
  77:../../libDaisy/src/per/sai.h ****         enum class Sync
  78:../../libDaisy/src/per/sai.h ****         {
  79:../../libDaisy/src/per/sai.h ****             MASTER,
  80:../../libDaisy/src/per/sai.h ****             SLAVE,
  81:../../libDaisy/src/per/sai.h ****         };
  82:../../libDaisy/src/per/sai.h **** 
  83:../../libDaisy/src/per/sai.h ****         /** Specifies the direction for each peripheral block. */
  84:../../libDaisy/src/per/sai.h ****         enum class Direction
  85:../../libDaisy/src/per/sai.h ****         {
  86:../../libDaisy/src/per/sai.h ****             TRANSMIT,
  87:../../libDaisy/src/per/sai.h ****             RECEIVE,
  88:../../libDaisy/src/per/sai.h ****         };
  89:../../libDaisy/src/per/sai.h **** 
  90:../../libDaisy/src/per/sai.h ****         Peripheral periph;
  91:../../libDaisy/src/per/sai.h ****         struct
  92:../../libDaisy/src/per/sai.h ****         {
  93:../../libDaisy/src/per/sai.h ****             dsy_gpio_pin mclk, fs, sck, sa, sb;
  94:../../libDaisy/src/per/sai.h ****         } pin_config;
  95:../../libDaisy/src/per/sai.h ****         SampleRate sr;
  96:../../libDaisy/src/per/sai.h ****         BitDepth   bit_depth;
  97:../../libDaisy/src/per/sai.h ****         Sync       a_sync, b_sync;
  98:../../libDaisy/src/per/sai.h ****         Direction  a_dir, b_dir;
  99:../../libDaisy/src/per/sai.h ****     };
 100:../../libDaisy/src/per/sai.h **** 
 101:../../libDaisy/src/per/sai.h ****     /** Return values for SAI functions */
 102:../../libDaisy/src/per/sai.h ****     enum class Result
 103:../../libDaisy/src/per/sai.h ****     {
 104:../../libDaisy/src/per/sai.h ****         OK,
 105:../../libDaisy/src/per/sai.h ****         ERR,
 106:../../libDaisy/src/per/sai.h ****     };
 107:../../libDaisy/src/per/sai.h **** 
 108:../../libDaisy/src/per/sai.h ****     SaiHandle() : pimpl_(nullptr) {}
 506              		.loc 11 108 5 is_stmt 1 view .LVU127
 507              	.LBB166:
 508              	.LBB167:
 509              		.loc 11 108 33 is_stmt 0 view .LVU128
 510 000e C363     		str	r3, [r0, #60]
 511              	.LVL34:
 512              		.loc 11 108 33 view .LVU129
 513              	.LBE167:
 514              	.LBE166:
 515              	.LBE165:
 516              	.LBE168:
 517              	.LBE169:
   6:TinyUsbCdcExternal.cpp **** 
 518              		.loc 6 6 11 view .LVU130
 519 0010 FFF7FEBF 		b	__aeabi_atexit
ARM GAS  /tmp/cc3fe7I0.s 			page 31


 520              	.LVL35:
 521              	.L30:
 522              		.align	2
 523              	.L29:
 524 0014 00000000 		.word	.LANCHOR0
 525 0018 00000000 		.word	__dso_handle
 526 001c 00000000 		.word	_ZN5daisy9DaisySeedD1Ev
 527              	.LBE147:
 528              	.LBE146:
 529              		.cfi_endproc
 530              	.LFE2688:
 532              		.section	.init_array,"aw",%init_array
 533              		.align	2
 534 0000 00000000 		.word	_GLOBAL__sub_I_hw(target1)
 535              		.global	hw
 536              		.section	.rodata
 537              		.align	2
 538              		.set	.LANCHOR1,. + 0
 539              	.LC0:
 540 0000 01       		.byte	1
 541 0001 AA       		.byte	-86
 542              		.section	.bss._ZZL17led_blinking_taskvE8start_ms,"aw",%nobits
 543              		.align	2
 544              		.set	.LANCHOR2,. + 0
 547              	_ZZL17led_blinking_taskvE8start_ms:
 548 0000 00000000 		.space	4
 549              		.section	.bss._ZZL17led_blinking_taskvE9led_state,"aw",%nobits
 550              		.set	.LANCHOR3,. + 0
 553              	_ZZL17led_blinking_taskvE9led_state:
 554 0000 00       		.space	1
 555              		.section	.bss.hw,"aw",%nobits
 556              		.align	2
 557              		.set	.LANCHOR0,. + 0
 560              	hw:
 561 0000 00000000 		.space	64
 561      00000000 
 561      00000000 
 561      00000000 
 561      00000000 
 562              		.text
 563              	.Letext0:
 564              		.file 12 "/home/pi/Developer/gcc-arm-none-eabi-10-2020-q4-major/arm-none-eabi/include/machine/_def
 565              		.file 13 "/home/pi/Developer/gcc-arm-none-eabi-10-2020-q4-major/arm-none-eabi/include/sys/_stdint.
 566              		.file 14 "/home/pi/Developer/gcc-arm-none-eabi-10-2020-q4-major/arm-none-eabi/include/stdint.h"
 567              		.file 15 "/home/pi/Developer/gcc-arm-none-eabi-10-2020-q4-major/lib/gcc/arm-none-eabi/10.2.1/inclu
 568              		.file 16 "/home/pi/Developer/gcc-arm-none-eabi-10-2020-q4-major/arm-none-eabi/include/c++/10.2.1/c
 569              		.file 17 "/home/pi/Developer/gcc-arm-none-eabi-10-2020-q4-major/arm-none-eabi/include/c++/10.2.1/b
 570              		.file 18 "/home/pi/Developer/gcc-arm-none-eabi-10-2020-q4-major/arm-none-eabi/include/c++/10.2.1/c
 571              		.file 19 "/home/pi/Developer/gcc-arm-none-eabi-10-2020-q4-major/arm-none-eabi/include/c++/10.2.1/c
 572              		.file 20 "/home/pi/Developer/gcc-arm-none-eabi-10-2020-q4-major/arm-none-eabi/include/c++/10.2.1/t
 573              		.file 21 "/home/pi/Developer/gcc-arm-none-eabi-10-2020-q4-major/arm-none-eabi/include/c++/10.2.1/d
 574              		.file 22 "/home/pi/Developer/gcc-arm-none-eabi-10-2020-q4-major/arm-none-eabi/include/c++/10.2.1/a
 575              		.file 23 "/home/pi/Developer/gcc-arm-none-eabi-10-2020-q4-major/arm-none-eabi/include/c++/10.2.1/b
 576              		.file 24 "/home/pi/Developer/gcc-arm-none-eabi-10-2020-q4-major/arm-none-eabi/include/c++/10.2.1/b
 577              		.file 25 "/home/pi/Developer/gcc-arm-none-eabi-10-2020-q4-major/arm-none-eabi/include/c++/10.2.1/b
 578              		.file 26 "/home/pi/Developer/gcc-arm-none-eabi-10-2020-q4-major/arm-none-eabi/include/c++/10.2.1/c
 579              		.file 27 "/home/pi/Developer/gcc-arm-none-eabi-10-2020-q4-major/arm-none-eabi/include/c++/10.2.1/c
ARM GAS  /tmp/cc3fe7I0.s 			page 32


 580              		.file 28 "/home/pi/Developer/gcc-arm-none-eabi-10-2020-q4-major/arm-none-eabi/include/c++/10.2.1/c
 581              		.file 29 "/home/pi/Developer/gcc-arm-none-eabi-10-2020-q4-major/arm-none-eabi/include/c++/10.2.1/b
 582              		.file 30 "/home/pi/Developer/gcc-arm-none-eabi-10-2020-q4-major/arm-none-eabi/include/sys/_types.h
 583              		.file 31 "/home/pi/Developer/gcc-arm-none-eabi-10-2020-q4-major/arm-none-eabi/include/sys/reent.h"
 584              		.file 32 "/home/pi/Developer/gcc-arm-none-eabi-10-2020-q4-major/arm-none-eabi/include/sys/lock.h"
 585              		.file 33 "/home/pi/Developer/gcc-arm-none-eabi-10-2020-q4-major/arm-none-eabi/include/math.h"
 586              		.file 34 "/home/pi/Developer/gcc-arm-none-eabi-10-2020-q4-major/arm-none-eabi/include/stdlib.h"
 587              		.file 35 "/home/pi/Developer/gcc-arm-none-eabi-10-2020-q4-major/arm-none-eabi/include/c++/10.2.1/m
 588              		.file 36 "/home/pi/Developer/gcc-arm-none-eabi-10-2020-q4-major/arm-none-eabi/include/c++/10.2.1/s
 589              		.file 37 "../../libDaisy/src/daisy_core.h"
 590              		.file 38 "../../libDaisy/src/per/tim.h"
 591              		.file 39 "../../libDaisy/src/util/wav_format.h"
 592              		.file 40 "../../libDaisy/src/dev/max11300.h"
 593              		.file 41 "../../libDaisy/src/per/gpio.h"
 594              		.file 42 "../../libDaisy/src/dev/sdram.h"
 595              		.file 43 "/home/pi/Developer/gcc-arm-none-eabi-10-2020-q4-major/lib/gcc/arm-none-eabi/10.2.1/inclu
 596              		.file 44 "/home/pi/Developer/gcc-arm-none-eabi-10-2020-q4-major/arm-none-eabi/include/stdio.h"
 597              		.file 45 "/home/pi/Developer/gcc-arm-none-eabi-10-2020-q4-major/arm-none-eabi/include/string.h"
 598              		.file 46 "/home/pi/Developer/tinyusb/src/common/tusb_types.h"
 599              		.file 47 "../../libDaisy/src/dev/sr_595.h"
 600              		.file 48 "/home/pi/Developer/tinyusb/src/tusb.h"
 601              		.file 49 "<built-in>"
ARM GAS  /tmp/cc3fe7I0.s 			page 33

