ARM GAS  /tmp/ccVgpXxR.s 			page 1


   1              		.cpu cortex-m7
   2              		.eabi_attribute 28, 1
   3              		.eabi_attribute 20, 1
   4              		.eabi_attribute 21, 1
   5              		.eabi_attribute 23, 3
   6              		.eabi_attribute 24, 1
   7              		.eabi_attribute 25, 1
   8              		.eabi_attribute 26, 1
   9              		.eabi_attribute 30, 2
  10              		.eabi_attribute 34, 1
  11              		.eabi_attribute 18, 4
  12              		.file	"usbd_audio_if.c"
  13              		.text
  14              	.Ltext0:
  15              		.cfi_sections	.debug_frame
  16              		.section	.text.Audio_DeInit,"ax",%progbits
  17              		.align	1
  18              		.p2align 2,,3
  19              		.arch armv7e-m
  20              		.syntax unified
  21              		.thumb
  22              		.thumb_func
  23              		.fpu fpv5-d16
  25              	Audio_DeInit:
  26              	.LVL0:
  27              	.LFB324:
  28              		.file 1 "usbd_audio_if.c"
   1:usbd_audio_if.c **** /**
   2:usbd_audio_if.c ****  * @file usbd_audio_if.c
   3:usbd_audio_if.c ****  * @brief UAC1 stereo input — 16-bit 48kHz — frame-based ring with drift control
   4:usbd_audio_if.c ****  *
   5:usbd_audio_if.c ****  * =============================================================================
   6:usbd_audio_if.c ****  * WHY A FRAME-BASED RING IS REQUIRED
   7:usbd_audio_if.c ****  * =============================================================================
   8:usbd_audio_if.c ****  *
   9:usbd_audio_if.c ****  * The previous packet-based ring stored 48-frame slots. PeriodicTC always
  10:usbd_audio_if.c ****  * consumed exactly 1 slot per call regardless of whether it sent 47, 48, or
  11:usbd_audio_if.c ****  * 49 bytes to the host. The ring level was therefore unaffected by the
  12:usbd_audio_if.c ****  * correction — drift control had no effect on buffer stability.
  13:usbd_audio_if.c ****  *
  14:usbd_audio_if.c ****  * A frame-based ring stores individual stereo frames. PeriodicTC reads
  15:usbd_audio_if.c ****  * exactly tx_samples frames and advances the read pointer by that amount.
  16:usbd_audio_if.c ****  * Sending 49 frames genuinely drains 49 frames. Sending 47 genuinely drains
  17:usbd_audio_if.c ****  * 47. The buffer level responds correctly to corrections.
  18:usbd_audio_if.c ****  *
  19:usbd_audio_if.c ****  * =============================================================================
  20:usbd_audio_if.c ****  * HOW IT WORKS
  21:usbd_audio_if.c ****  * =============================================================================
  22:usbd_audio_if.c ****  *
  23:usbd_audio_if.c ****  * AudioIF_PushSamples() (audio DMA ISR):
  24:usbd_audio_if.c ****  *   Writes interleaved int16 frames directly into frame_ring[], advancing
  25:usbd_audio_if.c ****  *   frame_write. No partial-packet accumulation needed — any number of
  26:usbd_audio_if.c ****  *   frames per call is accepted.
  27:usbd_audio_if.c ****  *
  28:usbd_audio_if.c ****  * Audio_PeriodicTC() (USB DataIn ISR, every 1ms):
  29:usbd_audio_if.c ****  *   1. Computes available = frame_write - frame_read (in frames)
  30:usbd_audio_if.c ****  *   2. Decides tx_samples: 47, 48, or 49 based on level vs target
ARM GAS  /tmp/ccVgpXxR.s 			page 2


  31:usbd_audio_if.c ****  *   3. Copies exactly tx_samples frames from ring into pbuf (handles wrap)
  32:usbd_audio_if.c ****  *   4. Advances frame_read by tx_samples
  33:usbd_audio_if.c ****  *   5. Returns byte count → DataIn passes to USBD_LL_Transmit
  34:usbd_audio_if.c ****  *
  35:usbd_audio_if.c ****  * =============================================================================
  36:usbd_audio_if.c ****  * TUNING
  37:usbd_audio_if.c ****  * =============================================================================
  38:usbd_audio_if.c ****  *
  39:usbd_audio_if.c ****  * FRAME_RING_SIZE (default 512 = 10.67ms at 48kHz)
  40:usbd_audio_if.c ****  *   Must be power of 2. Total memory = SIZE * 2ch * 2B = SIZE * 4 bytes.
  41:usbd_audio_if.c ****  *   512 → 2048 bytes. 1024 → 4096 bytes.
  42:usbd_audio_if.c ****  *
  43:usbd_audio_if.c ****  * FRAME_TARGET (default FRAME_RING_SIZE/2 = 256 frames = 5.3ms)
  44:usbd_audio_if.c ****  *   Steady-state fill level. Half the ring gives equal overflow/underrun margin.
  45:usbd_audio_if.c ****  *
  46:usbd_audio_if.c ****  * FRAME_DRIFT_THRESH (default 96 frames = 2ms)
  47:usbd_audio_if.c ****  *   Deadband half-width in frames. Corrections fire when level strays more
  48:usbd_audio_if.c ****  *   than this many frames from FRAME_TARGET.
  49:usbd_audio_if.c ****  *   Smaller = more aggressive, more frequent corrections, very stable.
  50:usbd_audio_if.c ****  *   Larger  = gentler, less frequent, more natural sounding.
  51:usbd_audio_if.c ****  *   Rule of thumb: FRAME_RING_SIZE / 8 is a good starting point.
  52:usbd_audio_if.c ****  *
  53:usbd_audio_if.c ****  * DIAGNOSTICS (read via LED pattern in main loop)
  54:usbd_audio_if.c ****  *   drift_corrections_up    — 49-sample packets sent (buffer was above HIGH)
  55:usbd_audio_if.c ****  *   drift_corrections_down  — 47-sample packets sent (buffer was below LOW)
  56:usbd_audio_if.c ****  *   underrun_events         — buffer hit zero (should always be 0)
  57:usbd_audio_if.c ****  *
  58:usbd_audio_if.c ****  *   Healthy: up and down both nonzero and slowly incrementing, underrun = 0.
  59:usbd_audio_if.c ****  *   up >> down:  audio clock faster than USB — normal.
  60:usbd_audio_if.c ****  *   down >> up:  audio clock slower than USB — normal.
  61:usbd_audio_if.c ****  *   underrun > 0: increase FRAME_RING_SIZE or FRAME_TARGET.
  62:usbd_audio_if.c ****  */
  63:usbd_audio_if.c **** 
  64:usbd_audio_if.c **** #include "usbd_audio_if.h"
  65:usbd_audio_if.c **** #include "stm32h7xx_hal.h"
  66:usbd_audio_if.c **** #include <string.h>
  67:usbd_audio_if.c **** #include <stdint.h>
  68:usbd_audio_if.c **** 
  69:usbd_audio_if.c **** /* -----------------------------------------------------------------------
  70:usbd_audio_if.c ****  * Audio geometry — must match descriptor in usbd_audio.c
  71:usbd_audio_if.c ****  * --------------------------------------------------------------------- */
  72:usbd_audio_if.c **** #define AUDIO_SAMPLE_RATE   48000U
  73:usbd_audio_if.c **** #define AUDIO_CHANNELS      2U
  74:usbd_audio_if.c **** #define BYTES_PER_SAMPLE    2U
  75:usbd_audio_if.c **** #define SAMPLES_NOM         (AUDIO_SAMPLE_RATE / 1000U)            /* 48 */
  76:usbd_audio_if.c **** #define SAMPLES_MAX         (SAMPLES_NOM + 1U)                     /* 49 */
  77:usbd_audio_if.c **** #define SAMPLES_MIN         (SAMPLES_NOM - 1U)                     /* 47 */
  78:usbd_audio_if.c **** #define BYTES_NOM           (SAMPLES_NOM * AUDIO_CHANNELS * BYTES_PER_SAMPLE)  /* 192 */
  79:usbd_audio_if.c **** #define BYTES_MAX           (SAMPLES_MAX * AUDIO_CHANNELS * BYTES_PER_SAMPLE)  /* 196 */
  80:usbd_audio_if.c **** #define BYTES_MIN           (SAMPLES_MIN * AUDIO_CHANNELS * BYTES_PER_SAMPLE)  /* 188 */
  81:usbd_audio_if.c **** 
  82:usbd_audio_if.c **** /* -----------------------------------------------------------------------
  83:usbd_audio_if.c ****  * Tuning knobs — adjust these three values only
  84:usbd_audio_if.c ****  * --------------------------------------------------------------------- */
  85:usbd_audio_if.c **** #define FRAME_RING_SIZE     512U    /* ring depth in frames — power of 2, 512=10.67ms */
  86:usbd_audio_if.c **** #define FRAME_TARGET        256U    /* target fill level = FRAME_RING_SIZE / 2        */
  87:usbd_audio_if.c **** #define FRAME_DRIFT_THRESH   64U    /* deadband half-width in frames                  */
ARM GAS  /tmp/ccVgpXxR.s 			page 3


  88:usbd_audio_if.c **** 
  89:usbd_audio_if.c **** /* Derived watermarks — do not edit */
  90:usbd_audio_if.c **** #define FRAME_DRIFT_HIGH    (FRAME_TARGET + FRAME_DRIFT_THRESH)   /* 320 */
  91:usbd_audio_if.c **** #define FRAME_DRIFT_LOW     (FRAME_TARGET - FRAME_DRIFT_THRESH)   /* 192 */
  92:usbd_audio_if.c **** 
  93:usbd_audio_if.c **** /* -----------------------------------------------------------------------
  94:usbd_audio_if.c ****  * Diagnostics counters
  95:usbd_audio_if.c ****  * --------------------------------------------------------------------- */
  96:usbd_audio_if.c **** volatile uint32_t drift_corrections_up   = 0U;
  97:usbd_audio_if.c **** volatile uint32_t drift_corrections_down = 0U;
  98:usbd_audio_if.c **** volatile uint32_t underrun_events        = 0U;
  99:usbd_audio_if.c **** 
 100:usbd_audio_if.c **** /* -----------------------------------------------------------------------
 101:usbd_audio_if.c ****  * Frame ring buffer
 102:usbd_audio_if.c ****  *
 103:usbd_audio_if.c ****  * Stored as flat interleaved int16: [L0,R0, L1,R1, ... L511,R511]
 104:usbd_audio_if.c ****  * Total size = 512 * 2 * 2 = 2048 bytes
 105:usbd_audio_if.c ****  *
 106:usbd_audio_if.c ****  * DSY_RAM_D2 = D2 SRAM (non-cacheable) — safe for USB DMA reads.
 107:usbd_audio_if.c ****  * --------------------------------------------------------------------- */
 108:usbd_audio_if.c **** static __attribute__((section(".heap"))) int16_t  frame_ring[FRAME_RING_SIZE * AUDIO_CHANNELS] ;
 109:usbd_audio_if.c **** 
 110:usbd_audio_if.c **** static volatile uint32_t frame_write = 0U;   /* next write position in frames */
 111:usbd_audio_if.c **** static volatile uint32_t frame_read  = 0U;   /* next read  position in frames */
 112:usbd_audio_if.c **** static          uint8_t  streaming_active = 0U;
 113:usbd_audio_if.c **** 
 114:usbd_audio_if.c **** /* -----------------------------------------------------------------------
 115:usbd_audio_if.c ****  * Init
 116:usbd_audio_if.c ****  * --------------------------------------------------------------------- */
 117:usbd_audio_if.c **** static  int8_t Audio_Init(uint32_t AudioFreq, uint32_t Volume, uint32_t options)
 118:usbd_audio_if.c **** {
 119:usbd_audio_if.c ****     (void)AudioFreq; (void)Volume; (void)options;
 120:usbd_audio_if.c ****     frame_write            = 0U;
 121:usbd_audio_if.c ****     frame_read             = 0U;
 122:usbd_audio_if.c ****     streaming_active       = 0U;
 123:usbd_audio_if.c ****     drift_corrections_up   = 0U;
 124:usbd_audio_if.c ****     drift_corrections_down = 0U;
 125:usbd_audio_if.c ****     underrun_events        = 0U;
 126:usbd_audio_if.c ****     memset(frame_ring, 0, sizeof(frame_ring));
 127:usbd_audio_if.c ****     return USBD_OK;
 128:usbd_audio_if.c **** }
 129:usbd_audio_if.c **** 
 130:usbd_audio_if.c **** static int8_t Audio_DeInit    (uint32_t o)                      { (void)o; return USBD_OK; }
  29              		.loc 1 130 65 view -0
  30              		.cfi_startproc
  31              		@ args = 0, pretend = 0, frame = 0
  32              		@ frame_needed = 0, uses_anonymous_args = 0
  33              		@ link register save eliminated.
  34              		.loc 1 130 67 view .LVU1
  35              		.loc 1 130 76 view .LVU2
  36              		.loc 1 130 92 is_stmt 0 view .LVU3
  37 0000 0020     		movs	r0, #0
  38              	.LVL1:
  39              		.loc 1 130 92 view .LVU4
  40 0002 7047     		bx	lr
  41              		.cfi_endproc
  42              	.LFE324:
ARM GAS  /tmp/ccVgpXxR.s 			page 4


  44              		.section	.text.Audio_AudioCmd,"ax",%progbits
  45              		.align	1
  46              		.p2align 2,,3
  47              		.syntax unified
  48              		.thumb
  49              		.thumb_func
  50              		.fpu fpv5-d16
  52              	Audio_AudioCmd:
  53              	.LVL2:
  54              	.LFB325:
 131:usbd_audio_if.c **** static int8_t Audio_AudioCmd  (uint8_t *p,uint32_t s,uint8_t c) { (void)p;(void)s;(void)c; return U
  55              		.loc 1 131 65 is_stmt 1 view -0
  56              		.cfi_startproc
  57              		@ args = 0, pretend = 0, frame = 0
  58              		@ frame_needed = 0, uses_anonymous_args = 0
  59              		@ link register save eliminated.
  60              		.loc 1 131 67 view .LVU6
  61              		.loc 1 131 75 view .LVU7
  62              		.loc 1 131 83 view .LVU8
  63              		.loc 1 131 92 view .LVU9
  64              		.loc 1 131 108 is_stmt 0 view .LVU10
  65 0000 0020     		movs	r0, #0
  66              	.LVL3:
  67              		.loc 1 131 108 view .LVU11
  68 0002 7047     		bx	lr
  69              		.cfi_endproc
  70              	.LFE325:
  72              		.section	.text.Audio_VolumeCtl,"ax",%progbits
  73              		.align	1
  74              		.p2align 2,,3
  75              		.syntax unified
  76              		.thumb
  77              		.thumb_func
  78              		.fpu fpv5-d16
  80              	Audio_VolumeCtl:
  81              	.LVL4:
  82              	.LFB326:
 132:usbd_audio_if.c **** static int8_t Audio_VolumeCtl (uint8_t v)                       { (void)v; return USBD_OK; }
  83              		.loc 1 132 65 is_stmt 1 view -0
  84              		.cfi_startproc
  85              		@ args = 0, pretend = 0, frame = 0
  86              		@ frame_needed = 0, uses_anonymous_args = 0
  87              		@ link register save eliminated.
  88              		.loc 1 132 67 view .LVU13
  89              		.loc 1 132 76 view .LVU14
  90              		.loc 1 132 92 is_stmt 0 view .LVU15
  91 0000 0020     		movs	r0, #0
  92              	.LVL5:
  93              		.loc 1 132 92 view .LVU16
  94 0002 7047     		bx	lr
  95              		.cfi_endproc
  96              	.LFE326:
  98              		.section	.text.Audio_GetState,"ax",%progbits
  99              		.align	1
 100              		.p2align 2,,3
 101              		.syntax unified
 102              		.thumb
ARM GAS  /tmp/ccVgpXxR.s 			page 5


 103              		.thumb_func
 104              		.fpu fpv5-d16
 106              	Audio_GetState:
 107              	.LFB328:
 133:usbd_audio_if.c **** static int8_t Audio_MuteCtl   (uint8_t c)                       { (void)c; return USBD_OK; }
 134:usbd_audio_if.c **** static int8_t Audio_GetState  (void)                            { return USBD_OK; }
 108              		.loc 1 134 65 is_stmt 1 view -0
 109              		.cfi_startproc
 110              		@ args = 0, pretend = 0, frame = 0
 111              		@ frame_needed = 0, uses_anonymous_args = 0
 112              		@ link register save eliminated.
 113              		.loc 1 134 67 view .LVU18
 114              		.loc 1 134 83 is_stmt 0 view .LVU19
 115 0000 0020     		movs	r0, #0
 116 0002 7047     		bx	lr
 117              		.cfi_endproc
 118              	.LFE328:
 120              		.section	.text.Audio_Init,"ax",%progbits
 121              		.align	1
 122              		.p2align 2,,3
 123              		.syntax unified
 124              		.thumb
 125              		.thumb_func
 126              		.fpu fpv5-d16
 128              	Audio_Init:
 129              	.LVL6:
 130              	.LFB323:
 118:usbd_audio_if.c ****     (void)AudioFreq; (void)Volume; (void)options;
 131              		.loc 1 118 1 is_stmt 1 view -0
 132              		.cfi_startproc
 133              		@ args = 0, pretend = 0, frame = 0
 134              		@ frame_needed = 0, uses_anonymous_args = 0
 119:usbd_audio_if.c ****     frame_write            = 0U;
 135              		.loc 1 119 5 view .LVU21
 119:usbd_audio_if.c ****     frame_write            = 0U;
 136              		.loc 1 119 22 view .LVU22
 119:usbd_audio_if.c ****     frame_write            = 0U;
 137              		.loc 1 119 36 view .LVU23
 120:usbd_audio_if.c ****     frame_read             = 0U;
 138              		.loc 1 120 5 view .LVU24
 118:usbd_audio_if.c ****     (void)AudioFreq; (void)Volume; (void)options;
 139              		.loc 1 118 1 is_stmt 0 view .LVU25
 140 0000 10B5     		push	{r4, lr}
 141              		.cfi_def_cfa_offset 8
 142              		.cfi_offset 4, -8
 143              		.cfi_offset 14, -4
 120:usbd_audio_if.c ****     frame_read             = 0U;
 144              		.loc 1 120 28 view .LVU26
 145 0002 0A4A     		ldr	r2, .L8
 146              	.LVL7:
 120:usbd_audio_if.c ****     frame_read             = 0U;
 147              		.loc 1 120 28 view .LVU27
 148 0004 0024     		movs	r4, #0
 122:usbd_audio_if.c ****     drift_corrections_up   = 0U;
 149              		.loc 1 122 28 view .LVU28
 150 0006 0A4B     		ldr	r3, .L8+4
 120:usbd_audio_if.c ****     frame_read             = 0U;
ARM GAS  /tmp/ccVgpXxR.s 			page 6


 151              		.loc 1 120 28 view .LVU29
 152 0008 1460     		str	r4, [r2]
 121:usbd_audio_if.c ****     streaming_active       = 0U;
 153              		.loc 1 121 5 is_stmt 1 view .LVU30
 121:usbd_audio_if.c ****     streaming_active       = 0U;
 154              		.loc 1 121 28 is_stmt 0 view .LVU31
 155 000a 0A48     		ldr	r0, .L8+8
 156              	.LVL8:
 123:usbd_audio_if.c ****     drift_corrections_down = 0U;
 157              		.loc 1 123 28 view .LVU32
 158 000c 0A49     		ldr	r1, .L8+12
 159              	.LVL9:
 124:usbd_audio_if.c ****     underrun_events        = 0U;
 160              		.loc 1 124 28 view .LVU33
 161 000e 0B4A     		ldr	r2, .L8+16
 122:usbd_audio_if.c ****     drift_corrections_up   = 0U;
 162              		.loc 1 122 28 view .LVU34
 163 0010 1C70     		strb	r4, [r3]
 125:usbd_audio_if.c ****     memset(frame_ring, 0, sizeof(frame_ring));
 164              		.loc 1 125 28 view .LVU35
 165 0012 0B4B     		ldr	r3, .L8+20
 121:usbd_audio_if.c ****     streaming_active       = 0U;
 166              		.loc 1 121 28 view .LVU36
 167 0014 0460     		str	r4, [r0]
 122:usbd_audio_if.c ****     drift_corrections_up   = 0U;
 168              		.loc 1 122 5 is_stmt 1 view .LVU37
 123:usbd_audio_if.c ****     drift_corrections_down = 0U;
 169              		.loc 1 123 5 view .LVU38
 123:usbd_audio_if.c ****     drift_corrections_down = 0U;
 170              		.loc 1 123 28 is_stmt 0 view .LVU39
 171 0016 0C60     		str	r4, [r1]
 124:usbd_audio_if.c ****     underrun_events        = 0U;
 172              		.loc 1 124 5 is_stmt 1 view .LVU40
 126:usbd_audio_if.c ****     return USBD_OK;
 173              		.loc 1 126 5 is_stmt 0 view .LVU41
 174 0018 2146     		mov	r1, r4
 124:usbd_audio_if.c ****     underrun_events        = 0U;
 175              		.loc 1 124 28 view .LVU42
 176 001a 1460     		str	r4, [r2]
 125:usbd_audio_if.c ****     memset(frame_ring, 0, sizeof(frame_ring));
 177              		.loc 1 125 5 is_stmt 1 view .LVU43
 126:usbd_audio_if.c ****     return USBD_OK;
 178              		.loc 1 126 5 is_stmt 0 view .LVU44
 179 001c 4FF40062 		mov	r2, #2048
 180 0020 0848     		ldr	r0, .L8+24
 125:usbd_audio_if.c ****     memset(frame_ring, 0, sizeof(frame_ring));
 181              		.loc 1 125 28 view .LVU45
 182 0022 1C60     		str	r4, [r3]
 126:usbd_audio_if.c ****     return USBD_OK;
 183              		.loc 1 126 5 is_stmt 1 view .LVU46
 184 0024 FFF7FEFF 		bl	memset
 185              	.LVL10:
 127:usbd_audio_if.c **** }
 186              		.loc 1 127 5 view .LVU47
 128:usbd_audio_if.c **** 
 187              		.loc 1 128 1 is_stmt 0 view .LVU48
 188 0028 2046     		mov	r0, r4
ARM GAS  /tmp/ccVgpXxR.s 			page 7


 189 002a 10BD     		pop	{r4, pc}
 190              	.L9:
 191              		.align	2
 192              	.L8:
 193 002c 00000000 		.word	.LANCHOR0
 194 0030 00000000 		.word	.LANCHOR2
 195 0034 00000000 		.word	.LANCHOR1
 196 0038 00000000 		.word	.LANCHOR3
 197 003c 00000000 		.word	.LANCHOR4
 198 0040 00000000 		.word	.LANCHOR5
 199 0044 00000000 		.word	.LANCHOR6
 200              		.cfi_endproc
 201              	.LFE323:
 203              		.section	.text.Audio_PeriodicTC,"ax",%progbits
 204              		.align	1
 205              		.p2align 2,,3
 206              		.syntax unified
 207              		.thumb
 208              		.thumb_func
 209              		.fpu fpv5-d16
 211              	Audio_PeriodicTC:
 212              	.LVL11:
 213              	.LFB330:
 135:usbd_audio_if.c **** 
 136:usbd_audio_if.c **** /* -----------------------------------------------------------------------
 137:usbd_audio_if.c ****  * copy_frames_from_ring
 138:usbd_audio_if.c ****  *
 139:usbd_audio_if.c ****  * Copies exactly n frames from the ring starting at frame_read into dst,
 140:usbd_audio_if.c ****  * handling the ring wrap-around. Advances frame_read by n.
 141:usbd_audio_if.c ****  * Caller must ensure n <= available frames.
 142:usbd_audio_if.c ****  * --------------------------------------------------------------------- */
 143:usbd_audio_if.c **** static void copy_frames_from_ring(uint8_t *dst, uint32_t n)
 144:usbd_audio_if.c **** {
 145:usbd_audio_if.c ****     uint32_t pos        = frame_read % FRAME_RING_SIZE;
 146:usbd_audio_if.c ****     uint32_t to_end     = FRAME_RING_SIZE - pos;
 147:usbd_audio_if.c **** 
 148:usbd_audio_if.c ****     if(n <= to_end)
 149:usbd_audio_if.c ****     {
 150:usbd_audio_if.c ****         /* Contiguous — single memcpy */
 151:usbd_audio_if.c ****         memcpy(dst, &frame_ring[pos * AUDIO_CHANNELS],
 152:usbd_audio_if.c ****                n * AUDIO_CHANNELS * BYTES_PER_SAMPLE);
 153:usbd_audio_if.c ****     }
 154:usbd_audio_if.c ****     else
 155:usbd_audio_if.c ****     {
 156:usbd_audio_if.c ****         /* Wraps around — two memcpys */
 157:usbd_audio_if.c ****         uint32_t first  = to_end;
 158:usbd_audio_if.c ****         uint32_t second = n - first;
 159:usbd_audio_if.c ****         memcpy(dst,
 160:usbd_audio_if.c ****                &frame_ring[pos * AUDIO_CHANNELS],
 161:usbd_audio_if.c ****                first * AUDIO_CHANNELS * BYTES_PER_SAMPLE);
 162:usbd_audio_if.c ****         memcpy(dst + first * AUDIO_CHANNELS * BYTES_PER_SAMPLE,
 163:usbd_audio_if.c ****                &frame_ring[0],
 164:usbd_audio_if.c ****                second * AUDIO_CHANNELS * BYTES_PER_SAMPLE);
 165:usbd_audio_if.c ****     }
 166:usbd_audio_if.c **** 
 167:usbd_audio_if.c ****     frame_read = (frame_read + n) % FRAME_RING_SIZE;
 168:usbd_audio_if.c **** }
ARM GAS  /tmp/ccVgpXxR.s 			page 8


 169:usbd_audio_if.c **** 
 170:usbd_audio_if.c **** /* -----------------------------------------------------------------------
 171:usbd_audio_if.c ****  * Audio_PeriodicTC — called from DataIn every ~1ms
 172:usbd_audio_if.c ****  *
 173:usbd_audio_if.c ****  * Reads exactly tx_samples frames from the frame ring. Because frame_read
 174:usbd_audio_if.c ****  * advances by tx_samples, the ring level genuinely changes by that amount.
 175:usbd_audio_if.c ****  * This is what makes 47/48/49 corrections actually work.
 176:usbd_audio_if.c ****  * --------------------------------------------------------------------- */
 177:usbd_audio_if.c **** static uint16_t Audio_PeriodicTC(uint8_t *pbuf, uint32_t size, uint8_t cmd)
 178:usbd_audio_if.c **** {
 214              		.loc 1 178 1 is_stmt 1 view -0
 215              		.cfi_startproc
 216              		@ args = 0, pretend = 0, frame = 0
 217              		@ frame_needed = 0, uses_anonymous_args = 0
 179:usbd_audio_if.c ****     (void)size;
 218              		.loc 1 179 5 view .LVU50
 180:usbd_audio_if.c ****     if(cmd != AUDIO_IN_TC) return BYTES_NOM;
 219              		.loc 1 180 5 view .LVU51
 220              		.loc 1 180 7 is_stmt 0 view .LVU52
 221 0000 022A     		cmp	r2, #2
 178:usbd_audio_if.c ****     (void)size;
 222              		.loc 1 178 1 view .LVU53
 223 0002 2DE9F843 		push	{r3, r4, r5, r6, r7, r8, r9, lr}
 224              		.cfi_def_cfa_offset 32
 225              		.cfi_offset 3, -32
 226              		.cfi_offset 4, -28
 227              		.cfi_offset 5, -24
 228              		.cfi_offset 6, -20
 229              		.cfi_offset 7, -16
 230              		.cfi_offset 8, -12
 231              		.cfi_offset 9, -8
 232              		.cfi_offset 14, -4
 233              		.loc 1 180 7 view .LVU54
 234 0006 52D1     		bne	.L19
 235              	.LVL12:
 236              	.LBB7:
 237              	.LBI7:
 177:usbd_audio_if.c **** {
 238              		.loc 1 177 17 is_stmt 1 view .LVU55
 239              	.LBB8:
 181:usbd_audio_if.c **** 
 182:usbd_audio_if.c ****     uint32_t available = (frame_write - frame_read + FRAME_RING_SIZE) % FRAME_RING_SIZE;
 240              		.loc 1 182 5 view .LVU56
 241              		.loc 1 182 39 is_stmt 0 view .LVU57
 242 0008 354A     		ldr	r2, .L24
 243              	.LVL13:
 244              		.loc 1 182 39 view .LVU58
 245 000a 0346     		mov	r3, r0
 246 000c 354E     		ldr	r6, .L24+4
 247 000e 1168     		ldr	r1, [r2]
 248              	.LVL14:
 183:usbd_audio_if.c **** 
 184:usbd_audio_if.c ****     /* Pre-fill: hold silence until buffer reaches target */
 185:usbd_audio_if.c ****     if(!streaming_active)
 249              		.loc 1 185 8 view .LVU59
 250 0010 354C     		ldr	r4, .L24+8
 182:usbd_audio_if.c **** 
ARM GAS  /tmp/ccVgpXxR.s 			page 9


 251              		.loc 1 182 39 view .LVU60
 252 0012 3268     		ldr	r2, [r6]
 253              		.loc 1 185 7 view .LVU61
 254 0014 2578     		ldrb	r5, [r4]	@ zero_extendqisi2
 182:usbd_audio_if.c **** 
 255              		.loc 1 182 39 view .LVU62
 256 0016 891A     		subs	r1, r1, r2
 257 0018 C1F30802 		ubfx	r2, r1, #0, #9
 258              	.LVL15:
 259              		.loc 1 185 5 is_stmt 1 view .LVU63
 260              		.loc 1 185 7 is_stmt 0 view .LVU64
 261 001c 25B9     		cbnz	r5, .L12
 186:usbd_audio_if.c ****     {
 187:usbd_audio_if.c ****         if(available >= (uint32_t)FRAME_TARGET)
 262              		.loc 1 187 9 is_stmt 1 view .LVU65
 263              		.loc 1 187 11 is_stmt 0 view .LVU66
 264 001e 11F48071 		ands	r1, r1, #256
 265 0022 57D0     		beq	.L13
 188:usbd_audio_if.c ****             streaming_active = 1U;
 266              		.loc 1 188 13 is_stmt 1 view .LVU67
 267              		.loc 1 188 30 is_stmt 0 view .LVU68
 268 0024 0121     		movs	r1, #1
 269 0026 2170     		strb	r1, [r4]
 270              	.L12:
 189:usbd_audio_if.c ****         else {
 190:usbd_audio_if.c ****             memset(pbuf, 0, BYTES_NOM);
 191:usbd_audio_if.c ****             return BYTES_NOM;
 192:usbd_audio_if.c ****         }
 193:usbd_audio_if.c ****     }
 194:usbd_audio_if.c **** 
 195:usbd_audio_if.c ****     /* Underrun: buffer empty — reset and re-prime */
 196:usbd_audio_if.c ****     if(available < SAMPLES_NOM)
 271              		.loc 1 196 5 is_stmt 1 view .LVU69
 272              		.loc 1 196 7 is_stmt 0 view .LVU70
 273 0028 2F2A     		cmp	r2, #47
 274 002a 47D9     		bls	.L22
 197:usbd_audio_if.c ****     {
 198:usbd_audio_if.c ****         streaming_active = 0U;
 199:usbd_audio_if.c ****         underrun_events++;
 200:usbd_audio_if.c ****         memset(pbuf, 0, BYTES_NOM);
 201:usbd_audio_if.c ****         return BYTES_NOM;
 202:usbd_audio_if.c ****     }
 203:usbd_audio_if.c **** 
 204:usbd_audio_if.c ****     /* Drift control — genuinely changes drain rate because frame_read
 205:usbd_audio_if.c ****        advances by exactly tx_samples, not by a fixed slot size */
 206:usbd_audio_if.c ****     uint32_t tx_samples = SAMPLES_NOM;
 275              		.loc 1 206 5 is_stmt 1 view .LVU71
 276              	.LVL16:
 207:usbd_audio_if.c **** 
 208:usbd_audio_if.c ****     if(available > FRAME_DRIFT_HIGH)
 277              		.loc 1 208 5 view .LVU72
 278              		.loc 1 208 7 is_stmt 0 view .LVU73
 279 002c B2F5A07F 		cmp	r2, #320
 280 0030 1BD9     		bls	.L15
 209:usbd_audio_if.c ****     {
 210:usbd_audio_if.c ****         tx_samples = SAMPLES_MAX;        /* 49 — drain faster */
 281              		.loc 1 210 9 is_stmt 1 view .LVU74
ARM GAS  /tmp/ccVgpXxR.s 			page 10


 282              	.LVL17:
 211:usbd_audio_if.c ****         drift_corrections_up++;
 283              		.loc 1 211 9 view .LVU75
 284              		.loc 1 211 29 is_stmt 0 view .LVU76
 285 0032 2E49     		ldr	r1, .L24+12
 286 0034 C427     		movs	r7, #196
 210:usbd_audio_if.c ****         drift_corrections_up++;
 287              		.loc 1 210 20 view .LVU77
 288 0036 3124     		movs	r4, #49
 289              		.loc 1 211 29 view .LVU78
 290 0038 0A68     		ldr	r2, [r1]
 291              	.LVL18:
 292              		.loc 1 211 29 view .LVU79
 293 003a 0132     		adds	r2, r2, #1
 294 003c 0A60     		str	r2, [r1]
 212:usbd_audio_if.c ****     }
 213:usbd_audio_if.c ****     else if(available < FRAME_DRIFT_LOW)
 214:usbd_audio_if.c ****     {
 215:usbd_audio_if.c ****         tx_samples = SAMPLES_MIN;        /* 47 — drain slower */
 216:usbd_audio_if.c ****         drift_corrections_down++;
 217:usbd_audio_if.c ****     }
 218:usbd_audio_if.c **** 
 219:usbd_audio_if.c ****     /* Clamp to available frames (safety — should never be needed) */
 220:usbd_audio_if.c ****     if(tx_samples > available)
 295              		.loc 1 220 5 is_stmt 1 view .LVU80
 296              	.LVL19:
 297              	.L16:
 221:usbd_audio_if.c ****         tx_samples = available;
 222:usbd_audio_if.c **** 
 223:usbd_audio_if.c ****     copy_frames_from_ring(pbuf, tx_samples);
 298              		.loc 1 223 5 view .LVU81
 299              	.LBB9:
 300              	.LBI9:
 143:usbd_audio_if.c **** {
 301              		.loc 1 143 13 view .LVU82
 302              	.LBB10:
 145:usbd_audio_if.c ****     uint32_t to_end     = FRAME_RING_SIZE - pos;
 303              		.loc 1 145 5 view .LVU83
 145:usbd_audio_if.c ****     uint32_t to_end     = FRAME_RING_SIZE - pos;
 304              		.loc 1 145 38 is_stmt 0 view .LVU84
 305 003e 3568     		ldr	r5, [r6]
 145:usbd_audio_if.c ****     uint32_t to_end     = FRAME_RING_SIZE - pos;
 306              		.loc 1 145 14 view .LVU85
 307 0040 C5F30805 		ubfx	r5, r5, #0, #9
 308              	.LVL20:
 146:usbd_audio_if.c **** 
 309              		.loc 1 146 5 is_stmt 1 view .LVU86
 146:usbd_audio_if.c **** 
 310              		.loc 1 146 14 is_stmt 0 view .LVU87
 311 0044 C5F50072 		rsb	r2, r5, #512
 312              	.LVL21:
 148:usbd_audio_if.c ****     {
 313              		.loc 1 148 5 is_stmt 1 view .LVU88
 148:usbd_audio_if.c ****     {
 314              		.loc 1 148 7 is_stmt 0 view .LVU89
 315 0048 9442     		cmp	r4, r2
 316 004a 1DD8     		bhi	.L17
ARM GAS  /tmp/ccVgpXxR.s 			page 11


 317              	.L23:
 151:usbd_audio_if.c ****                n * AUDIO_CHANNELS * BYTES_PER_SAMPLE);
 318              		.loc 1 151 9 is_stmt 1 view .LVU90
 151:usbd_audio_if.c ****                n * AUDIO_CHANNELS * BYTES_PER_SAMPLE);
 319              		.loc 1 151 21 is_stmt 0 view .LVU91
 320 004c 2849     		ldr	r1, .L24+16
 151:usbd_audio_if.c ****                n * AUDIO_CHANNELS * BYTES_PER_SAMPLE);
 321              		.loc 1 151 9 view .LVU92
 322 004e 1846     		mov	r0, r3
 323              	.LVL22:
 151:usbd_audio_if.c ****                n * AUDIO_CHANNELS * BYTES_PER_SAMPLE);
 324              		.loc 1 151 9 view .LVU93
 325 0050 A200     		lsls	r2, r4, #2
 326              	.LVL23:
 151:usbd_audio_if.c ****                n * AUDIO_CHANNELS * BYTES_PER_SAMPLE);
 327              		.loc 1 151 9 view .LVU94
 328 0052 01EB8501 		add	r1, r1, r5, lsl #2
 329 0056 FFF7FEFF 		bl	memcpy
 330              	.LVL24:
 331              	.L18:
 167:usbd_audio_if.c **** }
 332              		.loc 1 167 5 is_stmt 1 view .LVU95
 167:usbd_audio_if.c **** }
 333              		.loc 1 167 30 is_stmt 0 view .LVU96
 334 005a 3368     		ldr	r3, [r6]
 335 005c 1C44     		add	r4, r4, r3
 336              	.LVL25:
 167:usbd_audio_if.c **** }
 337              		.loc 1 167 35 view .LVU97
 338 005e C4F30804 		ubfx	r4, r4, #0, #9
 167:usbd_audio_if.c **** }
 339              		.loc 1 167 16 view .LVU98
 340 0062 3460     		str	r4, [r6]
 341              	.LVL26:
 167:usbd_audio_if.c **** }
 342              		.loc 1 167 16 view .LVU99
 343              	.LBE10:
 344              	.LBE9:
 224:usbd_audio_if.c **** 
 225:usbd_audio_if.c ****     return (uint16_t)(tx_samples * AUDIO_CHANNELS * BYTES_PER_SAMPLE);
 345              		.loc 1 225 5 is_stmt 1 view .LVU100
 346              	.L11:
 347              		.loc 1 225 5 is_stmt 0 view .LVU101
 348              	.LBE8:
 349              	.LBE7:
 226:usbd_audio_if.c **** }
 350              		.loc 1 226 1 view .LVU102
 351 0064 3846     		mov	r0, r7
 352 0066 BDE8F883 		pop	{r3, r4, r5, r6, r7, r8, r9, pc}
 353              	.LVL27:
 354              	.L15:
 355              	.LBB16:
 356              	.LBB14:
 213:usbd_audio_if.c ****     {
 357              		.loc 1 213 10 is_stmt 1 view .LVU103
 213:usbd_audio_if.c ****     {
 358              		.loc 1 213 12 is_stmt 0 view .LVU104
ARM GAS  /tmp/ccVgpXxR.s 			page 12


 359 006a BF2A     		cmp	r2, #191
 360 006c 23D8     		bhi	.L20
 215:usbd_audio_if.c ****         drift_corrections_down++;
 361              		.loc 1 215 9 is_stmt 1 view .LVU105
 362              	.LVL28:
 216:usbd_audio_if.c ****     }
 363              		.loc 1 216 9 view .LVU106
 216:usbd_audio_if.c ****     }
 364              		.loc 1 216 31 is_stmt 0 view .LVU107
 365 006e 2149     		ldr	r1, .L24+20
 215:usbd_audio_if.c ****         drift_corrections_down++;
 366              		.loc 1 215 20 view .LVU108
 367 0070 2F24     		movs	r4, #47
 216:usbd_audio_if.c ****     }
 368              		.loc 1 216 31 view .LVU109
 369 0072 BC27     		movs	r7, #188
 370 0074 0A68     		ldr	r2, [r1]
 371              	.LVL29:
 216:usbd_audio_if.c ****     }
 372              		.loc 1 216 31 view .LVU110
 373 0076 0132     		adds	r2, r2, #1
 374 0078 0A60     		str	r2, [r1]
 375              	.LVL30:
 223:usbd_audio_if.c **** 
 376              		.loc 1 223 5 is_stmt 1 view .LVU111
 377              	.LBB13:
 143:usbd_audio_if.c **** {
 378              		.loc 1 143 13 view .LVU112
 379              	.LBB12:
 145:usbd_audio_if.c ****     uint32_t to_end     = FRAME_RING_SIZE - pos;
 380              		.loc 1 145 5 view .LVU113
 145:usbd_audio_if.c ****     uint32_t to_end     = FRAME_RING_SIZE - pos;
 381              		.loc 1 145 38 is_stmt 0 view .LVU114
 382 007a 3568     		ldr	r5, [r6]
 145:usbd_audio_if.c ****     uint32_t to_end     = FRAME_RING_SIZE - pos;
 383              		.loc 1 145 14 view .LVU115
 384 007c C5F30805 		ubfx	r5, r5, #0, #9
 385              	.LVL31:
 146:usbd_audio_if.c **** 
 386              		.loc 1 146 5 is_stmt 1 view .LVU116
 146:usbd_audio_if.c **** 
 387              		.loc 1 146 14 is_stmt 0 view .LVU117
 388 0080 C5F50072 		rsb	r2, r5, #512
 389              	.LVL32:
 148:usbd_audio_if.c ****     {
 390              		.loc 1 148 5 is_stmt 1 view .LVU118
 148:usbd_audio_if.c ****     {
 391              		.loc 1 148 7 is_stmt 0 view .LVU119
 392 0084 9442     		cmp	r4, r2
 393 0086 E1D9     		bls	.L23
 394              	.L17:
 395              	.LBB11:
 157:usbd_audio_if.c ****         uint32_t second = n - first;
 396              		.loc 1 157 9 is_stmt 1 view .LVU120
 397              	.LVL33:
 158:usbd_audio_if.c ****         memcpy(dst,
 398              		.loc 1 158 9 view .LVU121
ARM GAS  /tmp/ccVgpXxR.s 			page 13


 159:usbd_audio_if.c ****                &frame_ring[pos * AUDIO_CHANNELS],
 399              		.loc 1 159 9 view .LVU122
 161:usbd_audio_if.c ****         memcpy(dst + first * AUDIO_CHANNELS * BYTES_PER_SAMPLE,
 400              		.loc 1 161 39 is_stmt 0 view .LVU123
 401 0088 4FEA8208 		lsl	r8, r2, #2
 160:usbd_audio_if.c ****                first * AUDIO_CHANNELS * BYTES_PER_SAMPLE);
 402              		.loc 1 160 16 view .LVU124
 403 008c DFF86090 		ldr	r9, .L24+16
 159:usbd_audio_if.c ****                &frame_ring[pos * AUDIO_CHANNELS],
 404              		.loc 1 159 9 view .LVU125
 405 0090 1846     		mov	r0, r3
 406              	.LVL34:
 159:usbd_audio_if.c ****                &frame_ring[pos * AUDIO_CHANNELS],
 407              		.loc 1 159 9 view .LVU126
 408 0092 4246     		mov	r2, r8
 409              	.LVL35:
 159:usbd_audio_if.c ****                &frame_ring[pos * AUDIO_CHANNELS],
 410              		.loc 1 159 9 view .LVU127
 411 0094 09EB8501 		add	r1, r9, r5, lsl #2
 412 0098 FFF7FEFF 		bl	memcpy
 413              	.LVL36:
 162:usbd_audio_if.c ****                &frame_ring[0],
 414              		.loc 1 162 9 is_stmt 1 view .LVU128
 158:usbd_audio_if.c ****         memcpy(dst,
 415              		.loc 1 158 18 is_stmt 0 view .LVU129
 416 009c A5F50072 		sub	r2, r5, #512
 162:usbd_audio_if.c ****                &frame_ring[0],
 417              		.loc 1 162 9 view .LVU130
 418 00a0 4044     		add	r0, r0, r8
 419 00a2 4946     		mov	r1, r9
 158:usbd_audio_if.c ****         memcpy(dst,
 420              		.loc 1 158 18 view .LVU131
 421 00a4 2244     		add	r2, r2, r4
 162:usbd_audio_if.c ****                &frame_ring[0],
 422              		.loc 1 162 9 view .LVU132
 423 00a6 9200     		lsls	r2, r2, #2
 424 00a8 FFF7FEFF 		bl	memcpy
 425              	.LVL37:
 426 00ac D5E7     		b	.L18
 427              	.LVL38:
 428              	.L19:
 162:usbd_audio_if.c ****                &frame_ring[0],
 429              		.loc 1 162 9 view .LVU133
 430              	.LBE11:
 431              	.LBE12:
 432              	.LBE13:
 433              	.LBE14:
 434              	.LBE16:
 180:usbd_audio_if.c **** 
 435              		.loc 1 180 35 view .LVU134
 436 00ae C027     		movs	r7, #192
 437              		.loc 1 226 1 view .LVU135
 438 00b0 3846     		mov	r0, r7
 439              	.LVL39:
 440              		.loc 1 226 1 view .LVU136
 441 00b2 BDE8F883 		pop	{r3, r4, r5, r6, r7, r8, r9, pc}
 442              	.LVL40:
ARM GAS  /tmp/ccVgpXxR.s 			page 14


 443              	.L20:
 444              	.LBB17:
 445              	.LBB15:
 446              		.loc 1 226 1 view .LVU137
 447 00b6 C027     		movs	r7, #192
 206:usbd_audio_if.c **** 
 448              		.loc 1 206 14 view .LVU138
 449 00b8 3024     		movs	r4, #48
 450 00ba C0E7     		b	.L16
 451              	.LVL41:
 452              	.L22:
 198:usbd_audio_if.c ****         underrun_events++;
 453              		.loc 1 198 9 is_stmt 1 view .LVU139
 199:usbd_audio_if.c ****         memset(pbuf, 0, BYTES_NOM);
 454              		.loc 1 199 24 is_stmt 0 view .LVU140
 455 00bc 0E4D     		ldr	r5, .L24+24
 200:usbd_audio_if.c ****         return BYTES_NOM;
 456              		.loc 1 200 9 view .LVU141
 457 00be 1846     		mov	r0, r3
 458              	.LVL42:
 198:usbd_audio_if.c ****         underrun_events++;
 459              		.loc 1 198 26 view .LVU142
 460 00c0 0021     		movs	r1, #0
 200:usbd_audio_if.c ****         return BYTES_NOM;
 461              		.loc 1 200 9 view .LVU143
 462 00c2 C022     		movs	r2, #192
 463              	.LVL43:
 199:usbd_audio_if.c ****         memset(pbuf, 0, BYTES_NOM);
 464              		.loc 1 199 24 view .LVU144
 465 00c4 2B68     		ldr	r3, [r5]
 466              	.LVL44:
 201:usbd_audio_if.c ****     }
 467              		.loc 1 201 16 view .LVU145
 468 00c6 1746     		mov	r7, r2
 198:usbd_audio_if.c ****         underrun_events++;
 469              		.loc 1 198 26 view .LVU146
 470 00c8 2170     		strb	r1, [r4]
 199:usbd_audio_if.c ****         memset(pbuf, 0, BYTES_NOM);
 471              		.loc 1 199 9 is_stmt 1 view .LVU147
 199:usbd_audio_if.c ****         memset(pbuf, 0, BYTES_NOM);
 472              		.loc 1 199 24 is_stmt 0 view .LVU148
 473 00ca 0133     		adds	r3, r3, #1
 474 00cc 2B60     		str	r3, [r5]
 200:usbd_audio_if.c ****         return BYTES_NOM;
 475              		.loc 1 200 9 is_stmt 1 view .LVU149
 476 00ce FFF7FEFF 		bl	memset
 477              	.LVL45:
 201:usbd_audio_if.c ****     }
 478              		.loc 1 201 9 view .LVU150
 201:usbd_audio_if.c ****     }
 479              		.loc 1 201 16 is_stmt 0 view .LVU151
 480 00d2 C7E7     		b	.L11
 481              	.LVL46:
 482              	.L13:
 190:usbd_audio_if.c ****             return BYTES_NOM;
 483              		.loc 1 190 13 is_stmt 1 view .LVU152
 484 00d4 C022     		movs	r2, #192
ARM GAS  /tmp/ccVgpXxR.s 			page 15


 485              	.LVL47:
 191:usbd_audio_if.c ****         }
 486              		.loc 1 191 20 is_stmt 0 view .LVU153
 487 00d6 1746     		mov	r7, r2
 190:usbd_audio_if.c ****             return BYTES_NOM;
 488              		.loc 1 190 13 view .LVU154
 489 00d8 FFF7FEFF 		bl	memset
 490              	.LVL48:
 191:usbd_audio_if.c ****         }
 491              		.loc 1 191 13 is_stmt 1 view .LVU155
 191:usbd_audio_if.c ****         }
 492              		.loc 1 191 20 is_stmt 0 view .LVU156
 493 00dc C2E7     		b	.L11
 494              	.L25:
 495 00de 00BF     		.align	2
 496              	.L24:
 497 00e0 00000000 		.word	.LANCHOR0
 498 00e4 00000000 		.word	.LANCHOR1
 499 00e8 00000000 		.word	.LANCHOR2
 500 00ec 00000000 		.word	.LANCHOR3
 501 00f0 00000000 		.word	.LANCHOR6
 502 00f4 00000000 		.word	.LANCHOR4
 503 00f8 00000000 		.word	.LANCHOR5
 504              	.LBE15:
 505              	.LBE17:
 506              		.cfi_endproc
 507              	.LFE330:
 509              		.section	.text.Audio_MuteCtl,"ax",%progbits
 510              		.align	1
 511              		.p2align 2,,3
 512              		.syntax unified
 513              		.thumb
 514              		.thumb_func
 515              		.fpu fpv5-d16
 517              	Audio_MuteCtl:
 518              	.LFB334:
 519              		.cfi_startproc
 520              		@ args = 0, pretend = 0, frame = 0
 521              		@ frame_needed = 0, uses_anonymous_args = 0
 522              		@ link register save eliminated.
 523 0000 0020     		movs	r0, #0
 524 0002 7047     		bx	lr
 525              		.cfi_endproc
 526              	.LFE334:
 528              		.section	.text.AudioIF_PushSamples,"ax",%progbits
 529              		.align	1
 530              		.p2align 2,,3
 531              		.global	AudioIF_PushSamples
 532              		.syntax unified
 533              		.thumb
 534              		.thumb_func
 535              		.fpu fpv5-d16
 537              	AudioIF_PushSamples:
 538              	.LVL49:
 539              	.LFB331:
 227:usbd_audio_if.c **** 
 228:usbd_audio_if.c **** /* -----------------------------------------------------------------------
ARM GAS  /tmp/ccVgpXxR.s 			page 16


 229:usbd_audio_if.c ****  * USBD_AUDIO_fops
 230:usbd_audio_if.c ****  * --------------------------------------------------------------------- */
 231:usbd_audio_if.c **** USBD_AUDIO_ItfTypeDef USBD_AUDIO_fops = {
 232:usbd_audio_if.c ****     Audio_Init, Audio_DeInit, Audio_AudioCmd,
 233:usbd_audio_if.c ****     Audio_VolumeCtl, Audio_MuteCtl,
 234:usbd_audio_if.c ****     Audio_PeriodicTC, Audio_GetState,
 235:usbd_audio_if.c **** };
 236:usbd_audio_if.c **** 
 237:usbd_audio_if.c **** /* -----------------------------------------------------------------------
 238:usbd_audio_if.c ****  * AudioIF_PushSamples — called from AudioCallback (DMA ISR)
 239:usbd_audio_if.c ****  *
 240:usbd_audio_if.c ****  * Writes interleaved int16 frames directly into the frame ring.
 241:usbd_audio_if.c ****  * No partial-packet accumulation needed — any block size works.
 242:usbd_audio_if.c ****  * --------------------------------------------------------------------- */
 243:usbd_audio_if.c **** void AudioIF_PushSamples(int16_t *samples, uint32_t num_frames)
 244:usbd_audio_if.c **** {
 540              		.loc 1 244 1 is_stmt 1 view -0
 541              		.cfi_startproc
 542              		@ args = 0, pretend = 0, frame = 0
 543              		@ frame_needed = 0, uses_anonymous_args = 0
 245:usbd_audio_if.c ****     for(uint32_t i = 0; i < num_frames; i++)
 544              		.loc 1 245 5 view .LVU158
 545              	.LBB18:
 546              		.loc 1 245 9 view .LVU159
 547              		.loc 1 245 25 view .LVU160
 548              		.loc 1 245 5 is_stmt 0 view .LVU161
 549 0000 49B3     		cbz	r1, .L35
 550              		.loc 1 245 18 view .LVU162
 551 0002 4FF0000C 		mov	ip, #0
 552              	.LBE18:
 244:usbd_audio_if.c ****     for(uint32_t i = 0; i < num_frames; i++)
 553              		.loc 1 244 1 view .LVU163
 554 0006 2DE9F041 		push	{r4, r5, r6, r7, r8, lr}
 555              		.cfi_def_cfa_offset 24
 556              		.cfi_offset 4, -24
 557              		.cfi_offset 5, -20
 558              		.cfi_offset 6, -16
 559              		.cfi_offset 7, -12
 560              		.cfi_offset 8, -8
 561              		.cfi_offset 14, -4
 562 000a 134C     		ldr	r4, .L39
 563              	.LBB23:
 564              	.LBB19:
 246:usbd_audio_if.c ****     {
 247:usbd_audio_if.c ****         uint32_t pos = frame_write % FRAME_RING_SIZE;
 248:usbd_audio_if.c **** 
 249:usbd_audio_if.c ****         /* Check full — leave 1 slot gap between write and read */
 250:usbd_audio_if.c ****         uint32_t next = (pos + 1U) % FRAME_RING_SIZE;
 251:usbd_audio_if.c ****         if(next == (frame_read % FRAME_RING_SIZE)) return;  /* full — drop rest */
 252:usbd_audio_if.c **** 
 253:usbd_audio_if.c ****         frame_ring[pos * AUDIO_CHANNELS + 0] = samples[i * AUDIO_CHANNELS + 0];
 254:usbd_audio_if.c ****         frame_ring[pos * AUDIO_CHANNELS + 1] = samples[i * AUDIO_CHANNELS + 1];
 565              		.loc 1 254 55 view .LVU164
 566 000c 00F1020E 		add	lr, r0, #2
 567 0010 124E     		ldr	r6, .L39+4
 253:usbd_audio_if.c ****         frame_ring[pos * AUDIO_CHANNELS + 1] = samples[i * AUDIO_CHANNELS + 1];
 568              		.loc 1 253 46 view .LVU165
ARM GAS  /tmp/ccVgpXxR.s 			page 17


 569 0012 134D     		ldr	r5, .L39+8
 570 0014 10E0     		b	.L29
 571              	.LVL50:
 572              	.L38:
 253:usbd_audio_if.c ****         frame_ring[pos * AUDIO_CHANNELS + 1] = samples[i * AUDIO_CHANNELS + 1];
 573              		.loc 1 253 55 discriminator 2 view .LVU166
 574 0016 30F92C80 		ldrsh	r8, [r0, ip, lsl #2]
 255:usbd_audio_if.c **** 
 256:usbd_audio_if.c ****         frame_write = (frame_write + 1U) % FRAME_RING_SIZE;
 575              		.loc 1 256 36 discriminator 2 view .LVU167
 576 001a 2368     		ldr	r3, [r4]
 253:usbd_audio_if.c ****         frame_ring[pos * AUDIO_CHANNELS + 1] = samples[i * AUDIO_CHANNELS + 1];
 577              		.loc 1 253 46 discriminator 2 view .LVU168
 578 001c 25F81280 		strh	r8, [r5, r2, lsl #1]	@ movhi
 254:usbd_audio_if.c **** 
 579              		.loc 1 254 9 is_stmt 1 discriminator 2 view .LVU169
 580              		.loc 1 256 36 is_stmt 0 discriminator 2 view .LVU170
 581 0020 0133     		adds	r3, r3, #1
 254:usbd_audio_if.c **** 
 582              		.loc 1 254 55 discriminator 2 view .LVU171
 583 0022 3EF92C20 		ldrsh	r2, [lr, ip, lsl #2]
 584              	.LBE19:
 245:usbd_audio_if.c ****     {
 585              		.loc 1 245 42 discriminator 2 view .LVU172
 586 0026 0CF1010C 		add	ip, ip, #1
 587              	.LVL51:
 588              	.LBB20:
 589              		.loc 1 256 42 discriminator 2 view .LVU173
 590 002a C3F30803 		ubfx	r3, r3, #0, #9
 254:usbd_audio_if.c **** 
 591              		.loc 1 254 46 discriminator 2 view .LVU174
 592 002e 25F81720 		strh	r2, [r5, r7, lsl #1]	@ movhi
 593              		.loc 1 256 9 is_stmt 1 discriminator 2 view .LVU175
 594              	.LBE20:
 245:usbd_audio_if.c ****     {
 595              		.loc 1 245 5 is_stmt 0 discriminator 2 view .LVU176
 596 0032 6145     		cmp	r1, ip
 597              	.LBB21:
 598              		.loc 1 256 21 discriminator 2 view .LVU177
 599 0034 2360     		str	r3, [r4]
 600              	.LBE21:
 245:usbd_audio_if.c ****     {
 601              		.loc 1 245 41 is_stmt 1 discriminator 2 view .LVU178
 602              	.LVL52:
 245:usbd_audio_if.c ****     {
 603              		.loc 1 245 25 discriminator 2 view .LVU179
 245:usbd_audio_if.c ****     {
 604              		.loc 1 245 5 is_stmt 0 discriminator 2 view .LVU180
 605 0036 0CD0     		beq	.L27
 606              	.LVL53:
 607              	.L29:
 608              	.LBB22:
 247:usbd_audio_if.c **** 
 609              		.loc 1 247 9 is_stmt 1 view .LVU181
 253:usbd_audio_if.c ****         frame_ring[pos * AUDIO_CHANNELS + 1] = samples[i * AUDIO_CHANNELS + 1];
 610              		.loc 1 253 9 view .LVU182
 247:usbd_audio_if.c **** 
ARM GAS  /tmp/ccVgpXxR.s 			page 18


 611              		.loc 1 247 36 is_stmt 0 view .LVU183
 612 0038 2368     		ldr	r3, [r4]
 251:usbd_audio_if.c **** 
 613              		.loc 1 251 32 view .LVU184
 614 003a 3268     		ldr	r2, [r6]
 247:usbd_audio_if.c **** 
 615              		.loc 1 247 18 view .LVU185
 616 003c C3F30803 		ubfx	r3, r3, #0, #9
 617              	.LVL54:
 250:usbd_audio_if.c ****         if(next == (frame_read % FRAME_RING_SIZE)) return;  /* full — drop rest */
 618              		.loc 1 250 9 is_stmt 1 view .LVU186
 251:usbd_audio_if.c **** 
 619              		.loc 1 251 9 view .LVU187
 251:usbd_audio_if.c **** 
 620              		.loc 1 251 32 is_stmt 0 view .LVU188
 621 0040 C2F30808 		ubfx	r8, r2, #0, #9
 250:usbd_audio_if.c ****         if(next == (frame_read % FRAME_RING_SIZE)) return;  /* full — drop rest */
 622              		.loc 1 250 30 view .LVU189
 623 0044 5F1C     		adds	r7, r3, #1
 253:usbd_audio_if.c ****         frame_ring[pos * AUDIO_CHANNELS + 1] = samples[i * AUDIO_CHANNELS + 1];
 624              		.loc 1 253 41 view .LVU190
 625 0046 5A00     		lsls	r2, r3, #1
 250:usbd_audio_if.c ****         if(next == (frame_read % FRAME_RING_SIZE)) return;  /* full — drop rest */
 626              		.loc 1 250 18 view .LVU191
 627 0048 C7F30803 		ubfx	r3, r7, #0, #9
 628              	.LVL55:
 254:usbd_audio_if.c **** 
 629              		.loc 1 254 46 view .LVU192
 630 004c 571C     		adds	r7, r2, #1
 631              	.LVL56:
 251:usbd_audio_if.c **** 
 632              		.loc 1 251 11 view .LVU193
 633 004e 9845     		cmp	r8, r3
 634 0050 E1D1     		bne	.L38
 635              	.L27:
 251:usbd_audio_if.c **** 
 636              		.loc 1 251 11 view .LVU194
 637              	.LBE22:
 638              	.LBE23:
 257:usbd_audio_if.c ****     }
 258:usbd_audio_if.c **** }
 639              		.loc 1 258 1 view .LVU195
 640 0052 BDE8F081 		pop	{r4, r5, r6, r7, r8, pc}
 641              	.LVL57:
 642              	.L35:
 643              		.cfi_def_cfa_offset 0
 644              		.cfi_restore 4
 645              		.cfi_restore 5
 646              		.cfi_restore 6
 647              		.cfi_restore 7
 648              		.cfi_restore 8
 649              		.cfi_restore 14
 650              		.loc 1 258 1 view .LVU196
 651 0056 7047     		bx	lr
 652              	.L40:
 653              		.align	2
 654              	.L39:
ARM GAS  /tmp/ccVgpXxR.s 			page 19


 655 0058 00000000 		.word	.LANCHOR0
 656 005c 00000000 		.word	.LANCHOR1
 657 0060 00000000 		.word	.LANCHOR6
 658              		.cfi_endproc
 659              	.LFE331:
 661              		.global	USBD_AUDIO_fops
 662              		.global	underrun_events
 663              		.global	drift_corrections_down
 664              		.global	drift_corrections_up
 665              		.section	.bss.drift_corrections_down,"aw",%nobits
 666              		.align	2
 667              		.set	.LANCHOR4,. + 0
 670              	drift_corrections_down:
 671 0000 00000000 		.space	4
 672              		.section	.bss.drift_corrections_up,"aw",%nobits
 673              		.align	2
 674              		.set	.LANCHOR3,. + 0
 677              	drift_corrections_up:
 678 0000 00000000 		.space	4
 679              		.section	.bss.frame_read,"aw",%nobits
 680              		.align	2
 681              		.set	.LANCHOR1,. + 0
 684              	frame_read:
 685 0000 00000000 		.space	4
 686              		.section	.bss.frame_write,"aw",%nobits
 687              		.align	2
 688              		.set	.LANCHOR0,. + 0
 691              	frame_write:
 692 0000 00000000 		.space	4
 693              		.section	.bss.streaming_active,"aw",%nobits
 694              		.set	.LANCHOR2,. + 0
 697              	streaming_active:
 698 0000 00       		.space	1
 699              		.section	.bss.underrun_events,"aw",%nobits
 700              		.align	2
 701              		.set	.LANCHOR5,. + 0
 704              	underrun_events:
 705 0000 00000000 		.space	4
 706              		.section	.data.USBD_AUDIO_fops,"aw"
 707              		.align	2
 710              	USBD_AUDIO_fops:
 711 0000 00000000 		.word	Audio_Init
 712 0004 00000000 		.word	Audio_DeInit
 713 0008 00000000 		.word	Audio_AudioCmd
 714 000c 00000000 		.word	Audio_VolumeCtl
 715 0010 00000000 		.word	Audio_MuteCtl
 716 0014 00000000 		.word	Audio_PeriodicTC
 717 0018 00000000 		.word	Audio_GetState
 718              		.section	.heap,"aw"
 719              		.align	2
 720              		.set	.LANCHOR6,. + 0
 723              	frame_ring:
 724 0000 00000000 		.space	2048
 724      00000000 
 724      00000000 
 724      00000000 
 724      00000000 
ARM GAS  /tmp/ccVgpXxR.s 			page 20


 725              		.text
 726              	.Letext0:
 727              		.file 2 "/home/pi/Developer/gcc-arm-none-eabi-10-2020-q4-major/arm-none-eabi/include/machine/_defa
 728              		.file 3 "/home/pi/Developer/gcc-arm-none-eabi-10-2020-q4-major/arm-none-eabi/include/sys/_stdint.h
 729              		.file 4 "usbd_audio.h"
 730              		.file 5 "usbd_audio_if.h"
 731              		.file 6 "<built-in>"
 732              		.file 7 "../../libDaisy/Middlewares/ST/STM32_USB_Device_Library/Core/Inc/usbd_def.h"
ARM GAS  /tmp/ccVgpXxR.s 			page 21

