ARM GAS  /tmp/ccUUe33m.s 			page 1


   1              		.cpu cortex-m7
   2              		.eabi_attribute 28, 1
   3              		.eabi_attribute 20, 1
   4              		.eabi_attribute 21, 1
   5              		.eabi_attribute 23, 3
   6              		.eabi_attribute 24, 1
   7              		.eabi_attribute 25, 1
   8              		.eabi_attribute 26, 1
   9              		.eabi_attribute 30, 2
  10              		.eabi_attribute 34, 1
  11              		.eabi_attribute 18, 4
  12              		.file	"usbd_audio.c"
  13              		.text
  14              	.Ltext0:
  15              		.cfi_sections	.debug_frame
  16              		.section	.text.USBD_AUDIO_DataOut,"ax",%progbits
  17              		.align	1
  18              		.p2align 2,,3
  19              		.arch armv7e-m
  20              		.syntax unified
  21              		.thumb
  22              		.thumb_func
  23              		.fpu fpv5-d16
  25              	USBD_AUDIO_DataOut:
  26              	.LVL0:
  27              	.LFB329:
  28              		.file 1 "usbd_audio.c"
   1:usbd_audio.c  **** #include "usbd_audio.h"
   2:usbd_audio.c  **** #include "usbd_ctlreq.h"
   3:usbd_audio.c  **** 
   4:usbd_audio.c  **** #define HAUDIO  ((USBD_AUDIO_HandleTypeDef *)pdev->pClassData)
   5:usbd_audio.c  **** #define ITFOPS  ((USBD_AUDIO_ItfTypeDef    *)pdev->pUserData)
   6:usbd_audio.c  **** 
   7:usbd_audio.c  **** static uint8_t  USBD_AUDIO_Init               (USBD_HandleTypeDef *pdev, uint8_t cfgidx);
   8:usbd_audio.c  **** static uint8_t  USBD_AUDIO_DeInit             (USBD_HandleTypeDef *pdev, uint8_t cfgidx);
   9:usbd_audio.c  **** static uint8_t  USBD_AUDIO_Setup              (USBD_HandleTypeDef *pdev, USBD_SetupReqTypedef *req)
  10:usbd_audio.c  **** static uint8_t *USBD_AUDIO_GetCfgDesc         (uint16_t *length);
  11:usbd_audio.c  **** static uint8_t *USBD_AUDIO_GetDeviceQualifierDesc(uint16_t *length);
  12:usbd_audio.c  **** static uint8_t  USBD_AUDIO_DataIn             (USBD_HandleTypeDef *pdev, uint8_t epnum);
  13:usbd_audio.c  **** static uint8_t  USBD_AUDIO_DataOut            (USBD_HandleTypeDef *pdev, uint8_t epnum);
  14:usbd_audio.c  **** static uint8_t  USBD_AUDIO_EP0_RxReady        (USBD_HandleTypeDef *pdev);
  15:usbd_audio.c  **** static uint8_t  USBD_AUDIO_EP0_TxReady        (USBD_HandleTypeDef *pdev);
  16:usbd_audio.c  **** static uint8_t  USBD_AUDIO_SOF                (USBD_HandleTypeDef *pdev);
  17:usbd_audio.c  **** static uint8_t  USBD_AUDIO_IsoINIncomplete    (USBD_HandleTypeDef *pdev, uint8_t epnum);
  18:usbd_audio.c  **** static uint8_t  USBD_AUDIO_IsoOutIncomplete   (USBD_HandleTypeDef *pdev, uint8_t epnum);
  19:usbd_audio.c  **** static void     AUDIO_REQ_GetCurrent          (USBD_HandleTypeDef *pdev, USBD_SetupReqTypedef *req)
  20:usbd_audio.c  **** static void     AUDIO_REQ_SetCurrent          (USBD_HandleTypeDef *pdev, USBD_SetupReqTypedef *req)
  21:usbd_audio.c  **** 
  22:usbd_audio.c  **** USBD_ClassTypeDef USBD_AUDIO = {
  23:usbd_audio.c  ****     USBD_AUDIO_Init, USBD_AUDIO_DeInit, USBD_AUDIO_Setup,
  24:usbd_audio.c  ****     USBD_AUDIO_EP0_TxReady, USBD_AUDIO_EP0_RxReady,
  25:usbd_audio.c  ****     USBD_AUDIO_DataIn, USBD_AUDIO_DataOut, USBD_AUDIO_SOF,
  26:usbd_audio.c  ****     USBD_AUDIO_IsoINIncomplete, USBD_AUDIO_IsoOutIncomplete,
  27:usbd_audio.c  ****     USBD_AUDIO_GetCfgDesc, USBD_AUDIO_GetCfgDesc, USBD_AUDIO_GetCfgDesc,
  28:usbd_audio.c  ****     USBD_AUDIO_GetDeviceQualifierDesc,
  29:usbd_audio.c  **** };
  30:usbd_audio.c  **** 
ARM GAS  /tmp/ccUUe33m.s 			page 2


  31:usbd_audio.c  **** /* -----------------------------------------------------------------------
  32:usbd_audio.c  ****  * Configuration descriptor — 109 bytes, UAC1 stereo mic 16-bit 48kHz
  33:usbd_audio.c  ****  *
  34:usbd_audio.c  ****  * Changes from working baseline (usbd_audio.c 1771962245333):
  35:usbd_audio.c  ****  *
  36:usbd_audio.c  ****  *   [offset 65] bmAttributes:  0x01 → 0x05
  37:usbd_audio.c  ****  *     0x01 = synchronous isochronous (device slaved to host SOF)
  38:usbd_audio.c  ****  *     0x05 = asynchronous isochronous (device controls rate)
  39:usbd_audio.c  ****  *     Async is required for variable packet size to be valid. With sync
  40:usbd_audio.c  ****  *     the host may enforce exactly 192 bytes and discard 196-byte packets.
  41:usbd_audio.c  ****  *
  42:usbd_audio.c  ****  *   [offset 66-67] wMaxPacketSize: 0xC0 0x00 (192) → 0xC4 0x00 (196)
  43:usbd_audio.c  ****  *     Must fit the largest packet we will ever send (49 frames × 4 bytes).
  44:usbd_audio.c  ****  *     The host uses this to allocate its receive buffer. Sending 196 bytes
  45:usbd_audio.c  ****  *     to an endpoint declared as 192 causes silent packet loss.
  46:usbd_audio.c  ****  * --------------------------------------------------------------------- */
  47:usbd_audio.c  **** __ALIGN_BEGIN static uint8_t USBD_AUDIO_CfgDesc[USB_AUDIO_CONFIG_DESC_SIZ] __ALIGN_END = {
  48:usbd_audio.c  ****     /* Configuration (9) */
  49:usbd_audio.c  ****     0x09, USB_DESC_TYPE_CONFIGURATION,
  50:usbd_audio.c  ****     LOBYTE(USB_AUDIO_CONFIG_DESC_SIZ), HIBYTE(USB_AUDIO_CONFIG_DESC_SIZ),
  51:usbd_audio.c  ****     0x02, 0x01, 0x00, 0xC0, 50U,
  52:usbd_audio.c  **** 
  53:usbd_audio.c  ****     /* AudioControl Interface (9) */
  54:usbd_audio.c  ****     0x09, USB_DESC_TYPE_INTERFACE, 0x00, 0x00, 0x00,
  55:usbd_audio.c  ****     USB_DEVICE_CLASS_AUDIO, AUDIO_SUBCLASS_AUDIOCONTROL, AUDIO_PROTOCOL_UNDEFINED, 0x00,
  56:usbd_audio.c  **** 
  57:usbd_audio.c  ****     /* AC Header (9) */
  58:usbd_audio.c  ****     0x09, AUDIO_INTERFACE_DESCRIPTOR_TYPE, AUDIO_CONTROL_HEADER,
  59:usbd_audio.c  ****     0x00, 0x01, 0x27, 0x00, 0x01, 0x01,
  60:usbd_audio.c  **** 
  61:usbd_audio.c  ****     /* Input Terminal — Microphone stereo (12) */
  62:usbd_audio.c  ****     0x0C, AUDIO_INTERFACE_DESCRIPTOR_TYPE, AUDIO_CONTROL_INPUT_TERMINAL,
  63:usbd_audio.c  ****     0x01, 0x01, 0x02, 0x00, 0x02, 0x03, 0x00, 0x00, 0x00,
  64:usbd_audio.c  **** 
  65:usbd_audio.c  ****     /* Feature Unit — Mute (9) */
  66:usbd_audio.c  ****     0x09, AUDIO_INTERFACE_DESCRIPTOR_TYPE, AUDIO_CONTROL_FEATURE_UNIT,
  67:usbd_audio.c  ****     0x02, 0x01, 0x01, AUDIO_CONTROL_MUTE, 0x00, 0x00,
  68:usbd_audio.c  **** 
  69:usbd_audio.c  ****     /* Output Terminal — USB Streaming (9) */
  70:usbd_audio.c  ****     0x09, AUDIO_INTERFACE_DESCRIPTOR_TYPE, AUDIO_CONTROL_OUTPUT_TERMINAL,
  71:usbd_audio.c  ****     0x03, 0x01, 0x01, 0x00, 0x02, 0x00,
  72:usbd_audio.c  **** 
  73:usbd_audio.c  ****     /* AudioStreaming Interface alt 0 — zero bandwidth (9) */
  74:usbd_audio.c  ****     0x09, USB_DESC_TYPE_INTERFACE, 0x01, 0x00, 0x00,
  75:usbd_audio.c  ****     USB_DEVICE_CLASS_AUDIO, AUDIO_SUBCLASS_AUDIOSTREAMING, AUDIO_PROTOCOL_UNDEFINED, 0x00,
  76:usbd_audio.c  **** 
  77:usbd_audio.c  ****     /* AudioStreaming Interface alt 1 — active, 1 endpoint (9) */
  78:usbd_audio.c  ****     0x09, USB_DESC_TYPE_INTERFACE, 0x01, 0x01, 0x01,
  79:usbd_audio.c  ****     USB_DEVICE_CLASS_AUDIO, AUDIO_SUBCLASS_AUDIOSTREAMING, AUDIO_PROTOCOL_UNDEFINED, 0x00,
  80:usbd_audio.c  **** 
  81:usbd_audio.c  ****     /* AS General (7) */
  82:usbd_audio.c  ****     0x07, AUDIO_INTERFACE_DESCRIPTOR_TYPE, AUDIO_STREAMING_GENERAL,
  83:usbd_audio.c  ****     0x03, 0x01, 0x01, 0x00,
  84:usbd_audio.c  **** 
  85:usbd_audio.c  ****     /* Type I Format — 2ch 16-bit 48kHz (11) */
  86:usbd_audio.c  ****     0x0B, AUDIO_INTERFACE_DESCRIPTOR_TYPE, AUDIO_STREAMING_FORMAT_TYPE,
  87:usbd_audio.c  ****     AUDIO_FORMAT_TYPE_I, 0x02, 0x02, 16, 0x01,
ARM GAS  /tmp/ccUUe33m.s 			page 3


  88:usbd_audio.c  ****     0x80, 0xBB, 0x00,   /* 48000 = 0x00BB80 little-endian */
  89:usbd_audio.c  **** 
  90:usbd_audio.c  ****     /* ISO IN Endpoint 0x81 (9) */
  91:usbd_audio.c  ****     0x09, USB_DESC_TYPE_ENDPOINT, AUDIO_IN_EP,
  92:usbd_audio.c  ****     0x05,               /* bmAttributes = async isochronous (was 0x01 sync) */
  93:usbd_audio.c  ****     0xC4, 0x00,         /* wMaxPacketSize = 196 (was 0xC0=192) */
  94:usbd_audio.c  ****     0x01, 0x00, 0x00,   /* bInterval=1ms, bRefresh=0, bSynchAddress=0 */
  95:usbd_audio.c  **** 
  96:usbd_audio.c  ****     /* AS Endpoint Descriptor (7) */
  97:usbd_audio.c  ****     0x07, AUDIO_ENDPOINT_DESCRIPTOR_TYPE, AUDIO_ENDPOINT_GENERAL,
  98:usbd_audio.c  ****     0x00, 0x00, 0x00, 0x00,
  99:usbd_audio.c  **** };
 100:usbd_audio.c  **** 
 101:usbd_audio.c  **** __ALIGN_BEGIN static uint8_t USBD_AUDIO_DeviceQualifierDesc[USB_LEN_DEV_QUALIFIER_DESC] __ALIGN_END
 102:usbd_audio.c  ****     USB_LEN_DEV_QUALIFIER_DESC, USB_DESC_TYPE_DEVICE_QUALIFIER,
 103:usbd_audio.c  ****     0x00, 0x02, 0x00, 0x00, 0x00, 0x40, 0x01, 0x00,
 104:usbd_audio.c  **** };
 105:usbd_audio.c  **** 
 106:usbd_audio.c  **** static uint8_t  audio_streaming_active = 0U;
 107:usbd_audio.c  **** 
 108:usbd_audio.c  **** /* Tracks the byte count of the last submitted packet.
 109:usbd_audio.c  ****    IsoINIncomplete re-submits the same slot with the same size — no ring
 110:usbd_audio.c  ****    buffer drain, no double-drain race. */
 111:usbd_audio.c  **** static uint16_t last_tx_size = AUDIO_OUT_PACKET;
 112:usbd_audio.c  **** 
 113:usbd_audio.c  **** /* -----------------------------------------------------------------------
 114:usbd_audio.c  ****  * Init
 115:usbd_audio.c  ****  * --------------------------------------------------------------------- */
 116:usbd_audio.c  **** static uint8_t USBD_AUDIO_Init(USBD_HandleTypeDef *pdev, uint8_t cfgidx)
 117:usbd_audio.c  **** {
 118:usbd_audio.c  ****     (void)cfgidx;
 119:usbd_audio.c  ****     USBD_AUDIO_HandleTypeDef *haudio =
 120:usbd_audio.c  ****         (USBD_AUDIO_HandleTypeDef *)USBD_malloc(sizeof(USBD_AUDIO_HandleTypeDef));
 121:usbd_audio.c  ****     if(haudio == NULL) { pdev->pClassData = NULL; return USBD_FAIL; }
 122:usbd_audio.c  **** 
 123:usbd_audio.c  ****     pdev->pClassData = haudio;
 124:usbd_audio.c  **** 
 125:usbd_audio.c  ****     /* Open endpoint at AUDIO_PACKET_MAX (196) so 49-frame packets are
 126:usbd_audio.c  ****        accepted. Opening at 192 causes silent rejection of 196-byte packets. */
 127:usbd_audio.c  ****     USBD_LL_OpenEP(pdev, AUDIO_IN_EP, USBD_EP_TYPE_ISOC, AUDIO_PACKET_MAX);
 128:usbd_audio.c  ****     pdev->ep_in[AUDIO_IN_EP & 0x7FU].is_used = 1U;
 129:usbd_audio.c  **** 
 130:usbd_audio.c  ****     haudio->alt_setting = 0U;
 131:usbd_audio.c  ****     haudio->offset      = AUDIO_OFFSET_NONE;
 132:usbd_audio.c  ****     haudio->wr_ptr      = 0U;
 133:usbd_audio.c  ****     haudio->rd_ptr      = 0U;
 134:usbd_audio.c  ****     haudio->rd_enable   = 0U;
 135:usbd_audio.c  ****     audio_streaming_active = 0U;
 136:usbd_audio.c  ****     last_tx_size           = AUDIO_OUT_PACKET;
 137:usbd_audio.c  **** 
 138:usbd_audio.c  ****     if(ITFOPS->Init(USBD_AUDIO_FREQ, AUDIO_DEFAULT_VOLUME, 0U) != 0)
 139:usbd_audio.c  ****         return USBD_FAIL;
 140:usbd_audio.c  **** 
 141:usbd_audio.c  ****     memset(haudio->buffer, 0, sizeof(haudio->buffer));
 142:usbd_audio.c  ****     USBD_LL_Transmit(pdev, AUDIO_IN_EP, haudio->buffer, AUDIO_OUT_PACKET);
 143:usbd_audio.c  ****     return USBD_OK;
 144:usbd_audio.c  **** }
ARM GAS  /tmp/ccUUe33m.s 			page 4


 145:usbd_audio.c  **** 
 146:usbd_audio.c  **** static uint8_t USBD_AUDIO_DeInit(USBD_HandleTypeDef *pdev, uint8_t cfgidx)
 147:usbd_audio.c  **** {
 148:usbd_audio.c  ****     (void)cfgidx;
 149:usbd_audio.c  ****     USBD_LL_CloseEP(pdev, AUDIO_IN_EP);
 150:usbd_audio.c  ****     pdev->ep_in[AUDIO_IN_EP & 0x7FU].is_used = 0U;
 151:usbd_audio.c  ****     audio_streaming_active = 0U;
 152:usbd_audio.c  **** 
 153:usbd_audio.c  ****     if(pdev->pClassData != NULL) {
 154:usbd_audio.c  ****         ITFOPS->DeInit(0U);
 155:usbd_audio.c  ****         USBD_free(pdev->pClassData);
 156:usbd_audio.c  ****         pdev->pClassData = NULL;
 157:usbd_audio.c  ****     }
 158:usbd_audio.c  ****     return USBD_OK;
 159:usbd_audio.c  **** }
 160:usbd_audio.c  **** 
 161:usbd_audio.c  **** /* -----------------------------------------------------------------------
 162:usbd_audio.c  ****  * Setup — identical to working baseline
 163:usbd_audio.c  ****  * --------------------------------------------------------------------- */
 164:usbd_audio.c  **** static uint8_t USBD_AUDIO_Setup(USBD_HandleTypeDef *pdev, USBD_SetupReqTypedef *req)
 165:usbd_audio.c  **** {
 166:usbd_audio.c  ****     USBD_AUDIO_HandleTypeDef *haudio = HAUDIO;
 167:usbd_audio.c  ****     uint16_t len;
 168:usbd_audio.c  ****     uint16_t status_info = 0U;
 169:usbd_audio.c  ****     USBD_StatusTypeDef ret = USBD_OK;
 170:usbd_audio.c  **** 
 171:usbd_audio.c  ****     if(haudio == NULL) return USBD_FAIL;
 172:usbd_audio.c  **** 
 173:usbd_audio.c  ****     switch(req->bmRequest & USB_REQ_TYPE_MASK)
 174:usbd_audio.c  ****     {
 175:usbd_audio.c  ****         case USB_REQ_TYPE_CLASS:
 176:usbd_audio.c  ****             switch(req->bRequest) {
 177:usbd_audio.c  ****                 case AUDIO_REQ_GET_CUR: AUDIO_REQ_GetCurrent(pdev, req); break;
 178:usbd_audio.c  ****                 case AUDIO_REQ_SET_CUR: AUDIO_REQ_SetCurrent(pdev, req); break;
 179:usbd_audio.c  ****                 default: USBD_CtlError(pdev, req); ret = USBD_FAIL; break;
 180:usbd_audio.c  ****             }
 181:usbd_audio.c  ****             break;
 182:usbd_audio.c  **** 
 183:usbd_audio.c  ****         case USB_REQ_TYPE_STANDARD:
 184:usbd_audio.c  ****             switch(req->bRequest) {
 185:usbd_audio.c  ****                 case USB_REQ_GET_STATUS:
 186:usbd_audio.c  ****                     if(pdev->dev_state == USBD_STATE_CONFIGURED)
 187:usbd_audio.c  ****                         USBD_CtlSendData(pdev, (uint8_t *)&status_info, 2U);
 188:usbd_audio.c  ****                     else { USBD_CtlError(pdev, req); ret = USBD_FAIL; }
 189:usbd_audio.c  ****                     break;
 190:usbd_audio.c  **** 
 191:usbd_audio.c  ****                 case USB_REQ_GET_DESCRIPTOR:
 192:usbd_audio.c  ****                     if((req->wValue >> 8) == AUDIO_DESCRIPTOR_TYPE) {
 193:usbd_audio.c  ****                         len = MIN(USB_AUDIO_DESC_SIZ, req->wLength);
 194:usbd_audio.c  ****                         USBD_CtlSendData(pdev, USBD_AUDIO_CfgDesc + 18U, len);
 195:usbd_audio.c  ****                     }
 196:usbd_audio.c  ****                     break;
 197:usbd_audio.c  **** 
 198:usbd_audio.c  ****                 case USB_REQ_GET_INTERFACE:
 199:usbd_audio.c  ****                     if(pdev->dev_state == USBD_STATE_CONFIGURED)
 200:usbd_audio.c  ****                         USBD_CtlSendData(pdev, (uint8_t *)&haudio->alt_setting, 1U);
 201:usbd_audio.c  ****                     else { USBD_CtlError(pdev, req); ret = USBD_FAIL; }
ARM GAS  /tmp/ccUUe33m.s 			page 5


 202:usbd_audio.c  ****                     break;
 203:usbd_audio.c  **** 
 204:usbd_audio.c  ****                 case USB_REQ_SET_INTERFACE:
 205:usbd_audio.c  ****                     if(pdev->dev_state == USBD_STATE_CONFIGURED) {
 206:usbd_audio.c  ****                         haudio->alt_setting = (uint8_t)(req->wValue);
 207:usbd_audio.c  ****                         if(haudio->alt_setting == 1U) {
 208:usbd_audio.c  ****                             audio_streaming_active = 1U;
 209:usbd_audio.c  ****                             haudio->wr_ptr = 0U;
 210:usbd_audio.c  ****                             last_tx_size   = AUDIO_OUT_PACKET;
 211:usbd_audio.c  ****                             memset(haudio->buffer, 0, sizeof(haudio->buffer));
 212:usbd_audio.c  ****                             USBD_LL_Transmit(pdev, AUDIO_IN_EP,
 213:usbd_audio.c  ****                                              haudio->buffer, AUDIO_OUT_PACKET);
 214:usbd_audio.c  ****                         } else {
 215:usbd_audio.c  ****                             audio_streaming_active = 0U;
 216:usbd_audio.c  ****                         }
 217:usbd_audio.c  ****                     } else { USBD_CtlError(pdev, req); ret = USBD_FAIL; }
 218:usbd_audio.c  ****                     break;
 219:usbd_audio.c  **** 
 220:usbd_audio.c  ****                 default: USBD_CtlError(pdev, req); ret = USBD_FAIL; break;
 221:usbd_audio.c  ****             }
 222:usbd_audio.c  ****             break;
 223:usbd_audio.c  **** 
 224:usbd_audio.c  ****         default: USBD_CtlError(pdev, req); ret = USBD_FAIL; break;
 225:usbd_audio.c  ****     }
 226:usbd_audio.c  ****     return ret;
 227:usbd_audio.c  **** }
 228:usbd_audio.c  **** 
 229:usbd_audio.c  **** /* -----------------------------------------------------------------------
 230:usbd_audio.c  ****  * DataIn — called after host consumes each isochronous packet
 231:usbd_audio.c  ****  *
 232:usbd_audio.c  ****  * Changes from working baseline:
 233:usbd_audio.c  ****  *
 234:usbd_audio.c  ****  *   1. XOR toggle replaced with explicit 0/AUDIO_PACKET_MAX alternation.
 235:usbd_audio.c  ****  *      Old: haudio->wr_ptr ^= AUDIO_OUT_PACKET  (only correct when both
 236:usbd_audio.c  ****  *           slots are exactly 192 bytes apart; breaks with 196-byte slots)
 237:usbd_audio.c  ****  *      New: explicit ternary toggle between 0 and AUDIO_PACKET_MAX
 238:usbd_audio.c  ****  *
 239:usbd_audio.c  ****  *   2. PeriodicTC return value captured and passed to USBD_LL_Transmit.
 240:usbd_audio.c  ****  *      Old: return value discarded, AUDIO_OUT_PACKET (192) always sent
 241:usbd_audio.c  ****  *      New: actual byte count (188/192/196) reaches the wire
 242:usbd_audio.c  ****  *
 243:usbd_audio.c  ****  *   3. last_tx_size saved for IsoINIncomplete re-submission.
 244:usbd_audio.c  ****  * --------------------------------------------------------------------- */
 245:usbd_audio.c  **** static uint8_t USBD_AUDIO_DataIn(USBD_HandleTypeDef *pdev, uint8_t epnum)
 246:usbd_audio.c  **** {
 247:usbd_audio.c  ****     (void)epnum;
 248:usbd_audio.c  ****     USBD_AUDIO_HandleTypeDef *haudio = HAUDIO;
 249:usbd_audio.c  ****     if(haudio == NULL || !audio_streaming_active) return USBD_OK;
 250:usbd_audio.c  **** 
 251:usbd_audio.c  ****     haudio->wr_ptr = (haudio->wr_ptr == 0U) ? AUDIO_PACKET_MAX : 0U;
 252:usbd_audio.c  **** 
 253:usbd_audio.c  ****     last_tx_size = ITFOPS->PeriodicTC(
 254:usbd_audio.c  ****         &haudio->buffer[haudio->wr_ptr], AUDIO_PACKET_MAX, AUDIO_IN_TC);
 255:usbd_audio.c  **** 
 256:usbd_audio.c  ****     /* Flush D-cache for this buffer slot before DMA reads it.
 257:usbd_audio.c  ****        Without this, USB DMA reads stale data from physical SRAM
 258:usbd_audio.c  ****        while the CPU cache holds the fresh data from PeriodicTC. */
ARM GAS  /tmp/ccUUe33m.s 			page 6


 259:usbd_audio.c  ****     SCB_CleanDCache_by_Addr(
 260:usbd_audio.c  ****         (uint32_t *)&haudio->buffer[haudio->wr_ptr], last_tx_size);
 261:usbd_audio.c  **** 
 262:usbd_audio.c  ****     USBD_LL_Transmit(pdev, AUDIO_IN_EP,
 263:usbd_audio.c  ****                      &haudio->buffer[haudio->wr_ptr], last_tx_size);
 264:usbd_audio.c  ****     return USBD_OK;
 265:usbd_audio.c  **** }
 266:usbd_audio.c  **** /* -----------------------------------------------------------------------
 267:usbd_audio.c  ****  * IsoINIncomplete — packet was lost on the bus (USB frame overrun)
 268:usbd_audio.c  ****  *
 269:usbd_audio.c  ****  * Re-submit the current slot verbatim. Do NOT call PeriodicTC — that
 270:usbd_audio.c  ****  * would drain an extra packet from the ring buffer causing underrun.
 271:usbd_audio.c  ****  * Use last_tx_size so the re-submitted packet matches the original size.
 272:usbd_audio.c  ****  * --------------------------------------------------------------------- */
 273:usbd_audio.c  **** static uint8_t USBD_AUDIO_IsoINIncomplete(USBD_HandleTypeDef *pdev, uint8_t epnum)
 274:usbd_audio.c  **** {
 275:usbd_audio.c  ****     (void)epnum;
 276:usbd_audio.c  ****     USBD_AUDIO_HandleTypeDef *haudio = HAUDIO;
 277:usbd_audio.c  ****     if(haudio == NULL || !audio_streaming_active) return USBD_OK;
 278:usbd_audio.c  **** 
 279:usbd_audio.c  ****     USBD_LL_FlushEP(pdev, AUDIO_IN_EP);
 280:usbd_audio.c  ****     USBD_LL_Transmit(pdev, AUDIO_IN_EP,
 281:usbd_audio.c  ****                      &haudio->buffer[haudio->wr_ptr], last_tx_size);
 282:usbd_audio.c  ****     return USBD_OK;
 283:usbd_audio.c  **** }
 284:usbd_audio.c  **** 
 285:usbd_audio.c  **** /* -----------------------------------------------------------------------
 286:usbd_audio.c  ****  * Stubs — identical to working baseline
 287:usbd_audio.c  ****  * --------------------------------------------------------------------- */
 288:usbd_audio.c  **** static uint8_t USBD_AUDIO_SOF(USBD_HandleTypeDef *pdev)
 289:usbd_audio.c  ****     { (void)pdev; return USBD_OK; }
 290:usbd_audio.c  **** static uint8_t USBD_AUDIO_DataOut(USBD_HandleTypeDef *pdev, uint8_t epnum)
 291:usbd_audio.c  ****     { (void)pdev; (void)epnum; return USBD_OK; }
  29              		.loc 1 291 5 view -0
  30              		.cfi_startproc
  31              		@ args = 0, pretend = 0, frame = 0
  32              		@ frame_needed = 0, uses_anonymous_args = 0
  33              		@ link register save eliminated.
  34              		.loc 1 291 7 view .LVU1
  35              		.loc 1 291 19 view .LVU2
  36              		.loc 1 291 32 view .LVU3
  37              		.loc 1 291 48 is_stmt 0 view .LVU4
  38 0000 0020     		movs	r0, #0
  39              	.LVL1:
  40              		.loc 1 291 48 view .LVU5
  41 0002 7047     		bx	lr
  42              		.cfi_endproc
  43              	.LFE329:
  45              		.section	.text.USBD_AUDIO_EP0_TxReady,"ax",%progbits
  46              		.align	1
  47              		.p2align 2,,3
  48              		.syntax unified
  49              		.thumb
  50              		.thumb_func
  51              		.fpu fpv5-d16
  53              	USBD_AUDIO_EP0_TxReady:
  54              	.LVL2:
ARM GAS  /tmp/ccUUe33m.s 			page 7


  55              	.LFB331:
 292:usbd_audio.c  **** static uint8_t USBD_AUDIO_IsoOutIncomplete(USBD_HandleTypeDef *pdev, uint8_t epnum)
 293:usbd_audio.c  ****     { (void)pdev; (void)epnum; return USBD_OK; }
 294:usbd_audio.c  **** static uint8_t USBD_AUDIO_EP0_TxReady(USBD_HandleTypeDef *pdev)
 295:usbd_audio.c  ****     { (void)pdev; return USBD_OK; }
  56              		.loc 1 295 5 is_stmt 1 view -0
  57              		.cfi_startproc
  58              		@ args = 0, pretend = 0, frame = 0
  59              		@ frame_needed = 0, uses_anonymous_args = 0
  60              		@ link register save eliminated.
  61              		.loc 1 295 7 view .LVU7
  62              		.loc 1 295 19 view .LVU8
  63              		.loc 1 295 35 is_stmt 0 view .LVU9
  64 0000 0020     		movs	r0, #0
  65              	.LVL3:
  66              		.loc 1 295 35 view .LVU10
  67 0002 7047     		bx	lr
  68              		.cfi_endproc
  69              	.LFE331:
  71              		.section	.text.USBD_AUDIO_GetCfgDesc,"ax",%progbits
  72              		.align	1
  73              		.p2align 2,,3
  74              		.syntax unified
  75              		.thumb
  76              		.thumb_func
  77              		.fpu fpv5-d16
  79              	USBD_AUDIO_GetCfgDesc:
  80              	.LVL4:
  81              	.LFB332:
 296:usbd_audio.c  **** 
 297:usbd_audio.c  **** static uint8_t *USBD_AUDIO_GetCfgDesc(uint16_t *length)
 298:usbd_audio.c  ****     { *length = sizeof(USBD_AUDIO_CfgDesc); return USBD_AUDIO_CfgDesc; }
  82              		.loc 1 298 5 is_stmt 1 view -0
  83              		.cfi_startproc
  84              		@ args = 0, pretend = 0, frame = 0
  85              		@ frame_needed = 0, uses_anonymous_args = 0
  86              		@ link register save eliminated.
  87              		.loc 1 298 7 view .LVU12
  88              		.loc 1 298 5 is_stmt 0 view .LVU13
  89 0000 0346     		mov	r3, r0
  90              		.loc 1 298 15 view .LVU14
  91 0002 6D22     		movs	r2, #109
  92              		.loc 1 298 72 view .LVU15
  93 0004 0148     		ldr	r0, .L5
  94              	.LVL5:
  95              		.loc 1 298 15 view .LVU16
  96 0006 1A80     		strh	r2, [r3]	@ movhi
  97              		.loc 1 298 45 is_stmt 1 view .LVU17
  98              		.loc 1 298 72 is_stmt 0 view .LVU18
  99 0008 7047     		bx	lr
 100              	.L6:
 101 000a 00BF     		.align	2
 102              	.L5:
 103 000c 00000000 		.word	.LANCHOR0
 104              		.cfi_endproc
 105              	.LFE332:
 107              		.section	.text.USBD_AUDIO_GetDeviceQualifierDesc,"ax",%progbits
ARM GAS  /tmp/ccUUe33m.s 			page 8


 108              		.align	1
 109              		.p2align 2,,3
 110              		.syntax unified
 111              		.thumb
 112              		.thumb_func
 113              		.fpu fpv5-d16
 115              	USBD_AUDIO_GetDeviceQualifierDesc:
 116              	.LVL6:
 117              	.LFB333:
 299:usbd_audio.c  **** static uint8_t *USBD_AUDIO_GetDeviceQualifierDesc(uint16_t *length)
 300:usbd_audio.c  ****     { *length = sizeof(USBD_AUDIO_DeviceQualifierDesc); return USBD_AUDIO_DeviceQualifierDesc; }
 118              		.loc 1 300 5 is_stmt 1 view -0
 119              		.cfi_startproc
 120              		@ args = 0, pretend = 0, frame = 0
 121              		@ frame_needed = 0, uses_anonymous_args = 0
 122              		@ link register save eliminated.
 123              		.loc 1 300 7 view .LVU20
 124              		.loc 1 300 5 is_stmt 0 view .LVU21
 125 0000 0346     		mov	r3, r0
 126              		.loc 1 300 15 view .LVU22
 127 0002 0A22     		movs	r2, #10
 128              		.loc 1 300 96 view .LVU23
 129 0004 0148     		ldr	r0, .L8
 130              	.LVL7:
 131              		.loc 1 300 15 view .LVU24
 132 0006 1A80     		strh	r2, [r3]	@ movhi
 133              		.loc 1 300 57 is_stmt 1 view .LVU25
 134              		.loc 1 300 96 is_stmt 0 view .LVU26
 135 0008 7047     		bx	lr
 136              	.L9:
 137 000a 00BF     		.align	2
 138              	.L8:
 139 000c 00000000 		.word	.LANCHOR1
 140              		.cfi_endproc
 141              	.LFE333:
 143              		.section	.text.USBD_AUDIO_EP0_RxReady,"ax",%progbits
 144              		.align	1
 145              		.p2align 2,,3
 146              		.syntax unified
 147              		.thumb
 148              		.thumb_func
 149              		.fpu fpv5-d16
 151              	USBD_AUDIO_EP0_RxReady:
 152              	.LVL8:
 153              	.LFB334:
 301:usbd_audio.c  **** 
 302:usbd_audio.c  **** static uint8_t USBD_AUDIO_EP0_RxReady(USBD_HandleTypeDef *pdev)
 303:usbd_audio.c  **** {
 154              		.loc 1 303 1 is_stmt 1 view -0
 155              		.cfi_startproc
 156              		@ args = 0, pretend = 0, frame = 0
 157              		@ frame_needed = 0, uses_anonymous_args = 0
 304:usbd_audio.c  ****     USBD_AUDIO_HandleTypeDef *haudio = HAUDIO;
 158              		.loc 1 304 5 view .LVU28
 303:usbd_audio.c  ****     USBD_AUDIO_HandleTypeDef *haudio = HAUDIO;
 159              		.loc 1 303 1 is_stmt 0 view .LVU29
 160 0000 10B5     		push	{r4, lr}
ARM GAS  /tmp/ccUUe33m.s 			page 9


 161              		.cfi_def_cfa_offset 8
 162              		.cfi_offset 4, -8
 163              		.cfi_offset 14, -4
 164              		.loc 1 304 31 view .LVU30
 165 0002 D0F89042 		ldr	r4, [r0, #656]
 166              	.LVL9:
 305:usbd_audio.c  ****     if(haudio == NULL) return USBD_FAIL;
 167              		.loc 1 305 5 is_stmt 1 view .LVU31
 168              		.loc 1 305 7 is_stmt 0 view .LVU32
 169 0006 94B1     		cbz	r4, .L12
 306:usbd_audio.c  ****     if(haudio->control.cmd == AUDIO_REQ_SET_CUR) {
 170              		.loc 1 306 5 is_stmt 1 view .LVU33
 171              		.loc 1 306 7 is_stmt 0 view .LVU34
 172 0008 94F89231 		ldrb	r3, [r4, #402]	@ zero_extendqisi2
 173 000c 012B     		cmp	r3, #1
 174 000e 01D0     		beq	.L15
 307:usbd_audio.c  ****         ITFOPS->MuteCtl(haudio->control.data[0]);
 308:usbd_audio.c  ****         haudio->control.cmd = 0U;
 309:usbd_audio.c  ****         haudio->control.len = 0U;
 310:usbd_audio.c  ****     }
 311:usbd_audio.c  ****     return USBD_OK;
 175              		.loc 1 311 12 view .LVU35
 176 0010 0020     		movs	r0, #0
 177              	.LVL10:
 312:usbd_audio.c  **** }
 178              		.loc 1 312 1 view .LVU36
 179 0012 10BD     		pop	{r4, pc}
 180              	.LVL11:
 181              	.L15:
 307:usbd_audio.c  ****         ITFOPS->MuteCtl(haudio->control.data[0]);
 182              		.loc 1 307 9 is_stmt 1 view .LVU37
 307:usbd_audio.c  ****         ITFOPS->MuteCtl(haudio->control.data[0]);
 183              		.loc 1 307 15 is_stmt 0 view .LVU38
 184 0014 D0F89432 		ldr	r3, [r0, #660]
 307:usbd_audio.c  ****         ITFOPS->MuteCtl(haudio->control.data[0]);
 185              		.loc 1 307 9 view .LVU39
 186 0018 94F89301 		ldrb	r0, [r4, #403]	@ zero_extendqisi2
 187              	.LVL12:
 307:usbd_audio.c  ****         ITFOPS->MuteCtl(haudio->control.data[0]);
 188              		.loc 1 307 9 view .LVU40
 189 001c 1B69     		ldr	r3, [r3, #16]
 190 001e 9847     		blx	r3
 191              	.LVL13:
 308:usbd_audio.c  ****         haudio->control.len = 0U;
 192              		.loc 1 308 9 is_stmt 1 view .LVU41
 308:usbd_audio.c  ****         haudio->control.len = 0U;
 193              		.loc 1 308 29 is_stmt 0 view .LVU42
 194 0020 0023     		movs	r3, #0
 311:usbd_audio.c  **** }
 195              		.loc 1 311 12 view .LVU43
 196 0022 1846     		mov	r0, r3
 308:usbd_audio.c  ****         haudio->control.len = 0U;
 197              		.loc 1 308 29 view .LVU44
 198 0024 84F89231 		strb	r3, [r4, #402]
 309:usbd_audio.c  ****     }
 199              		.loc 1 309 9 is_stmt 1 view .LVU45
 309:usbd_audio.c  ****     }
ARM GAS  /tmp/ccUUe33m.s 			page 10


 200              		.loc 1 309 29 is_stmt 0 view .LVU46
 201 0028 84F8D331 		strb	r3, [r4, #467]
 202              		.loc 1 312 1 view .LVU47
 203 002c 10BD     		pop	{r4, pc}
 204              	.LVL14:
 205              	.L12:
 305:usbd_audio.c  ****     if(haudio->control.cmd == AUDIO_REQ_SET_CUR) {
 206              		.loc 1 305 31 view .LVU48
 207 002e 0220     		movs	r0, #2
 208              	.LVL15:
 209              		.loc 1 312 1 view .LVU49
 210 0030 10BD     		pop	{r4, pc}
 211              		.loc 1 312 1 view .LVU50
 212              		.cfi_endproc
 213              	.LFE334:
 215 0032 00BF     		.section	.text.USBD_AUDIO_IsoINIncomplete,"ax",%progbits
 216              		.align	1
 217              		.p2align 2,,3
 218              		.syntax unified
 219              		.thumb
 220              		.thumb_func
 221              		.fpu fpv5-d16
 223              	USBD_AUDIO_IsoINIncomplete:
 224              	.LVL16:
 225              	.LFB327:
 274:usbd_audio.c  ****     (void)epnum;
 226              		.loc 1 274 1 is_stmt 1 view -0
 227              		.cfi_startproc
 228              		@ args = 0, pretend = 0, frame = 0
 229              		@ frame_needed = 0, uses_anonymous_args = 0
 275:usbd_audio.c  ****     USBD_AUDIO_HandleTypeDef *haudio = HAUDIO;
 230              		.loc 1 275 5 view .LVU52
 276:usbd_audio.c  ****     if(haudio == NULL || !audio_streaming_active) return USBD_OK;
 231              		.loc 1 276 5 view .LVU53
 274:usbd_audio.c  ****     (void)epnum;
 232              		.loc 1 274 1 is_stmt 0 view .LVU54
 233 0000 38B5     		push	{r3, r4, r5, lr}
 234              		.cfi_def_cfa_offset 16
 235              		.cfi_offset 3, -16
 236              		.cfi_offset 4, -12
 237              		.cfi_offset 5, -8
 238              		.cfi_offset 14, -4
 276:usbd_audio.c  ****     if(haudio == NULL || !audio_streaming_active) return USBD_OK;
 239              		.loc 1 276 31 view .LVU55
 240 0002 D0F89052 		ldr	r5, [r0, #656]
 241              	.LVL17:
 277:usbd_audio.c  **** 
 242              		.loc 1 277 5 is_stmt 1 view .LVU56
 277:usbd_audio.c  **** 
 243              		.loc 1 277 7 is_stmt 0 view .LVU57
 244 0006 15B1     		cbz	r5, .L17
 277:usbd_audio.c  **** 
 245              		.loc 1 277 26 discriminator 2 view .LVU58
 246 0008 0A4B     		ldr	r3, .L26
 277:usbd_audio.c  **** 
 247              		.loc 1 277 23 discriminator 2 view .LVU59
 248 000a 1B78     		ldrb	r3, [r3]	@ zero_extendqisi2
ARM GAS  /tmp/ccUUe33m.s 			page 11


 249 000c 0BB9     		cbnz	r3, .L25
 250              	.L17:
 283:usbd_audio.c  **** 
 251              		.loc 1 283 1 view .LVU60
 252 000e 0020     		movs	r0, #0
 253              	.LVL18:
 283:usbd_audio.c  **** 
 254              		.loc 1 283 1 view .LVU61
 255 0010 38BD     		pop	{r3, r4, r5, pc}
 256              	.LVL19:
 257              	.L25:
 279:usbd_audio.c  ****     USBD_LL_Transmit(pdev, AUDIO_IN_EP,
 258              		.loc 1 279 5 is_stmt 1 view .LVU62
 259 0012 8121     		movs	r1, #129
 260              	.LVL20:
 279:usbd_audio.c  ****     USBD_LL_Transmit(pdev, AUDIO_IN_EP,
 261              		.loc 1 279 5 is_stmt 0 view .LVU63
 262 0014 0446     		mov	r4, r0
 263 0016 FFF7FEFF 		bl	USBD_LL_FlushEP
 264              	.LVL21:
 280:usbd_audio.c  ****                      &haudio->buffer[haudio->wr_ptr], last_tx_size);
 265              		.loc 1 280 5 is_stmt 1 view .LVU64
 266 001a B5F89021 		ldrh	r2, [r5, #400]
 267 001e 064B     		ldr	r3, .L26+4
 268 0020 8121     		movs	r1, #129
 269 0022 0432     		adds	r2, r2, #4
 270 0024 2046     		mov	r0, r4
 271 0026 1B88     		ldrh	r3, [r3]
 272 0028 2A44     		add	r2, r2, r5
 273 002a FFF7FEFF 		bl	USBD_LL_Transmit
 274              	.LVL22:
 282:usbd_audio.c  **** }
 275              		.loc 1 282 5 view .LVU65
 283:usbd_audio.c  **** 
 276              		.loc 1 283 1 is_stmt 0 view .LVU66
 277 002e 0020     		movs	r0, #0
 278 0030 38BD     		pop	{r3, r4, r5, pc}
 279              	.LVL23:
 280              	.L27:
 283:usbd_audio.c  **** 
 281              		.loc 1 283 1 view .LVU67
 282 0032 00BF     		.align	2
 283              	.L26:
 284 0034 00000000 		.word	.LANCHOR2
 285 0038 00000000 		.word	.LANCHOR3
 286              		.cfi_endproc
 287              	.LFE327:
 289              		.section	.text.USBD_AUDIO_DataIn,"ax",%progbits
 290              		.align	1
 291              		.p2align 2,,3
 292              		.syntax unified
 293              		.thumb
 294              		.thumb_func
 295              		.fpu fpv5-d16
 297              	USBD_AUDIO_DataIn:
 298              	.LVL24:
 299              	.LFB326:
ARM GAS  /tmp/ccUUe33m.s 			page 12


 246:usbd_audio.c  ****     (void)epnum;
 300              		.loc 1 246 1 is_stmt 1 view -0
 301              		.cfi_startproc
 302              		@ args = 0, pretend = 0, frame = 0
 303              		@ frame_needed = 0, uses_anonymous_args = 0
 247:usbd_audio.c  ****     USBD_AUDIO_HandleTypeDef *haudio = HAUDIO;
 304              		.loc 1 247 5 view .LVU69
 248:usbd_audio.c  ****     if(haudio == NULL || !audio_streaming_active) return USBD_OK;
 305              		.loc 1 248 5 view .LVU70
 246:usbd_audio.c  ****     (void)epnum;
 306              		.loc 1 246 1 is_stmt 0 view .LVU71
 307 0000 70B5     		push	{r4, r5, r6, lr}
 308              		.cfi_def_cfa_offset 16
 309              		.cfi_offset 4, -16
 310              		.cfi_offset 5, -12
 311              		.cfi_offset 6, -8
 312              		.cfi_offset 14, -4
 248:usbd_audio.c  ****     if(haudio == NULL || !audio_streaming_active) return USBD_OK;
 313              		.loc 1 248 31 view .LVU72
 314 0002 D0F89042 		ldr	r4, [r0, #656]
 315              	.LVL25:
 249:usbd_audio.c  **** 
 316              		.loc 1 249 5 is_stmt 1 view .LVU73
 249:usbd_audio.c  **** 
 317              		.loc 1 249 7 is_stmt 0 view .LVU74
 318 0006 002C     		cmp	r4, #0
 319 0008 39D0     		beq	.L29
 249:usbd_audio.c  **** 
 320              		.loc 1 249 26 discriminator 2 view .LVU75
 321 000a 1E4B     		ldr	r3, .L43
 249:usbd_audio.c  **** 
 322              		.loc 1 249 23 discriminator 2 view .LVU76
 323 000c 1B78     		ldrb	r3, [r3]	@ zero_extendqisi2
 324 000e 002B     		cmp	r3, #0
 325 0010 35D0     		beq	.L29
 251:usbd_audio.c  **** 
 326              		.loc 1 251 5 is_stmt 1 view .LVU77
 251:usbd_audio.c  **** 
 327              		.loc 1 251 20 is_stmt 0 view .LVU78
 328 0012 B4F89011 		ldrh	r1, [r4, #400]
 329              	.LVL26:
 251:usbd_audio.c  **** 
 330              		.loc 1 251 20 view .LVU79
 331 0016 0546     		mov	r5, r0
 253:usbd_audio.c  ****         &haudio->buffer[haudio->wr_ptr], AUDIO_PACKET_MAX, AUDIO_IN_TC);
 332              		.loc 1 253 26 view .LVU80
 333 0018 D0F89432 		ldr	r3, [r0, #660]
 253:usbd_audio.c  ****         &haudio->buffer[haudio->wr_ptr], AUDIO_PACKET_MAX, AUDIO_IN_TC);
 334              		.loc 1 253 20 view .LVU81
 335 001c 0222     		movs	r2, #2
 251:usbd_audio.c  **** 
 336              		.loc 1 251 20 view .LVU82
 337 001e 0029     		cmp	r1, #0
 253:usbd_audio.c  ****         &haudio->buffer[haudio->wr_ptr], AUDIO_PACKET_MAX, AUDIO_IN_TC);
 338              		.loc 1 253 18 view .LVU83
 339 0020 194E     		ldr	r6, .L43+4
 253:usbd_audio.c  ****         &haudio->buffer[haudio->wr_ptr], AUDIO_PACKET_MAX, AUDIO_IN_TC);
ARM GAS  /tmp/ccUUe33m.s 			page 13


 340              		.loc 1 253 20 view .LVU84
 341 0022 5B69     		ldr	r3, [r3, #20]
 251:usbd_audio.c  **** 
 342              		.loc 1 251 20 view .LVU85
 343 0024 0BBF     		itete	eq
 344 0026 C421     		moveq	r1, #196
 345 0028 0021     		movne	r1, #0
 346 002a C820     		moveq	r0, #200
 347              	.LVL27:
 251:usbd_audio.c  **** 
 348              		.loc 1 251 20 view .LVU86
 349 002c 0420     		movne	r0, #4
 350 002e A4F89011 		strh	r1, [r4, #400]	@ movhi
 253:usbd_audio.c  ****         &haudio->buffer[haudio->wr_ptr], AUDIO_PACKET_MAX, AUDIO_IN_TC);
 351              		.loc 1 253 5 is_stmt 1 view .LVU87
 253:usbd_audio.c  ****         &haudio->buffer[haudio->wr_ptr], AUDIO_PACKET_MAX, AUDIO_IN_TC);
 352              		.loc 1 253 20 is_stmt 0 view .LVU88
 353 0032 C421     		movs	r1, #196
 354 0034 2044     		add	r0, r0, r4
 355 0036 9847     		blx	r3
 356              	.LVL28:
 260:usbd_audio.c  **** 
 357              		.loc 1 260 21 view .LVU89
 358 0038 B4F89021 		ldrh	r2, [r4, #400]
 253:usbd_audio.c  ****         &haudio->buffer[haudio->wr_ptr], AUDIO_PACKET_MAX, AUDIO_IN_TC);
 359              		.loc 1 253 18 view .LVU90
 360 003c 3080     		strh	r0, [r6]	@ movhi
 259:usbd_audio.c  ****         (uint32_t *)&haudio->buffer[haudio->wr_ptr], last_tx_size);
 361              		.loc 1 259 5 is_stmt 1 view .LVU91
 362              	.LVL29:
 363              	.LBB16:
 364              	.LBI16:
 365              		.file 2 "../../libDaisy/Drivers/CMSIS/Include/core_cm7.h"
   1:../../libDaisy/Drivers/CMSIS/Include/core_cm7.h **** /**************************************************************************//**
   2:../../libDaisy/Drivers/CMSIS/Include/core_cm7.h ****  * @file     core_cm7.h
   3:../../libDaisy/Drivers/CMSIS/Include/core_cm7.h ****  * @brief    CMSIS Cortex-M7 Core Peripheral Access Layer Header File
   4:../../libDaisy/Drivers/CMSIS/Include/core_cm7.h ****  * @version  V5.0.1
   5:../../libDaisy/Drivers/CMSIS/Include/core_cm7.h ****  * @date     25. November 2016
   6:../../libDaisy/Drivers/CMSIS/Include/core_cm7.h ****  ******************************************************************************/
   7:../../libDaisy/Drivers/CMSIS/Include/core_cm7.h **** /*
   8:../../libDaisy/Drivers/CMSIS/Include/core_cm7.h ****  * Copyright (c) 2009-2016 ARM Limited. All rights reserved.
   9:../../libDaisy/Drivers/CMSIS/Include/core_cm7.h ****  *
  10:../../libDaisy/Drivers/CMSIS/Include/core_cm7.h ****  * SPDX-License-Identifier: Apache-2.0
  11:../../libDaisy/Drivers/CMSIS/Include/core_cm7.h ****  *
  12:../../libDaisy/Drivers/CMSIS/Include/core_cm7.h ****  * Licensed under the Apache License, Version 2.0 (the License); you may
  13:../../libDaisy/Drivers/CMSIS/Include/core_cm7.h ****  * not use this file except in compliance with the License.
  14:../../libDaisy/Drivers/CMSIS/Include/core_cm7.h ****  * You may obtain a copy of the License at
  15:../../libDaisy/Drivers/CMSIS/Include/core_cm7.h ****  *
  16:../../libDaisy/Drivers/CMSIS/Include/core_cm7.h ****  * www.apache.org/licenses/LICENSE-2.0
  17:../../libDaisy/Drivers/CMSIS/Include/core_cm7.h ****  *
  18:../../libDaisy/Drivers/CMSIS/Include/core_cm7.h ****  * Unless required by applicable law or agreed to in writing, software
  19:../../libDaisy/Drivers/CMSIS/Include/core_cm7.h ****  * distributed under the License is distributed on an AS IS BASIS, WITHOUT
  20:../../libDaisy/Drivers/CMSIS/Include/core_cm7.h ****  * WARRANTIES OR CONDITIONS OF ANY KIND, either express or implied.
  21:../../libDaisy/Drivers/CMSIS/Include/core_cm7.h ****  * See the License for the specific language governing permissions and
  22:../../libDaisy/Drivers/CMSIS/Include/core_cm7.h ****  * limitations under the License.
  23:../../libDaisy/Drivers/CMSIS/Include/core_cm7.h ****  */
  24:../../libDaisy/Drivers/CMSIS/Include/core_cm7.h **** 
ARM GAS  /tmp/ccUUe33m.s 			page 14


  25:../../libDaisy/Drivers/CMSIS/Include/core_cm7.h **** #if   defined ( __ICCARM__ )
  26:../../libDaisy/Drivers/CMSIS/Include/core_cm7.h ****  #pragma system_include         /* treat file as system include file for MISRA check */
  27:../../libDaisy/Drivers/CMSIS/Include/core_cm7.h **** #elif defined (__ARMCC_VERSION) && (__ARMCC_VERSION >= 6010050)
  28:../../libDaisy/Drivers/CMSIS/Include/core_cm7.h ****   #pragma clang system_header   /* treat file as system include file */
  29:../../libDaisy/Drivers/CMSIS/Include/core_cm7.h **** #endif
  30:../../libDaisy/Drivers/CMSIS/Include/core_cm7.h **** 
  31:../../libDaisy/Drivers/CMSIS/Include/core_cm7.h **** #ifndef __CORE_CM7_H_GENERIC
  32:../../libDaisy/Drivers/CMSIS/Include/core_cm7.h **** #define __CORE_CM7_H_GENERIC
  33:../../libDaisy/Drivers/CMSIS/Include/core_cm7.h **** 
  34:../../libDaisy/Drivers/CMSIS/Include/core_cm7.h **** #include <stdint.h>
  35:../../libDaisy/Drivers/CMSIS/Include/core_cm7.h **** 
  36:../../libDaisy/Drivers/CMSIS/Include/core_cm7.h **** #ifdef __cplusplus
  37:../../libDaisy/Drivers/CMSIS/Include/core_cm7.h ****  extern "C" {
  38:../../libDaisy/Drivers/CMSIS/Include/core_cm7.h **** #endif
  39:../../libDaisy/Drivers/CMSIS/Include/core_cm7.h **** 
  40:../../libDaisy/Drivers/CMSIS/Include/core_cm7.h **** /**
  41:../../libDaisy/Drivers/CMSIS/Include/core_cm7.h ****   \page CMSIS_MISRA_Exceptions  MISRA-C:2004 Compliance Exceptions
  42:../../libDaisy/Drivers/CMSIS/Include/core_cm7.h ****   CMSIS violates the following MISRA-C:2004 rules:
  43:../../libDaisy/Drivers/CMSIS/Include/core_cm7.h **** 
  44:../../libDaisy/Drivers/CMSIS/Include/core_cm7.h ****    \li Required Rule 8.5, object/function definition in header file.<br>
  45:../../libDaisy/Drivers/CMSIS/Include/core_cm7.h ****      Function definitions in header files are used to allow 'inlining'.
  46:../../libDaisy/Drivers/CMSIS/Include/core_cm7.h **** 
  47:../../libDaisy/Drivers/CMSIS/Include/core_cm7.h ****    \li Required Rule 18.4, declaration of union type or object of union type: '{...}'.<br>
  48:../../libDaisy/Drivers/CMSIS/Include/core_cm7.h ****      Unions are used for effective representation of core registers.
  49:../../libDaisy/Drivers/CMSIS/Include/core_cm7.h **** 
  50:../../libDaisy/Drivers/CMSIS/Include/core_cm7.h ****    \li Advisory Rule 19.7, Function-like macro defined.<br>
  51:../../libDaisy/Drivers/CMSIS/Include/core_cm7.h ****      Function-like macros are used to allow more efficient code.
  52:../../libDaisy/Drivers/CMSIS/Include/core_cm7.h ****  */
  53:../../libDaisy/Drivers/CMSIS/Include/core_cm7.h **** 
  54:../../libDaisy/Drivers/CMSIS/Include/core_cm7.h **** 
  55:../../libDaisy/Drivers/CMSIS/Include/core_cm7.h **** /*******************************************************************************
  56:../../libDaisy/Drivers/CMSIS/Include/core_cm7.h ****  *                 CMSIS definitions
  57:../../libDaisy/Drivers/CMSIS/Include/core_cm7.h ****  ******************************************************************************/
  58:../../libDaisy/Drivers/CMSIS/Include/core_cm7.h **** /**
  59:../../libDaisy/Drivers/CMSIS/Include/core_cm7.h ****   \ingroup Cortex_M7
  60:../../libDaisy/Drivers/CMSIS/Include/core_cm7.h ****   @{
  61:../../libDaisy/Drivers/CMSIS/Include/core_cm7.h ****  */
  62:../../libDaisy/Drivers/CMSIS/Include/core_cm7.h **** 
  63:../../libDaisy/Drivers/CMSIS/Include/core_cm7.h **** /*  CMSIS CM7 definitions */
  64:../../libDaisy/Drivers/CMSIS/Include/core_cm7.h **** #define __CM7_CMSIS_VERSION_MAIN  ( 5U)                                      /*!< [31:16] CMSIS HAL
  65:../../libDaisy/Drivers/CMSIS/Include/core_cm7.h **** #define __CM7_CMSIS_VERSION_SUB   ( 0U)                                      /*!< [15:0]  CMSIS HAL
  66:../../libDaisy/Drivers/CMSIS/Include/core_cm7.h **** #define __CM7_CMSIS_VERSION       ((__CM7_CMSIS_VERSION_MAIN << 16U) | \
  67:../../libDaisy/Drivers/CMSIS/Include/core_cm7.h ****                                     __CM7_CMSIS_VERSION_SUB           )      /*!< CMSIS HAL version
  68:../../libDaisy/Drivers/CMSIS/Include/core_cm7.h **** 
  69:../../libDaisy/Drivers/CMSIS/Include/core_cm7.h **** #define __CORTEX_M                (7U)                                       /*!< Cortex-M Core */
  70:../../libDaisy/Drivers/CMSIS/Include/core_cm7.h **** 
  71:../../libDaisy/Drivers/CMSIS/Include/core_cm7.h **** /** __FPU_USED indicates whether an FPU is used or not.
  72:../../libDaisy/Drivers/CMSIS/Include/core_cm7.h ****     For this, __FPU_PRESENT has to be checked prior to making use of FPU specific registers and fun
  73:../../libDaisy/Drivers/CMSIS/Include/core_cm7.h **** */
  74:../../libDaisy/Drivers/CMSIS/Include/core_cm7.h **** #if defined ( __CC_ARM )
  75:../../libDaisy/Drivers/CMSIS/Include/core_cm7.h ****   #if defined __TARGET_FPU_VFP
  76:../../libDaisy/Drivers/CMSIS/Include/core_cm7.h ****     #if defined (__FPU_PRESENT) && (__FPU_PRESENT == 1U)
  77:../../libDaisy/Drivers/CMSIS/Include/core_cm7.h ****       #define __FPU_USED       1U
  78:../../libDaisy/Drivers/CMSIS/Include/core_cm7.h ****     #else
  79:../../libDaisy/Drivers/CMSIS/Include/core_cm7.h ****       #error "Compiler generates FPU instructions for a device without an FPU (check __FPU_PRESENT)
  80:../../libDaisy/Drivers/CMSIS/Include/core_cm7.h ****       #define __FPU_USED       0U
  81:../../libDaisy/Drivers/CMSIS/Include/core_cm7.h ****     #endif
ARM GAS  /tmp/ccUUe33m.s 			page 15


  82:../../libDaisy/Drivers/CMSIS/Include/core_cm7.h ****   #else
  83:../../libDaisy/Drivers/CMSIS/Include/core_cm7.h ****     #define __FPU_USED         0U
  84:../../libDaisy/Drivers/CMSIS/Include/core_cm7.h ****   #endif
  85:../../libDaisy/Drivers/CMSIS/Include/core_cm7.h **** 
  86:../../libDaisy/Drivers/CMSIS/Include/core_cm7.h **** #elif defined (__ARMCC_VERSION) && (__ARMCC_VERSION >= 6010050)
  87:../../libDaisy/Drivers/CMSIS/Include/core_cm7.h ****   #if defined __ARM_PCS_VFP
  88:../../libDaisy/Drivers/CMSIS/Include/core_cm7.h ****     #if defined (__FPU_PRESENT) && (__FPU_PRESENT == 1U)
  89:../../libDaisy/Drivers/CMSIS/Include/core_cm7.h ****       #define __FPU_USED       1U
  90:../../libDaisy/Drivers/CMSIS/Include/core_cm7.h ****     #else
  91:../../libDaisy/Drivers/CMSIS/Include/core_cm7.h ****       #warning "Compiler generates FPU instructions for a device without an FPU (check __FPU_PRESEN
  92:../../libDaisy/Drivers/CMSIS/Include/core_cm7.h ****       #define __FPU_USED       0U
  93:../../libDaisy/Drivers/CMSIS/Include/core_cm7.h ****     #endif
  94:../../libDaisy/Drivers/CMSIS/Include/core_cm7.h ****   #else
  95:../../libDaisy/Drivers/CMSIS/Include/core_cm7.h ****     #define __FPU_USED         0U
  96:../../libDaisy/Drivers/CMSIS/Include/core_cm7.h ****   #endif
  97:../../libDaisy/Drivers/CMSIS/Include/core_cm7.h **** 
  98:../../libDaisy/Drivers/CMSIS/Include/core_cm7.h **** #elif defined ( __GNUC__ )
  99:../../libDaisy/Drivers/CMSIS/Include/core_cm7.h ****   #if defined (__VFP_FP__) && !defined(__SOFTFP__)
 100:../../libDaisy/Drivers/CMSIS/Include/core_cm7.h ****     #if defined (__FPU_PRESENT) && (__FPU_PRESENT == 1U)
 101:../../libDaisy/Drivers/CMSIS/Include/core_cm7.h ****       #define __FPU_USED       1U
 102:../../libDaisy/Drivers/CMSIS/Include/core_cm7.h ****     #else
 103:../../libDaisy/Drivers/CMSIS/Include/core_cm7.h ****       #error "Compiler generates FPU instructions for a device without an FPU (check __FPU_PRESENT)
 104:../../libDaisy/Drivers/CMSIS/Include/core_cm7.h ****       #define __FPU_USED       0U
 105:../../libDaisy/Drivers/CMSIS/Include/core_cm7.h ****     #endif
 106:../../libDaisy/Drivers/CMSIS/Include/core_cm7.h ****   #else
 107:../../libDaisy/Drivers/CMSIS/Include/core_cm7.h ****     #define __FPU_USED         0U
 108:../../libDaisy/Drivers/CMSIS/Include/core_cm7.h ****   #endif
 109:../../libDaisy/Drivers/CMSIS/Include/core_cm7.h **** 
 110:../../libDaisy/Drivers/CMSIS/Include/core_cm7.h **** #elif defined ( __ICCARM__ )
 111:../../libDaisy/Drivers/CMSIS/Include/core_cm7.h ****   #if defined __ARMVFP__
 112:../../libDaisy/Drivers/CMSIS/Include/core_cm7.h ****     #if defined (__FPU_PRESENT) && (__FPU_PRESENT == 1U)
 113:../../libDaisy/Drivers/CMSIS/Include/core_cm7.h ****       #define __FPU_USED       1U
 114:../../libDaisy/Drivers/CMSIS/Include/core_cm7.h ****     #else
 115:../../libDaisy/Drivers/CMSIS/Include/core_cm7.h ****       #error "Compiler generates FPU instructions for a device without an FPU (check __FPU_PRESENT)
 116:../../libDaisy/Drivers/CMSIS/Include/core_cm7.h ****       #define __FPU_USED       0U
 117:../../libDaisy/Drivers/CMSIS/Include/core_cm7.h ****     #endif
 118:../../libDaisy/Drivers/CMSIS/Include/core_cm7.h ****   #else
 119:../../libDaisy/Drivers/CMSIS/Include/core_cm7.h ****     #define __FPU_USED         0U
 120:../../libDaisy/Drivers/CMSIS/Include/core_cm7.h ****   #endif
 121:../../libDaisy/Drivers/CMSIS/Include/core_cm7.h **** 
 122:../../libDaisy/Drivers/CMSIS/Include/core_cm7.h **** #elif defined ( __TI_ARM__ )
 123:../../libDaisy/Drivers/CMSIS/Include/core_cm7.h ****   #if defined __TI_VFP_SUPPORT__
 124:../../libDaisy/Drivers/CMSIS/Include/core_cm7.h ****     #if defined (__FPU_PRESENT) && (__FPU_PRESENT == 1U)
 125:../../libDaisy/Drivers/CMSIS/Include/core_cm7.h ****       #define __FPU_USED       1U
 126:../../libDaisy/Drivers/CMSIS/Include/core_cm7.h ****     #else
 127:../../libDaisy/Drivers/CMSIS/Include/core_cm7.h ****       #error "Compiler generates FPU instructions for a device without an FPU (check __FPU_PRESENT)
 128:../../libDaisy/Drivers/CMSIS/Include/core_cm7.h ****       #define __FPU_USED       0U
 129:../../libDaisy/Drivers/CMSIS/Include/core_cm7.h ****     #endif
 130:../../libDaisy/Drivers/CMSIS/Include/core_cm7.h ****   #else
 131:../../libDaisy/Drivers/CMSIS/Include/core_cm7.h ****     #define __FPU_USED         0U
 132:../../libDaisy/Drivers/CMSIS/Include/core_cm7.h ****   #endif
 133:../../libDaisy/Drivers/CMSIS/Include/core_cm7.h **** 
 134:../../libDaisy/Drivers/CMSIS/Include/core_cm7.h **** #elif defined ( __TASKING__ )
 135:../../libDaisy/Drivers/CMSIS/Include/core_cm7.h ****   #if defined __FPU_VFP__
 136:../../libDaisy/Drivers/CMSIS/Include/core_cm7.h ****     #if defined (__FPU_PRESENT) && (__FPU_PRESENT == 1U)
 137:../../libDaisy/Drivers/CMSIS/Include/core_cm7.h ****       #define __FPU_USED       1U
 138:../../libDaisy/Drivers/CMSIS/Include/core_cm7.h ****     #else
ARM GAS  /tmp/ccUUe33m.s 			page 16


 139:../../libDaisy/Drivers/CMSIS/Include/core_cm7.h ****       #error "Compiler generates FPU instructions for a device without an FPU (check __FPU_PRESENT)
 140:../../libDaisy/Drivers/CMSIS/Include/core_cm7.h ****       #define __FPU_USED       0U
 141:../../libDaisy/Drivers/CMSIS/Include/core_cm7.h ****     #endif
 142:../../libDaisy/Drivers/CMSIS/Include/core_cm7.h ****   #else
 143:../../libDaisy/Drivers/CMSIS/Include/core_cm7.h ****     #define __FPU_USED         0U
 144:../../libDaisy/Drivers/CMSIS/Include/core_cm7.h ****   #endif
 145:../../libDaisy/Drivers/CMSIS/Include/core_cm7.h **** 
 146:../../libDaisy/Drivers/CMSIS/Include/core_cm7.h **** #elif defined ( __CSMC__ )
 147:../../libDaisy/Drivers/CMSIS/Include/core_cm7.h ****   #if ( __CSMC__ & 0x400U)
 148:../../libDaisy/Drivers/CMSIS/Include/core_cm7.h ****     #if defined (__FPU_PRESENT) && (__FPU_PRESENT == 1U)
 149:../../libDaisy/Drivers/CMSIS/Include/core_cm7.h ****       #define __FPU_USED       1U
 150:../../libDaisy/Drivers/CMSIS/Include/core_cm7.h ****     #else
 151:../../libDaisy/Drivers/CMSIS/Include/core_cm7.h ****       #error "Compiler generates FPU instructions for a device without an FPU (check __FPU_PRESENT)
 152:../../libDaisy/Drivers/CMSIS/Include/core_cm7.h ****       #define __FPU_USED       0U
 153:../../libDaisy/Drivers/CMSIS/Include/core_cm7.h ****     #endif
 154:../../libDaisy/Drivers/CMSIS/Include/core_cm7.h ****   #else
 155:../../libDaisy/Drivers/CMSIS/Include/core_cm7.h ****     #define __FPU_USED         0U
 156:../../libDaisy/Drivers/CMSIS/Include/core_cm7.h ****   #endif
 157:../../libDaisy/Drivers/CMSIS/Include/core_cm7.h **** 
 158:../../libDaisy/Drivers/CMSIS/Include/core_cm7.h **** #endif
 159:../../libDaisy/Drivers/CMSIS/Include/core_cm7.h **** 
 160:../../libDaisy/Drivers/CMSIS/Include/core_cm7.h **** #include "cmsis_compiler.h"               /* CMSIS compiler specific defines */
 161:../../libDaisy/Drivers/CMSIS/Include/core_cm7.h **** 
 162:../../libDaisy/Drivers/CMSIS/Include/core_cm7.h **** 
 163:../../libDaisy/Drivers/CMSIS/Include/core_cm7.h **** #ifdef __cplusplus
 164:../../libDaisy/Drivers/CMSIS/Include/core_cm7.h **** }
 165:../../libDaisy/Drivers/CMSIS/Include/core_cm7.h **** #endif
 166:../../libDaisy/Drivers/CMSIS/Include/core_cm7.h **** 
 167:../../libDaisy/Drivers/CMSIS/Include/core_cm7.h **** #endif /* __CORE_CM7_H_GENERIC */
 168:../../libDaisy/Drivers/CMSIS/Include/core_cm7.h **** 
 169:../../libDaisy/Drivers/CMSIS/Include/core_cm7.h **** #ifndef __CMSIS_GENERIC
 170:../../libDaisy/Drivers/CMSIS/Include/core_cm7.h **** 
 171:../../libDaisy/Drivers/CMSIS/Include/core_cm7.h **** #ifndef __CORE_CM7_H_DEPENDANT
 172:../../libDaisy/Drivers/CMSIS/Include/core_cm7.h **** #define __CORE_CM7_H_DEPENDANT
 173:../../libDaisy/Drivers/CMSIS/Include/core_cm7.h **** 
 174:../../libDaisy/Drivers/CMSIS/Include/core_cm7.h **** #ifdef __cplusplus
 175:../../libDaisy/Drivers/CMSIS/Include/core_cm7.h ****  extern "C" {
 176:../../libDaisy/Drivers/CMSIS/Include/core_cm7.h **** #endif
 177:../../libDaisy/Drivers/CMSIS/Include/core_cm7.h **** 
 178:../../libDaisy/Drivers/CMSIS/Include/core_cm7.h **** /* check device defines and use defaults */
 179:../../libDaisy/Drivers/CMSIS/Include/core_cm7.h **** #if defined __CHECK_DEVICE_DEFINES
 180:../../libDaisy/Drivers/CMSIS/Include/core_cm7.h ****   #ifndef __CM7_REV
 181:../../libDaisy/Drivers/CMSIS/Include/core_cm7.h ****     #define __CM7_REV               0x0000U
 182:../../libDaisy/Drivers/CMSIS/Include/core_cm7.h ****     #warning "__CM7_REV not defined in device header file; using default!"
 183:../../libDaisy/Drivers/CMSIS/Include/core_cm7.h ****   #endif
 184:../../libDaisy/Drivers/CMSIS/Include/core_cm7.h **** 
 185:../../libDaisy/Drivers/CMSIS/Include/core_cm7.h ****   #ifndef __FPU_PRESENT
 186:../../libDaisy/Drivers/CMSIS/Include/core_cm7.h ****     #define __FPU_PRESENT             0U
 187:../../libDaisy/Drivers/CMSIS/Include/core_cm7.h ****     #warning "__FPU_PRESENT not defined in device header file; using default!"
 188:../../libDaisy/Drivers/CMSIS/Include/core_cm7.h ****   #endif
 189:../../libDaisy/Drivers/CMSIS/Include/core_cm7.h **** 
 190:../../libDaisy/Drivers/CMSIS/Include/core_cm7.h ****   #ifndef __MPU_PRESENT
 191:../../libDaisy/Drivers/CMSIS/Include/core_cm7.h ****     #define __MPU_PRESENT             0U
 192:../../libDaisy/Drivers/CMSIS/Include/core_cm7.h ****     #warning "__MPU_PRESENT not defined in device header file; using default!"
 193:../../libDaisy/Drivers/CMSIS/Include/core_cm7.h ****   #endif
 194:../../libDaisy/Drivers/CMSIS/Include/core_cm7.h **** 
 195:../../libDaisy/Drivers/CMSIS/Include/core_cm7.h ****   #ifndef __ICACHE_PRESENT
ARM GAS  /tmp/ccUUe33m.s 			page 17


 196:../../libDaisy/Drivers/CMSIS/Include/core_cm7.h ****     #define __ICACHE_PRESENT          0U
 197:../../libDaisy/Drivers/CMSIS/Include/core_cm7.h ****     #warning "__ICACHE_PRESENT not defined in device header file; using default!"
 198:../../libDaisy/Drivers/CMSIS/Include/core_cm7.h ****   #endif
 199:../../libDaisy/Drivers/CMSIS/Include/core_cm7.h **** 
 200:../../libDaisy/Drivers/CMSIS/Include/core_cm7.h ****   #ifndef __DCACHE_PRESENT
 201:../../libDaisy/Drivers/CMSIS/Include/core_cm7.h ****     #define __DCACHE_PRESENT          0U
 202:../../libDaisy/Drivers/CMSIS/Include/core_cm7.h ****     #warning "__DCACHE_PRESENT not defined in device header file; using default!"
 203:../../libDaisy/Drivers/CMSIS/Include/core_cm7.h ****   #endif
 204:../../libDaisy/Drivers/CMSIS/Include/core_cm7.h **** 
 205:../../libDaisy/Drivers/CMSIS/Include/core_cm7.h ****   #ifndef __DTCM_PRESENT
 206:../../libDaisy/Drivers/CMSIS/Include/core_cm7.h ****     #define __DTCM_PRESENT            0U
 207:../../libDaisy/Drivers/CMSIS/Include/core_cm7.h ****     #warning "__DTCM_PRESENT        not defined in device header file; using default!"
 208:../../libDaisy/Drivers/CMSIS/Include/core_cm7.h ****   #endif
 209:../../libDaisy/Drivers/CMSIS/Include/core_cm7.h **** 
 210:../../libDaisy/Drivers/CMSIS/Include/core_cm7.h ****   #ifndef __NVIC_PRIO_BITS
 211:../../libDaisy/Drivers/CMSIS/Include/core_cm7.h ****     #define __NVIC_PRIO_BITS          3U
 212:../../libDaisy/Drivers/CMSIS/Include/core_cm7.h ****     #warning "__NVIC_PRIO_BITS not defined in device header file; using default!"
 213:../../libDaisy/Drivers/CMSIS/Include/core_cm7.h ****   #endif
 214:../../libDaisy/Drivers/CMSIS/Include/core_cm7.h **** 
 215:../../libDaisy/Drivers/CMSIS/Include/core_cm7.h ****   #ifndef __Vendor_SysTickConfig
 216:../../libDaisy/Drivers/CMSIS/Include/core_cm7.h ****     #define __Vendor_SysTickConfig    0U
 217:../../libDaisy/Drivers/CMSIS/Include/core_cm7.h ****     #warning "__Vendor_SysTickConfig not defined in device header file; using default!"
 218:../../libDaisy/Drivers/CMSIS/Include/core_cm7.h ****   #endif
 219:../../libDaisy/Drivers/CMSIS/Include/core_cm7.h **** #endif
 220:../../libDaisy/Drivers/CMSIS/Include/core_cm7.h **** 
 221:../../libDaisy/Drivers/CMSIS/Include/core_cm7.h **** /* IO definitions (access restrictions to peripheral registers) */
 222:../../libDaisy/Drivers/CMSIS/Include/core_cm7.h **** /**
 223:../../libDaisy/Drivers/CMSIS/Include/core_cm7.h ****     \defgroup CMSIS_glob_defs CMSIS Global Defines
 224:../../libDaisy/Drivers/CMSIS/Include/core_cm7.h **** 
 225:../../libDaisy/Drivers/CMSIS/Include/core_cm7.h ****     <strong>IO Type Qualifiers</strong> are used
 226:../../libDaisy/Drivers/CMSIS/Include/core_cm7.h ****     \li to specify the access to peripheral variables.
 227:../../libDaisy/Drivers/CMSIS/Include/core_cm7.h ****     \li for automatic generation of peripheral register debug information.
 228:../../libDaisy/Drivers/CMSIS/Include/core_cm7.h **** */
 229:../../libDaisy/Drivers/CMSIS/Include/core_cm7.h **** #ifdef __cplusplus
 230:../../libDaisy/Drivers/CMSIS/Include/core_cm7.h ****   #define   __I     volatile             /*!< Defines 'read only' permissions */
 231:../../libDaisy/Drivers/CMSIS/Include/core_cm7.h **** #else
 232:../../libDaisy/Drivers/CMSIS/Include/core_cm7.h ****   #define   __I     volatile const       /*!< Defines 'read only' permissions */
 233:../../libDaisy/Drivers/CMSIS/Include/core_cm7.h **** #endif
 234:../../libDaisy/Drivers/CMSIS/Include/core_cm7.h **** #define     __O     volatile             /*!< Defines 'write only' permissions */
 235:../../libDaisy/Drivers/CMSIS/Include/core_cm7.h **** #define     __IO    volatile             /*!< Defines 'read / write' permissions */
 236:../../libDaisy/Drivers/CMSIS/Include/core_cm7.h **** 
 237:../../libDaisy/Drivers/CMSIS/Include/core_cm7.h **** /* following defines should be used for structure members */
 238:../../libDaisy/Drivers/CMSIS/Include/core_cm7.h **** #define     __IM     volatile const      /*! Defines 'read only' structure member permissions */
 239:../../libDaisy/Drivers/CMSIS/Include/core_cm7.h **** #define     __OM     volatile            /*! Defines 'write only' structure member permissions */
 240:../../libDaisy/Drivers/CMSIS/Include/core_cm7.h **** #define     __IOM    volatile            /*! Defines 'read / write' structure member permissions */
 241:../../libDaisy/Drivers/CMSIS/Include/core_cm7.h **** 
 242:../../libDaisy/Drivers/CMSIS/Include/core_cm7.h **** /*@} end of group Cortex_M7 */
 243:../../libDaisy/Drivers/CMSIS/Include/core_cm7.h **** 
 244:../../libDaisy/Drivers/CMSIS/Include/core_cm7.h **** 
 245:../../libDaisy/Drivers/CMSIS/Include/core_cm7.h **** 
 246:../../libDaisy/Drivers/CMSIS/Include/core_cm7.h **** /*******************************************************************************
 247:../../libDaisy/Drivers/CMSIS/Include/core_cm7.h ****  *                 Register Abstraction
 248:../../libDaisy/Drivers/CMSIS/Include/core_cm7.h ****   Core Register contain:
 249:../../libDaisy/Drivers/CMSIS/Include/core_cm7.h ****   - Core Register
 250:../../libDaisy/Drivers/CMSIS/Include/core_cm7.h ****   - Core NVIC Register
 251:../../libDaisy/Drivers/CMSIS/Include/core_cm7.h ****   - Core SCB Register
 252:../../libDaisy/Drivers/CMSIS/Include/core_cm7.h ****   - Core SysTick Register
ARM GAS  /tmp/ccUUe33m.s 			page 18


 253:../../libDaisy/Drivers/CMSIS/Include/core_cm7.h ****   - Core Debug Register
 254:../../libDaisy/Drivers/CMSIS/Include/core_cm7.h ****   - Core MPU Register
 255:../../libDaisy/Drivers/CMSIS/Include/core_cm7.h ****   - Core FPU Register
 256:../../libDaisy/Drivers/CMSIS/Include/core_cm7.h ****  ******************************************************************************/
 257:../../libDaisy/Drivers/CMSIS/Include/core_cm7.h **** /**
 258:../../libDaisy/Drivers/CMSIS/Include/core_cm7.h ****   \defgroup CMSIS_core_register Defines and Type Definitions
 259:../../libDaisy/Drivers/CMSIS/Include/core_cm7.h ****   \brief Type definitions and defines for Cortex-M processor based devices.
 260:../../libDaisy/Drivers/CMSIS/Include/core_cm7.h **** */
 261:../../libDaisy/Drivers/CMSIS/Include/core_cm7.h **** 
 262:../../libDaisy/Drivers/CMSIS/Include/core_cm7.h **** /**
 263:../../libDaisy/Drivers/CMSIS/Include/core_cm7.h ****   \ingroup    CMSIS_core_register
 264:../../libDaisy/Drivers/CMSIS/Include/core_cm7.h ****   \defgroup   CMSIS_CORE  Status and Control Registers
 265:../../libDaisy/Drivers/CMSIS/Include/core_cm7.h ****   \brief      Core Register type definitions.
 266:../../libDaisy/Drivers/CMSIS/Include/core_cm7.h ****   @{
 267:../../libDaisy/Drivers/CMSIS/Include/core_cm7.h ****  */
 268:../../libDaisy/Drivers/CMSIS/Include/core_cm7.h **** 
 269:../../libDaisy/Drivers/CMSIS/Include/core_cm7.h **** /**
 270:../../libDaisy/Drivers/CMSIS/Include/core_cm7.h ****   \brief  Union type to access the Application Program Status Register (APSR).
 271:../../libDaisy/Drivers/CMSIS/Include/core_cm7.h ****  */
 272:../../libDaisy/Drivers/CMSIS/Include/core_cm7.h **** typedef union
 273:../../libDaisy/Drivers/CMSIS/Include/core_cm7.h **** {
 274:../../libDaisy/Drivers/CMSIS/Include/core_cm7.h ****   struct
 275:../../libDaisy/Drivers/CMSIS/Include/core_cm7.h ****   {
 276:../../libDaisy/Drivers/CMSIS/Include/core_cm7.h ****     uint32_t _reserved0:16;              /*!< bit:  0..15  Reserved */
 277:../../libDaisy/Drivers/CMSIS/Include/core_cm7.h ****     uint32_t GE:4;                       /*!< bit: 16..19  Greater than or Equal flags */
 278:../../libDaisy/Drivers/CMSIS/Include/core_cm7.h ****     uint32_t _reserved1:7;               /*!< bit: 20..26  Reserved */
 279:../../libDaisy/Drivers/CMSIS/Include/core_cm7.h ****     uint32_t Q:1;                        /*!< bit:     27  Saturation condition flag */
 280:../../libDaisy/Drivers/CMSIS/Include/core_cm7.h ****     uint32_t V:1;                        /*!< bit:     28  Overflow condition code flag */
 281:../../libDaisy/Drivers/CMSIS/Include/core_cm7.h ****     uint32_t C:1;                        /*!< bit:     29  Carry condition code flag */
 282:../../libDaisy/Drivers/CMSIS/Include/core_cm7.h ****     uint32_t Z:1;                        /*!< bit:     30  Zero condition code flag */
 283:../../libDaisy/Drivers/CMSIS/Include/core_cm7.h ****     uint32_t N:1;                        /*!< bit:     31  Negative condition code flag */
 284:../../libDaisy/Drivers/CMSIS/Include/core_cm7.h ****   } b;                                   /*!< Structure used for bit  access */
 285:../../libDaisy/Drivers/CMSIS/Include/core_cm7.h ****   uint32_t w;                            /*!< Type      used for word access */
 286:../../libDaisy/Drivers/CMSIS/Include/core_cm7.h **** } APSR_Type;
 287:../../libDaisy/Drivers/CMSIS/Include/core_cm7.h **** 
 288:../../libDaisy/Drivers/CMSIS/Include/core_cm7.h **** /* APSR Register Definitions */
 289:../../libDaisy/Drivers/CMSIS/Include/core_cm7.h **** #define APSR_N_Pos                         31U                                            /*!< APSR
 290:../../libDaisy/Drivers/CMSIS/Include/core_cm7.h **** #define APSR_N_Msk                         (1UL << APSR_N_Pos)                            /*!< APSR
 291:../../libDaisy/Drivers/CMSIS/Include/core_cm7.h **** 
 292:../../libDaisy/Drivers/CMSIS/Include/core_cm7.h **** #define APSR_Z_Pos                         30U                                            /*!< APSR
 293:../../libDaisy/Drivers/CMSIS/Include/core_cm7.h **** #define APSR_Z_Msk                         (1UL << APSR_Z_Pos)                            /*!< APSR
 294:../../libDaisy/Drivers/CMSIS/Include/core_cm7.h **** 
 295:../../libDaisy/Drivers/CMSIS/Include/core_cm7.h **** #define APSR_C_Pos                         29U                                            /*!< APSR
 296:../../libDaisy/Drivers/CMSIS/Include/core_cm7.h **** #define APSR_C_Msk                         (1UL << APSR_C_Pos)                            /*!< APSR
 297:../../libDaisy/Drivers/CMSIS/Include/core_cm7.h **** 
 298:../../libDaisy/Drivers/CMSIS/Include/core_cm7.h **** #define APSR_V_Pos                         28U                                            /*!< APSR
 299:../../libDaisy/Drivers/CMSIS/Include/core_cm7.h **** #define APSR_V_Msk                         (1UL << APSR_V_Pos)                            /*!< APSR
 300:../../libDaisy/Drivers/CMSIS/Include/core_cm7.h **** 
 301:../../libDaisy/Drivers/CMSIS/Include/core_cm7.h **** #define APSR_Q_Pos                         27U                                            /*!< APSR
 302:../../libDaisy/Drivers/CMSIS/Include/core_cm7.h **** #define APSR_Q_Msk                         (1UL << APSR_Q_Pos)                            /*!< APSR
 303:../../libDaisy/Drivers/CMSIS/Include/core_cm7.h **** 
 304:../../libDaisy/Drivers/CMSIS/Include/core_cm7.h **** #define APSR_GE_Pos                        16U                                            /*!< APSR
 305:../../libDaisy/Drivers/CMSIS/Include/core_cm7.h **** #define APSR_GE_Msk                        (0xFUL << APSR_GE_Pos)                         /*!< APSR
 306:../../libDaisy/Drivers/CMSIS/Include/core_cm7.h **** 
 307:../../libDaisy/Drivers/CMSIS/Include/core_cm7.h **** 
 308:../../libDaisy/Drivers/CMSIS/Include/core_cm7.h **** /**
 309:../../libDaisy/Drivers/CMSIS/Include/core_cm7.h ****   \brief  Union type to access the Interrupt Program Status Register (IPSR).
ARM GAS  /tmp/ccUUe33m.s 			page 19


 310:../../libDaisy/Drivers/CMSIS/Include/core_cm7.h ****  */
 311:../../libDaisy/Drivers/CMSIS/Include/core_cm7.h **** typedef union
 312:../../libDaisy/Drivers/CMSIS/Include/core_cm7.h **** {
 313:../../libDaisy/Drivers/CMSIS/Include/core_cm7.h ****   struct
 314:../../libDaisy/Drivers/CMSIS/Include/core_cm7.h ****   {
 315:../../libDaisy/Drivers/CMSIS/Include/core_cm7.h ****     uint32_t ISR:9;                      /*!< bit:  0.. 8  Exception number */
 316:../../libDaisy/Drivers/CMSIS/Include/core_cm7.h ****     uint32_t _reserved0:23;              /*!< bit:  9..31  Reserved */
 317:../../libDaisy/Drivers/CMSIS/Include/core_cm7.h ****   } b;                                   /*!< Structure used for bit  access */
 318:../../libDaisy/Drivers/CMSIS/Include/core_cm7.h ****   uint32_t w;                            /*!< Type      used for word access */
 319:../../libDaisy/Drivers/CMSIS/Include/core_cm7.h **** } IPSR_Type;
 320:../../libDaisy/Drivers/CMSIS/Include/core_cm7.h **** 
 321:../../libDaisy/Drivers/CMSIS/Include/core_cm7.h **** /* IPSR Register Definitions */
 322:../../libDaisy/Drivers/CMSIS/Include/core_cm7.h **** #define IPSR_ISR_Pos                        0U                                            /*!< IPSR
 323:../../libDaisy/Drivers/CMSIS/Include/core_cm7.h **** #define IPSR_ISR_Msk                       (0x1FFUL /*<< IPSR_ISR_Pos*/)                  /*!< IPSR
 324:../../libDaisy/Drivers/CMSIS/Include/core_cm7.h **** 
 325:../../libDaisy/Drivers/CMSIS/Include/core_cm7.h **** 
 326:../../libDaisy/Drivers/CMSIS/Include/core_cm7.h **** /**
 327:../../libDaisy/Drivers/CMSIS/Include/core_cm7.h ****   \brief  Union type to access the Special-Purpose Program Status Registers (xPSR).
 328:../../libDaisy/Drivers/CMSIS/Include/core_cm7.h ****  */
 329:../../libDaisy/Drivers/CMSIS/Include/core_cm7.h **** typedef union
 330:../../libDaisy/Drivers/CMSIS/Include/core_cm7.h **** {
 331:../../libDaisy/Drivers/CMSIS/Include/core_cm7.h ****   struct
 332:../../libDaisy/Drivers/CMSIS/Include/core_cm7.h ****   {
 333:../../libDaisy/Drivers/CMSIS/Include/core_cm7.h ****     uint32_t ISR:9;                      /*!< bit:  0.. 8  Exception number */
 334:../../libDaisy/Drivers/CMSIS/Include/core_cm7.h ****     uint32_t _reserved0:1;               /*!< bit:      9  Reserved */
 335:../../libDaisy/Drivers/CMSIS/Include/core_cm7.h ****     uint32_t ICI_IT_1:6;                 /*!< bit: 10..15  ICI/IT part 1 */
 336:../../libDaisy/Drivers/CMSIS/Include/core_cm7.h ****     uint32_t GE:4;                       /*!< bit: 16..19  Greater than or Equal flags */
 337:../../libDaisy/Drivers/CMSIS/Include/core_cm7.h ****     uint32_t _reserved1:4;               /*!< bit: 20..23  Reserved */
 338:../../libDaisy/Drivers/CMSIS/Include/core_cm7.h ****     uint32_t T:1;                        /*!< bit:     24  Thumb bit */
 339:../../libDaisy/Drivers/CMSIS/Include/core_cm7.h ****     uint32_t ICI_IT_2:2;                 /*!< bit: 25..26  ICI/IT part 2 */
 340:../../libDaisy/Drivers/CMSIS/Include/core_cm7.h ****     uint32_t Q:1;                        /*!< bit:     27  Saturation condition flag */
 341:../../libDaisy/Drivers/CMSIS/Include/core_cm7.h ****     uint32_t V:1;                        /*!< bit:     28  Overflow condition code flag */
 342:../../libDaisy/Drivers/CMSIS/Include/core_cm7.h ****     uint32_t C:1;                        /*!< bit:     29  Carry condition code flag */
 343:../../libDaisy/Drivers/CMSIS/Include/core_cm7.h ****     uint32_t Z:1;                        /*!< bit:     30  Zero condition code flag */
 344:../../libDaisy/Drivers/CMSIS/Include/core_cm7.h ****     uint32_t N:1;                        /*!< bit:     31  Negative condition code flag */
 345:../../libDaisy/Drivers/CMSIS/Include/core_cm7.h ****   } b;                                   /*!< Structure used for bit  access */
 346:../../libDaisy/Drivers/CMSIS/Include/core_cm7.h ****   uint32_t w;                            /*!< Type      used for word access */
 347:../../libDaisy/Drivers/CMSIS/Include/core_cm7.h **** } xPSR_Type;
 348:../../libDaisy/Drivers/CMSIS/Include/core_cm7.h **** 
 349:../../libDaisy/Drivers/CMSIS/Include/core_cm7.h **** /* xPSR Register Definitions */
 350:../../libDaisy/Drivers/CMSIS/Include/core_cm7.h **** #define xPSR_N_Pos                         31U                                            /*!< xPSR
 351:../../libDaisy/Drivers/CMSIS/Include/core_cm7.h **** #define xPSR_N_Msk                         (1UL << xPSR_N_Pos)                            /*!< xPSR
 352:../../libDaisy/Drivers/CMSIS/Include/core_cm7.h **** 
 353:../../libDaisy/Drivers/CMSIS/Include/core_cm7.h **** #define xPSR_Z_Pos                         30U                                            /*!< xPSR
 354:../../libDaisy/Drivers/CMSIS/Include/core_cm7.h **** #define xPSR_Z_Msk                         (1UL << xPSR_Z_Pos)                            /*!< xPSR
 355:../../libDaisy/Drivers/CMSIS/Include/core_cm7.h **** 
 356:../../libDaisy/Drivers/CMSIS/Include/core_cm7.h **** #define xPSR_C_Pos                         29U                                            /*!< xPSR
 357:../../libDaisy/Drivers/CMSIS/Include/core_cm7.h **** #define xPSR_C_Msk                         (1UL << xPSR_C_Pos)                            /*!< xPSR
 358:../../libDaisy/Drivers/CMSIS/Include/core_cm7.h **** 
 359:../../libDaisy/Drivers/CMSIS/Include/core_cm7.h **** #define xPSR_V_Pos                         28U                                            /*!< xPSR
 360:../../libDaisy/Drivers/CMSIS/Include/core_cm7.h **** #define xPSR_V_Msk                         (1UL << xPSR_V_Pos)                            /*!< xPSR
 361:../../libDaisy/Drivers/CMSIS/Include/core_cm7.h **** 
 362:../../libDaisy/Drivers/CMSIS/Include/core_cm7.h **** #define xPSR_Q_Pos                         27U                                            /*!< xPSR
 363:../../libDaisy/Drivers/CMSIS/Include/core_cm7.h **** #define xPSR_Q_Msk                         (1UL << xPSR_Q_Pos)                            /*!< xPSR
 364:../../libDaisy/Drivers/CMSIS/Include/core_cm7.h **** 
 365:../../libDaisy/Drivers/CMSIS/Include/core_cm7.h **** #define xPSR_ICI_IT_2_Pos                  25U                                            /*!< xPSR
 366:../../libDaisy/Drivers/CMSIS/Include/core_cm7.h **** #define xPSR_ICI_IT_2_Msk                  (3UL << xPSR_ICI_IT_2_Pos)                     /*!< xPSR
ARM GAS  /tmp/ccUUe33m.s 			page 20


 367:../../libDaisy/Drivers/CMSIS/Include/core_cm7.h **** 
 368:../../libDaisy/Drivers/CMSIS/Include/core_cm7.h **** #define xPSR_T_Pos                         24U                                            /*!< xPSR
 369:../../libDaisy/Drivers/CMSIS/Include/core_cm7.h **** #define xPSR_T_Msk                         (1UL << xPSR_T_Pos)                            /*!< xPSR
 370:../../libDaisy/Drivers/CMSIS/Include/core_cm7.h **** 
 371:../../libDaisy/Drivers/CMSIS/Include/core_cm7.h **** #define xPSR_GE_Pos                        16U                                            /*!< xPSR
 372:../../libDaisy/Drivers/CMSIS/Include/core_cm7.h **** #define xPSR_GE_Msk                        (0xFUL << xPSR_GE_Pos)                         /*!< xPSR
 373:../../libDaisy/Drivers/CMSIS/Include/core_cm7.h **** 
 374:../../libDaisy/Drivers/CMSIS/Include/core_cm7.h **** #define xPSR_ICI_IT_1_Pos                  10U                                            /*!< xPSR
 375:../../libDaisy/Drivers/CMSIS/Include/core_cm7.h **** #define xPSR_ICI_IT_1_Msk                  (0x3FUL << xPSR_ICI_IT_1_Pos)                  /*!< xPSR
 376:../../libDaisy/Drivers/CMSIS/Include/core_cm7.h **** 
 377:../../libDaisy/Drivers/CMSIS/Include/core_cm7.h **** #define xPSR_ISR_Pos                        0U                                            /*!< xPSR
 378:../../libDaisy/Drivers/CMSIS/Include/core_cm7.h **** #define xPSR_ISR_Msk                       (0x1FFUL /*<< xPSR_ISR_Pos*/)                  /*!< xPSR
 379:../../libDaisy/Drivers/CMSIS/Include/core_cm7.h **** 
 380:../../libDaisy/Drivers/CMSIS/Include/core_cm7.h **** 
 381:../../libDaisy/Drivers/CMSIS/Include/core_cm7.h **** /**
 382:../../libDaisy/Drivers/CMSIS/Include/core_cm7.h ****   \brief  Union type to access the Control Registers (CONTROL).
 383:../../libDaisy/Drivers/CMSIS/Include/core_cm7.h ****  */
 384:../../libDaisy/Drivers/CMSIS/Include/core_cm7.h **** typedef union
 385:../../libDaisy/Drivers/CMSIS/Include/core_cm7.h **** {
 386:../../libDaisy/Drivers/CMSIS/Include/core_cm7.h ****   struct
 387:../../libDaisy/Drivers/CMSIS/Include/core_cm7.h ****   {
 388:../../libDaisy/Drivers/CMSIS/Include/core_cm7.h ****     uint32_t nPRIV:1;                    /*!< bit:      0  Execution privilege in Thread mode */
 389:../../libDaisy/Drivers/CMSIS/Include/core_cm7.h ****     uint32_t SPSEL:1;                    /*!< bit:      1  Stack to be used */
 390:../../libDaisy/Drivers/CMSIS/Include/core_cm7.h ****     uint32_t FPCA:1;                     /*!< bit:      2  FP extension active flag */
 391:../../libDaisy/Drivers/CMSIS/Include/core_cm7.h ****     uint32_t _reserved0:29;              /*!< bit:  3..31  Reserved */
 392:../../libDaisy/Drivers/CMSIS/Include/core_cm7.h ****   } b;                                   /*!< Structure used for bit  access */
 393:../../libDaisy/Drivers/CMSIS/Include/core_cm7.h ****   uint32_t w;                            /*!< Type      used for word access */
 394:../../libDaisy/Drivers/CMSIS/Include/core_cm7.h **** } CONTROL_Type;
 395:../../libDaisy/Drivers/CMSIS/Include/core_cm7.h **** 
 396:../../libDaisy/Drivers/CMSIS/Include/core_cm7.h **** /* CONTROL Register Definitions */
 397:../../libDaisy/Drivers/CMSIS/Include/core_cm7.h **** #define CONTROL_FPCA_Pos                    2U                                            /*!< CONT
 398:../../libDaisy/Drivers/CMSIS/Include/core_cm7.h **** #define CONTROL_FPCA_Msk                   (1UL << CONTROL_FPCA_Pos)                      /*!< CONT
 399:../../libDaisy/Drivers/CMSIS/Include/core_cm7.h **** 
 400:../../libDaisy/Drivers/CMSIS/Include/core_cm7.h **** #define CONTROL_SPSEL_Pos                   1U                                            /*!< CONT
 401:../../libDaisy/Drivers/CMSIS/Include/core_cm7.h **** #define CONTROL_SPSEL_Msk                  (1UL << CONTROL_SPSEL_Pos)                     /*!< CONT
 402:../../libDaisy/Drivers/CMSIS/Include/core_cm7.h **** 
 403:../../libDaisy/Drivers/CMSIS/Include/core_cm7.h **** #define CONTROL_nPRIV_Pos                   0U                                            /*!< CONT
 404:../../libDaisy/Drivers/CMSIS/Include/core_cm7.h **** #define CONTROL_nPRIV_Msk                  (1UL /*<< CONTROL_nPRIV_Pos*/)                 /*!< CONT
 405:../../libDaisy/Drivers/CMSIS/Include/core_cm7.h **** 
 406:../../libDaisy/Drivers/CMSIS/Include/core_cm7.h **** /*@} end of group CMSIS_CORE */
 407:../../libDaisy/Drivers/CMSIS/Include/core_cm7.h **** 
 408:../../libDaisy/Drivers/CMSIS/Include/core_cm7.h **** 
 409:../../libDaisy/Drivers/CMSIS/Include/core_cm7.h **** /**
 410:../../libDaisy/Drivers/CMSIS/Include/core_cm7.h ****   \ingroup    CMSIS_core_register
 411:../../libDaisy/Drivers/CMSIS/Include/core_cm7.h ****   \defgroup   CMSIS_NVIC  Nested Vectored Interrupt Controller (NVIC)
 412:../../libDaisy/Drivers/CMSIS/Include/core_cm7.h ****   \brief      Type definitions for the NVIC Registers
 413:../../libDaisy/Drivers/CMSIS/Include/core_cm7.h ****   @{
 414:../../libDaisy/Drivers/CMSIS/Include/core_cm7.h ****  */
 415:../../libDaisy/Drivers/CMSIS/Include/core_cm7.h **** 
 416:../../libDaisy/Drivers/CMSIS/Include/core_cm7.h **** /**
 417:../../libDaisy/Drivers/CMSIS/Include/core_cm7.h ****   \brief  Structure type to access the Nested Vectored Interrupt Controller (NVIC).
 418:../../libDaisy/Drivers/CMSIS/Include/core_cm7.h ****  */
 419:../../libDaisy/Drivers/CMSIS/Include/core_cm7.h **** typedef struct
 420:../../libDaisy/Drivers/CMSIS/Include/core_cm7.h **** {
 421:../../libDaisy/Drivers/CMSIS/Include/core_cm7.h ****   __IOM uint32_t ISER[8U];               /*!< Offset: 0x000 (R/W)  Interrupt Set Enable Register */
 422:../../libDaisy/Drivers/CMSIS/Include/core_cm7.h ****         uint32_t RESERVED0[24U];
 423:../../libDaisy/Drivers/CMSIS/Include/core_cm7.h ****   __IOM uint32_t ICER[8U];               /*!< Offset: 0x080 (R/W)  Interrupt Clear Enable Register 
ARM GAS  /tmp/ccUUe33m.s 			page 21


 424:../../libDaisy/Drivers/CMSIS/Include/core_cm7.h ****         uint32_t RSERVED1[24U];
 425:../../libDaisy/Drivers/CMSIS/Include/core_cm7.h ****   __IOM uint32_t ISPR[8U];               /*!< Offset: 0x100 (R/W)  Interrupt Set Pending Register *
 426:../../libDaisy/Drivers/CMSIS/Include/core_cm7.h ****         uint32_t RESERVED2[24U];
 427:../../libDaisy/Drivers/CMSIS/Include/core_cm7.h ****   __IOM uint32_t ICPR[8U];               /*!< Offset: 0x180 (R/W)  Interrupt Clear Pending Register
 428:../../libDaisy/Drivers/CMSIS/Include/core_cm7.h ****         uint32_t RESERVED3[24U];
 429:../../libDaisy/Drivers/CMSIS/Include/core_cm7.h ****   __IOM uint32_t IABR[8U];               /*!< Offset: 0x200 (R/W)  Interrupt Active bit Register */
 430:../../libDaisy/Drivers/CMSIS/Include/core_cm7.h ****         uint32_t RESERVED4[56U];
 431:../../libDaisy/Drivers/CMSIS/Include/core_cm7.h ****   __IOM uint8_t  IP[240U];               /*!< Offset: 0x300 (R/W)  Interrupt Priority Register (8Bi
 432:../../libDaisy/Drivers/CMSIS/Include/core_cm7.h ****         uint32_t RESERVED5[644U];
 433:../../libDaisy/Drivers/CMSIS/Include/core_cm7.h ****   __OM  uint32_t STIR;                   /*!< Offset: 0xE00 ( /W)  Software Trigger Interrupt Regis
 434:../../libDaisy/Drivers/CMSIS/Include/core_cm7.h **** }  NVIC_Type;
 435:../../libDaisy/Drivers/CMSIS/Include/core_cm7.h **** 
 436:../../libDaisy/Drivers/CMSIS/Include/core_cm7.h **** /* Software Triggered Interrupt Register Definitions */
 437:../../libDaisy/Drivers/CMSIS/Include/core_cm7.h **** #define NVIC_STIR_INTID_Pos                 0U                                         /*!< STIR: I
 438:../../libDaisy/Drivers/CMSIS/Include/core_cm7.h **** #define NVIC_STIR_INTID_Msk                (0x1FFUL /*<< NVIC_STIR_INTID_Pos*/)        /*!< STIR: I
 439:../../libDaisy/Drivers/CMSIS/Include/core_cm7.h **** 
 440:../../libDaisy/Drivers/CMSIS/Include/core_cm7.h **** /*@} end of group CMSIS_NVIC */
 441:../../libDaisy/Drivers/CMSIS/Include/core_cm7.h **** 
 442:../../libDaisy/Drivers/CMSIS/Include/core_cm7.h **** 
 443:../../libDaisy/Drivers/CMSIS/Include/core_cm7.h **** /**
 444:../../libDaisy/Drivers/CMSIS/Include/core_cm7.h ****   \ingroup  CMSIS_core_register
 445:../../libDaisy/Drivers/CMSIS/Include/core_cm7.h ****   \defgroup CMSIS_SCB     System Control Block (SCB)
 446:../../libDaisy/Drivers/CMSIS/Include/core_cm7.h ****   \brief    Type definitions for the System Control Block Registers
 447:../../libDaisy/Drivers/CMSIS/Include/core_cm7.h ****   @{
 448:../../libDaisy/Drivers/CMSIS/Include/core_cm7.h ****  */
 449:../../libDaisy/Drivers/CMSIS/Include/core_cm7.h **** 
 450:../../libDaisy/Drivers/CMSIS/Include/core_cm7.h **** /**
 451:../../libDaisy/Drivers/CMSIS/Include/core_cm7.h ****   \brief  Structure type to access the System Control Block (SCB).
 452:../../libDaisy/Drivers/CMSIS/Include/core_cm7.h ****  */
 453:../../libDaisy/Drivers/CMSIS/Include/core_cm7.h **** typedef struct
 454:../../libDaisy/Drivers/CMSIS/Include/core_cm7.h **** {
 455:../../libDaisy/Drivers/CMSIS/Include/core_cm7.h ****   __IM  uint32_t CPUID;                  /*!< Offset: 0x000 (R/ )  CPUID Base Register */
 456:../../libDaisy/Drivers/CMSIS/Include/core_cm7.h ****   __IOM uint32_t ICSR;                   /*!< Offset: 0x004 (R/W)  Interrupt Control and State Regi
 457:../../libDaisy/Drivers/CMSIS/Include/core_cm7.h ****   __IOM uint32_t VTOR;                   /*!< Offset: 0x008 (R/W)  Vector Table Offset Register */
 458:../../libDaisy/Drivers/CMSIS/Include/core_cm7.h ****   __IOM uint32_t AIRCR;                  /*!< Offset: 0x00C (R/W)  Application Interrupt and Reset 
 459:../../libDaisy/Drivers/CMSIS/Include/core_cm7.h ****   __IOM uint32_t SCR;                    /*!< Offset: 0x010 (R/W)  System Control Register */
 460:../../libDaisy/Drivers/CMSIS/Include/core_cm7.h ****   __IOM uint32_t CCR;                    /*!< Offset: 0x014 (R/W)  Configuration Control Register *
 461:../../libDaisy/Drivers/CMSIS/Include/core_cm7.h ****   __IOM uint8_t  SHPR[12U];              /*!< Offset: 0x018 (R/W)  System Handlers Priority Registe
 462:../../libDaisy/Drivers/CMSIS/Include/core_cm7.h ****   __IOM uint32_t SHCSR;                  /*!< Offset: 0x024 (R/W)  System Handler Control and State
 463:../../libDaisy/Drivers/CMSIS/Include/core_cm7.h ****   __IOM uint32_t CFSR;                   /*!< Offset: 0x028 (R/W)  Configurable Fault Status Regist
 464:../../libDaisy/Drivers/CMSIS/Include/core_cm7.h ****   __IOM uint32_t HFSR;                   /*!< Offset: 0x02C (R/W)  HardFault Status Register */
 465:../../libDaisy/Drivers/CMSIS/Include/core_cm7.h ****   __IOM uint32_t DFSR;                   /*!< Offset: 0x030 (R/W)  Debug Fault Status Register */
 466:../../libDaisy/Drivers/CMSIS/Include/core_cm7.h ****   __IOM uint32_t MMFAR;                  /*!< Offset: 0x034 (R/W)  MemManage Fault Address Register
 467:../../libDaisy/Drivers/CMSIS/Include/core_cm7.h ****   __IOM uint32_t BFAR;                   /*!< Offset: 0x038 (R/W)  BusFault Address Register */
 468:../../libDaisy/Drivers/CMSIS/Include/core_cm7.h ****   __IOM uint32_t AFSR;                   /*!< Offset: 0x03C (R/W)  Auxiliary Fault Status Register 
 469:../../libDaisy/Drivers/CMSIS/Include/core_cm7.h ****   __IM  uint32_t ID_PFR[2U];             /*!< Offset: 0x040 (R/ )  Processor Feature Register */
 470:../../libDaisy/Drivers/CMSIS/Include/core_cm7.h ****   __IM  uint32_t ID_DFR;                 /*!< Offset: 0x048 (R/ )  Debug Feature Register */
 471:../../libDaisy/Drivers/CMSIS/Include/core_cm7.h ****   __IM  uint32_t ID_AFR;                 /*!< Offset: 0x04C (R/ )  Auxiliary Feature Register */
 472:../../libDaisy/Drivers/CMSIS/Include/core_cm7.h ****   __IM  uint32_t ID_MFR[4U];             /*!< Offset: 0x050 (R/ )  Memory Model Feature Register */
 473:../../libDaisy/Drivers/CMSIS/Include/core_cm7.h ****   __IM  uint32_t ID_ISAR[5U];            /*!< Offset: 0x060 (R/ )  Instruction Set Attributes Regis
 474:../../libDaisy/Drivers/CMSIS/Include/core_cm7.h ****         uint32_t RESERVED0[1U];
 475:../../libDaisy/Drivers/CMSIS/Include/core_cm7.h ****   __IM  uint32_t CLIDR;                  /*!< Offset: 0x078 (R/ )  Cache Level ID register */
 476:../../libDaisy/Drivers/CMSIS/Include/core_cm7.h ****   __IM  uint32_t CTR;                    /*!< Offset: 0x07C (R/ )  Cache Type register */
 477:../../libDaisy/Drivers/CMSIS/Include/core_cm7.h ****   __IM  uint32_t CCSIDR;                 /*!< Offset: 0x080 (R/ )  Cache Size ID Register */
 478:../../libDaisy/Drivers/CMSIS/Include/core_cm7.h ****   __IOM uint32_t CSSELR;                 /*!< Offset: 0x084 (R/W)  Cache Size Selection Register */
 479:../../libDaisy/Drivers/CMSIS/Include/core_cm7.h ****   __IOM uint32_t CPACR;                  /*!< Offset: 0x088 (R/W)  Coprocessor Access Control Regis
 480:../../libDaisy/Drivers/CMSIS/Include/core_cm7.h ****         uint32_t RESERVED3[93U];
ARM GAS  /tmp/ccUUe33m.s 			page 22


 481:../../libDaisy/Drivers/CMSIS/Include/core_cm7.h ****   __OM  uint32_t STIR;                   /*!< Offset: 0x200 ( /W)  Software Triggered Interrupt Reg
 482:../../libDaisy/Drivers/CMSIS/Include/core_cm7.h ****         uint32_t RESERVED4[15U];
 483:../../libDaisy/Drivers/CMSIS/Include/core_cm7.h ****   __IM  uint32_t MVFR0;                  /*!< Offset: 0x240 (R/ )  Media and VFP Feature Register 0
 484:../../libDaisy/Drivers/CMSIS/Include/core_cm7.h ****   __IM  uint32_t MVFR1;                  /*!< Offset: 0x244 (R/ )  Media and VFP Feature Register 1
 485:../../libDaisy/Drivers/CMSIS/Include/core_cm7.h ****   __IM  uint32_t MVFR2;                  /*!< Offset: 0x248 (R/ )  Media and VFP Feature Register 1
 486:../../libDaisy/Drivers/CMSIS/Include/core_cm7.h ****         uint32_t RESERVED5[1U];
 487:../../libDaisy/Drivers/CMSIS/Include/core_cm7.h ****   __OM  uint32_t ICIALLU;                /*!< Offset: 0x250 ( /W)  I-Cache Invalidate All to PoU */
 488:../../libDaisy/Drivers/CMSIS/Include/core_cm7.h ****         uint32_t RESERVED6[1U];
 489:../../libDaisy/Drivers/CMSIS/Include/core_cm7.h ****   __OM  uint32_t ICIMVAU;                /*!< Offset: 0x258 ( /W)  I-Cache Invalidate by MVA to PoU
 490:../../libDaisy/Drivers/CMSIS/Include/core_cm7.h ****   __OM  uint32_t DCIMVAC;                /*!< Offset: 0x25C ( /W)  D-Cache Invalidate by MVA to PoC
 491:../../libDaisy/Drivers/CMSIS/Include/core_cm7.h ****   __OM  uint32_t DCISW;                  /*!< Offset: 0x260 ( /W)  D-Cache Invalidate by Set-way */
 492:../../libDaisy/Drivers/CMSIS/Include/core_cm7.h ****   __OM  uint32_t DCCMVAU;                /*!< Offset: 0x264 ( /W)  D-Cache Clean by MVA to PoU */
 493:../../libDaisy/Drivers/CMSIS/Include/core_cm7.h ****   __OM  uint32_t DCCMVAC;                /*!< Offset: 0x268 ( /W)  D-Cache Clean by MVA to PoC */
 494:../../libDaisy/Drivers/CMSIS/Include/core_cm7.h ****   __OM  uint32_t DCCSW;                  /*!< Offset: 0x26C ( /W)  D-Cache Clean by Set-way */
 495:../../libDaisy/Drivers/CMSIS/Include/core_cm7.h ****   __OM  uint32_t DCCIMVAC;               /*!< Offset: 0x270 ( /W)  D-Cache Clean and Invalidate by 
 496:../../libDaisy/Drivers/CMSIS/Include/core_cm7.h ****   __OM  uint32_t DCCISW;                 /*!< Offset: 0x274 ( /W)  D-Cache Clean and Invalidate by 
 497:../../libDaisy/Drivers/CMSIS/Include/core_cm7.h ****         uint32_t RESERVED7[6U];
 498:../../libDaisy/Drivers/CMSIS/Include/core_cm7.h ****   __IOM uint32_t ITCMCR;                 /*!< Offset: 0x290 (R/W)  Instruction Tightly-Coupled Memo
 499:../../libDaisy/Drivers/CMSIS/Include/core_cm7.h ****   __IOM uint32_t DTCMCR;                 /*!< Offset: 0x294 (R/W)  Data Tightly-Coupled Memory Cont
 500:../../libDaisy/Drivers/CMSIS/Include/core_cm7.h ****   __IOM uint32_t AHBPCR;                 /*!< Offset: 0x298 (R/W)  AHBP Control Register */
 501:../../libDaisy/Drivers/CMSIS/Include/core_cm7.h ****   __IOM uint32_t CACR;                   /*!< Offset: 0x29C (R/W)  L1 Cache Control Register */
 502:../../libDaisy/Drivers/CMSIS/Include/core_cm7.h ****   __IOM uint32_t AHBSCR;                 /*!< Offset: 0x2A0 (R/W)  AHB Slave Control Register */
 503:../../libDaisy/Drivers/CMSIS/Include/core_cm7.h ****         uint32_t RESERVED8[1U];
 504:../../libDaisy/Drivers/CMSIS/Include/core_cm7.h ****   __IOM uint32_t ABFSR;                  /*!< Offset: 0x2A8 (R/W)  Auxiliary Bus Fault Status Regis
 505:../../libDaisy/Drivers/CMSIS/Include/core_cm7.h **** } SCB_Type;
 506:../../libDaisy/Drivers/CMSIS/Include/core_cm7.h **** 
 507:../../libDaisy/Drivers/CMSIS/Include/core_cm7.h **** /* SCB CPUID Register Definitions */
 508:../../libDaisy/Drivers/CMSIS/Include/core_cm7.h **** #define SCB_CPUID_IMPLEMENTER_Pos          24U                                            /*!< SCB 
 509:../../libDaisy/Drivers/CMSIS/Include/core_cm7.h **** #define SCB_CPUID_IMPLEMENTER_Msk          (0xFFUL << SCB_CPUID_IMPLEMENTER_Pos)          /*!< SCB 
 510:../../libDaisy/Drivers/CMSIS/Include/core_cm7.h **** 
 511:../../libDaisy/Drivers/CMSIS/Include/core_cm7.h **** #define SCB_CPUID_VARIANT_Pos              20U                                            /*!< SCB 
 512:../../libDaisy/Drivers/CMSIS/Include/core_cm7.h **** #define SCB_CPUID_VARIANT_Msk              (0xFUL << SCB_CPUID_VARIANT_Pos)               /*!< SCB 
 513:../../libDaisy/Drivers/CMSIS/Include/core_cm7.h **** 
 514:../../libDaisy/Drivers/CMSIS/Include/core_cm7.h **** #define SCB_CPUID_ARCHITECTURE_Pos         16U                                            /*!< SCB 
 515:../../libDaisy/Drivers/CMSIS/Include/core_cm7.h **** #define SCB_CPUID_ARCHITECTURE_Msk         (0xFUL << SCB_CPUID_ARCHITECTURE_Pos)          /*!< SCB 
 516:../../libDaisy/Drivers/CMSIS/Include/core_cm7.h **** 
 517:../../libDaisy/Drivers/CMSIS/Include/core_cm7.h **** #define SCB_CPUID_PARTNO_Pos                4U                                            /*!< SCB 
 518:../../libDaisy/Drivers/CMSIS/Include/core_cm7.h **** #define SCB_CPUID_PARTNO_Msk               (0xFFFUL << SCB_CPUID_PARTNO_Pos)              /*!< SCB 
 519:../../libDaisy/Drivers/CMSIS/Include/core_cm7.h **** 
 520:../../libDaisy/Drivers/CMSIS/Include/core_cm7.h **** #define SCB_CPUID_REVISION_Pos              0U                                            /*!< SCB 
 521:../../libDaisy/Drivers/CMSIS/Include/core_cm7.h **** #define SCB_CPUID_REVISION_Msk             (0xFUL /*<< SCB_CPUID_REVISION_Pos*/)          /*!< SCB 
 522:../../libDaisy/Drivers/CMSIS/Include/core_cm7.h **** 
 523:../../libDaisy/Drivers/CMSIS/Include/core_cm7.h **** /* SCB Interrupt Control State Register Definitions */
 524:../../libDaisy/Drivers/CMSIS/Include/core_cm7.h **** #define SCB_ICSR_NMIPENDSET_Pos            31U                                            /*!< SCB 
 525:../../libDaisy/Drivers/CMSIS/Include/core_cm7.h **** #define SCB_ICSR_NMIPENDSET_Msk            (1UL << SCB_ICSR_NMIPENDSET_Pos)               /*!< SCB 
 526:../../libDaisy/Drivers/CMSIS/Include/core_cm7.h **** 
 527:../../libDaisy/Drivers/CMSIS/Include/core_cm7.h **** #define SCB_ICSR_PENDSVSET_Pos             28U                                            /*!< SCB 
 528:../../libDaisy/Drivers/CMSIS/Include/core_cm7.h **** #define SCB_ICSR_PENDSVSET_Msk             (1UL << SCB_ICSR_PENDSVSET_Pos)                /*!< SCB 
 529:../../libDaisy/Drivers/CMSIS/Include/core_cm7.h **** 
 530:../../libDaisy/Drivers/CMSIS/Include/core_cm7.h **** #define SCB_ICSR_PENDSVCLR_Pos             27U                                            /*!< SCB 
 531:../../libDaisy/Drivers/CMSIS/Include/core_cm7.h **** #define SCB_ICSR_PENDSVCLR_Msk             (1UL << SCB_ICSR_PENDSVCLR_Pos)                /*!< SCB 
 532:../../libDaisy/Drivers/CMSIS/Include/core_cm7.h **** 
 533:../../libDaisy/Drivers/CMSIS/Include/core_cm7.h **** #define SCB_ICSR_PENDSTSET_Pos             26U                                            /*!< SCB 
 534:../../libDaisy/Drivers/CMSIS/Include/core_cm7.h **** #define SCB_ICSR_PENDSTSET_Msk             (1UL << SCB_ICSR_PENDSTSET_Pos)                /*!< SCB 
 535:../../libDaisy/Drivers/CMSIS/Include/core_cm7.h **** 
 536:../../libDaisy/Drivers/CMSIS/Include/core_cm7.h **** #define SCB_ICSR_PENDSTCLR_Pos             25U                                            /*!< SCB 
 537:../../libDaisy/Drivers/CMSIS/Include/core_cm7.h **** #define SCB_ICSR_PENDSTCLR_Msk             (1UL << SCB_ICSR_PENDSTCLR_Pos)                /*!< SCB 
ARM GAS  /tmp/ccUUe33m.s 			page 23


 538:../../libDaisy/Drivers/CMSIS/Include/core_cm7.h **** 
 539:../../libDaisy/Drivers/CMSIS/Include/core_cm7.h **** #define SCB_ICSR_ISRPREEMPT_Pos            23U                                            /*!< SCB 
 540:../../libDaisy/Drivers/CMSIS/Include/core_cm7.h **** #define SCB_ICSR_ISRPREEMPT_Msk            (1UL << SCB_ICSR_ISRPREEMPT_Pos)               /*!< SCB 
 541:../../libDaisy/Drivers/CMSIS/Include/core_cm7.h **** 
 542:../../libDaisy/Drivers/CMSIS/Include/core_cm7.h **** #define SCB_ICSR_ISRPENDING_Pos            22U                                            /*!< SCB 
 543:../../libDaisy/Drivers/CMSIS/Include/core_cm7.h **** #define SCB_ICSR_ISRPENDING_Msk            (1UL << SCB_ICSR_ISRPENDING_Pos)               /*!< SCB 
 544:../../libDaisy/Drivers/CMSIS/Include/core_cm7.h **** 
 545:../../libDaisy/Drivers/CMSIS/Include/core_cm7.h **** #define SCB_ICSR_VECTPENDING_Pos           12U                                            /*!< SCB 
 546:../../libDaisy/Drivers/CMSIS/Include/core_cm7.h **** #define SCB_ICSR_VECTPENDING_Msk           (0x1FFUL << SCB_ICSR_VECTPENDING_Pos)          /*!< SCB 
 547:../../libDaisy/Drivers/CMSIS/Include/core_cm7.h **** 
 548:../../libDaisy/Drivers/CMSIS/Include/core_cm7.h **** #define SCB_ICSR_RETTOBASE_Pos             11U                                            /*!< SCB 
 549:../../libDaisy/Drivers/CMSIS/Include/core_cm7.h **** #define SCB_ICSR_RETTOBASE_Msk             (1UL << SCB_ICSR_RETTOBASE_Pos)                /*!< SCB 
 550:../../libDaisy/Drivers/CMSIS/Include/core_cm7.h **** 
 551:../../libDaisy/Drivers/CMSIS/Include/core_cm7.h **** #define SCB_ICSR_VECTACTIVE_Pos             0U                                            /*!< SCB 
 552:../../libDaisy/Drivers/CMSIS/Include/core_cm7.h **** #define SCB_ICSR_VECTACTIVE_Msk            (0x1FFUL /*<< SCB_ICSR_VECTACTIVE_Pos*/)       /*!< SCB 
 553:../../libDaisy/Drivers/CMSIS/Include/core_cm7.h **** 
 554:../../libDaisy/Drivers/CMSIS/Include/core_cm7.h **** /* SCB Vector Table Offset Register Definitions */
 555:../../libDaisy/Drivers/CMSIS/Include/core_cm7.h **** #define SCB_VTOR_TBLOFF_Pos                 7U                                            /*!< SCB 
 556:../../libDaisy/Drivers/CMSIS/Include/core_cm7.h **** #define SCB_VTOR_TBLOFF_Msk                (0x1FFFFFFUL << SCB_VTOR_TBLOFF_Pos)           /*!< SCB 
 557:../../libDaisy/Drivers/CMSIS/Include/core_cm7.h **** 
 558:../../libDaisy/Drivers/CMSIS/Include/core_cm7.h **** /* SCB Application Interrupt and Reset Control Register Definitions */
 559:../../libDaisy/Drivers/CMSIS/Include/core_cm7.h **** #define SCB_AIRCR_VECTKEY_Pos              16U                                            /*!< SCB 
 560:../../libDaisy/Drivers/CMSIS/Include/core_cm7.h **** #define SCB_AIRCR_VECTKEY_Msk              (0xFFFFUL << SCB_AIRCR_VECTKEY_Pos)            /*!< SCB 
 561:../../libDaisy/Drivers/CMSIS/Include/core_cm7.h **** 
 562:../../libDaisy/Drivers/CMSIS/Include/core_cm7.h **** #define SCB_AIRCR_VECTKEYSTAT_Pos          16U                                            /*!< SCB 
 563:../../libDaisy/Drivers/CMSIS/Include/core_cm7.h **** #define SCB_AIRCR_VECTKEYSTAT_Msk          (0xFFFFUL << SCB_AIRCR_VECTKEYSTAT_Pos)        /*!< SCB 
 564:../../libDaisy/Drivers/CMSIS/Include/core_cm7.h **** 
 565:../../libDaisy/Drivers/CMSIS/Include/core_cm7.h **** #define SCB_AIRCR_ENDIANESS_Pos            15U                                            /*!< SCB 
 566:../../libDaisy/Drivers/CMSIS/Include/core_cm7.h **** #define SCB_AIRCR_ENDIANESS_Msk            (1UL << SCB_AIRCR_ENDIANESS_Pos)               /*!< SCB 
 567:../../libDaisy/Drivers/CMSIS/Include/core_cm7.h **** 
 568:../../libDaisy/Drivers/CMSIS/Include/core_cm7.h **** #define SCB_AIRCR_PRIGROUP_Pos              8U                                            /*!< SCB 
 569:../../libDaisy/Drivers/CMSIS/Include/core_cm7.h **** #define SCB_AIRCR_PRIGROUP_Msk             (7UL << SCB_AIRCR_PRIGROUP_Pos)                /*!< SCB 
 570:../../libDaisy/Drivers/CMSIS/Include/core_cm7.h **** 
 571:../../libDaisy/Drivers/CMSIS/Include/core_cm7.h **** #define SCB_AIRCR_SYSRESETREQ_Pos           2U                                            /*!< SCB 
 572:../../libDaisy/Drivers/CMSIS/Include/core_cm7.h **** #define SCB_AIRCR_SYSRESETREQ_Msk          (1UL << SCB_AIRCR_SYSRESETREQ_Pos)             /*!< SCB 
 573:../../libDaisy/Drivers/CMSIS/Include/core_cm7.h **** 
 574:../../libDaisy/Drivers/CMSIS/Include/core_cm7.h **** #define SCB_AIRCR_VECTCLRACTIVE_Pos         1U                                            /*!< SCB 
 575:../../libDaisy/Drivers/CMSIS/Include/core_cm7.h **** #define SCB_AIRCR_VECTCLRACTIVE_Msk        (1UL << SCB_AIRCR_VECTCLRACTIVE_Pos)           /*!< SCB 
 576:../../libDaisy/Drivers/CMSIS/Include/core_cm7.h **** 
 577:../../libDaisy/Drivers/CMSIS/Include/core_cm7.h **** #define SCB_AIRCR_VECTRESET_Pos             0U                                            /*!< SCB 
 578:../../libDaisy/Drivers/CMSIS/Include/core_cm7.h **** #define SCB_AIRCR_VECTRESET_Msk            (1UL /*<< SCB_AIRCR_VECTRESET_Pos*/)           /*!< SCB 
 579:../../libDaisy/Drivers/CMSIS/Include/core_cm7.h **** 
 580:../../libDaisy/Drivers/CMSIS/Include/core_cm7.h **** /* SCB System Control Register Definitions */
 581:../../libDaisy/Drivers/CMSIS/Include/core_cm7.h **** #define SCB_SCR_SEVONPEND_Pos               4U                                            /*!< SCB 
 582:../../libDaisy/Drivers/CMSIS/Include/core_cm7.h **** #define SCB_SCR_SEVONPEND_Msk              (1UL << SCB_SCR_SEVONPEND_Pos)                 /*!< SCB 
 583:../../libDaisy/Drivers/CMSIS/Include/core_cm7.h **** 
 584:../../libDaisy/Drivers/CMSIS/Include/core_cm7.h **** #define SCB_SCR_SLEEPDEEP_Pos               2U                                            /*!< SCB 
 585:../../libDaisy/Drivers/CMSIS/Include/core_cm7.h **** #define SCB_SCR_SLEEPDEEP_Msk              (1UL << SCB_SCR_SLEEPDEEP_Pos)                 /*!< SCB 
 586:../../libDaisy/Drivers/CMSIS/Include/core_cm7.h **** 
 587:../../libDaisy/Drivers/CMSIS/Include/core_cm7.h **** #define SCB_SCR_SLEEPONEXIT_Pos             1U                                            /*!< SCB 
 588:../../libDaisy/Drivers/CMSIS/Include/core_cm7.h **** #define SCB_SCR_SLEEPONEXIT_Msk            (1UL << SCB_SCR_SLEEPONEXIT_Pos)               /*!< SCB 
 589:../../libDaisy/Drivers/CMSIS/Include/core_cm7.h **** 
 590:../../libDaisy/Drivers/CMSIS/Include/core_cm7.h **** /* SCB Configuration Control Register Definitions */
 591:../../libDaisy/Drivers/CMSIS/Include/core_cm7.h **** #define SCB_CCR_BP_Pos                      18U                                           /*!< SCB 
 592:../../libDaisy/Drivers/CMSIS/Include/core_cm7.h **** #define SCB_CCR_BP_Msk                     (1UL << SCB_CCR_BP_Pos)                        /*!< SCB 
 593:../../libDaisy/Drivers/CMSIS/Include/core_cm7.h **** 
 594:../../libDaisy/Drivers/CMSIS/Include/core_cm7.h **** #define SCB_CCR_IC_Pos                      17U                                           /*!< SCB 
ARM GAS  /tmp/ccUUe33m.s 			page 24


 595:../../libDaisy/Drivers/CMSIS/Include/core_cm7.h **** #define SCB_CCR_IC_Msk                     (1UL << SCB_CCR_IC_Pos)                        /*!< SCB 
 596:../../libDaisy/Drivers/CMSIS/Include/core_cm7.h **** 
 597:../../libDaisy/Drivers/CMSIS/Include/core_cm7.h **** #define SCB_CCR_DC_Pos                      16U                                           /*!< SCB 
 598:../../libDaisy/Drivers/CMSIS/Include/core_cm7.h **** #define SCB_CCR_DC_Msk                     (1UL << SCB_CCR_DC_Pos)                        /*!< SCB 
 599:../../libDaisy/Drivers/CMSIS/Include/core_cm7.h **** 
 600:../../libDaisy/Drivers/CMSIS/Include/core_cm7.h **** #define SCB_CCR_STKALIGN_Pos                9U                                            /*!< SCB 
 601:../../libDaisy/Drivers/CMSIS/Include/core_cm7.h **** #define SCB_CCR_STKALIGN_Msk               (1UL << SCB_CCR_STKALIGN_Pos)                  /*!< SCB 
 602:../../libDaisy/Drivers/CMSIS/Include/core_cm7.h **** 
 603:../../libDaisy/Drivers/CMSIS/Include/core_cm7.h **** #define SCB_CCR_BFHFNMIGN_Pos               8U                                            /*!< SCB 
 604:../../libDaisy/Drivers/CMSIS/Include/core_cm7.h **** #define SCB_CCR_BFHFNMIGN_Msk              (1UL << SCB_CCR_BFHFNMIGN_Pos)                 /*!< SCB 
 605:../../libDaisy/Drivers/CMSIS/Include/core_cm7.h **** 
 606:../../libDaisy/Drivers/CMSIS/Include/core_cm7.h **** #define SCB_CCR_DIV_0_TRP_Pos               4U                                            /*!< SCB 
 607:../../libDaisy/Drivers/CMSIS/Include/core_cm7.h **** #define SCB_CCR_DIV_0_TRP_Msk              (1UL << SCB_CCR_DIV_0_TRP_Pos)                 /*!< SCB 
 608:../../libDaisy/Drivers/CMSIS/Include/core_cm7.h **** 
 609:../../libDaisy/Drivers/CMSIS/Include/core_cm7.h **** #define SCB_CCR_UNALIGN_TRP_Pos             3U                                            /*!< SCB 
 610:../../libDaisy/Drivers/CMSIS/Include/core_cm7.h **** #define SCB_CCR_UNALIGN_TRP_Msk            (1UL << SCB_CCR_UNALIGN_TRP_Pos)               /*!< SCB 
 611:../../libDaisy/Drivers/CMSIS/Include/core_cm7.h **** 
 612:../../libDaisy/Drivers/CMSIS/Include/core_cm7.h **** #define SCB_CCR_USERSETMPEND_Pos            1U                                            /*!< SCB 
 613:../../libDaisy/Drivers/CMSIS/Include/core_cm7.h **** #define SCB_CCR_USERSETMPEND_Msk           (1UL << SCB_CCR_USERSETMPEND_Pos)              /*!< SCB 
 614:../../libDaisy/Drivers/CMSIS/Include/core_cm7.h **** 
 615:../../libDaisy/Drivers/CMSIS/Include/core_cm7.h **** #define SCB_CCR_NONBASETHRDENA_Pos          0U                                            /*!< SCB 
 616:../../libDaisy/Drivers/CMSIS/Include/core_cm7.h **** #define SCB_CCR_NONBASETHRDENA_Msk         (1UL /*<< SCB_CCR_NONBASETHRDENA_Pos*/)        /*!< SCB 
 617:../../libDaisy/Drivers/CMSIS/Include/core_cm7.h **** 
 618:../../libDaisy/Drivers/CMSIS/Include/core_cm7.h **** /* SCB System Handler Control and State Register Definitions */
 619:../../libDaisy/Drivers/CMSIS/Include/core_cm7.h **** #define SCB_SHCSR_USGFAULTENA_Pos          18U                                            /*!< SCB 
 620:../../libDaisy/Drivers/CMSIS/Include/core_cm7.h **** #define SCB_SHCSR_USGFAULTENA_Msk          (1UL << SCB_SHCSR_USGFAULTENA_Pos)             /*!< SCB 
 621:../../libDaisy/Drivers/CMSIS/Include/core_cm7.h **** 
 622:../../libDaisy/Drivers/CMSIS/Include/core_cm7.h **** #define SCB_SHCSR_BUSFAULTENA_Pos          17U                                            /*!< SCB 
 623:../../libDaisy/Drivers/CMSIS/Include/core_cm7.h **** #define SCB_SHCSR_BUSFAULTENA_Msk          (1UL << SCB_SHCSR_BUSFAULTENA_Pos)             /*!< SCB 
 624:../../libDaisy/Drivers/CMSIS/Include/core_cm7.h **** 
 625:../../libDaisy/Drivers/CMSIS/Include/core_cm7.h **** #define SCB_SHCSR_MEMFAULTENA_Pos          16U                                            /*!< SCB 
 626:../../libDaisy/Drivers/CMSIS/Include/core_cm7.h **** #define SCB_SHCSR_MEMFAULTENA_Msk          (1UL << SCB_SHCSR_MEMFAULTENA_Pos)             /*!< SCB 
 627:../../libDaisy/Drivers/CMSIS/Include/core_cm7.h **** 
 628:../../libDaisy/Drivers/CMSIS/Include/core_cm7.h **** #define SCB_SHCSR_SVCALLPENDED_Pos         15U                                            /*!< SCB 
 629:../../libDaisy/Drivers/CMSIS/Include/core_cm7.h **** #define SCB_SHCSR_SVCALLPENDED_Msk         (1UL << SCB_SHCSR_SVCALLPENDED_Pos)            /*!< SCB 
 630:../../libDaisy/Drivers/CMSIS/Include/core_cm7.h **** 
 631:../../libDaisy/Drivers/CMSIS/Include/core_cm7.h **** #define SCB_SHCSR_BUSFAULTPENDED_Pos       14U                                            /*!< SCB 
 632:../../libDaisy/Drivers/CMSIS/Include/core_cm7.h **** #define SCB_SHCSR_BUSFAULTPENDED_Msk       (1UL << SCB_SHCSR_BUSFAULTPENDED_Pos)          /*!< SCB 
 633:../../libDaisy/Drivers/CMSIS/Include/core_cm7.h **** 
 634:../../libDaisy/Drivers/CMSIS/Include/core_cm7.h **** #define SCB_SHCSR_MEMFAULTPENDED_Pos       13U                                            /*!< SCB 
 635:../../libDaisy/Drivers/CMSIS/Include/core_cm7.h **** #define SCB_SHCSR_MEMFAULTPENDED_Msk       (1UL << SCB_SHCSR_MEMFAULTPENDED_Pos)          /*!< SCB 
 636:../../libDaisy/Drivers/CMSIS/Include/core_cm7.h **** 
 637:../../libDaisy/Drivers/CMSIS/Include/core_cm7.h **** #define SCB_SHCSR_USGFAULTPENDED_Pos       12U                                            /*!< SCB 
 638:../../libDaisy/Drivers/CMSIS/Include/core_cm7.h **** #define SCB_SHCSR_USGFAULTPENDED_Msk       (1UL << SCB_SHCSR_USGFAULTPENDED_Pos)          /*!< SCB 
 639:../../libDaisy/Drivers/CMSIS/Include/core_cm7.h **** 
 640:../../libDaisy/Drivers/CMSIS/Include/core_cm7.h **** #define SCB_SHCSR_SYSTICKACT_Pos           11U                                            /*!< SCB 
 641:../../libDaisy/Drivers/CMSIS/Include/core_cm7.h **** #define SCB_SHCSR_SYSTICKACT_Msk           (1UL << SCB_SHCSR_SYSTICKACT_Pos)              /*!< SCB 
 642:../../libDaisy/Drivers/CMSIS/Include/core_cm7.h **** 
 643:../../libDaisy/Drivers/CMSIS/Include/core_cm7.h **** #define SCB_SHCSR_PENDSVACT_Pos            10U                                            /*!< SCB 
 644:../../libDaisy/Drivers/CMSIS/Include/core_cm7.h **** #define SCB_SHCSR_PENDSVACT_Msk            (1UL << SCB_SHCSR_PENDSVACT_Pos)               /*!< SCB 
 645:../../libDaisy/Drivers/CMSIS/Include/core_cm7.h **** 
 646:../../libDaisy/Drivers/CMSIS/Include/core_cm7.h **** #define SCB_SHCSR_MONITORACT_Pos            8U                                            /*!< SCB 
 647:../../libDaisy/Drivers/CMSIS/Include/core_cm7.h **** #define SCB_SHCSR_MONITORACT_Msk           (1UL << SCB_SHCSR_MONITORACT_Pos)              /*!< SCB 
 648:../../libDaisy/Drivers/CMSIS/Include/core_cm7.h **** 
 649:../../libDaisy/Drivers/CMSIS/Include/core_cm7.h **** #define SCB_SHCSR_SVCALLACT_Pos             7U                                            /*!< SCB 
 650:../../libDaisy/Drivers/CMSIS/Include/core_cm7.h **** #define SCB_SHCSR_SVCALLACT_Msk            (1UL << SCB_SHCSR_SVCALLACT_Pos)               /*!< SCB 
 651:../../libDaisy/Drivers/CMSIS/Include/core_cm7.h **** 
ARM GAS  /tmp/ccUUe33m.s 			page 25


 652:../../libDaisy/Drivers/CMSIS/Include/core_cm7.h **** #define SCB_SHCSR_USGFAULTACT_Pos           3U                                            /*!< SCB 
 653:../../libDaisy/Drivers/CMSIS/Include/core_cm7.h **** #define SCB_SHCSR_USGFAULTACT_Msk          (1UL << SCB_SHCSR_USGFAULTACT_Pos)             /*!< SCB 
 654:../../libDaisy/Drivers/CMSIS/Include/core_cm7.h **** 
 655:../../libDaisy/Drivers/CMSIS/Include/core_cm7.h **** #define SCB_SHCSR_BUSFAULTACT_Pos           1U                                            /*!< SCB 
 656:../../libDaisy/Drivers/CMSIS/Include/core_cm7.h **** #define SCB_SHCSR_BUSFAULTACT_Msk          (1UL << SCB_SHCSR_BUSFAULTACT_Pos)             /*!< SCB 
 657:../../libDaisy/Drivers/CMSIS/Include/core_cm7.h **** 
 658:../../libDaisy/Drivers/CMSIS/Include/core_cm7.h **** #define SCB_SHCSR_MEMFAULTACT_Pos           0U                                            /*!< SCB 
 659:../../libDaisy/Drivers/CMSIS/Include/core_cm7.h **** #define SCB_SHCSR_MEMFAULTACT_Msk          (1UL /*<< SCB_SHCSR_MEMFAULTACT_Pos*/)         /*!< SCB 
 660:../../libDaisy/Drivers/CMSIS/Include/core_cm7.h **** 
 661:../../libDaisy/Drivers/CMSIS/Include/core_cm7.h **** /* SCB Configurable Fault Status Register Definitions */
 662:../../libDaisy/Drivers/CMSIS/Include/core_cm7.h **** #define SCB_CFSR_USGFAULTSR_Pos            16U                                            /*!< SCB 
 663:../../libDaisy/Drivers/CMSIS/Include/core_cm7.h **** #define SCB_CFSR_USGFAULTSR_Msk            (0xFFFFUL << SCB_CFSR_USGFAULTSR_Pos)          /*!< SCB 
 664:../../libDaisy/Drivers/CMSIS/Include/core_cm7.h **** 
 665:../../libDaisy/Drivers/CMSIS/Include/core_cm7.h **** #define SCB_CFSR_BUSFAULTSR_Pos             8U                                            /*!< SCB 
 666:../../libDaisy/Drivers/CMSIS/Include/core_cm7.h **** #define SCB_CFSR_BUSFAULTSR_Msk            (0xFFUL << SCB_CFSR_BUSFAULTSR_Pos)            /*!< SCB 
 667:../../libDaisy/Drivers/CMSIS/Include/core_cm7.h **** 
 668:../../libDaisy/Drivers/CMSIS/Include/core_cm7.h **** #define SCB_CFSR_MEMFAULTSR_Pos             0U                                            /*!< SCB 
 669:../../libDaisy/Drivers/CMSIS/Include/core_cm7.h **** #define SCB_CFSR_MEMFAULTSR_Msk            (0xFFUL /*<< SCB_CFSR_MEMFAULTSR_Pos*/)        /*!< SCB 
 670:../../libDaisy/Drivers/CMSIS/Include/core_cm7.h **** 
 671:../../libDaisy/Drivers/CMSIS/Include/core_cm7.h **** /* MemManage Fault Status Register (part of SCB Configurable Fault Status Register) */
 672:../../libDaisy/Drivers/CMSIS/Include/core_cm7.h **** #define SCB_CFSR_MMARVALID_Pos             (SCB_SHCSR_MEMFAULTACT_Pos + 7U)               /*!< SCB 
 673:../../libDaisy/Drivers/CMSIS/Include/core_cm7.h **** #define SCB_CFSR_MMARVALID_Msk             (1UL << SCB_CFSR_MMARVALID_Pos)                /*!< SCB 
 674:../../libDaisy/Drivers/CMSIS/Include/core_cm7.h **** 
 675:../../libDaisy/Drivers/CMSIS/Include/core_cm7.h **** #define SCB_CFSR_MLSPERR_Pos               (SCB_SHCSR_MEMFAULTACT_Pos + 5U)               /*!< SCB 
 676:../../libDaisy/Drivers/CMSIS/Include/core_cm7.h **** #define SCB_CFSR_MLSPERR_Msk               (1UL << SCB_CFSR_MLSPERR_Pos)                  /*!< SCB 
 677:../../libDaisy/Drivers/CMSIS/Include/core_cm7.h **** 
 678:../../libDaisy/Drivers/CMSIS/Include/core_cm7.h **** #define SCB_CFSR_MSTKERR_Pos               (SCB_SHCSR_MEMFAULTACT_Pos + 4U)               /*!< SCB 
 679:../../libDaisy/Drivers/CMSIS/Include/core_cm7.h **** #define SCB_CFSR_MSTKERR_Msk               (1UL << SCB_CFSR_MSTKERR_Pos)                  /*!< SCB 
 680:../../libDaisy/Drivers/CMSIS/Include/core_cm7.h **** 
 681:../../libDaisy/Drivers/CMSIS/Include/core_cm7.h **** #define SCB_CFSR_MUNSTKERR_Pos             (SCB_SHCSR_MEMFAULTACT_Pos + 3U)               /*!< SCB 
 682:../../libDaisy/Drivers/CMSIS/Include/core_cm7.h **** #define SCB_CFSR_MUNSTKERR_Msk             (1UL << SCB_CFSR_MUNSTKERR_Pos)                /*!< SCB 
 683:../../libDaisy/Drivers/CMSIS/Include/core_cm7.h **** 
 684:../../libDaisy/Drivers/CMSIS/Include/core_cm7.h **** #define SCB_CFSR_DACCVIOL_Pos              (SCB_SHCSR_MEMFAULTACT_Pos + 1U)               /*!< SCB 
 685:../../libDaisy/Drivers/CMSIS/Include/core_cm7.h **** #define SCB_CFSR_DACCVIOL_Msk              (1UL << SCB_CFSR_DACCVIOL_Pos)                 /*!< SCB 
 686:../../libDaisy/Drivers/CMSIS/Include/core_cm7.h **** 
 687:../../libDaisy/Drivers/CMSIS/Include/core_cm7.h **** #define SCB_CFSR_IACCVIOL_Pos              (SCB_SHCSR_MEMFAULTACT_Pos + 0U)               /*!< SCB 
 688:../../libDaisy/Drivers/CMSIS/Include/core_cm7.h **** #define SCB_CFSR_IACCVIOL_Msk              (1UL /*<< SCB_CFSR_IACCVIOL_Pos*/)             /*!< SCB 
 689:../../libDaisy/Drivers/CMSIS/Include/core_cm7.h **** 
 690:../../libDaisy/Drivers/CMSIS/Include/core_cm7.h **** /* BusFault Status Register (part of SCB Configurable Fault Status Register) */
 691:../../libDaisy/Drivers/CMSIS/Include/core_cm7.h **** #define SCB_CFSR_BFARVALID_Pos            (SCB_CFSR_BUSFAULTSR_Pos + 7U)                  /*!< SCB 
 692:../../libDaisy/Drivers/CMSIS/Include/core_cm7.h **** #define SCB_CFSR_BFARVALID_Msk            (1UL << SCB_CFSR_BFARVALID_Pos)                 /*!< SCB 
 693:../../libDaisy/Drivers/CMSIS/Include/core_cm7.h **** 
 694:../../libDaisy/Drivers/CMSIS/Include/core_cm7.h **** #define SCB_CFSR_LSPERR_Pos               (SCB_CFSR_BUSFAULTSR_Pos + 5U)                  /*!< SCB 
 695:../../libDaisy/Drivers/CMSIS/Include/core_cm7.h **** #define SCB_CFSR_LSPERR_Msk               (1UL << SCB_CFSR_LSPERR_Pos)                    /*!< SCB 
 696:../../libDaisy/Drivers/CMSIS/Include/core_cm7.h **** 
 697:../../libDaisy/Drivers/CMSIS/Include/core_cm7.h **** #define SCB_CFSR_STKERR_Pos               (SCB_CFSR_BUSFAULTSR_Pos + 4U)                  /*!< SCB 
 698:../../libDaisy/Drivers/CMSIS/Include/core_cm7.h **** #define SCB_CFSR_STKERR_Msk               (1UL << SCB_CFSR_STKERR_Pos)                    /*!< SCB 
 699:../../libDaisy/Drivers/CMSIS/Include/core_cm7.h **** 
 700:../../libDaisy/Drivers/CMSIS/Include/core_cm7.h **** #define SCB_CFSR_UNSTKERR_Pos             (SCB_CFSR_BUSFAULTSR_Pos + 3U)                  /*!< SCB 
 701:../../libDaisy/Drivers/CMSIS/Include/core_cm7.h **** #define SCB_CFSR_UNSTKERR_Msk             (1UL << SCB_CFSR_UNSTKERR_Pos)                  /*!< SCB 
 702:../../libDaisy/Drivers/CMSIS/Include/core_cm7.h **** 
 703:../../libDaisy/Drivers/CMSIS/Include/core_cm7.h **** #define SCB_CFSR_IMPRECISERR_Pos          (SCB_CFSR_BUSFAULTSR_Pos + 2U)                  /*!< SCB 
 704:../../libDaisy/Drivers/CMSIS/Include/core_cm7.h **** #define SCB_CFSR_IMPRECISERR_Msk          (1UL << SCB_CFSR_IMPRECISERR_Pos)               /*!< SCB 
 705:../../libDaisy/Drivers/CMSIS/Include/core_cm7.h **** 
 706:../../libDaisy/Drivers/CMSIS/Include/core_cm7.h **** #define SCB_CFSR_PRECISERR_Pos            (SCB_CFSR_BUSFAULTSR_Pos + 1U)                  /*!< SCB 
 707:../../libDaisy/Drivers/CMSIS/Include/core_cm7.h **** #define SCB_CFSR_PRECISERR_Msk            (1UL << SCB_CFSR_PRECISERR_Pos)                 /*!< SCB 
 708:../../libDaisy/Drivers/CMSIS/Include/core_cm7.h **** 
ARM GAS  /tmp/ccUUe33m.s 			page 26


 709:../../libDaisy/Drivers/CMSIS/Include/core_cm7.h **** #define SCB_CFSR_IBUSERR_Pos              (SCB_CFSR_BUSFAULTSR_Pos + 0U)                  /*!< SCB 
 710:../../libDaisy/Drivers/CMSIS/Include/core_cm7.h **** #define SCB_CFSR_IBUSERR_Msk              (1UL << SCB_CFSR_IBUSERR_Pos)                   /*!< SCB 
 711:../../libDaisy/Drivers/CMSIS/Include/core_cm7.h **** 
 712:../../libDaisy/Drivers/CMSIS/Include/core_cm7.h **** /* UsageFault Status Register (part of SCB Configurable Fault Status Register) */
 713:../../libDaisy/Drivers/CMSIS/Include/core_cm7.h **** #define SCB_CFSR_DIVBYZERO_Pos            (SCB_CFSR_USGFAULTSR_Pos + 9U)                  /*!< SCB 
 714:../../libDaisy/Drivers/CMSIS/Include/core_cm7.h **** #define SCB_CFSR_DIVBYZERO_Msk            (1UL << SCB_CFSR_DIVBYZERO_Pos)                 /*!< SCB 
 715:../../libDaisy/Drivers/CMSIS/Include/core_cm7.h **** 
 716:../../libDaisy/Drivers/CMSIS/Include/core_cm7.h **** #define SCB_CFSR_UNALIGNED_Pos            (SCB_CFSR_USGFAULTSR_Pos + 8U)                  /*!< SCB 
 717:../../libDaisy/Drivers/CMSIS/Include/core_cm7.h **** #define SCB_CFSR_UNALIGNED_Msk            (1UL << SCB_CFSR_UNALIGNED_Pos)                 /*!< SCB 
 718:../../libDaisy/Drivers/CMSIS/Include/core_cm7.h **** 
 719:../../libDaisy/Drivers/CMSIS/Include/core_cm7.h **** #define SCB_CFSR_NOCP_Pos                 (SCB_CFSR_USGFAULTSR_Pos + 3U)                  /*!< SCB 
 720:../../libDaisy/Drivers/CMSIS/Include/core_cm7.h **** #define SCB_CFSR_NOCP_Msk                 (1UL << SCB_CFSR_NOCP_Pos)                      /*!< SCB 
 721:../../libDaisy/Drivers/CMSIS/Include/core_cm7.h **** 
 722:../../libDaisy/Drivers/CMSIS/Include/core_cm7.h **** #define SCB_CFSR_INVPC_Pos                (SCB_CFSR_USGFAULTSR_Pos + 2U)                  /*!< SCB 
 723:../../libDaisy/Drivers/CMSIS/Include/core_cm7.h **** #define SCB_CFSR_INVPC_Msk                (1UL << SCB_CFSR_INVPC_Pos)                     /*!< SCB 
 724:../../libDaisy/Drivers/CMSIS/Include/core_cm7.h **** 
 725:../../libDaisy/Drivers/CMSIS/Include/core_cm7.h **** #define SCB_CFSR_INVSTATE_Pos             (SCB_CFSR_USGFAULTSR_Pos + 1U)                  /*!< SCB 
 726:../../libDaisy/Drivers/CMSIS/Include/core_cm7.h **** #define SCB_CFSR_INVSTATE_Msk             (1UL << SCB_CFSR_INVSTATE_Pos)                  /*!< SCB 
 727:../../libDaisy/Drivers/CMSIS/Include/core_cm7.h **** 
 728:../../libDaisy/Drivers/CMSIS/Include/core_cm7.h **** #define SCB_CFSR_UNDEFINSTR_Pos           (SCB_CFSR_USGFAULTSR_Pos + 0U)                  /*!< SCB 
 729:../../libDaisy/Drivers/CMSIS/Include/core_cm7.h **** #define SCB_CFSR_UNDEFINSTR_Msk           (1UL << SCB_CFSR_UNDEFINSTR_Pos)                /*!< SCB 
 730:../../libDaisy/Drivers/CMSIS/Include/core_cm7.h **** 
 731:../../libDaisy/Drivers/CMSIS/Include/core_cm7.h **** /* SCB Hard Fault Status Register Definitions */
 732:../../libDaisy/Drivers/CMSIS/Include/core_cm7.h **** #define SCB_HFSR_DEBUGEVT_Pos              31U                                            /*!< SCB 
 733:../../libDaisy/Drivers/CMSIS/Include/core_cm7.h **** #define SCB_HFSR_DEBUGEVT_Msk              (1UL << SCB_HFSR_DEBUGEVT_Pos)                 /*!< SCB 
 734:../../libDaisy/Drivers/CMSIS/Include/core_cm7.h **** 
 735:../../libDaisy/Drivers/CMSIS/Include/core_cm7.h **** #define SCB_HFSR_FORCED_Pos                30U                                            /*!< SCB 
 736:../../libDaisy/Drivers/CMSIS/Include/core_cm7.h **** #define SCB_HFSR_FORCED_Msk                (1UL << SCB_HFSR_FORCED_Pos)                   /*!< SCB 
 737:../../libDaisy/Drivers/CMSIS/Include/core_cm7.h **** 
 738:../../libDaisy/Drivers/CMSIS/Include/core_cm7.h **** #define SCB_HFSR_VECTTBL_Pos                1U                                            /*!< SCB 
 739:../../libDaisy/Drivers/CMSIS/Include/core_cm7.h **** #define SCB_HFSR_VECTTBL_Msk               (1UL << SCB_HFSR_VECTTBL_Pos)                  /*!< SCB 
 740:../../libDaisy/Drivers/CMSIS/Include/core_cm7.h **** 
 741:../../libDaisy/Drivers/CMSIS/Include/core_cm7.h **** /* SCB Debug Fault Status Register Definitions */
 742:../../libDaisy/Drivers/CMSIS/Include/core_cm7.h **** #define SCB_DFSR_EXTERNAL_Pos               4U                                            /*!< SCB 
 743:../../libDaisy/Drivers/CMSIS/Include/core_cm7.h **** #define SCB_DFSR_EXTERNAL_Msk              (1UL << SCB_DFSR_EXTERNAL_Pos)                 /*!< SCB 
 744:../../libDaisy/Drivers/CMSIS/Include/core_cm7.h **** 
 745:../../libDaisy/Drivers/CMSIS/Include/core_cm7.h **** #define SCB_DFSR_VCATCH_Pos                 3U                                            /*!< SCB 
 746:../../libDaisy/Drivers/CMSIS/Include/core_cm7.h **** #define SCB_DFSR_VCATCH_Msk                (1UL << SCB_DFSR_VCATCH_Pos)                   /*!< SCB 
 747:../../libDaisy/Drivers/CMSIS/Include/core_cm7.h **** 
 748:../../libDaisy/Drivers/CMSIS/Include/core_cm7.h **** #define SCB_DFSR_DWTTRAP_Pos                2U                                            /*!< SCB 
 749:../../libDaisy/Drivers/CMSIS/Include/core_cm7.h **** #define SCB_DFSR_DWTTRAP_Msk               (1UL << SCB_DFSR_DWTTRAP_Pos)                  /*!< SCB 
 750:../../libDaisy/Drivers/CMSIS/Include/core_cm7.h **** 
 751:../../libDaisy/Drivers/CMSIS/Include/core_cm7.h **** #define SCB_DFSR_BKPT_Pos                   1U                                            /*!< SCB 
 752:../../libDaisy/Drivers/CMSIS/Include/core_cm7.h **** #define SCB_DFSR_BKPT_Msk                  (1UL << SCB_DFSR_BKPT_Pos)                     /*!< SCB 
 753:../../libDaisy/Drivers/CMSIS/Include/core_cm7.h **** 
 754:../../libDaisy/Drivers/CMSIS/Include/core_cm7.h **** #define SCB_DFSR_HALTED_Pos                 0U                                            /*!< SCB 
 755:../../libDaisy/Drivers/CMSIS/Include/core_cm7.h **** #define SCB_DFSR_HALTED_Msk                (1UL /*<< SCB_DFSR_HALTED_Pos*/)               /*!< SCB 
 756:../../libDaisy/Drivers/CMSIS/Include/core_cm7.h **** 
 757:../../libDaisy/Drivers/CMSIS/Include/core_cm7.h **** /* SCB Cache Level ID Register Definitions */
 758:../../libDaisy/Drivers/CMSIS/Include/core_cm7.h **** #define SCB_CLIDR_LOUU_Pos                 27U                                            /*!< SCB 
 759:../../libDaisy/Drivers/CMSIS/Include/core_cm7.h **** #define SCB_CLIDR_LOUU_Msk                 (7UL << SCB_CLIDR_LOUU_Pos)                    /*!< SCB 
 760:../../libDaisy/Drivers/CMSIS/Include/core_cm7.h **** 
 761:../../libDaisy/Drivers/CMSIS/Include/core_cm7.h **** #define SCB_CLIDR_LOC_Pos                  24U                                            /*!< SCB 
 762:../../libDaisy/Drivers/CMSIS/Include/core_cm7.h **** #define SCB_CLIDR_LOC_Msk                  (7UL << SCB_CLIDR_LOC_Pos)                     /*!< SCB 
 763:../../libDaisy/Drivers/CMSIS/Include/core_cm7.h **** 
 764:../../libDaisy/Drivers/CMSIS/Include/core_cm7.h **** /* SCB Cache Type Register Definitions */
 765:../../libDaisy/Drivers/CMSIS/Include/core_cm7.h **** #define SCB_CTR_FORMAT_Pos                 29U                                            /*!< SCB 
ARM GAS  /tmp/ccUUe33m.s 			page 27


 766:../../libDaisy/Drivers/CMSIS/Include/core_cm7.h **** #define SCB_CTR_FORMAT_Msk                 (7UL << SCB_CTR_FORMAT_Pos)                    /*!< SCB 
 767:../../libDaisy/Drivers/CMSIS/Include/core_cm7.h **** 
 768:../../libDaisy/Drivers/CMSIS/Include/core_cm7.h **** #define SCB_CTR_CWG_Pos                    24U                                            /*!< SCB 
 769:../../libDaisy/Drivers/CMSIS/Include/core_cm7.h **** #define SCB_CTR_CWG_Msk                    (0xFUL << SCB_CTR_CWG_Pos)                     /*!< SCB 
 770:../../libDaisy/Drivers/CMSIS/Include/core_cm7.h **** 
 771:../../libDaisy/Drivers/CMSIS/Include/core_cm7.h **** #define SCB_CTR_ERG_Pos                    20U                                            /*!< SCB 
 772:../../libDaisy/Drivers/CMSIS/Include/core_cm7.h **** #define SCB_CTR_ERG_Msk                    (0xFUL << SCB_CTR_ERG_Pos)                     /*!< SCB 
 773:../../libDaisy/Drivers/CMSIS/Include/core_cm7.h **** 
 774:../../libDaisy/Drivers/CMSIS/Include/core_cm7.h **** #define SCB_CTR_DMINLINE_Pos               16U                                            /*!< SCB 
 775:../../libDaisy/Drivers/CMSIS/Include/core_cm7.h **** #define SCB_CTR_DMINLINE_Msk               (0xFUL << SCB_CTR_DMINLINE_Pos)                /*!< SCB 
 776:../../libDaisy/Drivers/CMSIS/Include/core_cm7.h **** 
 777:../../libDaisy/Drivers/CMSIS/Include/core_cm7.h **** #define SCB_CTR_IMINLINE_Pos                0U                                            /*!< SCB 
 778:../../libDaisy/Drivers/CMSIS/Include/core_cm7.h **** #define SCB_CTR_IMINLINE_Msk               (0xFUL /*<< SCB_CTR_IMINLINE_Pos*/)            /*!< SCB 
 779:../../libDaisy/Drivers/CMSIS/Include/core_cm7.h **** 
 780:../../libDaisy/Drivers/CMSIS/Include/core_cm7.h **** /* SCB Cache Size ID Register Definitions */
 781:../../libDaisy/Drivers/CMSIS/Include/core_cm7.h **** #define SCB_CCSIDR_WT_Pos                  31U                                            /*!< SCB 
 782:../../libDaisy/Drivers/CMSIS/Include/core_cm7.h **** #define SCB_CCSIDR_WT_Msk                  (1UL << SCB_CCSIDR_WT_Pos)                     /*!< SCB 
 783:../../libDaisy/Drivers/CMSIS/Include/core_cm7.h **** 
 784:../../libDaisy/Drivers/CMSIS/Include/core_cm7.h **** #define SCB_CCSIDR_WB_Pos                  30U                                            /*!< SCB 
 785:../../libDaisy/Drivers/CMSIS/Include/core_cm7.h **** #define SCB_CCSIDR_WB_Msk                  (1UL << SCB_CCSIDR_WB_Pos)                     /*!< SCB 
 786:../../libDaisy/Drivers/CMSIS/Include/core_cm7.h **** 
 787:../../libDaisy/Drivers/CMSIS/Include/core_cm7.h **** #define SCB_CCSIDR_RA_Pos                  29U                                            /*!< SCB 
 788:../../libDaisy/Drivers/CMSIS/Include/core_cm7.h **** #define SCB_CCSIDR_RA_Msk                  (1UL << SCB_CCSIDR_RA_Pos)                     /*!< SCB 
 789:../../libDaisy/Drivers/CMSIS/Include/core_cm7.h **** 
 790:../../libDaisy/Drivers/CMSIS/Include/core_cm7.h **** #define SCB_CCSIDR_WA_Pos                  28U                                            /*!< SCB 
 791:../../libDaisy/Drivers/CMSIS/Include/core_cm7.h **** #define SCB_CCSIDR_WA_Msk                  (1UL << SCB_CCSIDR_WA_Pos)                     /*!< SCB 
 792:../../libDaisy/Drivers/CMSIS/Include/core_cm7.h **** 
 793:../../libDaisy/Drivers/CMSIS/Include/core_cm7.h **** #define SCB_CCSIDR_NUMSETS_Pos             13U                                            /*!< SCB 
 794:../../libDaisy/Drivers/CMSIS/Include/core_cm7.h **** #define SCB_CCSIDR_NUMSETS_Msk             (0x7FFFUL << SCB_CCSIDR_NUMSETS_Pos)           /*!< SCB 
 795:../../libDaisy/Drivers/CMSIS/Include/core_cm7.h **** 
 796:../../libDaisy/Drivers/CMSIS/Include/core_cm7.h **** #define SCB_CCSIDR_ASSOCIATIVITY_Pos        3U                                            /*!< SCB 
 797:../../libDaisy/Drivers/CMSIS/Include/core_cm7.h **** #define SCB_CCSIDR_ASSOCIATIVITY_Msk       (0x3FFUL << SCB_CCSIDR_ASSOCIATIVITY_Pos)      /*!< SCB 
 798:../../libDaisy/Drivers/CMSIS/Include/core_cm7.h **** 
 799:../../libDaisy/Drivers/CMSIS/Include/core_cm7.h **** #define SCB_CCSIDR_LINESIZE_Pos             0U                                            /*!< SCB 
 800:../../libDaisy/Drivers/CMSIS/Include/core_cm7.h **** #define SCB_CCSIDR_LINESIZE_Msk            (7UL /*<< SCB_CCSIDR_LINESIZE_Pos*/)           /*!< SCB 
 801:../../libDaisy/Drivers/CMSIS/Include/core_cm7.h **** 
 802:../../libDaisy/Drivers/CMSIS/Include/core_cm7.h **** /* SCB Cache Size Selection Register Definitions */
 803:../../libDaisy/Drivers/CMSIS/Include/core_cm7.h **** #define SCB_CSSELR_LEVEL_Pos                1U                                            /*!< SCB 
 804:../../libDaisy/Drivers/CMSIS/Include/core_cm7.h **** #define SCB_CSSELR_LEVEL_Msk               (7UL << SCB_CSSELR_LEVEL_Pos)                  /*!< SCB 
 805:../../libDaisy/Drivers/CMSIS/Include/core_cm7.h **** 
 806:../../libDaisy/Drivers/CMSIS/Include/core_cm7.h **** #define SCB_CSSELR_IND_Pos                  0U                                            /*!< SCB 
 807:../../libDaisy/Drivers/CMSIS/Include/core_cm7.h **** #define SCB_CSSELR_IND_Msk                 (1UL /*<< SCB_CSSELR_IND_Pos*/)                /*!< SCB 
 808:../../libDaisy/Drivers/CMSIS/Include/core_cm7.h **** 
 809:../../libDaisy/Drivers/CMSIS/Include/core_cm7.h **** /* SCB Software Triggered Interrupt Register Definitions */
 810:../../libDaisy/Drivers/CMSIS/Include/core_cm7.h **** #define SCB_STIR_INTID_Pos                  0U                                            /*!< SCB 
 811:../../libDaisy/Drivers/CMSIS/Include/core_cm7.h **** #define SCB_STIR_INTID_Msk                 (0x1FFUL /*<< SCB_STIR_INTID_Pos*/)            /*!< SCB 
 812:../../libDaisy/Drivers/CMSIS/Include/core_cm7.h **** 
 813:../../libDaisy/Drivers/CMSIS/Include/core_cm7.h **** /* SCB D-Cache Invalidate by Set-way Register Definitions */
 814:../../libDaisy/Drivers/CMSIS/Include/core_cm7.h **** #define SCB_DCISW_WAY_Pos                  30U                                            /*!< SCB 
 815:../../libDaisy/Drivers/CMSIS/Include/core_cm7.h **** #define SCB_DCISW_WAY_Msk                  (3UL << SCB_DCISW_WAY_Pos)                     /*!< SCB 
 816:../../libDaisy/Drivers/CMSIS/Include/core_cm7.h **** 
 817:../../libDaisy/Drivers/CMSIS/Include/core_cm7.h **** #define SCB_DCISW_SET_Pos                   5U                                            /*!< SCB 
 818:../../libDaisy/Drivers/CMSIS/Include/core_cm7.h **** #define SCB_DCISW_SET_Msk                  (0x1FFUL << SCB_DCISW_SET_Pos)                 /*!< SCB 
 819:../../libDaisy/Drivers/CMSIS/Include/core_cm7.h **** 
 820:../../libDaisy/Drivers/CMSIS/Include/core_cm7.h **** /* SCB D-Cache Clean by Set-way Register Definitions */
 821:../../libDaisy/Drivers/CMSIS/Include/core_cm7.h **** #define SCB_DCCSW_WAY_Pos                  30U                                            /*!< SCB 
 822:../../libDaisy/Drivers/CMSIS/Include/core_cm7.h **** #define SCB_DCCSW_WAY_Msk                  (3UL << SCB_DCCSW_WAY_Pos)                     /*!< SCB 
ARM GAS  /tmp/ccUUe33m.s 			page 28


 823:../../libDaisy/Drivers/CMSIS/Include/core_cm7.h **** 
 824:../../libDaisy/Drivers/CMSIS/Include/core_cm7.h **** #define SCB_DCCSW_SET_Pos                   5U                                            /*!< SCB 
 825:../../libDaisy/Drivers/CMSIS/Include/core_cm7.h **** #define SCB_DCCSW_SET_Msk                  (0x1FFUL << SCB_DCCSW_SET_Pos)                 /*!< SCB 
 826:../../libDaisy/Drivers/CMSIS/Include/core_cm7.h **** 
 827:../../libDaisy/Drivers/CMSIS/Include/core_cm7.h **** /* SCB D-Cache Clean and Invalidate by Set-way Register Definitions */
 828:../../libDaisy/Drivers/CMSIS/Include/core_cm7.h **** #define SCB_DCCISW_WAY_Pos                 30U                                            /*!< SCB 
 829:../../libDaisy/Drivers/CMSIS/Include/core_cm7.h **** #define SCB_DCCISW_WAY_Msk                 (3UL << SCB_DCCISW_WAY_Pos)                    /*!< SCB 
 830:../../libDaisy/Drivers/CMSIS/Include/core_cm7.h **** 
 831:../../libDaisy/Drivers/CMSIS/Include/core_cm7.h **** #define SCB_DCCISW_SET_Pos                  5U                                            /*!< SCB 
 832:../../libDaisy/Drivers/CMSIS/Include/core_cm7.h **** #define SCB_DCCISW_SET_Msk                 (0x1FFUL << SCB_DCCISW_SET_Pos)                /*!< SCB 
 833:../../libDaisy/Drivers/CMSIS/Include/core_cm7.h **** 
 834:../../libDaisy/Drivers/CMSIS/Include/core_cm7.h **** /* Instruction Tightly-Coupled Memory Control Register Definitions */
 835:../../libDaisy/Drivers/CMSIS/Include/core_cm7.h **** #define SCB_ITCMCR_SZ_Pos                   3U                                            /*!< SCB 
 836:../../libDaisy/Drivers/CMSIS/Include/core_cm7.h **** #define SCB_ITCMCR_SZ_Msk                  (0xFUL << SCB_ITCMCR_SZ_Pos)                   /*!< SCB 
 837:../../libDaisy/Drivers/CMSIS/Include/core_cm7.h **** 
 838:../../libDaisy/Drivers/CMSIS/Include/core_cm7.h **** #define SCB_ITCMCR_RETEN_Pos                2U                                            /*!< SCB 
 839:../../libDaisy/Drivers/CMSIS/Include/core_cm7.h **** #define SCB_ITCMCR_RETEN_Msk               (1UL << SCB_ITCMCR_RETEN_Pos)                  /*!< SCB 
 840:../../libDaisy/Drivers/CMSIS/Include/core_cm7.h **** 
 841:../../libDaisy/Drivers/CMSIS/Include/core_cm7.h **** #define SCB_ITCMCR_RMW_Pos                  1U                                            /*!< SCB 
 842:../../libDaisy/Drivers/CMSIS/Include/core_cm7.h **** #define SCB_ITCMCR_RMW_Msk                 (1UL << SCB_ITCMCR_RMW_Pos)                    /*!< SCB 
 843:../../libDaisy/Drivers/CMSIS/Include/core_cm7.h **** 
 844:../../libDaisy/Drivers/CMSIS/Include/core_cm7.h **** #define SCB_ITCMCR_EN_Pos                   0U                                            /*!< SCB 
 845:../../libDaisy/Drivers/CMSIS/Include/core_cm7.h **** #define SCB_ITCMCR_EN_Msk                  (1UL /*<< SCB_ITCMCR_EN_Pos*/)                 /*!< SCB 
 846:../../libDaisy/Drivers/CMSIS/Include/core_cm7.h **** 
 847:../../libDaisy/Drivers/CMSIS/Include/core_cm7.h **** /* Data Tightly-Coupled Memory Control Register Definitions */
 848:../../libDaisy/Drivers/CMSIS/Include/core_cm7.h **** #define SCB_DTCMCR_SZ_Pos                   3U                                            /*!< SCB 
 849:../../libDaisy/Drivers/CMSIS/Include/core_cm7.h **** #define SCB_DTCMCR_SZ_Msk                  (0xFUL << SCB_DTCMCR_SZ_Pos)                   /*!< SCB 
 850:../../libDaisy/Drivers/CMSIS/Include/core_cm7.h **** 
 851:../../libDaisy/Drivers/CMSIS/Include/core_cm7.h **** #define SCB_DTCMCR_RETEN_Pos                2U                                            /*!< SCB 
 852:../../libDaisy/Drivers/CMSIS/Include/core_cm7.h **** #define SCB_DTCMCR_RETEN_Msk               (1UL << SCB_DTCMCR_RETEN_Pos)                   /*!< SCB
 853:../../libDaisy/Drivers/CMSIS/Include/core_cm7.h **** 
 854:../../libDaisy/Drivers/CMSIS/Include/core_cm7.h **** #define SCB_DTCMCR_RMW_Pos                  1U                                            /*!< SCB 
 855:../../libDaisy/Drivers/CMSIS/Include/core_cm7.h **** #define SCB_DTCMCR_RMW_Msk                 (1UL << SCB_DTCMCR_RMW_Pos)                    /*!< SCB 
 856:../../libDaisy/Drivers/CMSIS/Include/core_cm7.h **** 
 857:../../libDaisy/Drivers/CMSIS/Include/core_cm7.h **** #define SCB_DTCMCR_EN_Pos                   0U                                            /*!< SCB 
 858:../../libDaisy/Drivers/CMSIS/Include/core_cm7.h **** #define SCB_DTCMCR_EN_Msk                  (1UL /*<< SCB_DTCMCR_EN_Pos*/)                 /*!< SCB 
 859:../../libDaisy/Drivers/CMSIS/Include/core_cm7.h **** 
 860:../../libDaisy/Drivers/CMSIS/Include/core_cm7.h **** /* AHBP Control Register Definitions */
 861:../../libDaisy/Drivers/CMSIS/Include/core_cm7.h **** #define SCB_AHBPCR_SZ_Pos                   1U                                            /*!< SCB 
 862:../../libDaisy/Drivers/CMSIS/Include/core_cm7.h **** #define SCB_AHBPCR_SZ_Msk                  (7UL << SCB_AHBPCR_SZ_Pos)                     /*!< SCB 
 863:../../libDaisy/Drivers/CMSIS/Include/core_cm7.h **** 
 864:../../libDaisy/Drivers/CMSIS/Include/core_cm7.h **** #define SCB_AHBPCR_EN_Pos                   0U                                            /*!< SCB 
 865:../../libDaisy/Drivers/CMSIS/Include/core_cm7.h **** #define SCB_AHBPCR_EN_Msk                  (1UL /*<< SCB_AHBPCR_EN_Pos*/)                 /*!< SCB 
 866:../../libDaisy/Drivers/CMSIS/Include/core_cm7.h **** 
 867:../../libDaisy/Drivers/CMSIS/Include/core_cm7.h **** /* L1 Cache Control Register Definitions */
 868:../../libDaisy/Drivers/CMSIS/Include/core_cm7.h **** #define SCB_CACR_FORCEWT_Pos                2U                                            /*!< SCB 
 869:../../libDaisy/Drivers/CMSIS/Include/core_cm7.h **** #define SCB_CACR_FORCEWT_Msk               (1UL << SCB_CACR_FORCEWT_Pos)                  /*!< SCB 
 870:../../libDaisy/Drivers/CMSIS/Include/core_cm7.h **** 
 871:../../libDaisy/Drivers/CMSIS/Include/core_cm7.h **** #define SCB_CACR_ECCEN_Pos                  1U                                            /*!< SCB 
 872:../../libDaisy/Drivers/CMSIS/Include/core_cm7.h **** #define SCB_CACR_ECCEN_Msk                 (1UL << SCB_CACR_ECCEN_Pos)                    /*!< SCB 
 873:../../libDaisy/Drivers/CMSIS/Include/core_cm7.h **** 
 874:../../libDaisy/Drivers/CMSIS/Include/core_cm7.h **** #define SCB_CACR_SIWT_Pos                   0U                                            /*!< SCB 
 875:../../libDaisy/Drivers/CMSIS/Include/core_cm7.h **** #define SCB_CACR_SIWT_Msk                  (1UL /*<< SCB_CACR_SIWT_Pos*/)                 /*!< SCB 
 876:../../libDaisy/Drivers/CMSIS/Include/core_cm7.h **** 
 877:../../libDaisy/Drivers/CMSIS/Include/core_cm7.h **** /* AHBS Control Register Definitions */
 878:../../libDaisy/Drivers/CMSIS/Include/core_cm7.h **** #define SCB_AHBSCR_INITCOUNT_Pos           11U                                            /*!< SCB 
 879:../../libDaisy/Drivers/CMSIS/Include/core_cm7.h **** #define SCB_AHBSCR_INITCOUNT_Msk           (0x1FUL << SCB_AHBPCR_INITCOUNT_Pos)           /*!< SCB 
ARM GAS  /tmp/ccUUe33m.s 			page 29


 880:../../libDaisy/Drivers/CMSIS/Include/core_cm7.h **** 
 881:../../libDaisy/Drivers/CMSIS/Include/core_cm7.h **** #define SCB_AHBSCR_TPRI_Pos                 2U                                            /*!< SCB 
 882:../../libDaisy/Drivers/CMSIS/Include/core_cm7.h **** #define SCB_AHBSCR_TPRI_Msk                (0x1FFUL << SCB_AHBPCR_TPRI_Pos)               /*!< SCB 
 883:../../libDaisy/Drivers/CMSIS/Include/core_cm7.h **** 
 884:../../libDaisy/Drivers/CMSIS/Include/core_cm7.h **** #define SCB_AHBSCR_CTL_Pos                  0U                                            /*!< SCB 
 885:../../libDaisy/Drivers/CMSIS/Include/core_cm7.h **** #define SCB_AHBSCR_CTL_Msk                 (3UL /*<< SCB_AHBPCR_CTL_Pos*/)                /*!< SCB 
 886:../../libDaisy/Drivers/CMSIS/Include/core_cm7.h **** 
 887:../../libDaisy/Drivers/CMSIS/Include/core_cm7.h **** /* Auxiliary Bus Fault Status Register Definitions */
 888:../../libDaisy/Drivers/CMSIS/Include/core_cm7.h **** #define SCB_ABFSR_AXIMTYPE_Pos              8U                                            /*!< SCB 
 889:../../libDaisy/Drivers/CMSIS/Include/core_cm7.h **** #define SCB_ABFSR_AXIMTYPE_Msk             (3UL << SCB_ABFSR_AXIMTYPE_Pos)                /*!< SCB 
 890:../../libDaisy/Drivers/CMSIS/Include/core_cm7.h **** 
 891:../../libDaisy/Drivers/CMSIS/Include/core_cm7.h **** #define SCB_ABFSR_EPPB_Pos                  4U                                            /*!< SCB 
 892:../../libDaisy/Drivers/CMSIS/Include/core_cm7.h **** #define SCB_ABFSR_EPPB_Msk                 (1UL << SCB_ABFSR_EPPB_Pos)                    /*!< SCB 
 893:../../libDaisy/Drivers/CMSIS/Include/core_cm7.h **** 
 894:../../libDaisy/Drivers/CMSIS/Include/core_cm7.h **** #define SCB_ABFSR_AXIM_Pos                  3U                                            /*!< SCB 
 895:../../libDaisy/Drivers/CMSIS/Include/core_cm7.h **** #define SCB_ABFSR_AXIM_Msk                 (1UL << SCB_ABFSR_AXIM_Pos)                    /*!< SCB 
 896:../../libDaisy/Drivers/CMSIS/Include/core_cm7.h **** 
 897:../../libDaisy/Drivers/CMSIS/Include/core_cm7.h **** #define SCB_ABFSR_AHBP_Pos                  2U                                            /*!< SCB 
 898:../../libDaisy/Drivers/CMSIS/Include/core_cm7.h **** #define SCB_ABFSR_AHBP_Msk                 (1UL << SCB_ABFSR_AHBP_Pos)                    /*!< SCB 
 899:../../libDaisy/Drivers/CMSIS/Include/core_cm7.h **** 
 900:../../libDaisy/Drivers/CMSIS/Include/core_cm7.h **** #define SCB_ABFSR_DTCM_Pos                  1U                                            /*!< SCB 
 901:../../libDaisy/Drivers/CMSIS/Include/core_cm7.h **** #define SCB_ABFSR_DTCM_Msk                 (1UL << SCB_ABFSR_DTCM_Pos)                    /*!< SCB 
 902:../../libDaisy/Drivers/CMSIS/Include/core_cm7.h **** 
 903:../../libDaisy/Drivers/CMSIS/Include/core_cm7.h **** #define SCB_ABFSR_ITCM_Pos                  0U                                            /*!< SCB 
 904:../../libDaisy/Drivers/CMSIS/Include/core_cm7.h **** #define SCB_ABFSR_ITCM_Msk                 (1UL /*<< SCB_ABFSR_ITCM_Pos*/)                /*!< SCB 
 905:../../libDaisy/Drivers/CMSIS/Include/core_cm7.h **** 
 906:../../libDaisy/Drivers/CMSIS/Include/core_cm7.h **** /*@} end of group CMSIS_SCB */
 907:../../libDaisy/Drivers/CMSIS/Include/core_cm7.h **** 
 908:../../libDaisy/Drivers/CMSIS/Include/core_cm7.h **** 
 909:../../libDaisy/Drivers/CMSIS/Include/core_cm7.h **** /**
 910:../../libDaisy/Drivers/CMSIS/Include/core_cm7.h ****   \ingroup  CMSIS_core_register
 911:../../libDaisy/Drivers/CMSIS/Include/core_cm7.h ****   \defgroup CMSIS_SCnSCB System Controls not in SCB (SCnSCB)
 912:../../libDaisy/Drivers/CMSIS/Include/core_cm7.h ****   \brief    Type definitions for the System Control and ID Register not in the SCB
 913:../../libDaisy/Drivers/CMSIS/Include/core_cm7.h ****   @{
 914:../../libDaisy/Drivers/CMSIS/Include/core_cm7.h ****  */
 915:../../libDaisy/Drivers/CMSIS/Include/core_cm7.h **** 
 916:../../libDaisy/Drivers/CMSIS/Include/core_cm7.h **** /**
 917:../../libDaisy/Drivers/CMSIS/Include/core_cm7.h ****   \brief  Structure type to access the System Control and ID Register not in the SCB.
 918:../../libDaisy/Drivers/CMSIS/Include/core_cm7.h ****  */
 919:../../libDaisy/Drivers/CMSIS/Include/core_cm7.h **** typedef struct
 920:../../libDaisy/Drivers/CMSIS/Include/core_cm7.h **** {
 921:../../libDaisy/Drivers/CMSIS/Include/core_cm7.h ****         uint32_t RESERVED0[1U];
 922:../../libDaisy/Drivers/CMSIS/Include/core_cm7.h ****   __IM  uint32_t ICTR;                   /*!< Offset: 0x004 (R/ )  Interrupt Controller Type Regist
 923:../../libDaisy/Drivers/CMSIS/Include/core_cm7.h ****   __IOM uint32_t ACTLR;                  /*!< Offset: 0x008 (R/W)  Auxiliary Control Register */
 924:../../libDaisy/Drivers/CMSIS/Include/core_cm7.h **** } SCnSCB_Type;
 925:../../libDaisy/Drivers/CMSIS/Include/core_cm7.h **** 
 926:../../libDaisy/Drivers/CMSIS/Include/core_cm7.h **** /* Interrupt Controller Type Register Definitions */
 927:../../libDaisy/Drivers/CMSIS/Include/core_cm7.h **** #define SCnSCB_ICTR_INTLINESNUM_Pos         0U                                         /*!< ICTR: I
 928:../../libDaisy/Drivers/CMSIS/Include/core_cm7.h **** #define SCnSCB_ICTR_INTLINESNUM_Msk        (0xFUL /*<< SCnSCB_ICTR_INTLINESNUM_Pos*/)  /*!< ICTR: I
 929:../../libDaisy/Drivers/CMSIS/Include/core_cm7.h **** 
 930:../../libDaisy/Drivers/CMSIS/Include/core_cm7.h **** /* Auxiliary Control Register Definitions */
 931:../../libDaisy/Drivers/CMSIS/Include/core_cm7.h **** #define SCnSCB_ACTLR_DISITMATBFLUSH_Pos    12U                                         /*!< ACTLR: 
 932:../../libDaisy/Drivers/CMSIS/Include/core_cm7.h **** #define SCnSCB_ACTLR_DISITMATBFLUSH_Msk    (1UL << SCnSCB_ACTLR_DISITMATBFLUSH_Pos)    /*!< ACTLR: 
 933:../../libDaisy/Drivers/CMSIS/Include/core_cm7.h **** 
 934:../../libDaisy/Drivers/CMSIS/Include/core_cm7.h **** #define SCnSCB_ACTLR_DISRAMODE_Pos         11U                                         /*!< ACTLR: 
 935:../../libDaisy/Drivers/CMSIS/Include/core_cm7.h **** #define SCnSCB_ACTLR_DISRAMODE_Msk         (1UL << SCnSCB_ACTLR_DISRAMODE_Pos)         /*!< ACTLR: 
 936:../../libDaisy/Drivers/CMSIS/Include/core_cm7.h **** 
ARM GAS  /tmp/ccUUe33m.s 			page 30


 937:../../libDaisy/Drivers/CMSIS/Include/core_cm7.h **** #define SCnSCB_ACTLR_FPEXCODIS_Pos         10U                                         /*!< ACTLR: 
 938:../../libDaisy/Drivers/CMSIS/Include/core_cm7.h **** #define SCnSCB_ACTLR_FPEXCODIS_Msk         (1UL << SCnSCB_ACTLR_FPEXCODIS_Pos)         /*!< ACTLR: 
 939:../../libDaisy/Drivers/CMSIS/Include/core_cm7.h **** 
 940:../../libDaisy/Drivers/CMSIS/Include/core_cm7.h **** #define SCnSCB_ACTLR_DISFOLD_Pos            2U                                         /*!< ACTLR: 
 941:../../libDaisy/Drivers/CMSIS/Include/core_cm7.h **** #define SCnSCB_ACTLR_DISFOLD_Msk           (1UL << SCnSCB_ACTLR_DISFOLD_Pos)           /*!< ACTLR: 
 942:../../libDaisy/Drivers/CMSIS/Include/core_cm7.h **** 
 943:../../libDaisy/Drivers/CMSIS/Include/core_cm7.h **** #define SCnSCB_ACTLR_DISMCYCINT_Pos         0U                                         /*!< ACTLR: 
 944:../../libDaisy/Drivers/CMSIS/Include/core_cm7.h **** #define SCnSCB_ACTLR_DISMCYCINT_Msk        (1UL /*<< SCnSCB_ACTLR_DISMCYCINT_Pos*/)    /*!< ACTLR: 
 945:../../libDaisy/Drivers/CMSIS/Include/core_cm7.h **** 
 946:../../libDaisy/Drivers/CMSIS/Include/core_cm7.h **** /*@} end of group CMSIS_SCnotSCB */
 947:../../libDaisy/Drivers/CMSIS/Include/core_cm7.h **** 
 948:../../libDaisy/Drivers/CMSIS/Include/core_cm7.h **** 
 949:../../libDaisy/Drivers/CMSIS/Include/core_cm7.h **** /**
 950:../../libDaisy/Drivers/CMSIS/Include/core_cm7.h ****   \ingroup  CMSIS_core_register
 951:../../libDaisy/Drivers/CMSIS/Include/core_cm7.h ****   \defgroup CMSIS_SysTick     System Tick Timer (SysTick)
 952:../../libDaisy/Drivers/CMSIS/Include/core_cm7.h ****   \brief    Type definitions for the System Timer Registers.
 953:../../libDaisy/Drivers/CMSIS/Include/core_cm7.h ****   @{
 954:../../libDaisy/Drivers/CMSIS/Include/core_cm7.h ****  */
 955:../../libDaisy/Drivers/CMSIS/Include/core_cm7.h **** 
 956:../../libDaisy/Drivers/CMSIS/Include/core_cm7.h **** /**
 957:../../libDaisy/Drivers/CMSIS/Include/core_cm7.h ****   \brief  Structure type to access the System Timer (SysTick).
 958:../../libDaisy/Drivers/CMSIS/Include/core_cm7.h ****  */
 959:../../libDaisy/Drivers/CMSIS/Include/core_cm7.h **** typedef struct
 960:../../libDaisy/Drivers/CMSIS/Include/core_cm7.h **** {
 961:../../libDaisy/Drivers/CMSIS/Include/core_cm7.h ****   __IOM uint32_t CTRL;                   /*!< Offset: 0x000 (R/W)  SysTick Control and Status Regis
 962:../../libDaisy/Drivers/CMSIS/Include/core_cm7.h ****   __IOM uint32_t LOAD;                   /*!< Offset: 0x004 (R/W)  SysTick Reload Value Register */
 963:../../libDaisy/Drivers/CMSIS/Include/core_cm7.h ****   __IOM uint32_t VAL;                    /*!< Offset: 0x008 (R/W)  SysTick Current Value Register *
 964:../../libDaisy/Drivers/CMSIS/Include/core_cm7.h ****   __IM  uint32_t CALIB;                  /*!< Offset: 0x00C (R/ )  SysTick Calibration Register */
 965:../../libDaisy/Drivers/CMSIS/Include/core_cm7.h **** } SysTick_Type;
 966:../../libDaisy/Drivers/CMSIS/Include/core_cm7.h **** 
 967:../../libDaisy/Drivers/CMSIS/Include/core_cm7.h **** /* SysTick Control / Status Register Definitions */
 968:../../libDaisy/Drivers/CMSIS/Include/core_cm7.h **** #define SysTick_CTRL_COUNTFLAG_Pos         16U                                            /*!< SysT
 969:../../libDaisy/Drivers/CMSIS/Include/core_cm7.h **** #define SysTick_CTRL_COUNTFLAG_Msk         (1UL << SysTick_CTRL_COUNTFLAG_Pos)            /*!< SysT
 970:../../libDaisy/Drivers/CMSIS/Include/core_cm7.h **** 
 971:../../libDaisy/Drivers/CMSIS/Include/core_cm7.h **** #define SysTick_CTRL_CLKSOURCE_Pos          2U                                            /*!< SysT
 972:../../libDaisy/Drivers/CMSIS/Include/core_cm7.h **** #define SysTick_CTRL_CLKSOURCE_Msk         (1UL << SysTick_CTRL_CLKSOURCE_Pos)            /*!< SysT
 973:../../libDaisy/Drivers/CMSIS/Include/core_cm7.h **** 
 974:../../libDaisy/Drivers/CMSIS/Include/core_cm7.h **** #define SysTick_CTRL_TICKINT_Pos            1U                                            /*!< SysT
 975:../../libDaisy/Drivers/CMSIS/Include/core_cm7.h **** #define SysTick_CTRL_TICKINT_Msk           (1UL << SysTick_CTRL_TICKINT_Pos)              /*!< SysT
 976:../../libDaisy/Drivers/CMSIS/Include/core_cm7.h **** 
 977:../../libDaisy/Drivers/CMSIS/Include/core_cm7.h **** #define SysTick_CTRL_ENABLE_Pos             0U                                            /*!< SysT
 978:../../libDaisy/Drivers/CMSIS/Include/core_cm7.h **** #define SysTick_CTRL_ENABLE_Msk            (1UL /*<< SysTick_CTRL_ENABLE_Pos*/)           /*!< SysT
 979:../../libDaisy/Drivers/CMSIS/Include/core_cm7.h **** 
 980:../../libDaisy/Drivers/CMSIS/Include/core_cm7.h **** /* SysTick Reload Register Definitions */
 981:../../libDaisy/Drivers/CMSIS/Include/core_cm7.h **** #define SysTick_LOAD_RELOAD_Pos             0U                                            /*!< SysT
 982:../../libDaisy/Drivers/CMSIS/Include/core_cm7.h **** #define SysTick_LOAD_RELOAD_Msk            (0xFFFFFFUL /*<< SysTick_LOAD_RELOAD_Pos*/)    /*!< SysT
 983:../../libDaisy/Drivers/CMSIS/Include/core_cm7.h **** 
 984:../../libDaisy/Drivers/CMSIS/Include/core_cm7.h **** /* SysTick Current Register Definitions */
 985:../../libDaisy/Drivers/CMSIS/Include/core_cm7.h **** #define SysTick_VAL_CURRENT_Pos             0U                                            /*!< SysT
 986:../../libDaisy/Drivers/CMSIS/Include/core_cm7.h **** #define SysTick_VAL_CURRENT_Msk            (0xFFFFFFUL /*<< SysTick_VAL_CURRENT_Pos*/)    /*!< SysT
 987:../../libDaisy/Drivers/CMSIS/Include/core_cm7.h **** 
 988:../../libDaisy/Drivers/CMSIS/Include/core_cm7.h **** /* SysTick Calibration Register Definitions */
 989:../../libDaisy/Drivers/CMSIS/Include/core_cm7.h **** #define SysTick_CALIB_NOREF_Pos            31U                                            /*!< SysT
 990:../../libDaisy/Drivers/CMSIS/Include/core_cm7.h **** #define SysTick_CALIB_NOREF_Msk            (1UL << SysTick_CALIB_NOREF_Pos)               /*!< SysT
 991:../../libDaisy/Drivers/CMSIS/Include/core_cm7.h **** 
 992:../../libDaisy/Drivers/CMSIS/Include/core_cm7.h **** #define SysTick_CALIB_SKEW_Pos             30U                                            /*!< SysT
 993:../../libDaisy/Drivers/CMSIS/Include/core_cm7.h **** #define SysTick_CALIB_SKEW_Msk             (1UL << SysTick_CALIB_SKEW_Pos)                /*!< SysT
ARM GAS  /tmp/ccUUe33m.s 			page 31


 994:../../libDaisy/Drivers/CMSIS/Include/core_cm7.h **** 
 995:../../libDaisy/Drivers/CMSIS/Include/core_cm7.h **** #define SysTick_CALIB_TENMS_Pos             0U                                            /*!< SysT
 996:../../libDaisy/Drivers/CMSIS/Include/core_cm7.h **** #define SysTick_CALIB_TENMS_Msk            (0xFFFFFFUL /*<< SysTick_CALIB_TENMS_Pos*/)    /*!< SysT
 997:../../libDaisy/Drivers/CMSIS/Include/core_cm7.h **** 
 998:../../libDaisy/Drivers/CMSIS/Include/core_cm7.h **** /*@} end of group CMSIS_SysTick */
 999:../../libDaisy/Drivers/CMSIS/Include/core_cm7.h **** 
1000:../../libDaisy/Drivers/CMSIS/Include/core_cm7.h **** 
1001:../../libDaisy/Drivers/CMSIS/Include/core_cm7.h **** /**
1002:../../libDaisy/Drivers/CMSIS/Include/core_cm7.h ****   \ingroup  CMSIS_core_register
1003:../../libDaisy/Drivers/CMSIS/Include/core_cm7.h ****   \defgroup CMSIS_ITM     Instrumentation Trace Macrocell (ITM)
1004:../../libDaisy/Drivers/CMSIS/Include/core_cm7.h ****   \brief    Type definitions for the Instrumentation Trace Macrocell (ITM)
1005:../../libDaisy/Drivers/CMSIS/Include/core_cm7.h ****   @{
1006:../../libDaisy/Drivers/CMSIS/Include/core_cm7.h ****  */
1007:../../libDaisy/Drivers/CMSIS/Include/core_cm7.h **** 
1008:../../libDaisy/Drivers/CMSIS/Include/core_cm7.h **** /**
1009:../../libDaisy/Drivers/CMSIS/Include/core_cm7.h ****   \brief  Structure type to access the Instrumentation Trace Macrocell Register (ITM).
1010:../../libDaisy/Drivers/CMSIS/Include/core_cm7.h ****  */
1011:../../libDaisy/Drivers/CMSIS/Include/core_cm7.h **** typedef struct
1012:../../libDaisy/Drivers/CMSIS/Include/core_cm7.h **** {
1013:../../libDaisy/Drivers/CMSIS/Include/core_cm7.h ****   __OM  union
1014:../../libDaisy/Drivers/CMSIS/Include/core_cm7.h ****   {
1015:../../libDaisy/Drivers/CMSIS/Include/core_cm7.h ****     __OM  uint8_t    u8;                 /*!< Offset: 0x000 ( /W)  ITM Stimulus Port 8-bit */
1016:../../libDaisy/Drivers/CMSIS/Include/core_cm7.h ****     __OM  uint16_t   u16;                /*!< Offset: 0x000 ( /W)  ITM Stimulus Port 16-bit */
1017:../../libDaisy/Drivers/CMSIS/Include/core_cm7.h ****     __OM  uint32_t   u32;                /*!< Offset: 0x000 ( /W)  ITM Stimulus Port 32-bit */
1018:../../libDaisy/Drivers/CMSIS/Include/core_cm7.h ****   }  PORT [32U];                         /*!< Offset: 0x000 ( /W)  ITM Stimulus Port Registers */
1019:../../libDaisy/Drivers/CMSIS/Include/core_cm7.h ****         uint32_t RESERVED0[864U];
1020:../../libDaisy/Drivers/CMSIS/Include/core_cm7.h ****   __IOM uint32_t TER;                    /*!< Offset: 0xE00 (R/W)  ITM Trace Enable Register */
1021:../../libDaisy/Drivers/CMSIS/Include/core_cm7.h ****         uint32_t RESERVED1[15U];
1022:../../libDaisy/Drivers/CMSIS/Include/core_cm7.h ****   __IOM uint32_t TPR;                    /*!< Offset: 0xE40 (R/W)  ITM Trace Privilege Register */
1023:../../libDaisy/Drivers/CMSIS/Include/core_cm7.h ****         uint32_t RESERVED2[15U];
1024:../../libDaisy/Drivers/CMSIS/Include/core_cm7.h ****   __IOM uint32_t TCR;                    /*!< Offset: 0xE80 (R/W)  ITM Trace Control Register */
1025:../../libDaisy/Drivers/CMSIS/Include/core_cm7.h ****         uint32_t RESERVED3[29U];
1026:../../libDaisy/Drivers/CMSIS/Include/core_cm7.h ****   __OM  uint32_t IWR;                    /*!< Offset: 0xEF8 ( /W)  ITM Integration Write Register *
1027:../../libDaisy/Drivers/CMSIS/Include/core_cm7.h ****   __IM  uint32_t IRR;                    /*!< Offset: 0xEFC (R/ )  ITM Integration Read Register */
1028:../../libDaisy/Drivers/CMSIS/Include/core_cm7.h ****   __IOM uint32_t IMCR;                   /*!< Offset: 0xF00 (R/W)  ITM Integration Mode Control Reg
1029:../../libDaisy/Drivers/CMSIS/Include/core_cm7.h ****         uint32_t RESERVED4[43U];
1030:../../libDaisy/Drivers/CMSIS/Include/core_cm7.h ****   __OM  uint32_t LAR;                    /*!< Offset: 0xFB0 ( /W)  ITM Lock Access Register */
1031:../../libDaisy/Drivers/CMSIS/Include/core_cm7.h ****   __IM  uint32_t LSR;                    /*!< Offset: 0xFB4 (R/ )  ITM Lock Status Register */
1032:../../libDaisy/Drivers/CMSIS/Include/core_cm7.h ****         uint32_t RESERVED5[6U];
1033:../../libDaisy/Drivers/CMSIS/Include/core_cm7.h ****   __IM  uint32_t PID4;                   /*!< Offset: 0xFD0 (R/ )  ITM Peripheral Identification Re
1034:../../libDaisy/Drivers/CMSIS/Include/core_cm7.h ****   __IM  uint32_t PID5;                   /*!< Offset: 0xFD4 (R/ )  ITM Peripheral Identification Re
1035:../../libDaisy/Drivers/CMSIS/Include/core_cm7.h ****   __IM  uint32_t PID6;                   /*!< Offset: 0xFD8 (R/ )  ITM Peripheral Identification Re
1036:../../libDaisy/Drivers/CMSIS/Include/core_cm7.h ****   __IM  uint32_t PID7;                   /*!< Offset: 0xFDC (R/ )  ITM Peripheral Identification Re
1037:../../libDaisy/Drivers/CMSIS/Include/core_cm7.h ****   __IM  uint32_t PID0;                   /*!< Offset: 0xFE0 (R/ )  ITM Peripheral Identification Re
1038:../../libDaisy/Drivers/CMSIS/Include/core_cm7.h ****   __IM  uint32_t PID1;                   /*!< Offset: 0xFE4 (R/ )  ITM Peripheral Identification Re
1039:../../libDaisy/Drivers/CMSIS/Include/core_cm7.h ****   __IM  uint32_t PID2;                   /*!< Offset: 0xFE8 (R/ )  ITM Peripheral Identification Re
1040:../../libDaisy/Drivers/CMSIS/Include/core_cm7.h ****   __IM  uint32_t PID3;                   /*!< Offset: 0xFEC (R/ )  ITM Peripheral Identification Re
1041:../../libDaisy/Drivers/CMSIS/Include/core_cm7.h ****   __IM  uint32_t CID0;                   /*!< Offset: 0xFF0 (R/ )  ITM Component  Identification Re
1042:../../libDaisy/Drivers/CMSIS/Include/core_cm7.h ****   __IM  uint32_t CID1;                   /*!< Offset: 0xFF4 (R/ )  ITM Component  Identification Re
1043:../../libDaisy/Drivers/CMSIS/Include/core_cm7.h ****   __IM  uint32_t CID2;                   /*!< Offset: 0xFF8 (R/ )  ITM Component  Identification Re
1044:../../libDaisy/Drivers/CMSIS/Include/core_cm7.h ****   __IM  uint32_t CID3;                   /*!< Offset: 0xFFC (R/ )  ITM Component  Identification Re
1045:../../libDaisy/Drivers/CMSIS/Include/core_cm7.h **** } ITM_Type;
1046:../../libDaisy/Drivers/CMSIS/Include/core_cm7.h **** 
1047:../../libDaisy/Drivers/CMSIS/Include/core_cm7.h **** /* ITM Trace Privilege Register Definitions */
1048:../../libDaisy/Drivers/CMSIS/Include/core_cm7.h **** #define ITM_TPR_PRIVMASK_Pos                0U                                            /*!< ITM 
1049:../../libDaisy/Drivers/CMSIS/Include/core_cm7.h **** #define ITM_TPR_PRIVMASK_Msk               (0xFUL /*<< ITM_TPR_PRIVMASK_Pos*/)            /*!< ITM 
1050:../../libDaisy/Drivers/CMSIS/Include/core_cm7.h **** 
ARM GAS  /tmp/ccUUe33m.s 			page 32


1051:../../libDaisy/Drivers/CMSIS/Include/core_cm7.h **** /* ITM Trace Control Register Definitions */
1052:../../libDaisy/Drivers/CMSIS/Include/core_cm7.h **** #define ITM_TCR_BUSY_Pos                   23U                                            /*!< ITM 
1053:../../libDaisy/Drivers/CMSIS/Include/core_cm7.h **** #define ITM_TCR_BUSY_Msk                   (1UL << ITM_TCR_BUSY_Pos)                      /*!< ITM 
1054:../../libDaisy/Drivers/CMSIS/Include/core_cm7.h **** 
1055:../../libDaisy/Drivers/CMSIS/Include/core_cm7.h **** #define ITM_TCR_TraceBusID_Pos             16U                                            /*!< ITM 
1056:../../libDaisy/Drivers/CMSIS/Include/core_cm7.h **** #define ITM_TCR_TraceBusID_Msk             (0x7FUL << ITM_TCR_TraceBusID_Pos)             /*!< ITM 
1057:../../libDaisy/Drivers/CMSIS/Include/core_cm7.h **** 
1058:../../libDaisy/Drivers/CMSIS/Include/core_cm7.h **** #define ITM_TCR_GTSFREQ_Pos                10U                                            /*!< ITM 
1059:../../libDaisy/Drivers/CMSIS/Include/core_cm7.h **** #define ITM_TCR_GTSFREQ_Msk                (3UL << ITM_TCR_GTSFREQ_Pos)                   /*!< ITM 
1060:../../libDaisy/Drivers/CMSIS/Include/core_cm7.h **** 
1061:../../libDaisy/Drivers/CMSIS/Include/core_cm7.h **** #define ITM_TCR_TSPrescale_Pos              8U                                            /*!< ITM 
1062:../../libDaisy/Drivers/CMSIS/Include/core_cm7.h **** #define ITM_TCR_TSPrescale_Msk             (3UL << ITM_TCR_TSPrescale_Pos)                /*!< ITM 
1063:../../libDaisy/Drivers/CMSIS/Include/core_cm7.h **** 
1064:../../libDaisy/Drivers/CMSIS/Include/core_cm7.h **** #define ITM_TCR_SWOENA_Pos                  4U                                            /*!< ITM 
1065:../../libDaisy/Drivers/CMSIS/Include/core_cm7.h **** #define ITM_TCR_SWOENA_Msk                 (1UL << ITM_TCR_SWOENA_Pos)                    /*!< ITM 
1066:../../libDaisy/Drivers/CMSIS/Include/core_cm7.h **** 
1067:../../libDaisy/Drivers/CMSIS/Include/core_cm7.h **** #define ITM_TCR_DWTENA_Pos                  3U                                            /*!< ITM 
1068:../../libDaisy/Drivers/CMSIS/Include/core_cm7.h **** #define ITM_TCR_DWTENA_Msk                 (1UL << ITM_TCR_DWTENA_Pos)                    /*!< ITM 
1069:../../libDaisy/Drivers/CMSIS/Include/core_cm7.h **** 
1070:../../libDaisy/Drivers/CMSIS/Include/core_cm7.h **** #define ITM_TCR_SYNCENA_Pos                 2U                                            /*!< ITM 
1071:../../libDaisy/Drivers/CMSIS/Include/core_cm7.h **** #define ITM_TCR_SYNCENA_Msk                (1UL << ITM_TCR_SYNCENA_Pos)                   /*!< ITM 
1072:../../libDaisy/Drivers/CMSIS/Include/core_cm7.h **** 
1073:../../libDaisy/Drivers/CMSIS/Include/core_cm7.h **** #define ITM_TCR_TSENA_Pos                   1U                                            /*!< ITM 
1074:../../libDaisy/Drivers/CMSIS/Include/core_cm7.h **** #define ITM_TCR_TSENA_Msk                  (1UL << ITM_TCR_TSENA_Pos)                     /*!< ITM 
1075:../../libDaisy/Drivers/CMSIS/Include/core_cm7.h **** 
1076:../../libDaisy/Drivers/CMSIS/Include/core_cm7.h **** #define ITM_TCR_ITMENA_Pos                  0U                                            /*!< ITM 
1077:../../libDaisy/Drivers/CMSIS/Include/core_cm7.h **** #define ITM_TCR_ITMENA_Msk                 (1UL /*<< ITM_TCR_ITMENA_Pos*/)                /*!< ITM 
1078:../../libDaisy/Drivers/CMSIS/Include/core_cm7.h **** 
1079:../../libDaisy/Drivers/CMSIS/Include/core_cm7.h **** /* ITM Integration Write Register Definitions */
1080:../../libDaisy/Drivers/CMSIS/Include/core_cm7.h **** #define ITM_IWR_ATVALIDM_Pos                0U                                            /*!< ITM 
1081:../../libDaisy/Drivers/CMSIS/Include/core_cm7.h **** #define ITM_IWR_ATVALIDM_Msk               (1UL /*<< ITM_IWR_ATVALIDM_Pos*/)              /*!< ITM 
1082:../../libDaisy/Drivers/CMSIS/Include/core_cm7.h **** 
1083:../../libDaisy/Drivers/CMSIS/Include/core_cm7.h **** /* ITM Integration Read Register Definitions */
1084:../../libDaisy/Drivers/CMSIS/Include/core_cm7.h **** #define ITM_IRR_ATREADYM_Pos                0U                                            /*!< ITM 
1085:../../libDaisy/Drivers/CMSIS/Include/core_cm7.h **** #define ITM_IRR_ATREADYM_Msk               (1UL /*<< ITM_IRR_ATREADYM_Pos*/)              /*!< ITM 
1086:../../libDaisy/Drivers/CMSIS/Include/core_cm7.h **** 
1087:../../libDaisy/Drivers/CMSIS/Include/core_cm7.h **** /* ITM Integration Mode Control Register Definitions */
1088:../../libDaisy/Drivers/CMSIS/Include/core_cm7.h **** #define ITM_IMCR_INTEGRATION_Pos            0U                                            /*!< ITM 
1089:../../libDaisy/Drivers/CMSIS/Include/core_cm7.h **** #define ITM_IMCR_INTEGRATION_Msk           (1UL /*<< ITM_IMCR_INTEGRATION_Pos*/)          /*!< ITM 
1090:../../libDaisy/Drivers/CMSIS/Include/core_cm7.h **** 
1091:../../libDaisy/Drivers/CMSIS/Include/core_cm7.h **** /* ITM Lock Status Register Definitions */
1092:../../libDaisy/Drivers/CMSIS/Include/core_cm7.h **** #define ITM_LSR_ByteAcc_Pos                 2U                                            /*!< ITM 
1093:../../libDaisy/Drivers/CMSIS/Include/core_cm7.h **** #define ITM_LSR_ByteAcc_Msk                (1UL << ITM_LSR_ByteAcc_Pos)                   /*!< ITM 
1094:../../libDaisy/Drivers/CMSIS/Include/core_cm7.h **** 
1095:../../libDaisy/Drivers/CMSIS/Include/core_cm7.h **** #define ITM_LSR_Access_Pos                  1U                                            /*!< ITM 
1096:../../libDaisy/Drivers/CMSIS/Include/core_cm7.h **** #define ITM_LSR_Access_Msk                 (1UL << ITM_LSR_Access_Pos)                    /*!< ITM 
1097:../../libDaisy/Drivers/CMSIS/Include/core_cm7.h **** 
1098:../../libDaisy/Drivers/CMSIS/Include/core_cm7.h **** #define ITM_LSR_Present_Pos                 0U                                            /*!< ITM 
1099:../../libDaisy/Drivers/CMSIS/Include/core_cm7.h **** #define ITM_LSR_Present_Msk                (1UL /*<< ITM_LSR_Present_Pos*/)               /*!< ITM 
1100:../../libDaisy/Drivers/CMSIS/Include/core_cm7.h **** 
1101:../../libDaisy/Drivers/CMSIS/Include/core_cm7.h **** /*@}*/ /* end of group CMSIS_ITM */
1102:../../libDaisy/Drivers/CMSIS/Include/core_cm7.h **** 
1103:../../libDaisy/Drivers/CMSIS/Include/core_cm7.h **** 
1104:../../libDaisy/Drivers/CMSIS/Include/core_cm7.h **** /**
1105:../../libDaisy/Drivers/CMSIS/Include/core_cm7.h ****   \ingroup  CMSIS_core_register
1106:../../libDaisy/Drivers/CMSIS/Include/core_cm7.h ****   \defgroup CMSIS_DWT     Data Watchpoint and Trace (DWT)
1107:../../libDaisy/Drivers/CMSIS/Include/core_cm7.h ****   \brief    Type definitions for the Data Watchpoint and Trace (DWT)
ARM GAS  /tmp/ccUUe33m.s 			page 33


1108:../../libDaisy/Drivers/CMSIS/Include/core_cm7.h ****   @{
1109:../../libDaisy/Drivers/CMSIS/Include/core_cm7.h ****  */
1110:../../libDaisy/Drivers/CMSIS/Include/core_cm7.h **** 
1111:../../libDaisy/Drivers/CMSIS/Include/core_cm7.h **** /**
1112:../../libDaisy/Drivers/CMSIS/Include/core_cm7.h ****   \brief  Structure type to access the Data Watchpoint and Trace Register (DWT).
1113:../../libDaisy/Drivers/CMSIS/Include/core_cm7.h ****  */
1114:../../libDaisy/Drivers/CMSIS/Include/core_cm7.h **** typedef struct
1115:../../libDaisy/Drivers/CMSIS/Include/core_cm7.h **** {
1116:../../libDaisy/Drivers/CMSIS/Include/core_cm7.h ****   __IOM uint32_t CTRL;                   /*!< Offset: 0x000 (R/W)  Control Register */
1117:../../libDaisy/Drivers/CMSIS/Include/core_cm7.h ****   __IOM uint32_t CYCCNT;                 /*!< Offset: 0x004 (R/W)  Cycle Count Register */
1118:../../libDaisy/Drivers/CMSIS/Include/core_cm7.h ****   __IOM uint32_t CPICNT;                 /*!< Offset: 0x008 (R/W)  CPI Count Register */
1119:../../libDaisy/Drivers/CMSIS/Include/core_cm7.h ****   __IOM uint32_t EXCCNT;                 /*!< Offset: 0x00C (R/W)  Exception Overhead Count Registe
1120:../../libDaisy/Drivers/CMSIS/Include/core_cm7.h ****   __IOM uint32_t SLEEPCNT;               /*!< Offset: 0x010 (R/W)  Sleep Count Register */
1121:../../libDaisy/Drivers/CMSIS/Include/core_cm7.h ****   __IOM uint32_t LSUCNT;                 /*!< Offset: 0x014 (R/W)  LSU Count Register */
1122:../../libDaisy/Drivers/CMSIS/Include/core_cm7.h ****   __IOM uint32_t FOLDCNT;                /*!< Offset: 0x018 (R/W)  Folded-instruction Count Registe
1123:../../libDaisy/Drivers/CMSIS/Include/core_cm7.h ****   __IM  uint32_t PCSR;                   /*!< Offset: 0x01C (R/ )  Program Counter Sample Register 
1124:../../libDaisy/Drivers/CMSIS/Include/core_cm7.h ****   __IOM uint32_t COMP0;                  /*!< Offset: 0x020 (R/W)  Comparator Register 0 */
1125:../../libDaisy/Drivers/CMSIS/Include/core_cm7.h ****   __IOM uint32_t MASK0;                  /*!< Offset: 0x024 (R/W)  Mask Register 0 */
1126:../../libDaisy/Drivers/CMSIS/Include/core_cm7.h ****   __IOM uint32_t FUNCTION0;              /*!< Offset: 0x028 (R/W)  Function Register 0 */
1127:../../libDaisy/Drivers/CMSIS/Include/core_cm7.h ****         uint32_t RESERVED0[1U];
1128:../../libDaisy/Drivers/CMSIS/Include/core_cm7.h ****   __IOM uint32_t COMP1;                  /*!< Offset: 0x030 (R/W)  Comparator Register 1 */
1129:../../libDaisy/Drivers/CMSIS/Include/core_cm7.h ****   __IOM uint32_t MASK1;                  /*!< Offset: 0x034 (R/W)  Mask Register 1 */
1130:../../libDaisy/Drivers/CMSIS/Include/core_cm7.h ****   __IOM uint32_t FUNCTION1;              /*!< Offset: 0x038 (R/W)  Function Register 1 */
1131:../../libDaisy/Drivers/CMSIS/Include/core_cm7.h ****         uint32_t RESERVED1[1U];
1132:../../libDaisy/Drivers/CMSIS/Include/core_cm7.h ****   __IOM uint32_t COMP2;                  /*!< Offset: 0x040 (R/W)  Comparator Register 2 */
1133:../../libDaisy/Drivers/CMSIS/Include/core_cm7.h ****   __IOM uint32_t MASK2;                  /*!< Offset: 0x044 (R/W)  Mask Register 2 */
1134:../../libDaisy/Drivers/CMSIS/Include/core_cm7.h ****   __IOM uint32_t FUNCTION2;              /*!< Offset: 0x048 (R/W)  Function Register 2 */
1135:../../libDaisy/Drivers/CMSIS/Include/core_cm7.h ****         uint32_t RESERVED2[1U];
1136:../../libDaisy/Drivers/CMSIS/Include/core_cm7.h ****   __IOM uint32_t COMP3;                  /*!< Offset: 0x050 (R/W)  Comparator Register 3 */
1137:../../libDaisy/Drivers/CMSIS/Include/core_cm7.h ****   __IOM uint32_t MASK3;                  /*!< Offset: 0x054 (R/W)  Mask Register 3 */
1138:../../libDaisy/Drivers/CMSIS/Include/core_cm7.h ****   __IOM uint32_t FUNCTION3;              /*!< Offset: 0x058 (R/W)  Function Register 3 */
1139:../../libDaisy/Drivers/CMSIS/Include/core_cm7.h ****         uint32_t RESERVED3[981U];
1140:../../libDaisy/Drivers/CMSIS/Include/core_cm7.h ****   __OM  uint32_t LAR;                    /*!< Offset: 0xFB0 (  W)  Lock Access Register */
1141:../../libDaisy/Drivers/CMSIS/Include/core_cm7.h ****   __IM  uint32_t LSR;                    /*!< Offset: 0xFB4 (R  )  Lock Status Register */
1142:../../libDaisy/Drivers/CMSIS/Include/core_cm7.h **** } DWT_Type;
1143:../../libDaisy/Drivers/CMSIS/Include/core_cm7.h **** 
1144:../../libDaisy/Drivers/CMSIS/Include/core_cm7.h **** /* DWT Control Register Definitions */
1145:../../libDaisy/Drivers/CMSIS/Include/core_cm7.h **** #define DWT_CTRL_NUMCOMP_Pos               28U                                         /*!< DWT CTR
1146:../../libDaisy/Drivers/CMSIS/Include/core_cm7.h **** #define DWT_CTRL_NUMCOMP_Msk               (0xFUL << DWT_CTRL_NUMCOMP_Pos)             /*!< DWT CTR
1147:../../libDaisy/Drivers/CMSIS/Include/core_cm7.h **** 
1148:../../libDaisy/Drivers/CMSIS/Include/core_cm7.h **** #define DWT_CTRL_NOTRCPKT_Pos              27U                                         /*!< DWT CTR
1149:../../libDaisy/Drivers/CMSIS/Include/core_cm7.h **** #define DWT_CTRL_NOTRCPKT_Msk              (0x1UL << DWT_CTRL_NOTRCPKT_Pos)            /*!< DWT CTR
1150:../../libDaisy/Drivers/CMSIS/Include/core_cm7.h **** 
1151:../../libDaisy/Drivers/CMSIS/Include/core_cm7.h **** #define DWT_CTRL_NOEXTTRIG_Pos             26U                                         /*!< DWT CTR
1152:../../libDaisy/Drivers/CMSIS/Include/core_cm7.h **** #define DWT_CTRL_NOEXTTRIG_Msk             (0x1UL << DWT_CTRL_NOEXTTRIG_Pos)           /*!< DWT CTR
1153:../../libDaisy/Drivers/CMSIS/Include/core_cm7.h **** 
1154:../../libDaisy/Drivers/CMSIS/Include/core_cm7.h **** #define DWT_CTRL_NOCYCCNT_Pos              25U                                         /*!< DWT CTR
1155:../../libDaisy/Drivers/CMSIS/Include/core_cm7.h **** #define DWT_CTRL_NOCYCCNT_Msk              (0x1UL << DWT_CTRL_NOCYCCNT_Pos)            /*!< DWT CTR
1156:../../libDaisy/Drivers/CMSIS/Include/core_cm7.h **** 
1157:../../libDaisy/Drivers/CMSIS/Include/core_cm7.h **** #define DWT_CTRL_NOPRFCNT_Pos              24U                                         /*!< DWT CTR
1158:../../libDaisy/Drivers/CMSIS/Include/core_cm7.h **** #define DWT_CTRL_NOPRFCNT_Msk              (0x1UL << DWT_CTRL_NOPRFCNT_Pos)            /*!< DWT CTR
1159:../../libDaisy/Drivers/CMSIS/Include/core_cm7.h **** 
1160:../../libDaisy/Drivers/CMSIS/Include/core_cm7.h **** #define DWT_CTRL_CYCEVTENA_Pos             22U                                         /*!< DWT CTR
1161:../../libDaisy/Drivers/CMSIS/Include/core_cm7.h **** #define DWT_CTRL_CYCEVTENA_Msk             (0x1UL << DWT_CTRL_CYCEVTENA_Pos)           /*!< DWT CTR
1162:../../libDaisy/Drivers/CMSIS/Include/core_cm7.h **** 
1163:../../libDaisy/Drivers/CMSIS/Include/core_cm7.h **** #define DWT_CTRL_FOLDEVTENA_Pos            21U                                         /*!< DWT CTR
1164:../../libDaisy/Drivers/CMSIS/Include/core_cm7.h **** #define DWT_CTRL_FOLDEVTENA_Msk            (0x1UL << DWT_CTRL_FOLDEVTENA_Pos)          /*!< DWT CTR
ARM GAS  /tmp/ccUUe33m.s 			page 34


1165:../../libDaisy/Drivers/CMSIS/Include/core_cm7.h **** 
1166:../../libDaisy/Drivers/CMSIS/Include/core_cm7.h **** #define DWT_CTRL_LSUEVTENA_Pos             20U                                         /*!< DWT CTR
1167:../../libDaisy/Drivers/CMSIS/Include/core_cm7.h **** #define DWT_CTRL_LSUEVTENA_Msk             (0x1UL << DWT_CTRL_LSUEVTENA_Pos)           /*!< DWT CTR
1168:../../libDaisy/Drivers/CMSIS/Include/core_cm7.h **** 
1169:../../libDaisy/Drivers/CMSIS/Include/core_cm7.h **** #define DWT_CTRL_SLEEPEVTENA_Pos           19U                                         /*!< DWT CTR
1170:../../libDaisy/Drivers/CMSIS/Include/core_cm7.h **** #define DWT_CTRL_SLEEPEVTENA_Msk           (0x1UL << DWT_CTRL_SLEEPEVTENA_Pos)         /*!< DWT CTR
1171:../../libDaisy/Drivers/CMSIS/Include/core_cm7.h **** 
1172:../../libDaisy/Drivers/CMSIS/Include/core_cm7.h **** #define DWT_CTRL_EXCEVTENA_Pos             18U                                         /*!< DWT CTR
1173:../../libDaisy/Drivers/CMSIS/Include/core_cm7.h **** #define DWT_CTRL_EXCEVTENA_Msk             (0x1UL << DWT_CTRL_EXCEVTENA_Pos)           /*!< DWT CTR
1174:../../libDaisy/Drivers/CMSIS/Include/core_cm7.h **** 
1175:../../libDaisy/Drivers/CMSIS/Include/core_cm7.h **** #define DWT_CTRL_CPIEVTENA_Pos             17U                                         /*!< DWT CTR
1176:../../libDaisy/Drivers/CMSIS/Include/core_cm7.h **** #define DWT_CTRL_CPIEVTENA_Msk             (0x1UL << DWT_CTRL_CPIEVTENA_Pos)           /*!< DWT CTR
1177:../../libDaisy/Drivers/CMSIS/Include/core_cm7.h **** 
1178:../../libDaisy/Drivers/CMSIS/Include/core_cm7.h **** #define DWT_CTRL_EXCTRCENA_Pos             16U                                         /*!< DWT CTR
1179:../../libDaisy/Drivers/CMSIS/Include/core_cm7.h **** #define DWT_CTRL_EXCTRCENA_Msk             (0x1UL << DWT_CTRL_EXCTRCENA_Pos)           /*!< DWT CTR
1180:../../libDaisy/Drivers/CMSIS/Include/core_cm7.h **** 
1181:../../libDaisy/Drivers/CMSIS/Include/core_cm7.h **** #define DWT_CTRL_PCSAMPLENA_Pos            12U                                         /*!< DWT CTR
1182:../../libDaisy/Drivers/CMSIS/Include/core_cm7.h **** #define DWT_CTRL_PCSAMPLENA_Msk            (0x1UL << DWT_CTRL_PCSAMPLENA_Pos)          /*!< DWT CTR
1183:../../libDaisy/Drivers/CMSIS/Include/core_cm7.h **** 
1184:../../libDaisy/Drivers/CMSIS/Include/core_cm7.h **** #define DWT_CTRL_SYNCTAP_Pos               10U                                         /*!< DWT CTR
1185:../../libDaisy/Drivers/CMSIS/Include/core_cm7.h **** #define DWT_CTRL_SYNCTAP_Msk               (0x3UL << DWT_CTRL_SYNCTAP_Pos)             /*!< DWT CTR
1186:../../libDaisy/Drivers/CMSIS/Include/core_cm7.h **** 
1187:../../libDaisy/Drivers/CMSIS/Include/core_cm7.h **** #define DWT_CTRL_CYCTAP_Pos                 9U                                         /*!< DWT CTR
1188:../../libDaisy/Drivers/CMSIS/Include/core_cm7.h **** #define DWT_CTRL_CYCTAP_Msk                (0x1UL << DWT_CTRL_CYCTAP_Pos)              /*!< DWT CTR
1189:../../libDaisy/Drivers/CMSIS/Include/core_cm7.h **** 
1190:../../libDaisy/Drivers/CMSIS/Include/core_cm7.h **** #define DWT_CTRL_POSTINIT_Pos               5U                                         /*!< DWT CTR
1191:../../libDaisy/Drivers/CMSIS/Include/core_cm7.h **** #define DWT_CTRL_POSTINIT_Msk              (0xFUL << DWT_CTRL_POSTINIT_Pos)            /*!< DWT CTR
1192:../../libDaisy/Drivers/CMSIS/Include/core_cm7.h **** 
1193:../../libDaisy/Drivers/CMSIS/Include/core_cm7.h **** #define DWT_CTRL_POSTPRESET_Pos             1U                                         /*!< DWT CTR
1194:../../libDaisy/Drivers/CMSIS/Include/core_cm7.h **** #define DWT_CTRL_POSTPRESET_Msk            (0xFUL << DWT_CTRL_POSTPRESET_Pos)          /*!< DWT CTR
1195:../../libDaisy/Drivers/CMSIS/Include/core_cm7.h **** 
1196:../../libDaisy/Drivers/CMSIS/Include/core_cm7.h **** #define DWT_CTRL_CYCCNTENA_Pos              0U                                         /*!< DWT CTR
1197:../../libDaisy/Drivers/CMSIS/Include/core_cm7.h **** #define DWT_CTRL_CYCCNTENA_Msk             (0x1UL /*<< DWT_CTRL_CYCCNTENA_Pos*/)       /*!< DWT CTR
1198:../../libDaisy/Drivers/CMSIS/Include/core_cm7.h **** 
1199:../../libDaisy/Drivers/CMSIS/Include/core_cm7.h **** /* DWT CPI Count Register Definitions */
1200:../../libDaisy/Drivers/CMSIS/Include/core_cm7.h **** #define DWT_CPICNT_CPICNT_Pos               0U                                         /*!< DWT CPI
1201:../../libDaisy/Drivers/CMSIS/Include/core_cm7.h **** #define DWT_CPICNT_CPICNT_Msk              (0xFFUL /*<< DWT_CPICNT_CPICNT_Pos*/)       /*!< DWT CPI
1202:../../libDaisy/Drivers/CMSIS/Include/core_cm7.h **** 
1203:../../libDaisy/Drivers/CMSIS/Include/core_cm7.h **** /* DWT Exception Overhead Count Register Definitions */
1204:../../libDaisy/Drivers/CMSIS/Include/core_cm7.h **** #define DWT_EXCCNT_EXCCNT_Pos               0U                                         /*!< DWT EXC
1205:../../libDaisy/Drivers/CMSIS/Include/core_cm7.h **** #define DWT_EXCCNT_EXCCNT_Msk              (0xFFUL /*<< DWT_EXCCNT_EXCCNT_Pos*/)       /*!< DWT EXC
1206:../../libDaisy/Drivers/CMSIS/Include/core_cm7.h **** 
1207:../../libDaisy/Drivers/CMSIS/Include/core_cm7.h **** /* DWT Sleep Count Register Definitions */
1208:../../libDaisy/Drivers/CMSIS/Include/core_cm7.h **** #define DWT_SLEEPCNT_SLEEPCNT_Pos           0U                                         /*!< DWT SLE
1209:../../libDaisy/Drivers/CMSIS/Include/core_cm7.h **** #define DWT_SLEEPCNT_SLEEPCNT_Msk          (0xFFUL /*<< DWT_SLEEPCNT_SLEEPCNT_Pos*/)   /*!< DWT SLE
1210:../../libDaisy/Drivers/CMSIS/Include/core_cm7.h **** 
1211:../../libDaisy/Drivers/CMSIS/Include/core_cm7.h **** /* DWT LSU Count Register Definitions */
1212:../../libDaisy/Drivers/CMSIS/Include/core_cm7.h **** #define DWT_LSUCNT_LSUCNT_Pos               0U                                         /*!< DWT LSU
1213:../../libDaisy/Drivers/CMSIS/Include/core_cm7.h **** #define DWT_LSUCNT_LSUCNT_Msk              (0xFFUL /*<< DWT_LSUCNT_LSUCNT_Pos*/)       /*!< DWT LSU
1214:../../libDaisy/Drivers/CMSIS/Include/core_cm7.h **** 
1215:../../libDaisy/Drivers/CMSIS/Include/core_cm7.h **** /* DWT Folded-instruction Count Register Definitions */
1216:../../libDaisy/Drivers/CMSIS/Include/core_cm7.h **** #define DWT_FOLDCNT_FOLDCNT_Pos             0U                                         /*!< DWT FOL
1217:../../libDaisy/Drivers/CMSIS/Include/core_cm7.h **** #define DWT_FOLDCNT_FOLDCNT_Msk            (0xFFUL /*<< DWT_FOLDCNT_FOLDCNT_Pos*/)     /*!< DWT FOL
1218:../../libDaisy/Drivers/CMSIS/Include/core_cm7.h **** 
1219:../../libDaisy/Drivers/CMSIS/Include/core_cm7.h **** /* DWT Comparator Mask Register Definitions */
1220:../../libDaisy/Drivers/CMSIS/Include/core_cm7.h **** #define DWT_MASK_MASK_Pos                   0U                                         /*!< DWT MAS
1221:../../libDaisy/Drivers/CMSIS/Include/core_cm7.h **** #define DWT_MASK_MASK_Msk                  (0x1FUL /*<< DWT_MASK_MASK_Pos*/)           /*!< DWT MAS
ARM GAS  /tmp/ccUUe33m.s 			page 35


1222:../../libDaisy/Drivers/CMSIS/Include/core_cm7.h **** 
1223:../../libDaisy/Drivers/CMSIS/Include/core_cm7.h **** /* DWT Comparator Function Register Definitions */
1224:../../libDaisy/Drivers/CMSIS/Include/core_cm7.h **** #define DWT_FUNCTION_MATCHED_Pos           24U                                         /*!< DWT FUN
1225:../../libDaisy/Drivers/CMSIS/Include/core_cm7.h **** #define DWT_FUNCTION_MATCHED_Msk           (0x1UL << DWT_FUNCTION_MATCHED_Pos)         /*!< DWT FUN
1226:../../libDaisy/Drivers/CMSIS/Include/core_cm7.h **** 
1227:../../libDaisy/Drivers/CMSIS/Include/core_cm7.h **** #define DWT_FUNCTION_DATAVADDR1_Pos        16U                                         /*!< DWT FUN
1228:../../libDaisy/Drivers/CMSIS/Include/core_cm7.h **** #define DWT_FUNCTION_DATAVADDR1_Msk        (0xFUL << DWT_FUNCTION_DATAVADDR1_Pos)      /*!< DWT FUN
1229:../../libDaisy/Drivers/CMSIS/Include/core_cm7.h **** 
1230:../../libDaisy/Drivers/CMSIS/Include/core_cm7.h **** #define DWT_FUNCTION_DATAVADDR0_Pos        12U                                         /*!< DWT FUN
1231:../../libDaisy/Drivers/CMSIS/Include/core_cm7.h **** #define DWT_FUNCTION_DATAVADDR0_Msk        (0xFUL << DWT_FUNCTION_DATAVADDR0_Pos)      /*!< DWT FUN
1232:../../libDaisy/Drivers/CMSIS/Include/core_cm7.h **** 
1233:../../libDaisy/Drivers/CMSIS/Include/core_cm7.h **** #define DWT_FUNCTION_DATAVSIZE_Pos         10U                                         /*!< DWT FUN
1234:../../libDaisy/Drivers/CMSIS/Include/core_cm7.h **** #define DWT_FUNCTION_DATAVSIZE_Msk         (0x3UL << DWT_FUNCTION_DATAVSIZE_Pos)       /*!< DWT FUN
1235:../../libDaisy/Drivers/CMSIS/Include/core_cm7.h **** 
1236:../../libDaisy/Drivers/CMSIS/Include/core_cm7.h **** #define DWT_FUNCTION_LNK1ENA_Pos            9U                                         /*!< DWT FUN
1237:../../libDaisy/Drivers/CMSIS/Include/core_cm7.h **** #define DWT_FUNCTION_LNK1ENA_Msk           (0x1UL << DWT_FUNCTION_LNK1ENA_Pos)         /*!< DWT FUN
1238:../../libDaisy/Drivers/CMSIS/Include/core_cm7.h **** 
1239:../../libDaisy/Drivers/CMSIS/Include/core_cm7.h **** #define DWT_FUNCTION_DATAVMATCH_Pos         8U                                         /*!< DWT FUN
1240:../../libDaisy/Drivers/CMSIS/Include/core_cm7.h **** #define DWT_FUNCTION_DATAVMATCH_Msk        (0x1UL << DWT_FUNCTION_DATAVMATCH_Pos)      /*!< DWT FUN
1241:../../libDaisy/Drivers/CMSIS/Include/core_cm7.h **** 
1242:../../libDaisy/Drivers/CMSIS/Include/core_cm7.h **** #define DWT_FUNCTION_CYCMATCH_Pos           7U                                         /*!< DWT FUN
1243:../../libDaisy/Drivers/CMSIS/Include/core_cm7.h **** #define DWT_FUNCTION_CYCMATCH_Msk          (0x1UL << DWT_FUNCTION_CYCMATCH_Pos)        /*!< DWT FUN
1244:../../libDaisy/Drivers/CMSIS/Include/core_cm7.h **** 
1245:../../libDaisy/Drivers/CMSIS/Include/core_cm7.h **** #define DWT_FUNCTION_EMITRANGE_Pos          5U                                         /*!< DWT FUN
1246:../../libDaisy/Drivers/CMSIS/Include/core_cm7.h **** #define DWT_FUNCTION_EMITRANGE_Msk         (0x1UL << DWT_FUNCTION_EMITRANGE_Pos)       /*!< DWT FUN
1247:../../libDaisy/Drivers/CMSIS/Include/core_cm7.h **** 
1248:../../libDaisy/Drivers/CMSIS/Include/core_cm7.h **** #define DWT_FUNCTION_FUNCTION_Pos           0U                                         /*!< DWT FUN
1249:../../libDaisy/Drivers/CMSIS/Include/core_cm7.h **** #define DWT_FUNCTION_FUNCTION_Msk          (0xFUL /*<< DWT_FUNCTION_FUNCTION_Pos*/)    /*!< DWT FUN
1250:../../libDaisy/Drivers/CMSIS/Include/core_cm7.h **** 
1251:../../libDaisy/Drivers/CMSIS/Include/core_cm7.h **** /*@}*/ /* end of group CMSIS_DWT */
1252:../../libDaisy/Drivers/CMSIS/Include/core_cm7.h **** 
1253:../../libDaisy/Drivers/CMSIS/Include/core_cm7.h **** 
1254:../../libDaisy/Drivers/CMSIS/Include/core_cm7.h **** /**
1255:../../libDaisy/Drivers/CMSIS/Include/core_cm7.h ****   \ingroup  CMSIS_core_register
1256:../../libDaisy/Drivers/CMSIS/Include/core_cm7.h ****   \defgroup CMSIS_TPI     Trace Port Interface (TPI)
1257:../../libDaisy/Drivers/CMSIS/Include/core_cm7.h ****   \brief    Type definitions for the Trace Port Interface (TPI)
1258:../../libDaisy/Drivers/CMSIS/Include/core_cm7.h ****   @{
1259:../../libDaisy/Drivers/CMSIS/Include/core_cm7.h ****  */
1260:../../libDaisy/Drivers/CMSIS/Include/core_cm7.h **** 
1261:../../libDaisy/Drivers/CMSIS/Include/core_cm7.h **** /**
1262:../../libDaisy/Drivers/CMSIS/Include/core_cm7.h ****   \brief  Structure type to access the Trace Port Interface Register (TPI).
1263:../../libDaisy/Drivers/CMSIS/Include/core_cm7.h ****  */
1264:../../libDaisy/Drivers/CMSIS/Include/core_cm7.h **** typedef struct
1265:../../libDaisy/Drivers/CMSIS/Include/core_cm7.h **** {
1266:../../libDaisy/Drivers/CMSIS/Include/core_cm7.h ****   __IOM uint32_t SSPSR;                  /*!< Offset: 0x000 (R/ )  Supported Parallel Port Size Reg
1267:../../libDaisy/Drivers/CMSIS/Include/core_cm7.h ****   __IOM uint32_t CSPSR;                  /*!< Offset: 0x004 (R/W)  Current Parallel Port Size Regis
1268:../../libDaisy/Drivers/CMSIS/Include/core_cm7.h ****         uint32_t RESERVED0[2U];
1269:../../libDaisy/Drivers/CMSIS/Include/core_cm7.h ****   __IOM uint32_t ACPR;                   /*!< Offset: 0x010 (R/W)  Asynchronous Clock Prescaler Reg
1270:../../libDaisy/Drivers/CMSIS/Include/core_cm7.h ****         uint32_t RESERVED1[55U];
1271:../../libDaisy/Drivers/CMSIS/Include/core_cm7.h ****   __IOM uint32_t SPPR;                   /*!< Offset: 0x0F0 (R/W)  Selected Pin Protocol Register *
1272:../../libDaisy/Drivers/CMSIS/Include/core_cm7.h ****         uint32_t RESERVED2[131U];
1273:../../libDaisy/Drivers/CMSIS/Include/core_cm7.h ****   __IM  uint32_t FFSR;                   /*!< Offset: 0x300 (R/ )  Formatter and Flush Status Regis
1274:../../libDaisy/Drivers/CMSIS/Include/core_cm7.h ****   __IOM uint32_t FFCR;                   /*!< Offset: 0x304 (R/W)  Formatter and Flush Control Regi
1275:../../libDaisy/Drivers/CMSIS/Include/core_cm7.h ****   __IM  uint32_t FSCR;                   /*!< Offset: 0x308 (R/ )  Formatter Synchronization Counte
1276:../../libDaisy/Drivers/CMSIS/Include/core_cm7.h ****         uint32_t RESERVED3[759U];
1277:../../libDaisy/Drivers/CMSIS/Include/core_cm7.h ****   __IM  uint32_t TRIGGER;                /*!< Offset: 0xEE8 (R/ )  TRIGGER */
1278:../../libDaisy/Drivers/CMSIS/Include/core_cm7.h ****   __IM  uint32_t FIFO0;                  /*!< Offset: 0xEEC (R/ )  Integration ETM Data */
ARM GAS  /tmp/ccUUe33m.s 			page 36


1279:../../libDaisy/Drivers/CMSIS/Include/core_cm7.h ****   __IM  uint32_t ITATBCTR2;              /*!< Offset: 0xEF0 (R/ )  ITATBCTR2 */
1280:../../libDaisy/Drivers/CMSIS/Include/core_cm7.h ****         uint32_t RESERVED4[1U];
1281:../../libDaisy/Drivers/CMSIS/Include/core_cm7.h ****   __IM  uint32_t ITATBCTR0;              /*!< Offset: 0xEF8 (R/ )  ITATBCTR0 */
1282:../../libDaisy/Drivers/CMSIS/Include/core_cm7.h ****   __IM  uint32_t FIFO1;                  /*!< Offset: 0xEFC (R/ )  Integration ITM Data */
1283:../../libDaisy/Drivers/CMSIS/Include/core_cm7.h ****   __IOM uint32_t ITCTRL;                 /*!< Offset: 0xF00 (R/W)  Integration Mode Control */
1284:../../libDaisy/Drivers/CMSIS/Include/core_cm7.h ****         uint32_t RESERVED5[39U];
1285:../../libDaisy/Drivers/CMSIS/Include/core_cm7.h ****   __IOM uint32_t CLAIMSET;               /*!< Offset: 0xFA0 (R/W)  Claim tag set */
1286:../../libDaisy/Drivers/CMSIS/Include/core_cm7.h ****   __IOM uint32_t CLAIMCLR;               /*!< Offset: 0xFA4 (R/W)  Claim tag clear */
1287:../../libDaisy/Drivers/CMSIS/Include/core_cm7.h ****         uint32_t RESERVED7[8U];
1288:../../libDaisy/Drivers/CMSIS/Include/core_cm7.h ****   __IM  uint32_t DEVID;                  /*!< Offset: 0xFC8 (R/ )  TPIU_DEVID */
1289:../../libDaisy/Drivers/CMSIS/Include/core_cm7.h ****   __IM  uint32_t DEVTYPE;                /*!< Offset: 0xFCC (R/ )  TPIU_DEVTYPE */
1290:../../libDaisy/Drivers/CMSIS/Include/core_cm7.h **** } TPI_Type;
1291:../../libDaisy/Drivers/CMSIS/Include/core_cm7.h **** 
1292:../../libDaisy/Drivers/CMSIS/Include/core_cm7.h **** /* TPI Asynchronous Clock Prescaler Register Definitions */
1293:../../libDaisy/Drivers/CMSIS/Include/core_cm7.h **** #define TPI_ACPR_PRESCALER_Pos              0U                                         /*!< TPI ACP
1294:../../libDaisy/Drivers/CMSIS/Include/core_cm7.h **** #define TPI_ACPR_PRESCALER_Msk             (0x1FFFUL /*<< TPI_ACPR_PRESCALER_Pos*/)    /*!< TPI ACP
1295:../../libDaisy/Drivers/CMSIS/Include/core_cm7.h **** 
1296:../../libDaisy/Drivers/CMSIS/Include/core_cm7.h **** /* TPI Selected Pin Protocol Register Definitions */
1297:../../libDaisy/Drivers/CMSIS/Include/core_cm7.h **** #define TPI_SPPR_TXMODE_Pos                 0U                                         /*!< TPI SPP
1298:../../libDaisy/Drivers/CMSIS/Include/core_cm7.h **** #define TPI_SPPR_TXMODE_Msk                (0x3UL /*<< TPI_SPPR_TXMODE_Pos*/)          /*!< TPI SPP
1299:../../libDaisy/Drivers/CMSIS/Include/core_cm7.h **** 
1300:../../libDaisy/Drivers/CMSIS/Include/core_cm7.h **** /* TPI Formatter and Flush Status Register Definitions */
1301:../../libDaisy/Drivers/CMSIS/Include/core_cm7.h **** #define TPI_FFSR_FtNonStop_Pos              3U                                         /*!< TPI FFS
1302:../../libDaisy/Drivers/CMSIS/Include/core_cm7.h **** #define TPI_FFSR_FtNonStop_Msk             (0x1UL << TPI_FFSR_FtNonStop_Pos)           /*!< TPI FFS
1303:../../libDaisy/Drivers/CMSIS/Include/core_cm7.h **** 
1304:../../libDaisy/Drivers/CMSIS/Include/core_cm7.h **** #define TPI_FFSR_TCPresent_Pos              2U                                         /*!< TPI FFS
1305:../../libDaisy/Drivers/CMSIS/Include/core_cm7.h **** #define TPI_FFSR_TCPresent_Msk             (0x1UL << TPI_FFSR_TCPresent_Pos)           /*!< TPI FFS
1306:../../libDaisy/Drivers/CMSIS/Include/core_cm7.h **** 
1307:../../libDaisy/Drivers/CMSIS/Include/core_cm7.h **** #define TPI_FFSR_FtStopped_Pos              1U                                         /*!< TPI FFS
1308:../../libDaisy/Drivers/CMSIS/Include/core_cm7.h **** #define TPI_FFSR_FtStopped_Msk             (0x1UL << TPI_FFSR_FtStopped_Pos)           /*!< TPI FFS
1309:../../libDaisy/Drivers/CMSIS/Include/core_cm7.h **** 
1310:../../libDaisy/Drivers/CMSIS/Include/core_cm7.h **** #define TPI_FFSR_FlInProg_Pos               0U                                         /*!< TPI FFS
1311:../../libDaisy/Drivers/CMSIS/Include/core_cm7.h **** #define TPI_FFSR_FlInProg_Msk              (0x1UL /*<< TPI_FFSR_FlInProg_Pos*/)        /*!< TPI FFS
1312:../../libDaisy/Drivers/CMSIS/Include/core_cm7.h **** 
1313:../../libDaisy/Drivers/CMSIS/Include/core_cm7.h **** /* TPI Formatter and Flush Control Register Definitions */
1314:../../libDaisy/Drivers/CMSIS/Include/core_cm7.h **** #define TPI_FFCR_TrigIn_Pos                 8U                                         /*!< TPI FFC
1315:../../libDaisy/Drivers/CMSIS/Include/core_cm7.h **** #define TPI_FFCR_TrigIn_Msk                (0x1UL << TPI_FFCR_TrigIn_Pos)              /*!< TPI FFC
1316:../../libDaisy/Drivers/CMSIS/Include/core_cm7.h **** 
1317:../../libDaisy/Drivers/CMSIS/Include/core_cm7.h **** #define TPI_FFCR_EnFCont_Pos                1U                                         /*!< TPI FFC
1318:../../libDaisy/Drivers/CMSIS/Include/core_cm7.h **** #define TPI_FFCR_EnFCont_Msk               (0x1UL << TPI_FFCR_EnFCont_Pos)             /*!< TPI FFC
1319:../../libDaisy/Drivers/CMSIS/Include/core_cm7.h **** 
1320:../../libDaisy/Drivers/CMSIS/Include/core_cm7.h **** /* TPI TRIGGER Register Definitions */
1321:../../libDaisy/Drivers/CMSIS/Include/core_cm7.h **** #define TPI_TRIGGER_TRIGGER_Pos             0U                                         /*!< TPI TRI
1322:../../libDaisy/Drivers/CMSIS/Include/core_cm7.h **** #define TPI_TRIGGER_TRIGGER_Msk            (0x1UL /*<< TPI_TRIGGER_TRIGGER_Pos*/)      /*!< TPI TRI
1323:../../libDaisy/Drivers/CMSIS/Include/core_cm7.h **** 
1324:../../libDaisy/Drivers/CMSIS/Include/core_cm7.h **** /* TPI Integration ETM Data Register Definitions (FIFO0) */
1325:../../libDaisy/Drivers/CMSIS/Include/core_cm7.h **** #define TPI_FIFO0_ITM_ATVALID_Pos          29U                                         /*!< TPI FIF
1326:../../libDaisy/Drivers/CMSIS/Include/core_cm7.h **** #define TPI_FIFO0_ITM_ATVALID_Msk          (0x3UL << TPI_FIFO0_ITM_ATVALID_Pos)        /*!< TPI FIF
1327:../../libDaisy/Drivers/CMSIS/Include/core_cm7.h **** 
1328:../../libDaisy/Drivers/CMSIS/Include/core_cm7.h **** #define TPI_FIFO0_ITM_bytecount_Pos        27U                                         /*!< TPI FIF
1329:../../libDaisy/Drivers/CMSIS/Include/core_cm7.h **** #define TPI_FIFO0_ITM_bytecount_Msk        (0x3UL << TPI_FIFO0_ITM_bytecount_Pos)      /*!< TPI FIF
1330:../../libDaisy/Drivers/CMSIS/Include/core_cm7.h **** 
1331:../../libDaisy/Drivers/CMSIS/Include/core_cm7.h **** #define TPI_FIFO0_ETM_ATVALID_Pos          26U                                         /*!< TPI FIF
1332:../../libDaisy/Drivers/CMSIS/Include/core_cm7.h **** #define TPI_FIFO0_ETM_ATVALID_Msk          (0x3UL << TPI_FIFO0_ETM_ATVALID_Pos)        /*!< TPI FIF
1333:../../libDaisy/Drivers/CMSIS/Include/core_cm7.h **** 
1334:../../libDaisy/Drivers/CMSIS/Include/core_cm7.h **** #define TPI_FIFO0_ETM_bytecount_Pos        24U                                         /*!< TPI FIF
1335:../../libDaisy/Drivers/CMSIS/Include/core_cm7.h **** #define TPI_FIFO0_ETM_bytecount_Msk        (0x3UL << TPI_FIFO0_ETM_bytecount_Pos)      /*!< TPI FIF
ARM GAS  /tmp/ccUUe33m.s 			page 37


1336:../../libDaisy/Drivers/CMSIS/Include/core_cm7.h **** 
1337:../../libDaisy/Drivers/CMSIS/Include/core_cm7.h **** #define TPI_FIFO0_ETM2_Pos                 16U                                         /*!< TPI FIF
1338:../../libDaisy/Drivers/CMSIS/Include/core_cm7.h **** #define TPI_FIFO0_ETM2_Msk                 (0xFFUL << TPI_FIFO0_ETM2_Pos)              /*!< TPI FIF
1339:../../libDaisy/Drivers/CMSIS/Include/core_cm7.h **** 
1340:../../libDaisy/Drivers/CMSIS/Include/core_cm7.h **** #define TPI_FIFO0_ETM1_Pos                  8U                                         /*!< TPI FIF
1341:../../libDaisy/Drivers/CMSIS/Include/core_cm7.h **** #define TPI_FIFO0_ETM1_Msk                 (0xFFUL << TPI_FIFO0_ETM1_Pos)              /*!< TPI FIF
1342:../../libDaisy/Drivers/CMSIS/Include/core_cm7.h **** 
1343:../../libDaisy/Drivers/CMSIS/Include/core_cm7.h **** #define TPI_FIFO0_ETM0_Pos                  0U                                         /*!< TPI FIF
1344:../../libDaisy/Drivers/CMSIS/Include/core_cm7.h **** #define TPI_FIFO0_ETM0_Msk                 (0xFFUL /*<< TPI_FIFO0_ETM0_Pos*/)          /*!< TPI FIF
1345:../../libDaisy/Drivers/CMSIS/Include/core_cm7.h **** 
1346:../../libDaisy/Drivers/CMSIS/Include/core_cm7.h **** /* TPI ITATBCTR2 Register Definitions */
1347:../../libDaisy/Drivers/CMSIS/Include/core_cm7.h **** #define TPI_ITATBCTR2_ATREADY_Pos           0U                                         /*!< TPI ITA
1348:../../libDaisy/Drivers/CMSIS/Include/core_cm7.h **** #define TPI_ITATBCTR2_ATREADY_Msk          (0x1UL /*<< TPI_ITATBCTR2_ATREADY_Pos*/)    /*!< TPI ITA
1349:../../libDaisy/Drivers/CMSIS/Include/core_cm7.h **** 
1350:../../libDaisy/Drivers/CMSIS/Include/core_cm7.h **** /* TPI Integration ITM Data Register Definitions (FIFO1) */
1351:../../libDaisy/Drivers/CMSIS/Include/core_cm7.h **** #define TPI_FIFO1_ITM_ATVALID_Pos          29U                                         /*!< TPI FIF
1352:../../libDaisy/Drivers/CMSIS/Include/core_cm7.h **** #define TPI_FIFO1_ITM_ATVALID_Msk          (0x3UL << TPI_FIFO1_ITM_ATVALID_Pos)        /*!< TPI FIF
1353:../../libDaisy/Drivers/CMSIS/Include/core_cm7.h **** 
1354:../../libDaisy/Drivers/CMSIS/Include/core_cm7.h **** #define TPI_FIFO1_ITM_bytecount_Pos        27U                                         /*!< TPI FIF
1355:../../libDaisy/Drivers/CMSIS/Include/core_cm7.h **** #define TPI_FIFO1_ITM_bytecount_Msk        (0x3UL << TPI_FIFO1_ITM_bytecount_Pos)      /*!< TPI FIF
1356:../../libDaisy/Drivers/CMSIS/Include/core_cm7.h **** 
1357:../../libDaisy/Drivers/CMSIS/Include/core_cm7.h **** #define TPI_FIFO1_ETM_ATVALID_Pos          26U                                         /*!< TPI FIF
1358:../../libDaisy/Drivers/CMSIS/Include/core_cm7.h **** #define TPI_FIFO1_ETM_ATVALID_Msk          (0x3UL << TPI_FIFO1_ETM_ATVALID_Pos)        /*!< TPI FIF
1359:../../libDaisy/Drivers/CMSIS/Include/core_cm7.h **** 
1360:../../libDaisy/Drivers/CMSIS/Include/core_cm7.h **** #define TPI_FIFO1_ETM_bytecount_Pos        24U                                         /*!< TPI FIF
1361:../../libDaisy/Drivers/CMSIS/Include/core_cm7.h **** #define TPI_FIFO1_ETM_bytecount_Msk        (0x3UL << TPI_FIFO1_ETM_bytecount_Pos)      /*!< TPI FIF
1362:../../libDaisy/Drivers/CMSIS/Include/core_cm7.h **** 
1363:../../libDaisy/Drivers/CMSIS/Include/core_cm7.h **** #define TPI_FIFO1_ITM2_Pos                 16U                                         /*!< TPI FIF
1364:../../libDaisy/Drivers/CMSIS/Include/core_cm7.h **** #define TPI_FIFO1_ITM2_Msk                 (0xFFUL << TPI_FIFO1_ITM2_Pos)              /*!< TPI FIF
1365:../../libDaisy/Drivers/CMSIS/Include/core_cm7.h **** 
1366:../../libDaisy/Drivers/CMSIS/Include/core_cm7.h **** #define TPI_FIFO1_ITM1_Pos                  8U                                         /*!< TPI FIF
1367:../../libDaisy/Drivers/CMSIS/Include/core_cm7.h **** #define TPI_FIFO1_ITM1_Msk                 (0xFFUL << TPI_FIFO1_ITM1_Pos)              /*!< TPI FIF
1368:../../libDaisy/Drivers/CMSIS/Include/core_cm7.h **** 
1369:../../libDaisy/Drivers/CMSIS/Include/core_cm7.h **** #define TPI_FIFO1_ITM0_Pos                  0U                                         /*!< TPI FIF
1370:../../libDaisy/Drivers/CMSIS/Include/core_cm7.h **** #define TPI_FIFO1_ITM0_Msk                 (0xFFUL /*<< TPI_FIFO1_ITM0_Pos*/)          /*!< TPI FIF
1371:../../libDaisy/Drivers/CMSIS/Include/core_cm7.h **** 
1372:../../libDaisy/Drivers/CMSIS/Include/core_cm7.h **** /* TPI ITATBCTR0 Register Definitions */
1373:../../libDaisy/Drivers/CMSIS/Include/core_cm7.h **** #define TPI_ITATBCTR0_ATREADY_Pos           0U                                         /*!< TPI ITA
1374:../../libDaisy/Drivers/CMSIS/Include/core_cm7.h **** #define TPI_ITATBCTR0_ATREADY_Msk          (0x1UL /*<< TPI_ITATBCTR0_ATREADY_Pos*/)    /*!< TPI ITA
1375:../../libDaisy/Drivers/CMSIS/Include/core_cm7.h **** 
1376:../../libDaisy/Drivers/CMSIS/Include/core_cm7.h **** /* TPI Integration Mode Control Register Definitions */
1377:../../libDaisy/Drivers/CMSIS/Include/core_cm7.h **** #define TPI_ITCTRL_Mode_Pos                 0U                                         /*!< TPI ITC
1378:../../libDaisy/Drivers/CMSIS/Include/core_cm7.h **** #define TPI_ITCTRL_Mode_Msk                (0x1UL /*<< TPI_ITCTRL_Mode_Pos*/)          /*!< TPI ITC
1379:../../libDaisy/Drivers/CMSIS/Include/core_cm7.h **** 
1380:../../libDaisy/Drivers/CMSIS/Include/core_cm7.h **** /* TPI DEVID Register Definitions */
1381:../../libDaisy/Drivers/CMSIS/Include/core_cm7.h **** #define TPI_DEVID_NRZVALID_Pos             11U                                         /*!< TPI DEV
1382:../../libDaisy/Drivers/CMSIS/Include/core_cm7.h **** #define TPI_DEVID_NRZVALID_Msk             (0x1UL << TPI_DEVID_NRZVALID_Pos)           /*!< TPI DEV
1383:../../libDaisy/Drivers/CMSIS/Include/core_cm7.h **** 
1384:../../libDaisy/Drivers/CMSIS/Include/core_cm7.h **** #define TPI_DEVID_MANCVALID_Pos            10U                                         /*!< TPI DEV
1385:../../libDaisy/Drivers/CMSIS/Include/core_cm7.h **** #define TPI_DEVID_MANCVALID_Msk            (0x1UL << TPI_DEVID_MANCVALID_Pos)          /*!< TPI DEV
1386:../../libDaisy/Drivers/CMSIS/Include/core_cm7.h **** 
1387:../../libDaisy/Drivers/CMSIS/Include/core_cm7.h **** #define TPI_DEVID_PTINVALID_Pos             9U                                         /*!< TPI DEV
1388:../../libDaisy/Drivers/CMSIS/Include/core_cm7.h **** #define TPI_DEVID_PTINVALID_Msk            (0x1UL << TPI_DEVID_PTINVALID_Pos)          /*!< TPI DEV
1389:../../libDaisy/Drivers/CMSIS/Include/core_cm7.h **** 
1390:../../libDaisy/Drivers/CMSIS/Include/core_cm7.h **** #define TPI_DEVID_MinBufSz_Pos              6U                                         /*!< TPI DEV
1391:../../libDaisy/Drivers/CMSIS/Include/core_cm7.h **** #define TPI_DEVID_MinBufSz_Msk             (0x7UL << TPI_DEVID_MinBufSz_Pos)           /*!< TPI DEV
1392:../../libDaisy/Drivers/CMSIS/Include/core_cm7.h **** 
ARM GAS  /tmp/ccUUe33m.s 			page 38


1393:../../libDaisy/Drivers/CMSIS/Include/core_cm7.h **** #define TPI_DEVID_AsynClkIn_Pos             5U                                         /*!< TPI DEV
1394:../../libDaisy/Drivers/CMSIS/Include/core_cm7.h **** #define TPI_DEVID_AsynClkIn_Msk            (0x1UL << TPI_DEVID_AsynClkIn_Pos)          /*!< TPI DEV
1395:../../libDaisy/Drivers/CMSIS/Include/core_cm7.h **** 
1396:../../libDaisy/Drivers/CMSIS/Include/core_cm7.h **** #define TPI_DEVID_NrTraceInput_Pos          0U                                         /*!< TPI DEV
1397:../../libDaisy/Drivers/CMSIS/Include/core_cm7.h **** #define TPI_DEVID_NrTraceInput_Msk         (0x1FUL /*<< TPI_DEVID_NrTraceInput_Pos*/)  /*!< TPI DEV
1398:../../libDaisy/Drivers/CMSIS/Include/core_cm7.h **** 
1399:../../libDaisy/Drivers/CMSIS/Include/core_cm7.h **** /* TPI DEVTYPE Register Definitions */
1400:../../libDaisy/Drivers/CMSIS/Include/core_cm7.h **** #define TPI_DEVTYPE_MajorType_Pos           4U                                         /*!< TPI DEV
1401:../../libDaisy/Drivers/CMSIS/Include/core_cm7.h **** #define TPI_DEVTYPE_MajorType_Msk          (0xFUL << TPI_DEVTYPE_MajorType_Pos)        /*!< TPI DEV
1402:../../libDaisy/Drivers/CMSIS/Include/core_cm7.h **** 
1403:../../libDaisy/Drivers/CMSIS/Include/core_cm7.h **** #define TPI_DEVTYPE_SubType_Pos             0U                                         /*!< TPI DEV
1404:../../libDaisy/Drivers/CMSIS/Include/core_cm7.h **** #define TPI_DEVTYPE_SubType_Msk            (0xFUL /*<< TPI_DEVTYPE_SubType_Pos*/)      /*!< TPI DEV
1405:../../libDaisy/Drivers/CMSIS/Include/core_cm7.h **** 
1406:../../libDaisy/Drivers/CMSIS/Include/core_cm7.h **** /*@}*/ /* end of group CMSIS_TPI */
1407:../../libDaisy/Drivers/CMSIS/Include/core_cm7.h **** 
1408:../../libDaisy/Drivers/CMSIS/Include/core_cm7.h **** 
1409:../../libDaisy/Drivers/CMSIS/Include/core_cm7.h **** #if defined (__MPU_PRESENT) && (__MPU_PRESENT == 1U)
1410:../../libDaisy/Drivers/CMSIS/Include/core_cm7.h **** /**
1411:../../libDaisy/Drivers/CMSIS/Include/core_cm7.h ****   \ingroup  CMSIS_core_register
1412:../../libDaisy/Drivers/CMSIS/Include/core_cm7.h ****   \defgroup CMSIS_MPU     Memory Protection Unit (MPU)
1413:../../libDaisy/Drivers/CMSIS/Include/core_cm7.h ****   \brief    Type definitions for the Memory Protection Unit (MPU)
1414:../../libDaisy/Drivers/CMSIS/Include/core_cm7.h ****   @{
1415:../../libDaisy/Drivers/CMSIS/Include/core_cm7.h ****  */
1416:../../libDaisy/Drivers/CMSIS/Include/core_cm7.h **** 
1417:../../libDaisy/Drivers/CMSIS/Include/core_cm7.h **** /**
1418:../../libDaisy/Drivers/CMSIS/Include/core_cm7.h ****   \brief  Structure type to access the Memory Protection Unit (MPU).
1419:../../libDaisy/Drivers/CMSIS/Include/core_cm7.h ****  */
1420:../../libDaisy/Drivers/CMSIS/Include/core_cm7.h **** typedef struct
1421:../../libDaisy/Drivers/CMSIS/Include/core_cm7.h **** {
1422:../../libDaisy/Drivers/CMSIS/Include/core_cm7.h ****   __IM  uint32_t TYPE;                   /*!< Offset: 0x000 (R/ )  MPU Type Register */
1423:../../libDaisy/Drivers/CMSIS/Include/core_cm7.h ****   __IOM uint32_t CTRL;                   /*!< Offset: 0x004 (R/W)  MPU Control Register */
1424:../../libDaisy/Drivers/CMSIS/Include/core_cm7.h ****   __IOM uint32_t RNR;                    /*!< Offset: 0x008 (R/W)  MPU Region RNRber Register */
1425:../../libDaisy/Drivers/CMSIS/Include/core_cm7.h ****   __IOM uint32_t RBAR;                   /*!< Offset: 0x00C (R/W)  MPU Region Base Address Register
1426:../../libDaisy/Drivers/CMSIS/Include/core_cm7.h ****   __IOM uint32_t RASR;                   /*!< Offset: 0x010 (R/W)  MPU Region Attribute and Size Re
1427:../../libDaisy/Drivers/CMSIS/Include/core_cm7.h ****   __IOM uint32_t RBAR_A1;                /*!< Offset: 0x014 (R/W)  MPU Alias 1 Region Base Address 
1428:../../libDaisy/Drivers/CMSIS/Include/core_cm7.h ****   __IOM uint32_t RASR_A1;                /*!< Offset: 0x018 (R/W)  MPU Alias 1 Region Attribute and
1429:../../libDaisy/Drivers/CMSIS/Include/core_cm7.h ****   __IOM uint32_t RBAR_A2;                /*!< Offset: 0x01C (R/W)  MPU Alias 2 Region Base Address 
1430:../../libDaisy/Drivers/CMSIS/Include/core_cm7.h ****   __IOM uint32_t RASR_A2;                /*!< Offset: 0x020 (R/W)  MPU Alias 2 Region Attribute and
1431:../../libDaisy/Drivers/CMSIS/Include/core_cm7.h ****   __IOM uint32_t RBAR_A3;                /*!< Offset: 0x024 (R/W)  MPU Alias 3 Region Base Address 
1432:../../libDaisy/Drivers/CMSIS/Include/core_cm7.h ****   __IOM uint32_t RASR_A3;                /*!< Offset: 0x028 (R/W)  MPU Alias 3 Region Attribute and
1433:../../libDaisy/Drivers/CMSIS/Include/core_cm7.h **** } MPU_Type;
1434:../../libDaisy/Drivers/CMSIS/Include/core_cm7.h **** 
1435:../../libDaisy/Drivers/CMSIS/Include/core_cm7.h **** /* MPU Type Register Definitions */
1436:../../libDaisy/Drivers/CMSIS/Include/core_cm7.h **** #define MPU_TYPE_IREGION_Pos               16U                                            /*!< MPU 
1437:../../libDaisy/Drivers/CMSIS/Include/core_cm7.h **** #define MPU_TYPE_IREGION_Msk               (0xFFUL << MPU_TYPE_IREGION_Pos)               /*!< MPU 
1438:../../libDaisy/Drivers/CMSIS/Include/core_cm7.h **** 
1439:../../libDaisy/Drivers/CMSIS/Include/core_cm7.h **** #define MPU_TYPE_DREGION_Pos                8U                                            /*!< MPU 
1440:../../libDaisy/Drivers/CMSIS/Include/core_cm7.h **** #define MPU_TYPE_DREGION_Msk               (0xFFUL << MPU_TYPE_DREGION_Pos)               /*!< MPU 
1441:../../libDaisy/Drivers/CMSIS/Include/core_cm7.h **** 
1442:../../libDaisy/Drivers/CMSIS/Include/core_cm7.h **** #define MPU_TYPE_SEPARATE_Pos               0U                                            /*!< MPU 
1443:../../libDaisy/Drivers/CMSIS/Include/core_cm7.h **** #define MPU_TYPE_SEPARATE_Msk              (1UL /*<< MPU_TYPE_SEPARATE_Pos*/)             /*!< MPU 
1444:../../libDaisy/Drivers/CMSIS/Include/core_cm7.h **** 
1445:../../libDaisy/Drivers/CMSIS/Include/core_cm7.h **** /* MPU Control Register Definitions */
1446:../../libDaisy/Drivers/CMSIS/Include/core_cm7.h **** #define MPU_CTRL_PRIVDEFENA_Pos             2U                                            /*!< MPU 
1447:../../libDaisy/Drivers/CMSIS/Include/core_cm7.h **** #define MPU_CTRL_PRIVDEFENA_Msk            (1UL << MPU_CTRL_PRIVDEFENA_Pos)               /*!< MPU 
1448:../../libDaisy/Drivers/CMSIS/Include/core_cm7.h **** 
1449:../../libDaisy/Drivers/CMSIS/Include/core_cm7.h **** #define MPU_CTRL_HFNMIENA_Pos               1U                                            /*!< MPU 
ARM GAS  /tmp/ccUUe33m.s 			page 39


1450:../../libDaisy/Drivers/CMSIS/Include/core_cm7.h **** #define MPU_CTRL_HFNMIENA_Msk              (1UL << MPU_CTRL_HFNMIENA_Pos)                 /*!< MPU 
1451:../../libDaisy/Drivers/CMSIS/Include/core_cm7.h **** 
1452:../../libDaisy/Drivers/CMSIS/Include/core_cm7.h **** #define MPU_CTRL_ENABLE_Pos                 0U                                            /*!< MPU 
1453:../../libDaisy/Drivers/CMSIS/Include/core_cm7.h **** #define MPU_CTRL_ENABLE_Msk                (1UL /*<< MPU_CTRL_ENABLE_Pos*/)               /*!< MPU 
1454:../../libDaisy/Drivers/CMSIS/Include/core_cm7.h **** 
1455:../../libDaisy/Drivers/CMSIS/Include/core_cm7.h **** /* MPU Region Number Register Definitions */
1456:../../libDaisy/Drivers/CMSIS/Include/core_cm7.h **** #define MPU_RNR_REGION_Pos                  0U                                            /*!< MPU 
1457:../../libDaisy/Drivers/CMSIS/Include/core_cm7.h **** #define MPU_RNR_REGION_Msk                 (0xFFUL /*<< MPU_RNR_REGION_Pos*/)             /*!< MPU 
1458:../../libDaisy/Drivers/CMSIS/Include/core_cm7.h **** 
1459:../../libDaisy/Drivers/CMSIS/Include/core_cm7.h **** /* MPU Region Base Address Register Definitions */
1460:../../libDaisy/Drivers/CMSIS/Include/core_cm7.h **** #define MPU_RBAR_ADDR_Pos                   5U                                            /*!< MPU 
1461:../../libDaisy/Drivers/CMSIS/Include/core_cm7.h **** #define MPU_RBAR_ADDR_Msk                  (0x7FFFFFFUL << MPU_RBAR_ADDR_Pos)             /*!< MPU 
1462:../../libDaisy/Drivers/CMSIS/Include/core_cm7.h **** 
1463:../../libDaisy/Drivers/CMSIS/Include/core_cm7.h **** #define MPU_RBAR_VALID_Pos                  4U                                            /*!< MPU 
1464:../../libDaisy/Drivers/CMSIS/Include/core_cm7.h **** #define MPU_RBAR_VALID_Msk                 (1UL << MPU_RBAR_VALID_Pos)                    /*!< MPU 
1465:../../libDaisy/Drivers/CMSIS/Include/core_cm7.h **** 
1466:../../libDaisy/Drivers/CMSIS/Include/core_cm7.h **** #define MPU_RBAR_REGION_Pos                 0U                                            /*!< MPU 
1467:../../libDaisy/Drivers/CMSIS/Include/core_cm7.h **** #define MPU_RBAR_REGION_Msk                (0xFUL /*<< MPU_RBAR_REGION_Pos*/)             /*!< MPU 
1468:../../libDaisy/Drivers/CMSIS/Include/core_cm7.h **** 
1469:../../libDaisy/Drivers/CMSIS/Include/core_cm7.h **** /* MPU Region Attribute and Size Register Definitions */
1470:../../libDaisy/Drivers/CMSIS/Include/core_cm7.h **** #define MPU_RASR_ATTRS_Pos                 16U                                            /*!< MPU 
1471:../../libDaisy/Drivers/CMSIS/Include/core_cm7.h **** #define MPU_RASR_ATTRS_Msk                 (0xFFFFUL << MPU_RASR_ATTRS_Pos)               /*!< MPU 
1472:../../libDaisy/Drivers/CMSIS/Include/core_cm7.h **** 
1473:../../libDaisy/Drivers/CMSIS/Include/core_cm7.h **** #define MPU_RASR_XN_Pos                    28U                                            /*!< MPU 
1474:../../libDaisy/Drivers/CMSIS/Include/core_cm7.h **** #define MPU_RASR_XN_Msk                    (1UL << MPU_RASR_XN_Pos)                       /*!< MPU 
1475:../../libDaisy/Drivers/CMSIS/Include/core_cm7.h **** 
1476:../../libDaisy/Drivers/CMSIS/Include/core_cm7.h **** #define MPU_RASR_AP_Pos                    24U                                            /*!< MPU 
1477:../../libDaisy/Drivers/CMSIS/Include/core_cm7.h **** #define MPU_RASR_AP_Msk                    (0x7UL << MPU_RASR_AP_Pos)                     /*!< MPU 
1478:../../libDaisy/Drivers/CMSIS/Include/core_cm7.h **** 
1479:../../libDaisy/Drivers/CMSIS/Include/core_cm7.h **** #define MPU_RASR_TEX_Pos                   19U                                            /*!< MPU 
1480:../../libDaisy/Drivers/CMSIS/Include/core_cm7.h **** #define MPU_RASR_TEX_Msk                   (0x7UL << MPU_RASR_TEX_Pos)                    /*!< MPU 
1481:../../libDaisy/Drivers/CMSIS/Include/core_cm7.h **** 
1482:../../libDaisy/Drivers/CMSIS/Include/core_cm7.h **** #define MPU_RASR_S_Pos                     18U                                            /*!< MPU 
1483:../../libDaisy/Drivers/CMSIS/Include/core_cm7.h **** #define MPU_RASR_S_Msk                     (1UL << MPU_RASR_S_Pos)                        /*!< MPU 
1484:../../libDaisy/Drivers/CMSIS/Include/core_cm7.h **** 
1485:../../libDaisy/Drivers/CMSIS/Include/core_cm7.h **** #define MPU_RASR_C_Pos                     17U                                            /*!< MPU 
1486:../../libDaisy/Drivers/CMSIS/Include/core_cm7.h **** #define MPU_RASR_C_Msk                     (1UL << MPU_RASR_C_Pos)                        /*!< MPU 
1487:../../libDaisy/Drivers/CMSIS/Include/core_cm7.h **** 
1488:../../libDaisy/Drivers/CMSIS/Include/core_cm7.h **** #define MPU_RASR_B_Pos                     16U                                            /*!< MPU 
1489:../../libDaisy/Drivers/CMSIS/Include/core_cm7.h **** #define MPU_RASR_B_Msk                     (1UL << MPU_RASR_B_Pos)                        /*!< MPU 
1490:../../libDaisy/Drivers/CMSIS/Include/core_cm7.h **** 
1491:../../libDaisy/Drivers/CMSIS/Include/core_cm7.h **** #define MPU_RASR_SRD_Pos                    8U                                            /*!< MPU 
1492:../../libDaisy/Drivers/CMSIS/Include/core_cm7.h **** #define MPU_RASR_SRD_Msk                   (0xFFUL << MPU_RASR_SRD_Pos)                   /*!< MPU 
1493:../../libDaisy/Drivers/CMSIS/Include/core_cm7.h **** 
1494:../../libDaisy/Drivers/CMSIS/Include/core_cm7.h **** #define MPU_RASR_SIZE_Pos                   1U                                            /*!< MPU 
1495:../../libDaisy/Drivers/CMSIS/Include/core_cm7.h **** #define MPU_RASR_SIZE_Msk                  (0x1FUL << MPU_RASR_SIZE_Pos)                  /*!< MPU 
1496:../../libDaisy/Drivers/CMSIS/Include/core_cm7.h **** 
1497:../../libDaisy/Drivers/CMSIS/Include/core_cm7.h **** #define MPU_RASR_ENABLE_Pos                 0U                                            /*!< MPU 
1498:../../libDaisy/Drivers/CMSIS/Include/core_cm7.h **** #define MPU_RASR_ENABLE_Msk                (1UL /*<< MPU_RASR_ENABLE_Pos*/)               /*!< MPU 
1499:../../libDaisy/Drivers/CMSIS/Include/core_cm7.h **** 
1500:../../libDaisy/Drivers/CMSIS/Include/core_cm7.h **** /*@} end of group CMSIS_MPU */
1501:../../libDaisy/Drivers/CMSIS/Include/core_cm7.h **** #endif /* defined (__MPU_PRESENT) && (__MPU_PRESENT == 1U) */
1502:../../libDaisy/Drivers/CMSIS/Include/core_cm7.h **** 
1503:../../libDaisy/Drivers/CMSIS/Include/core_cm7.h **** 
1504:../../libDaisy/Drivers/CMSIS/Include/core_cm7.h **** /**
1505:../../libDaisy/Drivers/CMSIS/Include/core_cm7.h ****   \ingroup  CMSIS_core_register
1506:../../libDaisy/Drivers/CMSIS/Include/core_cm7.h ****   \defgroup CMSIS_FPU     Floating Point Unit (FPU)
ARM GAS  /tmp/ccUUe33m.s 			page 40


1507:../../libDaisy/Drivers/CMSIS/Include/core_cm7.h ****   \brief    Type definitions for the Floating Point Unit (FPU)
1508:../../libDaisy/Drivers/CMSIS/Include/core_cm7.h ****   @{
1509:../../libDaisy/Drivers/CMSIS/Include/core_cm7.h ****  */
1510:../../libDaisy/Drivers/CMSIS/Include/core_cm7.h **** 
1511:../../libDaisy/Drivers/CMSIS/Include/core_cm7.h **** /**
1512:../../libDaisy/Drivers/CMSIS/Include/core_cm7.h ****   \brief  Structure type to access the Floating Point Unit (FPU).
1513:../../libDaisy/Drivers/CMSIS/Include/core_cm7.h ****  */
1514:../../libDaisy/Drivers/CMSIS/Include/core_cm7.h **** typedef struct
1515:../../libDaisy/Drivers/CMSIS/Include/core_cm7.h **** {
1516:../../libDaisy/Drivers/CMSIS/Include/core_cm7.h ****         uint32_t RESERVED0[1U];
1517:../../libDaisy/Drivers/CMSIS/Include/core_cm7.h ****   __IOM uint32_t FPCCR;                  /*!< Offset: 0x004 (R/W)  Floating-Point Context Control R
1518:../../libDaisy/Drivers/CMSIS/Include/core_cm7.h ****   __IOM uint32_t FPCAR;                  /*!< Offset: 0x008 (R/W)  Floating-Point Context Address R
1519:../../libDaisy/Drivers/CMSIS/Include/core_cm7.h ****   __IOM uint32_t FPDSCR;                 /*!< Offset: 0x00C (R/W)  Floating-Point Default Status Co
1520:../../libDaisy/Drivers/CMSIS/Include/core_cm7.h ****   __IM  uint32_t MVFR0;                  /*!< Offset: 0x010 (R/ )  Media and FP Feature Register 0 
1521:../../libDaisy/Drivers/CMSIS/Include/core_cm7.h ****   __IM  uint32_t MVFR1;                  /*!< Offset: 0x014 (R/ )  Media and FP Feature Register 1 
1522:../../libDaisy/Drivers/CMSIS/Include/core_cm7.h ****   __IM  uint32_t MVFR2;                  /*!< Offset: 0x018 (R/ )  Media and FP Feature Register 2 
1523:../../libDaisy/Drivers/CMSIS/Include/core_cm7.h **** } FPU_Type;
1524:../../libDaisy/Drivers/CMSIS/Include/core_cm7.h **** 
1525:../../libDaisy/Drivers/CMSIS/Include/core_cm7.h **** /* Floating-Point Context Control Register Definitions */
1526:../../libDaisy/Drivers/CMSIS/Include/core_cm7.h **** #define FPU_FPCCR_ASPEN_Pos                31U                                            /*!< FPCC
1527:../../libDaisy/Drivers/CMSIS/Include/core_cm7.h **** #define FPU_FPCCR_ASPEN_Msk                (1UL << FPU_FPCCR_ASPEN_Pos)                   /*!< FPCC
1528:../../libDaisy/Drivers/CMSIS/Include/core_cm7.h **** 
1529:../../libDaisy/Drivers/CMSIS/Include/core_cm7.h **** #define FPU_FPCCR_LSPEN_Pos                30U                                            /*!< FPCC
1530:../../libDaisy/Drivers/CMSIS/Include/core_cm7.h **** #define FPU_FPCCR_LSPEN_Msk                (1UL << FPU_FPCCR_LSPEN_Pos)                   /*!< FPCC
1531:../../libDaisy/Drivers/CMSIS/Include/core_cm7.h **** 
1532:../../libDaisy/Drivers/CMSIS/Include/core_cm7.h **** #define FPU_FPCCR_MONRDY_Pos                8U                                            /*!< FPCC
1533:../../libDaisy/Drivers/CMSIS/Include/core_cm7.h **** #define FPU_FPCCR_MONRDY_Msk               (1UL << FPU_FPCCR_MONRDY_Pos)                  /*!< FPCC
1534:../../libDaisy/Drivers/CMSIS/Include/core_cm7.h **** 
1535:../../libDaisy/Drivers/CMSIS/Include/core_cm7.h **** #define FPU_FPCCR_BFRDY_Pos                 6U                                            /*!< FPCC
1536:../../libDaisy/Drivers/CMSIS/Include/core_cm7.h **** #define FPU_FPCCR_BFRDY_Msk                (1UL << FPU_FPCCR_BFRDY_Pos)                   /*!< FPCC
1537:../../libDaisy/Drivers/CMSIS/Include/core_cm7.h **** 
1538:../../libDaisy/Drivers/CMSIS/Include/core_cm7.h **** #define FPU_FPCCR_MMRDY_Pos                 5U                                            /*!< FPCC
1539:../../libDaisy/Drivers/CMSIS/Include/core_cm7.h **** #define FPU_FPCCR_MMRDY_Msk                (1UL << FPU_FPCCR_MMRDY_Pos)                   /*!< FPCC
1540:../../libDaisy/Drivers/CMSIS/Include/core_cm7.h **** 
1541:../../libDaisy/Drivers/CMSIS/Include/core_cm7.h **** #define FPU_FPCCR_HFRDY_Pos                 4U                                            /*!< FPCC
1542:../../libDaisy/Drivers/CMSIS/Include/core_cm7.h **** #define FPU_FPCCR_HFRDY_Msk                (1UL << FPU_FPCCR_HFRDY_Pos)                   /*!< FPCC
1543:../../libDaisy/Drivers/CMSIS/Include/core_cm7.h **** 
1544:../../libDaisy/Drivers/CMSIS/Include/core_cm7.h **** #define FPU_FPCCR_THREAD_Pos                3U                                            /*!< FPCC
1545:../../libDaisy/Drivers/CMSIS/Include/core_cm7.h **** #define FPU_FPCCR_THREAD_Msk               (1UL << FPU_FPCCR_THREAD_Pos)                  /*!< FPCC
1546:../../libDaisy/Drivers/CMSIS/Include/core_cm7.h **** 
1547:../../libDaisy/Drivers/CMSIS/Include/core_cm7.h **** #define FPU_FPCCR_USER_Pos                  1U                                            /*!< FPCC
1548:../../libDaisy/Drivers/CMSIS/Include/core_cm7.h **** #define FPU_FPCCR_USER_Msk                 (1UL << FPU_FPCCR_USER_Pos)                    /*!< FPCC
1549:../../libDaisy/Drivers/CMSIS/Include/core_cm7.h **** 
1550:../../libDaisy/Drivers/CMSIS/Include/core_cm7.h **** #define FPU_FPCCR_LSPACT_Pos                0U                                            /*!< FPCC
1551:../../libDaisy/Drivers/CMSIS/Include/core_cm7.h **** #define FPU_FPCCR_LSPACT_Msk               (1UL /*<< FPU_FPCCR_LSPACT_Pos*/)              /*!< FPCC
1552:../../libDaisy/Drivers/CMSIS/Include/core_cm7.h **** 
1553:../../libDaisy/Drivers/CMSIS/Include/core_cm7.h **** /* Floating-Point Context Address Register Definitions */
1554:../../libDaisy/Drivers/CMSIS/Include/core_cm7.h **** #define FPU_FPCAR_ADDRESS_Pos               3U                                            /*!< FPCA
1555:../../libDaisy/Drivers/CMSIS/Include/core_cm7.h **** #define FPU_FPCAR_ADDRESS_Msk              (0x1FFFFFFFUL << FPU_FPCAR_ADDRESS_Pos)        /*!< FPCA
1556:../../libDaisy/Drivers/CMSIS/Include/core_cm7.h **** 
1557:../../libDaisy/Drivers/CMSIS/Include/core_cm7.h **** /* Floating-Point Default Status Control Register Definitions */
1558:../../libDaisy/Drivers/CMSIS/Include/core_cm7.h **** #define FPU_FPDSCR_AHP_Pos                 26U                                            /*!< FPDS
1559:../../libDaisy/Drivers/CMSIS/Include/core_cm7.h **** #define FPU_FPDSCR_AHP_Msk                 (1UL << FPU_FPDSCR_AHP_Pos)                    /*!< FPDS
1560:../../libDaisy/Drivers/CMSIS/Include/core_cm7.h **** 
1561:../../libDaisy/Drivers/CMSIS/Include/core_cm7.h **** #define FPU_FPDSCR_DN_Pos                  25U                                            /*!< FPDS
1562:../../libDaisy/Drivers/CMSIS/Include/core_cm7.h **** #define FPU_FPDSCR_DN_Msk                  (1UL << FPU_FPDSCR_DN_Pos)                     /*!< FPDS
1563:../../libDaisy/Drivers/CMSIS/Include/core_cm7.h **** 
ARM GAS  /tmp/ccUUe33m.s 			page 41


1564:../../libDaisy/Drivers/CMSIS/Include/core_cm7.h **** #define FPU_FPDSCR_FZ_Pos                  24U                                            /*!< FPDS
1565:../../libDaisy/Drivers/CMSIS/Include/core_cm7.h **** #define FPU_FPDSCR_FZ_Msk                  (1UL << FPU_FPDSCR_FZ_Pos)                     /*!< FPDS
1566:../../libDaisy/Drivers/CMSIS/Include/core_cm7.h **** 
1567:../../libDaisy/Drivers/CMSIS/Include/core_cm7.h **** #define FPU_FPDSCR_RMode_Pos               22U                                            /*!< FPDS
1568:../../libDaisy/Drivers/CMSIS/Include/core_cm7.h **** #define FPU_FPDSCR_RMode_Msk               (3UL << FPU_FPDSCR_RMode_Pos)                  /*!< FPDS
1569:../../libDaisy/Drivers/CMSIS/Include/core_cm7.h **** 
1570:../../libDaisy/Drivers/CMSIS/Include/core_cm7.h **** /* Media and FP Feature Register 0 Definitions */
1571:../../libDaisy/Drivers/CMSIS/Include/core_cm7.h **** #define FPU_MVFR0_FP_rounding_modes_Pos    28U                                            /*!< MVFR
1572:../../libDaisy/Drivers/CMSIS/Include/core_cm7.h **** #define FPU_MVFR0_FP_rounding_modes_Msk    (0xFUL << FPU_MVFR0_FP_rounding_modes_Pos)     /*!< MVFR
1573:../../libDaisy/Drivers/CMSIS/Include/core_cm7.h **** 
1574:../../libDaisy/Drivers/CMSIS/Include/core_cm7.h **** #define FPU_MVFR0_Short_vectors_Pos        24U                                            /*!< MVFR
1575:../../libDaisy/Drivers/CMSIS/Include/core_cm7.h **** #define FPU_MVFR0_Short_vectors_Msk        (0xFUL << FPU_MVFR0_Short_vectors_Pos)         /*!< MVFR
1576:../../libDaisy/Drivers/CMSIS/Include/core_cm7.h **** 
1577:../../libDaisy/Drivers/CMSIS/Include/core_cm7.h **** #define FPU_MVFR0_Square_root_Pos          20U                                            /*!< MVFR
1578:../../libDaisy/Drivers/CMSIS/Include/core_cm7.h **** #define FPU_MVFR0_Square_root_Msk          (0xFUL << FPU_MVFR0_Square_root_Pos)           /*!< MVFR
1579:../../libDaisy/Drivers/CMSIS/Include/core_cm7.h **** 
1580:../../libDaisy/Drivers/CMSIS/Include/core_cm7.h **** #define FPU_MVFR0_Divide_Pos               16U                                            /*!< MVFR
1581:../../libDaisy/Drivers/CMSIS/Include/core_cm7.h **** #define FPU_MVFR0_Divide_Msk               (0xFUL << FPU_MVFR0_Divide_Pos)                /*!< MVFR
1582:../../libDaisy/Drivers/CMSIS/Include/core_cm7.h **** 
1583:../../libDaisy/Drivers/CMSIS/Include/core_cm7.h **** #define FPU_MVFR0_FP_excep_trapping_Pos    12U                                            /*!< MVFR
1584:../../libDaisy/Drivers/CMSIS/Include/core_cm7.h **** #define FPU_MVFR0_FP_excep_trapping_Msk    (0xFUL << FPU_MVFR0_FP_excep_trapping_Pos)     /*!< MVFR
1585:../../libDaisy/Drivers/CMSIS/Include/core_cm7.h **** 
1586:../../libDaisy/Drivers/CMSIS/Include/core_cm7.h **** #define FPU_MVFR0_Double_precision_Pos      8U                                            /*!< MVFR
1587:../../libDaisy/Drivers/CMSIS/Include/core_cm7.h **** #define FPU_MVFR0_Double_precision_Msk     (0xFUL << FPU_MVFR0_Double_precision_Pos)      /*!< MVFR
1588:../../libDaisy/Drivers/CMSIS/Include/core_cm7.h **** 
1589:../../libDaisy/Drivers/CMSIS/Include/core_cm7.h **** #define FPU_MVFR0_Single_precision_Pos      4U                                            /*!< MVFR
1590:../../libDaisy/Drivers/CMSIS/Include/core_cm7.h **** #define FPU_MVFR0_Single_precision_Msk     (0xFUL << FPU_MVFR0_Single_precision_Pos)      /*!< MVFR
1591:../../libDaisy/Drivers/CMSIS/Include/core_cm7.h **** 
1592:../../libDaisy/Drivers/CMSIS/Include/core_cm7.h **** #define FPU_MVFR0_A_SIMD_registers_Pos      0U                                            /*!< MVFR
1593:../../libDaisy/Drivers/CMSIS/Include/core_cm7.h **** #define FPU_MVFR0_A_SIMD_registers_Msk     (0xFUL /*<< FPU_MVFR0_A_SIMD_registers_Pos*/)  /*!< MVFR
1594:../../libDaisy/Drivers/CMSIS/Include/core_cm7.h **** 
1595:../../libDaisy/Drivers/CMSIS/Include/core_cm7.h **** /* Media and FP Feature Register 1 Definitions */
1596:../../libDaisy/Drivers/CMSIS/Include/core_cm7.h **** #define FPU_MVFR1_FP_fused_MAC_Pos         28U                                            /*!< MVFR
1597:../../libDaisy/Drivers/CMSIS/Include/core_cm7.h **** #define FPU_MVFR1_FP_fused_MAC_Msk         (0xFUL << FPU_MVFR1_FP_fused_MAC_Pos)          /*!< MVFR
1598:../../libDaisy/Drivers/CMSIS/Include/core_cm7.h **** 
1599:../../libDaisy/Drivers/CMSIS/Include/core_cm7.h **** #define FPU_MVFR1_FP_HPFP_Pos              24U                                            /*!< MVFR
1600:../../libDaisy/Drivers/CMSIS/Include/core_cm7.h **** #define FPU_MVFR1_FP_HPFP_Msk              (0xFUL << FPU_MVFR1_FP_HPFP_Pos)               /*!< MVFR
1601:../../libDaisy/Drivers/CMSIS/Include/core_cm7.h **** 
1602:../../libDaisy/Drivers/CMSIS/Include/core_cm7.h **** #define FPU_MVFR1_D_NaN_mode_Pos            4U                                            /*!< MVFR
1603:../../libDaisy/Drivers/CMSIS/Include/core_cm7.h **** #define FPU_MVFR1_D_NaN_mode_Msk           (0xFUL << FPU_MVFR1_D_NaN_mode_Pos)            /*!< MVFR
1604:../../libDaisy/Drivers/CMSIS/Include/core_cm7.h **** 
1605:../../libDaisy/Drivers/CMSIS/Include/core_cm7.h **** #define FPU_MVFR1_FtZ_mode_Pos              0U                                            /*!< MVFR
1606:../../libDaisy/Drivers/CMSIS/Include/core_cm7.h **** #define FPU_MVFR1_FtZ_mode_Msk             (0xFUL /*<< FPU_MVFR1_FtZ_mode_Pos*/)          /*!< MVFR
1607:../../libDaisy/Drivers/CMSIS/Include/core_cm7.h **** 
1608:../../libDaisy/Drivers/CMSIS/Include/core_cm7.h **** /* Media and FP Feature Register 2 Definitions */
1609:../../libDaisy/Drivers/CMSIS/Include/core_cm7.h **** 
1610:../../libDaisy/Drivers/CMSIS/Include/core_cm7.h **** /*@} end of group CMSIS_FPU */
1611:../../libDaisy/Drivers/CMSIS/Include/core_cm7.h **** 
1612:../../libDaisy/Drivers/CMSIS/Include/core_cm7.h **** 
1613:../../libDaisy/Drivers/CMSIS/Include/core_cm7.h **** /**
1614:../../libDaisy/Drivers/CMSIS/Include/core_cm7.h ****   \ingroup  CMSIS_core_register
1615:../../libDaisy/Drivers/CMSIS/Include/core_cm7.h ****   \defgroup CMSIS_CoreDebug       Core Debug Registers (CoreDebug)
1616:../../libDaisy/Drivers/CMSIS/Include/core_cm7.h ****   \brief    Type definitions for the Core Debug Registers
1617:../../libDaisy/Drivers/CMSIS/Include/core_cm7.h ****   @{
1618:../../libDaisy/Drivers/CMSIS/Include/core_cm7.h ****  */
1619:../../libDaisy/Drivers/CMSIS/Include/core_cm7.h **** 
1620:../../libDaisy/Drivers/CMSIS/Include/core_cm7.h **** /**
ARM GAS  /tmp/ccUUe33m.s 			page 42


1621:../../libDaisy/Drivers/CMSIS/Include/core_cm7.h ****   \brief  Structure type to access the Core Debug Register (CoreDebug).
1622:../../libDaisy/Drivers/CMSIS/Include/core_cm7.h ****  */
1623:../../libDaisy/Drivers/CMSIS/Include/core_cm7.h **** typedef struct
1624:../../libDaisy/Drivers/CMSIS/Include/core_cm7.h **** {
1625:../../libDaisy/Drivers/CMSIS/Include/core_cm7.h ****   __IOM uint32_t DHCSR;                  /*!< Offset: 0x000 (R/W)  Debug Halting Control and Status
1626:../../libDaisy/Drivers/CMSIS/Include/core_cm7.h ****   __OM  uint32_t DCRSR;                  /*!< Offset: 0x004 ( /W)  Debug Core Register Selector Reg
1627:../../libDaisy/Drivers/CMSIS/Include/core_cm7.h ****   __IOM uint32_t DCRDR;                  /*!< Offset: 0x008 (R/W)  Debug Core Register Data Registe
1628:../../libDaisy/Drivers/CMSIS/Include/core_cm7.h ****   __IOM uint32_t DEMCR;                  /*!< Offset: 0x00C (R/W)  Debug Exception and Monitor Cont
1629:../../libDaisy/Drivers/CMSIS/Include/core_cm7.h **** } CoreDebug_Type;
1630:../../libDaisy/Drivers/CMSIS/Include/core_cm7.h **** 
1631:../../libDaisy/Drivers/CMSIS/Include/core_cm7.h **** /* Debug Halting Control and Status Register Definitions */
1632:../../libDaisy/Drivers/CMSIS/Include/core_cm7.h **** #define CoreDebug_DHCSR_DBGKEY_Pos         16U                                            /*!< Core
1633:../../libDaisy/Drivers/CMSIS/Include/core_cm7.h **** #define CoreDebug_DHCSR_DBGKEY_Msk         (0xFFFFUL << CoreDebug_DHCSR_DBGKEY_Pos)       /*!< Core
1634:../../libDaisy/Drivers/CMSIS/Include/core_cm7.h **** 
1635:../../libDaisy/Drivers/CMSIS/Include/core_cm7.h **** #define CoreDebug_DHCSR_S_RESET_ST_Pos     25U                                            /*!< Core
1636:../../libDaisy/Drivers/CMSIS/Include/core_cm7.h **** #define CoreDebug_DHCSR_S_RESET_ST_Msk     (1UL << CoreDebug_DHCSR_S_RESET_ST_Pos)        /*!< Core
1637:../../libDaisy/Drivers/CMSIS/Include/core_cm7.h **** 
1638:../../libDaisy/Drivers/CMSIS/Include/core_cm7.h **** #define CoreDebug_DHCSR_S_RETIRE_ST_Pos    24U                                            /*!< Core
1639:../../libDaisy/Drivers/CMSIS/Include/core_cm7.h **** #define CoreDebug_DHCSR_S_RETIRE_ST_Msk    (1UL << CoreDebug_DHCSR_S_RETIRE_ST_Pos)       /*!< Core
1640:../../libDaisy/Drivers/CMSIS/Include/core_cm7.h **** 
1641:../../libDaisy/Drivers/CMSIS/Include/core_cm7.h **** #define CoreDebug_DHCSR_S_LOCKUP_Pos       19U                                            /*!< Core
1642:../../libDaisy/Drivers/CMSIS/Include/core_cm7.h **** #define CoreDebug_DHCSR_S_LOCKUP_Msk       (1UL << CoreDebug_DHCSR_S_LOCKUP_Pos)          /*!< Core
1643:../../libDaisy/Drivers/CMSIS/Include/core_cm7.h **** 
1644:../../libDaisy/Drivers/CMSIS/Include/core_cm7.h **** #define CoreDebug_DHCSR_S_SLEEP_Pos        18U                                            /*!< Core
1645:../../libDaisy/Drivers/CMSIS/Include/core_cm7.h **** #define CoreDebug_DHCSR_S_SLEEP_Msk        (1UL << CoreDebug_DHCSR_S_SLEEP_Pos)           /*!< Core
1646:../../libDaisy/Drivers/CMSIS/Include/core_cm7.h **** 
1647:../../libDaisy/Drivers/CMSIS/Include/core_cm7.h **** #define CoreDebug_DHCSR_S_HALT_Pos         17U                                            /*!< Core
1648:../../libDaisy/Drivers/CMSIS/Include/core_cm7.h **** #define CoreDebug_DHCSR_S_HALT_Msk         (1UL << CoreDebug_DHCSR_S_HALT_Pos)            /*!< Core
1649:../../libDaisy/Drivers/CMSIS/Include/core_cm7.h **** 
1650:../../libDaisy/Drivers/CMSIS/Include/core_cm7.h **** #define CoreDebug_DHCSR_S_REGRDY_Pos       16U                                            /*!< Core
1651:../../libDaisy/Drivers/CMSIS/Include/core_cm7.h **** #define CoreDebug_DHCSR_S_REGRDY_Msk       (1UL << CoreDebug_DHCSR_S_REGRDY_Pos)          /*!< Core
1652:../../libDaisy/Drivers/CMSIS/Include/core_cm7.h **** 
1653:../../libDaisy/Drivers/CMSIS/Include/core_cm7.h **** #define CoreDebug_DHCSR_C_SNAPSTALL_Pos     5U                                            /*!< Core
1654:../../libDaisy/Drivers/CMSIS/Include/core_cm7.h **** #define CoreDebug_DHCSR_C_SNAPSTALL_Msk    (1UL << CoreDebug_DHCSR_C_SNAPSTALL_Pos)       /*!< Core
1655:../../libDaisy/Drivers/CMSIS/Include/core_cm7.h **** 
1656:../../libDaisy/Drivers/CMSIS/Include/core_cm7.h **** #define CoreDebug_DHCSR_C_MASKINTS_Pos      3U                                            /*!< Core
1657:../../libDaisy/Drivers/CMSIS/Include/core_cm7.h **** #define CoreDebug_DHCSR_C_MASKINTS_Msk     (1UL << CoreDebug_DHCSR_C_MASKINTS_Pos)        /*!< Core
1658:../../libDaisy/Drivers/CMSIS/Include/core_cm7.h **** 
1659:../../libDaisy/Drivers/CMSIS/Include/core_cm7.h **** #define CoreDebug_DHCSR_C_STEP_Pos          2U                                            /*!< Core
1660:../../libDaisy/Drivers/CMSIS/Include/core_cm7.h **** #define CoreDebug_DHCSR_C_STEP_Msk         (1UL << CoreDebug_DHCSR_C_STEP_Pos)            /*!< Core
1661:../../libDaisy/Drivers/CMSIS/Include/core_cm7.h **** 
1662:../../libDaisy/Drivers/CMSIS/Include/core_cm7.h **** #define CoreDebug_DHCSR_C_HALT_Pos          1U                                            /*!< Core
1663:../../libDaisy/Drivers/CMSIS/Include/core_cm7.h **** #define CoreDebug_DHCSR_C_HALT_Msk         (1UL << CoreDebug_DHCSR_C_HALT_Pos)            /*!< Core
1664:../../libDaisy/Drivers/CMSIS/Include/core_cm7.h **** 
1665:../../libDaisy/Drivers/CMSIS/Include/core_cm7.h **** #define CoreDebug_DHCSR_C_DEBUGEN_Pos       0U                                            /*!< Core
1666:../../libDaisy/Drivers/CMSIS/Include/core_cm7.h **** #define CoreDebug_DHCSR_C_DEBUGEN_Msk      (1UL /*<< CoreDebug_DHCSR_C_DEBUGEN_Pos*/)     /*!< Core
1667:../../libDaisy/Drivers/CMSIS/Include/core_cm7.h **** 
1668:../../libDaisy/Drivers/CMSIS/Include/core_cm7.h **** /* Debug Core Register Selector Register Definitions */
1669:../../libDaisy/Drivers/CMSIS/Include/core_cm7.h **** #define CoreDebug_DCRSR_REGWnR_Pos         16U                                            /*!< Core
1670:../../libDaisy/Drivers/CMSIS/Include/core_cm7.h **** #define CoreDebug_DCRSR_REGWnR_Msk         (1UL << CoreDebug_DCRSR_REGWnR_Pos)            /*!< Core
1671:../../libDaisy/Drivers/CMSIS/Include/core_cm7.h **** 
1672:../../libDaisy/Drivers/CMSIS/Include/core_cm7.h **** #define CoreDebug_DCRSR_REGSEL_Pos          0U                                            /*!< Core
1673:../../libDaisy/Drivers/CMSIS/Include/core_cm7.h **** #define CoreDebug_DCRSR_REGSEL_Msk         (0x1FUL /*<< CoreDebug_DCRSR_REGSEL_Pos*/)     /*!< Core
1674:../../libDaisy/Drivers/CMSIS/Include/core_cm7.h **** 
1675:../../libDaisy/Drivers/CMSIS/Include/core_cm7.h **** /* Debug Exception and Monitor Control Register Definitions */
1676:../../libDaisy/Drivers/CMSIS/Include/core_cm7.h **** #define CoreDebug_DEMCR_TRCENA_Pos         24U                                            /*!< Core
1677:../../libDaisy/Drivers/CMSIS/Include/core_cm7.h **** #define CoreDebug_DEMCR_TRCENA_Msk         (1UL << CoreDebug_DEMCR_TRCENA_Pos)            /*!< Core
ARM GAS  /tmp/ccUUe33m.s 			page 43


1678:../../libDaisy/Drivers/CMSIS/Include/core_cm7.h **** 
1679:../../libDaisy/Drivers/CMSIS/Include/core_cm7.h **** #define CoreDebug_DEMCR_MON_REQ_Pos        19U                                            /*!< Core
1680:../../libDaisy/Drivers/CMSIS/Include/core_cm7.h **** #define CoreDebug_DEMCR_MON_REQ_Msk        (1UL << CoreDebug_DEMCR_MON_REQ_Pos)           /*!< Core
1681:../../libDaisy/Drivers/CMSIS/Include/core_cm7.h **** 
1682:../../libDaisy/Drivers/CMSIS/Include/core_cm7.h **** #define CoreDebug_DEMCR_MON_STEP_Pos       18U                                            /*!< Core
1683:../../libDaisy/Drivers/CMSIS/Include/core_cm7.h **** #define CoreDebug_DEMCR_MON_STEP_Msk       (1UL << CoreDebug_DEMCR_MON_STEP_Pos)          /*!< Core
1684:../../libDaisy/Drivers/CMSIS/Include/core_cm7.h **** 
1685:../../libDaisy/Drivers/CMSIS/Include/core_cm7.h **** #define CoreDebug_DEMCR_MON_PEND_Pos       17U                                            /*!< Core
1686:../../libDaisy/Drivers/CMSIS/Include/core_cm7.h **** #define CoreDebug_DEMCR_MON_PEND_Msk       (1UL << CoreDebug_DEMCR_MON_PEND_Pos)          /*!< Core
1687:../../libDaisy/Drivers/CMSIS/Include/core_cm7.h **** 
1688:../../libDaisy/Drivers/CMSIS/Include/core_cm7.h **** #define CoreDebug_DEMCR_MON_EN_Pos         16U                                            /*!< Core
1689:../../libDaisy/Drivers/CMSIS/Include/core_cm7.h **** #define CoreDebug_DEMCR_MON_EN_Msk         (1UL << CoreDebug_DEMCR_MON_EN_Pos)            /*!< Core
1690:../../libDaisy/Drivers/CMSIS/Include/core_cm7.h **** 
1691:../../libDaisy/Drivers/CMSIS/Include/core_cm7.h **** #define CoreDebug_DEMCR_VC_HARDERR_Pos     10U                                            /*!< Core
1692:../../libDaisy/Drivers/CMSIS/Include/core_cm7.h **** #define CoreDebug_DEMCR_VC_HARDERR_Msk     (1UL << CoreDebug_DEMCR_VC_HARDERR_Pos)        /*!< Core
1693:../../libDaisy/Drivers/CMSIS/Include/core_cm7.h **** 
1694:../../libDaisy/Drivers/CMSIS/Include/core_cm7.h **** #define CoreDebug_DEMCR_VC_INTERR_Pos       9U                                            /*!< Core
1695:../../libDaisy/Drivers/CMSIS/Include/core_cm7.h **** #define CoreDebug_DEMCR_VC_INTERR_Msk      (1UL << CoreDebug_DEMCR_VC_INTERR_Pos)         /*!< Core
1696:../../libDaisy/Drivers/CMSIS/Include/core_cm7.h **** 
1697:../../libDaisy/Drivers/CMSIS/Include/core_cm7.h **** #define CoreDebug_DEMCR_VC_BUSERR_Pos       8U                                            /*!< Core
1698:../../libDaisy/Drivers/CMSIS/Include/core_cm7.h **** #define CoreDebug_DEMCR_VC_BUSERR_Msk      (1UL << CoreDebug_DEMCR_VC_BUSERR_Pos)         /*!< Core
1699:../../libDaisy/Drivers/CMSIS/Include/core_cm7.h **** 
1700:../../libDaisy/Drivers/CMSIS/Include/core_cm7.h **** #define CoreDebug_DEMCR_VC_STATERR_Pos      7U                                            /*!< Core
1701:../../libDaisy/Drivers/CMSIS/Include/core_cm7.h **** #define CoreDebug_DEMCR_VC_STATERR_Msk     (1UL << CoreDebug_DEMCR_VC_STATERR_Pos)        /*!< Core
1702:../../libDaisy/Drivers/CMSIS/Include/core_cm7.h **** 
1703:../../libDaisy/Drivers/CMSIS/Include/core_cm7.h **** #define CoreDebug_DEMCR_VC_CHKERR_Pos       6U                                            /*!< Core
1704:../../libDaisy/Drivers/CMSIS/Include/core_cm7.h **** #define CoreDebug_DEMCR_VC_CHKERR_Msk      (1UL << CoreDebug_DEMCR_VC_CHKERR_Pos)         /*!< Core
1705:../../libDaisy/Drivers/CMSIS/Include/core_cm7.h **** 
1706:../../libDaisy/Drivers/CMSIS/Include/core_cm7.h **** #define CoreDebug_DEMCR_VC_NOCPERR_Pos      5U                                            /*!< Core
1707:../../libDaisy/Drivers/CMSIS/Include/core_cm7.h **** #define CoreDebug_DEMCR_VC_NOCPERR_Msk     (1UL << CoreDebug_DEMCR_VC_NOCPERR_Pos)        /*!< Core
1708:../../libDaisy/Drivers/CMSIS/Include/core_cm7.h **** 
1709:../../libDaisy/Drivers/CMSIS/Include/core_cm7.h **** #define CoreDebug_DEMCR_VC_MMERR_Pos        4U                                            /*!< Core
1710:../../libDaisy/Drivers/CMSIS/Include/core_cm7.h **** #define CoreDebug_DEMCR_VC_MMERR_Msk       (1UL << CoreDebug_DEMCR_VC_MMERR_Pos)          /*!< Core
1711:../../libDaisy/Drivers/CMSIS/Include/core_cm7.h **** 
1712:../../libDaisy/Drivers/CMSIS/Include/core_cm7.h **** #define CoreDebug_DEMCR_VC_CORERESET_Pos    0U                                            /*!< Core
1713:../../libDaisy/Drivers/CMSIS/Include/core_cm7.h **** #define CoreDebug_DEMCR_VC_CORERESET_Msk   (1UL /*<< CoreDebug_DEMCR_VC_CORERESET_Pos*/)  /*!< Core
1714:../../libDaisy/Drivers/CMSIS/Include/core_cm7.h **** 
1715:../../libDaisy/Drivers/CMSIS/Include/core_cm7.h **** /*@} end of group CMSIS_CoreDebug */
1716:../../libDaisy/Drivers/CMSIS/Include/core_cm7.h **** 
1717:../../libDaisy/Drivers/CMSIS/Include/core_cm7.h **** 
1718:../../libDaisy/Drivers/CMSIS/Include/core_cm7.h **** /**
1719:../../libDaisy/Drivers/CMSIS/Include/core_cm7.h ****   \ingroup    CMSIS_core_register
1720:../../libDaisy/Drivers/CMSIS/Include/core_cm7.h ****   \defgroup   CMSIS_core_bitfield     Core register bit field macros
1721:../../libDaisy/Drivers/CMSIS/Include/core_cm7.h ****   \brief      Macros for use with bit field definitions (xxx_Pos, xxx_Msk).
1722:../../libDaisy/Drivers/CMSIS/Include/core_cm7.h ****   @{
1723:../../libDaisy/Drivers/CMSIS/Include/core_cm7.h ****  */
1724:../../libDaisy/Drivers/CMSIS/Include/core_cm7.h **** 
1725:../../libDaisy/Drivers/CMSIS/Include/core_cm7.h **** /**
1726:../../libDaisy/Drivers/CMSIS/Include/core_cm7.h ****   \brief   Mask and shift a bit field value for use in a register bit range.
1727:../../libDaisy/Drivers/CMSIS/Include/core_cm7.h ****   \param[in] field  Name of the register bit field.
1728:../../libDaisy/Drivers/CMSIS/Include/core_cm7.h ****   \param[in] value  Value of the bit field. This parameter is interpreted as an uint32_t type.
1729:../../libDaisy/Drivers/CMSIS/Include/core_cm7.h ****   \return           Masked and shifted value.
1730:../../libDaisy/Drivers/CMSIS/Include/core_cm7.h **** */
1731:../../libDaisy/Drivers/CMSIS/Include/core_cm7.h **** #define _VAL2FLD(field, value)    (((uint32_t)(value) << field ## _Pos) & field ## _Msk)
1732:../../libDaisy/Drivers/CMSIS/Include/core_cm7.h **** 
1733:../../libDaisy/Drivers/CMSIS/Include/core_cm7.h **** /**
1734:../../libDaisy/Drivers/CMSIS/Include/core_cm7.h ****   \brief     Mask and shift a register value to extract a bit filed value.
ARM GAS  /tmp/ccUUe33m.s 			page 44


1735:../../libDaisy/Drivers/CMSIS/Include/core_cm7.h ****   \param[in] field  Name of the register bit field.
1736:../../libDaisy/Drivers/CMSIS/Include/core_cm7.h ****   \param[in] value  Value of register. This parameter is interpreted as an uint32_t type.
1737:../../libDaisy/Drivers/CMSIS/Include/core_cm7.h ****   \return           Masked and shifted bit field value.
1738:../../libDaisy/Drivers/CMSIS/Include/core_cm7.h **** */
1739:../../libDaisy/Drivers/CMSIS/Include/core_cm7.h **** #define _FLD2VAL(field, value)    (((uint32_t)(value) & field ## _Msk) >> field ## _Pos)
1740:../../libDaisy/Drivers/CMSIS/Include/core_cm7.h **** 
1741:../../libDaisy/Drivers/CMSIS/Include/core_cm7.h **** /*@} end of group CMSIS_core_bitfield */
1742:../../libDaisy/Drivers/CMSIS/Include/core_cm7.h **** 
1743:../../libDaisy/Drivers/CMSIS/Include/core_cm7.h **** 
1744:../../libDaisy/Drivers/CMSIS/Include/core_cm7.h **** /**
1745:../../libDaisy/Drivers/CMSIS/Include/core_cm7.h ****   \ingroup    CMSIS_core_register
1746:../../libDaisy/Drivers/CMSIS/Include/core_cm7.h ****   \defgroup   CMSIS_core_base     Core Definitions
1747:../../libDaisy/Drivers/CMSIS/Include/core_cm7.h ****   \brief      Definitions for base addresses, unions, and structures.
1748:../../libDaisy/Drivers/CMSIS/Include/core_cm7.h ****   @{
1749:../../libDaisy/Drivers/CMSIS/Include/core_cm7.h ****  */
1750:../../libDaisy/Drivers/CMSIS/Include/core_cm7.h **** 
1751:../../libDaisy/Drivers/CMSIS/Include/core_cm7.h **** /* Memory mapping of Core Hardware */
1752:../../libDaisy/Drivers/CMSIS/Include/core_cm7.h **** #define SCS_BASE            (0xE000E000UL)                            /*!< System Control Space Bas
1753:../../libDaisy/Drivers/CMSIS/Include/core_cm7.h **** #define ITM_BASE            (0xE0000000UL)                            /*!< ITM Base Address */
1754:../../libDaisy/Drivers/CMSIS/Include/core_cm7.h **** #define DWT_BASE            (0xE0001000UL)                            /*!< DWT Base Address */
1755:../../libDaisy/Drivers/CMSIS/Include/core_cm7.h **** #define TPI_BASE            (0xE0040000UL)                            /*!< TPI Base Address */
1756:../../libDaisy/Drivers/CMSIS/Include/core_cm7.h **** #define CoreDebug_BASE      (0xE000EDF0UL)                            /*!< Core Debug Base Address 
1757:../../libDaisy/Drivers/CMSIS/Include/core_cm7.h **** #define SysTick_BASE        (SCS_BASE +  0x0010UL)                    /*!< SysTick Base Address */
1758:../../libDaisy/Drivers/CMSIS/Include/core_cm7.h **** #define NVIC_BASE           (SCS_BASE +  0x0100UL)                    /*!< NVIC Base Address */
1759:../../libDaisy/Drivers/CMSIS/Include/core_cm7.h **** #define SCB_BASE            (SCS_BASE +  0x0D00UL)                    /*!< System Control Block Bas
1760:../../libDaisy/Drivers/CMSIS/Include/core_cm7.h **** 
1761:../../libDaisy/Drivers/CMSIS/Include/core_cm7.h **** #define SCnSCB              ((SCnSCB_Type    *)     SCS_BASE      )   /*!< System control Register 
1762:../../libDaisy/Drivers/CMSIS/Include/core_cm7.h **** #define SCB                 ((SCB_Type       *)     SCB_BASE      )   /*!< SCB configuration struct
1763:../../libDaisy/Drivers/CMSIS/Include/core_cm7.h **** #define SysTick             ((SysTick_Type   *)     SysTick_BASE  )   /*!< SysTick configuration st
1764:../../libDaisy/Drivers/CMSIS/Include/core_cm7.h **** #define NVIC                ((NVIC_Type      *)     NVIC_BASE     )   /*!< NVIC configuration struc
1765:../../libDaisy/Drivers/CMSIS/Include/core_cm7.h **** #define ITM                 ((ITM_Type       *)     ITM_BASE      )   /*!< ITM configuration struct
1766:../../libDaisy/Drivers/CMSIS/Include/core_cm7.h **** #define DWT                 ((DWT_Type       *)     DWT_BASE      )   /*!< DWT configuration struct
1767:../../libDaisy/Drivers/CMSIS/Include/core_cm7.h **** #define TPI                 ((TPI_Type       *)     TPI_BASE      )   /*!< TPI configuration struct
1768:../../libDaisy/Drivers/CMSIS/Include/core_cm7.h **** #define CoreDebug           ((CoreDebug_Type *)     CoreDebug_BASE)   /*!< Core Debug configuration
1769:../../libDaisy/Drivers/CMSIS/Include/core_cm7.h **** 
1770:../../libDaisy/Drivers/CMSIS/Include/core_cm7.h **** #if defined (__MPU_PRESENT) && (__MPU_PRESENT == 1U)
1771:../../libDaisy/Drivers/CMSIS/Include/core_cm7.h ****   #define MPU_BASE          (SCS_BASE +  0x0D90UL)                    /*!< Memory Protection Unit *
1772:../../libDaisy/Drivers/CMSIS/Include/core_cm7.h ****   #define MPU               ((MPU_Type       *)     MPU_BASE      )   /*!< Memory Protection Unit *
1773:../../libDaisy/Drivers/CMSIS/Include/core_cm7.h **** #endif
1774:../../libDaisy/Drivers/CMSIS/Include/core_cm7.h **** 
1775:../../libDaisy/Drivers/CMSIS/Include/core_cm7.h **** #define FPU_BASE            (SCS_BASE +  0x0F30UL)                    /*!< Floating Point Unit */
1776:../../libDaisy/Drivers/CMSIS/Include/core_cm7.h **** #define FPU                 ((FPU_Type       *)     FPU_BASE      )   /*!< Floating Point Unit */
1777:../../libDaisy/Drivers/CMSIS/Include/core_cm7.h **** 
1778:../../libDaisy/Drivers/CMSIS/Include/core_cm7.h **** /*@} */
1779:../../libDaisy/Drivers/CMSIS/Include/core_cm7.h **** 
1780:../../libDaisy/Drivers/CMSIS/Include/core_cm7.h **** 
1781:../../libDaisy/Drivers/CMSIS/Include/core_cm7.h **** 
1782:../../libDaisy/Drivers/CMSIS/Include/core_cm7.h **** /*******************************************************************************
1783:../../libDaisy/Drivers/CMSIS/Include/core_cm7.h ****  *                Hardware Abstraction Layer
1784:../../libDaisy/Drivers/CMSIS/Include/core_cm7.h ****   Core Function Interface contains:
1785:../../libDaisy/Drivers/CMSIS/Include/core_cm7.h ****   - Core NVIC Functions
1786:../../libDaisy/Drivers/CMSIS/Include/core_cm7.h ****   - Core SysTick Functions
1787:../../libDaisy/Drivers/CMSIS/Include/core_cm7.h ****   - Core Debug Functions
1788:../../libDaisy/Drivers/CMSIS/Include/core_cm7.h ****   - Core Register Access Functions
1789:../../libDaisy/Drivers/CMSIS/Include/core_cm7.h ****  ******************************************************************************/
1790:../../libDaisy/Drivers/CMSIS/Include/core_cm7.h **** /**
1791:../../libDaisy/Drivers/CMSIS/Include/core_cm7.h ****   \defgroup CMSIS_Core_FunctionInterface Functions and Instructions Reference
ARM GAS  /tmp/ccUUe33m.s 			page 45


1792:../../libDaisy/Drivers/CMSIS/Include/core_cm7.h **** */
1793:../../libDaisy/Drivers/CMSIS/Include/core_cm7.h **** 
1794:../../libDaisy/Drivers/CMSIS/Include/core_cm7.h **** 
1795:../../libDaisy/Drivers/CMSIS/Include/core_cm7.h **** 
1796:../../libDaisy/Drivers/CMSIS/Include/core_cm7.h **** /* ##########################   NVIC functions  #################################### */
1797:../../libDaisy/Drivers/CMSIS/Include/core_cm7.h **** /**
1798:../../libDaisy/Drivers/CMSIS/Include/core_cm7.h ****   \ingroup  CMSIS_Core_FunctionInterface
1799:../../libDaisy/Drivers/CMSIS/Include/core_cm7.h ****   \defgroup CMSIS_Core_NVICFunctions NVIC Functions
1800:../../libDaisy/Drivers/CMSIS/Include/core_cm7.h ****   \brief    Functions that manage interrupts and exceptions via the NVIC.
1801:../../libDaisy/Drivers/CMSIS/Include/core_cm7.h ****   @{
1802:../../libDaisy/Drivers/CMSIS/Include/core_cm7.h ****  */
1803:../../libDaisy/Drivers/CMSIS/Include/core_cm7.h **** 
1804:../../libDaisy/Drivers/CMSIS/Include/core_cm7.h **** #ifndef CMSIS_NVIC_VIRTUAL
1805:../../libDaisy/Drivers/CMSIS/Include/core_cm7.h ****   #define NVIC_SetPriorityGrouping    __NVIC_SetPriorityGrouping
1806:../../libDaisy/Drivers/CMSIS/Include/core_cm7.h ****   #define NVIC_GetPriorityGrouping    __NVIC_GetPriorityGrouping
1807:../../libDaisy/Drivers/CMSIS/Include/core_cm7.h ****   #define NVIC_EnableIRQ              __NVIC_EnableIRQ
1808:../../libDaisy/Drivers/CMSIS/Include/core_cm7.h ****   #define NVIC_GetEnableIRQ           __NVIC_GetEnableIRQ
1809:../../libDaisy/Drivers/CMSIS/Include/core_cm7.h ****   #define NVIC_DisableIRQ             __NVIC_DisableIRQ
1810:../../libDaisy/Drivers/CMSIS/Include/core_cm7.h ****   #define NVIC_GetPendingIRQ          __NVIC_GetPendingIRQ
1811:../../libDaisy/Drivers/CMSIS/Include/core_cm7.h ****   #define NVIC_SetPendingIRQ          __NVIC_SetPendingIRQ
1812:../../libDaisy/Drivers/CMSIS/Include/core_cm7.h ****   #define NVIC_ClearPendingIRQ        __NVIC_ClearPendingIRQ
1813:../../libDaisy/Drivers/CMSIS/Include/core_cm7.h ****   #define NVIC_GetActive              __NVIC_GetActive
1814:../../libDaisy/Drivers/CMSIS/Include/core_cm7.h ****   #define NVIC_SetPriority            __NVIC_SetPriority
1815:../../libDaisy/Drivers/CMSIS/Include/core_cm7.h ****   #define NVIC_GetPriority            __NVIC_GetPriority
1816:../../libDaisy/Drivers/CMSIS/Include/core_cm7.h **** #endif /* CMSIS_NVIC_VIRTUAL */
1817:../../libDaisy/Drivers/CMSIS/Include/core_cm7.h **** 
1818:../../libDaisy/Drivers/CMSIS/Include/core_cm7.h **** #ifndef CMSIS_VECTAB_VIRTUAL
1819:../../libDaisy/Drivers/CMSIS/Include/core_cm7.h ****   #define NVIC_SetVector              __NVIC_SetVector
1820:../../libDaisy/Drivers/CMSIS/Include/core_cm7.h ****   #define NVIC_GetVector              __NVIC_GetVector
1821:../../libDaisy/Drivers/CMSIS/Include/core_cm7.h **** #endif  /* (CMSIS_VECTAB_VIRTUAL) */
1822:../../libDaisy/Drivers/CMSIS/Include/core_cm7.h **** 
1823:../../libDaisy/Drivers/CMSIS/Include/core_cm7.h **** #define NVIC_USER_IRQ_OFFSET          16
1824:../../libDaisy/Drivers/CMSIS/Include/core_cm7.h **** 
1825:../../libDaisy/Drivers/CMSIS/Include/core_cm7.h **** 
1826:../../libDaisy/Drivers/CMSIS/Include/core_cm7.h **** 
1827:../../libDaisy/Drivers/CMSIS/Include/core_cm7.h **** /**
1828:../../libDaisy/Drivers/CMSIS/Include/core_cm7.h ****   \brief   Set Priority Grouping
1829:../../libDaisy/Drivers/CMSIS/Include/core_cm7.h ****   \details Sets the priority grouping field using the required unlock sequence.
1830:../../libDaisy/Drivers/CMSIS/Include/core_cm7.h ****            The parameter PriorityGroup is assigned to the field SCB->AIRCR [10:8] PRIGROUP field.
1831:../../libDaisy/Drivers/CMSIS/Include/core_cm7.h ****            Only values from 0..7 are used.
1832:../../libDaisy/Drivers/CMSIS/Include/core_cm7.h ****            In case of a conflict between priority grouping and available
1833:../../libDaisy/Drivers/CMSIS/Include/core_cm7.h ****            priority bits (__NVIC_PRIO_BITS), the smallest possible priority group is set.
1834:../../libDaisy/Drivers/CMSIS/Include/core_cm7.h ****   \param [in]      PriorityGroup  Priority grouping field.
1835:../../libDaisy/Drivers/CMSIS/Include/core_cm7.h ****  */
1836:../../libDaisy/Drivers/CMSIS/Include/core_cm7.h **** __STATIC_INLINE void __NVIC_SetPriorityGrouping(uint32_t PriorityGroup)
1837:../../libDaisy/Drivers/CMSIS/Include/core_cm7.h **** {
1838:../../libDaisy/Drivers/CMSIS/Include/core_cm7.h ****   uint32_t reg_value;
1839:../../libDaisy/Drivers/CMSIS/Include/core_cm7.h ****   uint32_t PriorityGroupTmp = (PriorityGroup & (uint32_t)0x07UL);             /* only values 0..7 a
1840:../../libDaisy/Drivers/CMSIS/Include/core_cm7.h **** 
1841:../../libDaisy/Drivers/CMSIS/Include/core_cm7.h ****   reg_value  =  SCB->AIRCR;                                                   /* read old register 
1842:../../libDaisy/Drivers/CMSIS/Include/core_cm7.h ****   reg_value &= ~((uint32_t)(SCB_AIRCR_VECTKEY_Msk | SCB_AIRCR_PRIGROUP_Msk)); /* clear bits to chan
