ARM GAS  /tmp/ccA3k9s1.s 			page 1


   1              		.cpu cortex-m7
   2              		.eabi_attribute 28, 1
   3              		.eabi_attribute 20, 1
   4              		.eabi_attribute 21, 1
   5              		.eabi_attribute 23, 3
   6              		.eabi_attribute 24, 1
   7              		.eabi_attribute 25, 1
   8              		.eabi_attribute 26, 1
   9              		.eabi_attribute 30, 2
  10              		.eabi_attribute 34, 1
  11              		.eabi_attribute 18, 4
  12              		.file	"hid_device.c"
  13              		.text
  14              	.Ltext0:
  15              		.cfi_sections	.debug_frame
  16              		.section	.text.tud_hid_n_report.part.0,"ax",%progbits
  17              		.align	1
  18              		.p2align 2,,3
  19              		.arch armv7e-m
  20              		.syntax unified
  21              		.thumb
  22              		.thumb_func
  23              		.fpu fpv5-d16
  25              	tud_hid_n_report.part.0:
  26              	.LVL0:
  27              	.LFB441:
  28              		.file 1 "/home/pi/Developer/tinyusb/src/class/hid/hid_device.c"
   1:/home/pi/Developer/tinyusb/src/class/hid/hid_device.c **** /*
   2:/home/pi/Developer/tinyusb/src/class/hid/hid_device.c ****  * The MIT License (MIT)
   3:/home/pi/Developer/tinyusb/src/class/hid/hid_device.c ****  *
   4:/home/pi/Developer/tinyusb/src/class/hid/hid_device.c ****  * Copyright (c) 2019 Ha Thach (tinyusb.org)
   5:/home/pi/Developer/tinyusb/src/class/hid/hid_device.c ****  *
   6:/home/pi/Developer/tinyusb/src/class/hid/hid_device.c ****  * Permission is hereby granted, free of charge, to any person obtaining a copy
   7:/home/pi/Developer/tinyusb/src/class/hid/hid_device.c ****  * of this software and associated documentation files (the "Software"), to deal
   8:/home/pi/Developer/tinyusb/src/class/hid/hid_device.c ****  * in the Software without restriction, including without limitation the rights
   9:/home/pi/Developer/tinyusb/src/class/hid/hid_device.c ****  * to use, copy, modify, merge, publish, distribute, sublicense, and/or sell
  10:/home/pi/Developer/tinyusb/src/class/hid/hid_device.c ****  * copies of the Software, and to permit persons to whom the Software is
  11:/home/pi/Developer/tinyusb/src/class/hid/hid_device.c ****  * furnished to do so, subject to the following conditions:
  12:/home/pi/Developer/tinyusb/src/class/hid/hid_device.c ****  *
  13:/home/pi/Developer/tinyusb/src/class/hid/hid_device.c ****  * The above copyright notice and this permission notice shall be included in
  14:/home/pi/Developer/tinyusb/src/class/hid/hid_device.c ****  * all copies or substantial portions of the Software.
  15:/home/pi/Developer/tinyusb/src/class/hid/hid_device.c ****  *
  16:/home/pi/Developer/tinyusb/src/class/hid/hid_device.c ****  * THE SOFTWARE IS PROVIDED "AS IS", WITHOUT WARRANTY OF ANY KIND, EXPRESS OR
  17:/home/pi/Developer/tinyusb/src/class/hid/hid_device.c ****  * IMPLIED, INCLUDING BUT NOT LIMITED TO THE WARRANTIES OF MERCHANTABILITY,
  18:/home/pi/Developer/tinyusb/src/class/hid/hid_device.c ****  * FITNESS FOR A PARTICULAR PURPOSE AND NONINFRINGEMENT. IN NO EVENT SHALL THE
  19:/home/pi/Developer/tinyusb/src/class/hid/hid_device.c ****  * AUTHORS OR COPYRIGHT HOLDERS BE LIABLE FOR ANY CLAIM, DAMAGES OR OTHER
  20:/home/pi/Developer/tinyusb/src/class/hid/hid_device.c ****  * LIABILITY, WHETHER IN AN ACTION OF CONTRACT, TORT OR OTHERWISE, ARISING FROM,
  21:/home/pi/Developer/tinyusb/src/class/hid/hid_device.c ****  * OUT OF OR IN CONNECTION WITH THE SOFTWARE OR THE USE OR OTHER DEALINGS IN
  22:/home/pi/Developer/tinyusb/src/class/hid/hid_device.c ****  * THE SOFTWARE.
  23:/home/pi/Developer/tinyusb/src/class/hid/hid_device.c ****  *
  24:/home/pi/Developer/tinyusb/src/class/hid/hid_device.c ****  * This file is part of the TinyUSB stack.
  25:/home/pi/Developer/tinyusb/src/class/hid/hid_device.c ****  */
  26:/home/pi/Developer/tinyusb/src/class/hid/hid_device.c **** 
  27:/home/pi/Developer/tinyusb/src/class/hid/hid_device.c **** #include "tusb_option.h"
  28:/home/pi/Developer/tinyusb/src/class/hid/hid_device.c **** 
  29:/home/pi/Developer/tinyusb/src/class/hid/hid_device.c **** #if (CFG_TUD_ENABLED && CFG_TUD_HID)
  30:/home/pi/Developer/tinyusb/src/class/hid/hid_device.c **** 
ARM GAS  /tmp/ccA3k9s1.s 			page 2


  31:/home/pi/Developer/tinyusb/src/class/hid/hid_device.c **** //--------------------------------------------------------------------+
  32:/home/pi/Developer/tinyusb/src/class/hid/hid_device.c **** // INCLUDE
  33:/home/pi/Developer/tinyusb/src/class/hid/hid_device.c **** //--------------------------------------------------------------------+
  34:/home/pi/Developer/tinyusb/src/class/hid/hid_device.c **** #include "device/usbd.h"
  35:/home/pi/Developer/tinyusb/src/class/hid/hid_device.c **** #include "device/usbd_pvt.h"
  36:/home/pi/Developer/tinyusb/src/class/hid/hid_device.c **** 
  37:/home/pi/Developer/tinyusb/src/class/hid/hid_device.c **** #include "hid_device.h"
  38:/home/pi/Developer/tinyusb/src/class/hid/hid_device.c **** 
  39:/home/pi/Developer/tinyusb/src/class/hid/hid_device.c **** //--------------------------------------------------------------------+
  40:/home/pi/Developer/tinyusb/src/class/hid/hid_device.c **** // MACRO CONSTANT TYPEDEF
  41:/home/pi/Developer/tinyusb/src/class/hid/hid_device.c **** //--------------------------------------------------------------------+
  42:/home/pi/Developer/tinyusb/src/class/hid/hid_device.c **** typedef struct {
  43:/home/pi/Developer/tinyusb/src/class/hid/hid_device.c ****   uint8_t itf_num;
  44:/home/pi/Developer/tinyusb/src/class/hid/hid_device.c ****   uint8_t ep_in;
  45:/home/pi/Developer/tinyusb/src/class/hid/hid_device.c ****   uint8_t ep_out;       // optional Out endpoint
  46:/home/pi/Developer/tinyusb/src/class/hid/hid_device.c ****   uint8_t itf_protocol; // Boot mouse or keyboard
  47:/home/pi/Developer/tinyusb/src/class/hid/hid_device.c **** 
  48:/home/pi/Developer/tinyusb/src/class/hid/hid_device.c ****   uint16_t report_desc_len;
  49:/home/pi/Developer/tinyusb/src/class/hid/hid_device.c ****   uint8_t protocol_mode; // Boot (0) or Report protocol (1)
  50:/home/pi/Developer/tinyusb/src/class/hid/hid_device.c ****   uint8_t idle_rate;     // up to application to handle idle rate
  51:/home/pi/Developer/tinyusb/src/class/hid/hid_device.c **** 
  52:/home/pi/Developer/tinyusb/src/class/hid/hid_device.c ****   // TODO save hid descriptor since host can specifically request this after enumeration
  53:/home/pi/Developer/tinyusb/src/class/hid/hid_device.c ****   // Note: HID descriptor may be not available from application after enumeration
  54:/home/pi/Developer/tinyusb/src/class/hid/hid_device.c ****   const tusb_hid_descriptor_hid_t*hid_descriptor;
  55:/home/pi/Developer/tinyusb/src/class/hid/hid_device.c **** } hidd_interface_t;
  56:/home/pi/Developer/tinyusb/src/class/hid/hid_device.c **** 
  57:/home/pi/Developer/tinyusb/src/class/hid/hid_device.c **** typedef struct {
  58:/home/pi/Developer/tinyusb/src/class/hid/hid_device.c ****   TUD_EPBUF_DEF(ctrl , CFG_TUD_HID_EP_BUFSIZE);
  59:/home/pi/Developer/tinyusb/src/class/hid/hid_device.c ****   TUD_EPBUF_DEF(epin , CFG_TUD_HID_EP_BUFSIZE);
  60:/home/pi/Developer/tinyusb/src/class/hid/hid_device.c ****   TUD_EPBUF_DEF(epout, CFG_TUD_HID_EP_BUFSIZE);
  61:/home/pi/Developer/tinyusb/src/class/hid/hid_device.c **** } hidd_epbuf_t;
  62:/home/pi/Developer/tinyusb/src/class/hid/hid_device.c **** 
  63:/home/pi/Developer/tinyusb/src/class/hid/hid_device.c **** static hidd_interface_t _hidd_itf[CFG_TUD_HID];
  64:/home/pi/Developer/tinyusb/src/class/hid/hid_device.c **** CFG_TUD_MEM_SECTION static hidd_epbuf_t _hidd_epbuf[CFG_TUD_HID];
  65:/home/pi/Developer/tinyusb/src/class/hid/hid_device.c **** 
  66:/home/pi/Developer/tinyusb/src/class/hid/hid_device.c **** /*------------- Helpers -------------*/
  67:/home/pi/Developer/tinyusb/src/class/hid/hid_device.c **** TU_ATTR_ALWAYS_INLINE static inline uint8_t get_index_by_itfnum(uint8_t itf_num) {
  68:/home/pi/Developer/tinyusb/src/class/hid/hid_device.c ****   for (uint8_t i = 0; i < CFG_TUD_HID; i++) {
  69:/home/pi/Developer/tinyusb/src/class/hid/hid_device.c ****     if (itf_num == _hidd_itf[i].itf_num) {
  70:/home/pi/Developer/tinyusb/src/class/hid/hid_device.c ****       return i;
  71:/home/pi/Developer/tinyusb/src/class/hid/hid_device.c ****     }
  72:/home/pi/Developer/tinyusb/src/class/hid/hid_device.c ****   }
  73:/home/pi/Developer/tinyusb/src/class/hid/hid_device.c ****   return 0xFF;
  74:/home/pi/Developer/tinyusb/src/class/hid/hid_device.c **** }
  75:/home/pi/Developer/tinyusb/src/class/hid/hid_device.c **** 
  76:/home/pi/Developer/tinyusb/src/class/hid/hid_device.c **** //--------------------------------------------------------------------+
  77:/home/pi/Developer/tinyusb/src/class/hid/hid_device.c **** // Weak stubs: invoked if no strong implementation is available
  78:/home/pi/Developer/tinyusb/src/class/hid/hid_device.c **** //--------------------------------------------------------------------+
  79:/home/pi/Developer/tinyusb/src/class/hid/hid_device.c **** TU_ATTR_WEAK void tud_hid_set_protocol_cb(uint8_t instance, uint8_t protocol) {
  80:/home/pi/Developer/tinyusb/src/class/hid/hid_device.c ****   (void) instance;
  81:/home/pi/Developer/tinyusb/src/class/hid/hid_device.c ****   (void) protocol;
  82:/home/pi/Developer/tinyusb/src/class/hid/hid_device.c **** }
  83:/home/pi/Developer/tinyusb/src/class/hid/hid_device.c **** 
  84:/home/pi/Developer/tinyusb/src/class/hid/hid_device.c **** TU_ATTR_WEAK bool tud_hid_set_idle_cb(uint8_t instance, uint8_t idle_rate) {
  85:/home/pi/Developer/tinyusb/src/class/hid/hid_device.c ****   (void) instance;
  86:/home/pi/Developer/tinyusb/src/class/hid/hid_device.c ****   (void) idle_rate;
  87:/home/pi/Developer/tinyusb/src/class/hid/hid_device.c ****   return true;
ARM GAS  /tmp/ccA3k9s1.s 			page 3


  88:/home/pi/Developer/tinyusb/src/class/hid/hid_device.c **** }
  89:/home/pi/Developer/tinyusb/src/class/hid/hid_device.c **** 
  90:/home/pi/Developer/tinyusb/src/class/hid/hid_device.c **** TU_ATTR_WEAK void tud_hid_report_complete_cb(uint8_t instance, uint8_t const* report, uint16_t len)
  91:/home/pi/Developer/tinyusb/src/class/hid/hid_device.c ****   (void) instance;
  92:/home/pi/Developer/tinyusb/src/class/hid/hid_device.c ****   (void) report;
  93:/home/pi/Developer/tinyusb/src/class/hid/hid_device.c ****   (void) len;
  94:/home/pi/Developer/tinyusb/src/class/hid/hid_device.c **** }
  95:/home/pi/Developer/tinyusb/src/class/hid/hid_device.c **** 
  96:/home/pi/Developer/tinyusb/src/class/hid/hid_device.c **** // Invoked when a transfer wasn't successful
  97:/home/pi/Developer/tinyusb/src/class/hid/hid_device.c **** TU_ATTR_WEAK void tud_hid_report_failed_cb(uint8_t instance, hid_report_type_t report_type, uint8_t
  98:/home/pi/Developer/tinyusb/src/class/hid/hid_device.c ****   (void) instance;
  99:/home/pi/Developer/tinyusb/src/class/hid/hid_device.c ****   (void) report_type;
 100:/home/pi/Developer/tinyusb/src/class/hid/hid_device.c ****   (void) report;
 101:/home/pi/Developer/tinyusb/src/class/hid/hid_device.c ****   (void) xferred_bytes;
 102:/home/pi/Developer/tinyusb/src/class/hid/hid_device.c **** }
 103:/home/pi/Developer/tinyusb/src/class/hid/hid_device.c **** 
 104:/home/pi/Developer/tinyusb/src/class/hid/hid_device.c **** //--------------------------------------------------------------------+
 105:/home/pi/Developer/tinyusb/src/class/hid/hid_device.c **** // APPLICATION API
 106:/home/pi/Developer/tinyusb/src/class/hid/hid_device.c **** //--------------------------------------------------------------------+
 107:/home/pi/Developer/tinyusb/src/class/hid/hid_device.c **** bool tud_hid_n_ready(uint8_t instance) {
 108:/home/pi/Developer/tinyusb/src/class/hid/hid_device.c ****   uint8_t const rhport = 0;
 109:/home/pi/Developer/tinyusb/src/class/hid/hid_device.c ****   uint8_t const ep_in = _hidd_itf[instance].ep_in;
 110:/home/pi/Developer/tinyusb/src/class/hid/hid_device.c ****   return tud_ready() && (ep_in != 0) && !usbd_edpt_busy(rhport, ep_in);
 111:/home/pi/Developer/tinyusb/src/class/hid/hid_device.c **** }
 112:/home/pi/Developer/tinyusb/src/class/hid/hid_device.c **** 
 113:/home/pi/Developer/tinyusb/src/class/hid/hid_device.c **** bool tud_hid_n_report(uint8_t instance, uint8_t report_id, void const *report, uint16_t len) {
  29              		.loc 1 113 6 view -0
  30              		.cfi_startproc
  31              		@ args = 0, pretend = 0, frame = 0
  32              		@ frame_needed = 0, uses_anonymous_args = 0
 114:/home/pi/Developer/tinyusb/src/class/hid/hid_device.c ****   TU_VERIFY(instance < CFG_TUD_HID);
  33              		.loc 1 114 3 view .LVU1
 115:/home/pi/Developer/tinyusb/src/class/hid/hid_device.c ****   const uint8_t rhport = 0;
  34              		.loc 1 115 3 view .LVU2
 116:/home/pi/Developer/tinyusb/src/class/hid/hid_device.c ****   hidd_interface_t *p_hid = &_hidd_itf[instance];
  35              		.loc 1 116 3 view .LVU3
 113:/home/pi/Developer/tinyusb/src/class/hid/hid_device.c ****   TU_VERIFY(instance < CFG_TUD_HID);
  36              		.loc 1 113 6 is_stmt 0 view .LVU4
  37 0000 2DE9F04F 		push	{r4, r5, r6, r7, r8, r9, r10, fp, lr}
  38              		.cfi_def_cfa_offset 36
  39              		.cfi_offset 4, -36
  40              		.cfi_offset 5, -32
  41              		.cfi_offset 6, -28
  42              		.cfi_offset 7, -24
  43              		.cfi_offset 8, -20
  44              		.cfi_offset 9, -16
  45              		.cfi_offset 10, -12
  46              		.cfi_offset 11, -8
  47              		.cfi_offset 14, -4
 117:/home/pi/Developer/tinyusb/src/class/hid/hid_device.c ****   hidd_epbuf_t *p_epbuf = &_hidd_epbuf[instance];
 118:/home/pi/Developer/tinyusb/src/class/hid/hid_device.c **** 
 119:/home/pi/Developer/tinyusb/src/class/hid/hid_device.c ****   // claim endpoint
 120:/home/pi/Developer/tinyusb/src/class/hid/hid_device.c ****   TU_VERIFY(usbd_edpt_claim(rhport, p_hid->ep_in));
  48              		.loc 1 120 3 view .LVU5
  49 0004 00EB400A 		add	r10, r0, r0, lsl #1
  50 0008 DFF89480 		ldr	r8, .L18+4
 113:/home/pi/Developer/tinyusb/src/class/hid/hid_device.c ****   TU_VERIFY(instance < CFG_TUD_HID);
ARM GAS  /tmp/ccA3k9s1.s 			page 4


  51              		.loc 1 113 6 view .LVU6
  52 000c 1D46     		mov	r5, r3
  53 000e 83B0     		sub	sp, sp, #12
  54              		.cfi_def_cfa_offset 48
  55              		.loc 1 120 3 view .LVU7
  56 0010 08EB8A03 		add	r3, r8, r10, lsl #2
  57              	.LVL1:
 113:/home/pi/Developer/tinyusb/src/class/hid/hid_device.c ****   TU_VERIFY(instance < CFG_TUD_HID);
  58              		.loc 1 113 6 view .LVU8
  59 0014 0446     		mov	r4, r0
  60              	.LVL2:
 117:/home/pi/Developer/tinyusb/src/class/hid/hid_device.c ****   hidd_epbuf_t *p_epbuf = &_hidd_epbuf[instance];
  61              		.loc 1 117 3 is_stmt 1 view .LVU9
  62              		.loc 1 120 3 view .LVU10
  63              		.loc 1 120 3 view .LVU11
 113:/home/pi/Developer/tinyusb/src/class/hid/hid_device.c ****   TU_VERIFY(instance < CFG_TUD_HID);
  64              		.loc 1 113 6 is_stmt 0 view .LVU12
  65 0016 0F46     		mov	r7, r1
  66              		.loc 1 120 3 view .LVU13
  67 0018 0020     		movs	r0, #0
  68              	.LVL3:
  69              		.loc 1 120 3 view .LVU14
  70 001a 5978     		ldrb	r1, [r3, #1]	@ zero_extendqisi2
  71              	.LVL4:
 113:/home/pi/Developer/tinyusb/src/class/hid/hid_device.c ****   TU_VERIFY(instance < CFG_TUD_HID);
  72              		.loc 1 113 6 view .LVU15
  73 001c 9146     		mov	r9, r2
  74              		.loc 1 120 3 view .LVU16
  75 001e FFF7FEFF 		bl	usbd_edpt_claim
  76              	.LVL5:
  77              		.loc 1 120 3 view .LVU17
  78 0022 B0B3     		cbz	r0, .L6
  79              		.loc 1 120 3 is_stmt 1 view .LVU18
 121:/home/pi/Developer/tinyusb/src/class/hid/hid_device.c **** 
 122:/home/pi/Developer/tinyusb/src/class/hid/hid_device.c ****   // prepare data
 123:/home/pi/Developer/tinyusb/src/class/hid/hid_device.c ****   if (report_id) {
  80              		.loc 1 123 3 view .LVU19
  81 0024 4FEA440B 		lsl	fp, r4, #1
 124:/home/pi/Developer/tinyusb/src/class/hid/hid_device.c ****     p_epbuf->epin[0] = report_id;
  82              		.loc 1 124 22 is_stmt 0 view .LVU20
  83 0028 1C4E     		ldr	r6, .L18
 123:/home/pi/Developer/tinyusb/src/class/hid/hid_device.c ****     p_epbuf->epin[0] = report_id;
  84              		.loc 1 123 6 view .LVU21
  85 002a E7B9     		cbnz	r7, .L17
 125:/home/pi/Developer/tinyusb/src/class/hid/hid_device.c ****     TU_VERIFY(0 == tu_memcpy_s(p_epbuf->epin + 1, CFG_TUD_HID_EP_BUFSIZE - 1, report, len));
 126:/home/pi/Developer/tinyusb/src/class/hid/hid_device.c ****     len++;
 127:/home/pi/Developer/tinyusb/src/class/hid/hid_device.c ****   } else {
 128:/home/pi/Developer/tinyusb/src/class/hid/hid_device.c ****     TU_VERIFY(0 == tu_memcpy_s(p_epbuf->epin, CFG_TUD_HID_EP_BUFSIZE, report, len));
  86              		.loc 1 128 5 is_stmt 1 view .LVU22
  87              		.loc 1 128 5 view .LVU23
  88 002c 1823     		movs	r3, #24
  89 002e 03FB0466 		mla	r6, r3, r4, r6
  90 0032 0836     		adds	r6, r6, #8
  91              	.LVL6:
  92              	.LBB65:
  93              	.LBI65:
  94              		.file 2 "/home/pi/Developer/tinyusb/src/common/tusb_common.h"
ARM GAS  /tmp/ccA3k9s1.s 			page 5


   1:/home/pi/Developer/tinyusb/src/common/tusb_common.h **** /*
   2:/home/pi/Developer/tinyusb/src/common/tusb_common.h ****  * The MIT License (MIT)
   3:/home/pi/Developer/tinyusb/src/common/tusb_common.h ****  *
   4:/home/pi/Developer/tinyusb/src/common/tusb_common.h ****  * Copyright (c) 2019 Ha Thach (tinyusb.org)
   5:/home/pi/Developer/tinyusb/src/common/tusb_common.h ****  *
   6:/home/pi/Developer/tinyusb/src/common/tusb_common.h ****  * Permission is hereby granted, free of charge, to any person obtaining a copy
   7:/home/pi/Developer/tinyusb/src/common/tusb_common.h ****  * of this software and associated documentation files (the "Software"), to deal
   8:/home/pi/Developer/tinyusb/src/common/tusb_common.h ****  * in the Software without restriction, including without limitation the rights
   9:/home/pi/Developer/tinyusb/src/common/tusb_common.h ****  * to use, copy, modify, merge, publish, distribute, sublicense, and/or sell
  10:/home/pi/Developer/tinyusb/src/common/tusb_common.h ****  * copies of the Software, and to permit persons to whom the Software is
  11:/home/pi/Developer/tinyusb/src/common/tusb_common.h ****  * furnished to do so, subject to the following conditions:
  12:/home/pi/Developer/tinyusb/src/common/tusb_common.h ****  *
  13:/home/pi/Developer/tinyusb/src/common/tusb_common.h ****  * The above copyright notice and this permission notice shall be included in
  14:/home/pi/Developer/tinyusb/src/common/tusb_common.h ****  * all copies or substantial portions of the Software.
  15:/home/pi/Developer/tinyusb/src/common/tusb_common.h ****  *
  16:/home/pi/Developer/tinyusb/src/common/tusb_common.h ****  * THE SOFTWARE IS PROVIDED "AS IS", WITHOUT WARRANTY OF ANY KIND, EXPRESS OR
  17:/home/pi/Developer/tinyusb/src/common/tusb_common.h ****  * IMPLIED, INCLUDING BUT NOT LIMITED TO THE WARRANTIES OF MERCHANTABILITY,
  18:/home/pi/Developer/tinyusb/src/common/tusb_common.h ****  * FITNESS FOR A PARTICULAR PURPOSE AND NONINFRINGEMENT. IN NO EVENT SHALL THE
  19:/home/pi/Developer/tinyusb/src/common/tusb_common.h ****  * AUTHORS OR COPYRIGHT HOLDERS BE LIABLE FOR ANY CLAIM, DAMAGES OR OTHER
  20:/home/pi/Developer/tinyusb/src/common/tusb_common.h ****  * LIABILITY, WHETHER IN AN ACTION OF CONTRACT, TORT OR OTHERWISE, ARISING FROM,
  21:/home/pi/Developer/tinyusb/src/common/tusb_common.h ****  * OUT OF OR IN CONNECTION WITH THE SOFTWARE OR THE USE OR OTHER DEALINGS IN
  22:/home/pi/Developer/tinyusb/src/common/tusb_common.h ****  * THE SOFTWARE.
  23:/home/pi/Developer/tinyusb/src/common/tusb_common.h ****  *
  24:/home/pi/Developer/tinyusb/src/common/tusb_common.h ****  * This file is part of the TinyUSB stack.
  25:/home/pi/Developer/tinyusb/src/common/tusb_common.h ****  */
  26:/home/pi/Developer/tinyusb/src/common/tusb_common.h **** 
  27:/home/pi/Developer/tinyusb/src/common/tusb_common.h **** #ifndef TUSB_COMMON_H_
  28:/home/pi/Developer/tinyusb/src/common/tusb_common.h **** #define TUSB_COMMON_H_
  29:/home/pi/Developer/tinyusb/src/common/tusb_common.h **** 
  30:/home/pi/Developer/tinyusb/src/common/tusb_common.h **** #ifdef __cplusplus
  31:/home/pi/Developer/tinyusb/src/common/tusb_common.h ****  extern "C" {
  32:/home/pi/Developer/tinyusb/src/common/tusb_common.h **** #endif
  33:/home/pi/Developer/tinyusb/src/common/tusb_common.h **** 
  34:/home/pi/Developer/tinyusb/src/common/tusb_common.h **** //--------------------------------------------------------------------+
  35:/home/pi/Developer/tinyusb/src/common/tusb_common.h **** // Macros Helper
  36:/home/pi/Developer/tinyusb/src/common/tusb_common.h **** //--------------------------------------------------------------------+
  37:/home/pi/Developer/tinyusb/src/common/tusb_common.h **** #define TU_ARRAY_SIZE(_arr)           ( sizeof(_arr) / sizeof(_arr[0]) )
  38:/home/pi/Developer/tinyusb/src/common/tusb_common.h **** #define TU_FIELD_SIZE(_type, _field)  (sizeof(((_type *)0)->_field))
  39:/home/pi/Developer/tinyusb/src/common/tusb_common.h **** #define TU_MIN(_x, _y)                ( ( (_x) < (_y) ) ? (_x) : (_y) )
  40:/home/pi/Developer/tinyusb/src/common/tusb_common.h **** #define TU_MAX(_x, _y)                ( ( (_x) > (_y) ) ? (_x) : (_y) )
  41:/home/pi/Developer/tinyusb/src/common/tusb_common.h **** #define TU_DIV_CEIL(n, d)             (((n) + (d) - 1) / (d))
  42:/home/pi/Developer/tinyusb/src/common/tusb_common.h **** #define TU_DIV_ROUND_NEAREST(v, d)    (((v) + (d)/2) / (d) ) // round to nearest integer
  43:/home/pi/Developer/tinyusb/src/common/tusb_common.h **** 
  44:/home/pi/Developer/tinyusb/src/common/tusb_common.h **** #define TU_U16(_high, _low)           ((uint16_t) ((((uint16_t) (_high)) << 8) | ((uint16_t) (_low)
  45:/home/pi/Developer/tinyusb/src/common/tusb_common.h **** #define TU_U16_HIGH(_u16)             ((uint8_t) (((uint16_t) (_u16) >> 8) & 0x00ffu))
  46:/home/pi/Developer/tinyusb/src/common/tusb_common.h **** #define TU_U16_LOW(_u16)              ((uint8_t) ((uint16_t) (_u16) & 0x00ffu))
  47:/home/pi/Developer/tinyusb/src/common/tusb_common.h **** #define U16_TO_U8S_BE(_u16)           TU_U16_HIGH(_u16), TU_U16_LOW(_u16)
  48:/home/pi/Developer/tinyusb/src/common/tusb_common.h **** #define U16_TO_U8S_LE(_u16)           TU_U16_LOW(_u16), TU_U16_HIGH(_u16)
  49:/home/pi/Developer/tinyusb/src/common/tusb_common.h **** 
  50:/home/pi/Developer/tinyusb/src/common/tusb_common.h **** #define TU_U24(_high, _mid, _low)     ((uint32_t) ((((uint32_t) (_high)) << 16) | (((uint32_t) (_mi
  51:/home/pi/Developer/tinyusb/src/common/tusb_common.h **** #define TU_U24_HIGH(_u24)             ((uint8_t) (((uint32_t) (_u24) >> 16) & 0x0000ffu))
  52:/home/pi/Developer/tinyusb/src/common/tusb_common.h **** #define TU_U24_MID(_u24)              ((uint8_t) (((uint32_t) (_u24) >>  8) & 0x0000ffu))
  53:/home/pi/Developer/tinyusb/src/common/tusb_common.h **** #define TU_U24_LOW(_u24)              ((uint8_t) ((uint32_t) (_u24) & 0x0000ffu))
  54:/home/pi/Developer/tinyusb/src/common/tusb_common.h **** #define U24_TO_U8S_BE(_u24)           TU_U24_HIGH(_u24), TU_U24_MID(_u24), TU_U24_LOW(_u24)
  55:/home/pi/Developer/tinyusb/src/common/tusb_common.h **** #define U24_TO_U8S_LE(_u24)           TU_U24_LOW(_u24), TU_U24_MID(_u24), TU_U24_HIGH(_u24)
  56:/home/pi/Developer/tinyusb/src/common/tusb_common.h **** 
  57:/home/pi/Developer/tinyusb/src/common/tusb_common.h **** #define TU_U32_BYTE3(_u32)            ((uint8_t) ((((uint32_t) _u32) >> 24) & 0x000000ff)) // MSB
ARM GAS  /tmp/ccA3k9s1.s 			page 6


  58:/home/pi/Developer/tinyusb/src/common/tusb_common.h **** #define TU_U32_BYTE2(_u32)            ((uint8_t) ((((uint32_t) _u32) >> 16) & 0x000000ff))
  59:/home/pi/Developer/tinyusb/src/common/tusb_common.h **** #define TU_U32_BYTE1(_u32)            ((uint8_t) ((((uint32_t) _u32) >>  8) & 0x000000ff))
  60:/home/pi/Developer/tinyusb/src/common/tusb_common.h **** #define TU_U32_BYTE0(_u32)            ((uint8_t) (((uint32_t)  _u32)        & 0x000000ff)) // LSB
  61:/home/pi/Developer/tinyusb/src/common/tusb_common.h **** 
  62:/home/pi/Developer/tinyusb/src/common/tusb_common.h **** #define U32_TO_U8S_BE(_u32)           TU_U32_BYTE3(_u32), TU_U32_BYTE2(_u32), TU_U32_BYTE1(_u32), T
  63:/home/pi/Developer/tinyusb/src/common/tusb_common.h **** #define U32_TO_U8S_LE(_u32)           TU_U32_BYTE0(_u32), TU_U32_BYTE1(_u32), TU_U32_BYTE2(_u32), T
  64:/home/pi/Developer/tinyusb/src/common/tusb_common.h **** 
  65:/home/pi/Developer/tinyusb/src/common/tusb_common.h **** #define TU_BIT(n)                     (1UL << (n))
  66:/home/pi/Developer/tinyusb/src/common/tusb_common.h **** 
  67:/home/pi/Developer/tinyusb/src/common/tusb_common.h **** // Generate a mask with bit from high (31) to low (0) set, e.g TU_GENMASK(3, 0) = 0b1111
  68:/home/pi/Developer/tinyusb/src/common/tusb_common.h **** #define TU_GENMASK(h, l)              ( (UINT32_MAX << (l)) & (UINT32_MAX >> (31 - (h))) )
  69:/home/pi/Developer/tinyusb/src/common/tusb_common.h **** 
  70:/home/pi/Developer/tinyusb/src/common/tusb_common.h **** //--------------------------------------------------------------------+
  71:/home/pi/Developer/tinyusb/src/common/tusb_common.h **** // Includes
  72:/home/pi/Developer/tinyusb/src/common/tusb_common.h **** //--------------------------------------------------------------------+
  73:/home/pi/Developer/tinyusb/src/common/tusb_common.h **** 
  74:/home/pi/Developer/tinyusb/src/common/tusb_common.h **** // Standard Headers
  75:/home/pi/Developer/tinyusb/src/common/tusb_common.h **** #include <stdbool.h>
  76:/home/pi/Developer/tinyusb/src/common/tusb_common.h **** #include <stdint.h>
  77:/home/pi/Developer/tinyusb/src/common/tusb_common.h **** #include <inttypes.h>
  78:/home/pi/Developer/tinyusb/src/common/tusb_common.h **** #include <stddef.h>
  79:/home/pi/Developer/tinyusb/src/common/tusb_common.h **** #include <string.h>
  80:/home/pi/Developer/tinyusb/src/common/tusb_common.h **** 
  81:/home/pi/Developer/tinyusb/src/common/tusb_common.h **** // Tinyusb Common Headers
  82:/home/pi/Developer/tinyusb/src/common/tusb_common.h **** #include "tusb_option.h"
  83:/home/pi/Developer/tinyusb/src/common/tusb_common.h **** #include "tusb_compiler.h"
  84:/home/pi/Developer/tinyusb/src/common/tusb_common.h **** #include "tusb_verify.h"
  85:/home/pi/Developer/tinyusb/src/common/tusb_common.h **** #include "tusb_types.h"
  86:/home/pi/Developer/tinyusb/src/common/tusb_common.h **** #include "tusb_debug.h"
  87:/home/pi/Developer/tinyusb/src/common/tusb_common.h **** 
  88:/home/pi/Developer/tinyusb/src/common/tusb_common.h **** //--------------------------------------------------------------------+
  89:/home/pi/Developer/tinyusb/src/common/tusb_common.h **** // API implemented by application if needed
  90:/home/pi/Developer/tinyusb/src/common/tusb_common.h **** // TODO move to a more obvious place/file
  91:/home/pi/Developer/tinyusb/src/common/tusb_common.h **** //--------------------------------------------------------------------+
  92:/home/pi/Developer/tinyusb/src/common/tusb_common.h **** 
  93:/home/pi/Developer/tinyusb/src/common/tusb_common.h **** // Get current milliseconds, required by some port/configuration without RTOS
  94:/home/pi/Developer/tinyusb/src/common/tusb_common.h **** extern uint32_t tusb_time_millis_api(void);
  95:/home/pi/Developer/tinyusb/src/common/tusb_common.h **** 
  96:/home/pi/Developer/tinyusb/src/common/tusb_common.h **** // Delay in milliseconds, use tusb_time_millis_api() by default. required by some port/configuratio
  97:/home/pi/Developer/tinyusb/src/common/tusb_common.h **** extern void tusb_time_delay_ms_api(uint32_t ms);
  98:/home/pi/Developer/tinyusb/src/common/tusb_common.h **** 
  99:/home/pi/Developer/tinyusb/src/common/tusb_common.h **** // flush data cache
 100:/home/pi/Developer/tinyusb/src/common/tusb_common.h **** extern void tusb_app_dcache_flush(uintptr_t addr, uint32_t data_size);
 101:/home/pi/Developer/tinyusb/src/common/tusb_common.h **** 
 102:/home/pi/Developer/tinyusb/src/common/tusb_common.h **** // invalidate data cache
 103:/home/pi/Developer/tinyusb/src/common/tusb_common.h **** extern void tusb_app_dcache_invalidate(uintptr_t addr, uint32_t data_size);
 104:/home/pi/Developer/tinyusb/src/common/tusb_common.h **** 
 105:/home/pi/Developer/tinyusb/src/common/tusb_common.h **** // Optional physical <-> virtual address translation
 106:/home/pi/Developer/tinyusb/src/common/tusb_common.h **** extern void* tusb_app_virt_to_phys(void *virt_addr);
 107:/home/pi/Developer/tinyusb/src/common/tusb_common.h **** extern void* tusb_app_phys_to_virt(void *phys_addr);
 108:/home/pi/Developer/tinyusb/src/common/tusb_common.h **** 
 109:/home/pi/Developer/tinyusb/src/common/tusb_common.h **** //--------------------------------------------------------------------+
 110:/home/pi/Developer/tinyusb/src/common/tusb_common.h **** // Internal Inline Functions
 111:/home/pi/Developer/tinyusb/src/common/tusb_common.h **** //--------------------------------------------------------------------+
 112:/home/pi/Developer/tinyusb/src/common/tusb_common.h **** 
 113:/home/pi/Developer/tinyusb/src/common/tusb_common.h **** //------------- Mem -------------//
 114:/home/pi/Developer/tinyusb/src/common/tusb_common.h **** #define tu_memclr(buffer, size)  (void) memset((buffer), 0, (size))
ARM GAS  /tmp/ccA3k9s1.s 			page 7


 115:/home/pi/Developer/tinyusb/src/common/tusb_common.h **** #define tu_varclr(_var)          tu_memclr(_var, sizeof(*(_var)))
 116:/home/pi/Developer/tinyusb/src/common/tusb_common.h **** 
 117:/home/pi/Developer/tinyusb/src/common/tusb_common.h **** // This is a backport of memset_s from c11
 118:/home/pi/Developer/tinyusb/src/common/tusb_common.h **** TU_ATTR_ALWAYS_INLINE static inline int tu_memset_s(void *dest, size_t destsz, int ch, size_t count
 119:/home/pi/Developer/tinyusb/src/common/tusb_common.h ****   // Validate parameters
 120:/home/pi/Developer/tinyusb/src/common/tusb_common.h ****   if (dest == NULL) {
 121:/home/pi/Developer/tinyusb/src/common/tusb_common.h ****     return -1;
 122:/home/pi/Developer/tinyusb/src/common/tusb_common.h ****   }
 123:/home/pi/Developer/tinyusb/src/common/tusb_common.h **** 
 124:/home/pi/Developer/tinyusb/src/common/tusb_common.h ****   if (count == 0u) {
 125:/home/pi/Developer/tinyusb/src/common/tusb_common.h ****     return 0;
 126:/home/pi/Developer/tinyusb/src/common/tusb_common.h ****   }
 127:/home/pi/Developer/tinyusb/src/common/tusb_common.h **** 
 128:/home/pi/Developer/tinyusb/src/common/tusb_common.h ****   if (count > destsz) {
 129:/home/pi/Developer/tinyusb/src/common/tusb_common.h ****     return -1;
 130:/home/pi/Developer/tinyusb/src/common/tusb_common.h ****   }
 131:/home/pi/Developer/tinyusb/src/common/tusb_common.h **** 
 132:/home/pi/Developer/tinyusb/src/common/tusb_common.h ****   (void) memset(dest, ch, count);
 133:/home/pi/Developer/tinyusb/src/common/tusb_common.h ****   return 0;
 134:/home/pi/Developer/tinyusb/src/common/tusb_common.h **** }
 135:/home/pi/Developer/tinyusb/src/common/tusb_common.h **** 
 136:/home/pi/Developer/tinyusb/src/common/tusb_common.h **** // This is a backport of memcpy_s from c11
 137:/home/pi/Developer/tinyusb/src/common/tusb_common.h **** TU_ATTR_ALWAYS_INLINE static inline int tu_memcpy_s(void *dest, size_t destsz, const void *src, siz
  95              		.loc 2 137 41 view .LVU24
  96              	.LBB66:
 138:/home/pi/Developer/tinyusb/src/common/tusb_common.h ****   if (dest == NULL) {
  97              		.loc 2 138 3 view .LVU25
 139:/home/pi/Developer/tinyusb/src/common/tusb_common.h ****     return -1;
 140:/home/pi/Developer/tinyusb/src/common/tusb_common.h ****   }
 141:/home/pi/Developer/tinyusb/src/common/tusb_common.h **** 
 142:/home/pi/Developer/tinyusb/src/common/tusb_common.h ****   if (count == 0u) {
  98              		.loc 2 142 3 view .LVU26
  99              		.loc 2 142 6 is_stmt 0 view .LVU27
 100 0034 4DB1     		cbz	r5, .L7
 143:/home/pi/Developer/tinyusb/src/common/tusb_common.h ****     return 0;
 144:/home/pi/Developer/tinyusb/src/common/tusb_common.h ****   }
 145:/home/pi/Developer/tinyusb/src/common/tusb_common.h **** 
 146:/home/pi/Developer/tinyusb/src/common/tusb_common.h ****   if (src == NULL) {
 101              		.loc 2 146 3 is_stmt 1 view .LVU28
 147:/home/pi/Developer/tinyusb/src/common/tusb_common.h ****     return -1;
 148:/home/pi/Developer/tinyusb/src/common/tusb_common.h ****   }
 149:/home/pi/Developer/tinyusb/src/common/tusb_common.h **** 
 150:/home/pi/Developer/tinyusb/src/common/tusb_common.h ****   if (count > destsz) {
 102              		.loc 2 150 3 view .LVU29
 103              		.loc 2 150 6 is_stmt 0 view .LVU30
 104 0036 B9F1000F 		cmp	r9, #0
 105 003a 2AD0     		beq	.L6
 106 003c 082D     		cmp	r5, #8
 107 003e 28D8     		bhi	.L6
 151:/home/pi/Developer/tinyusb/src/common/tusb_common.h ****     return -1;
 152:/home/pi/Developer/tinyusb/src/common/tusb_common.h ****   }
 153:/home/pi/Developer/tinyusb/src/common/tusb_common.h **** 
 154:/home/pi/Developer/tinyusb/src/common/tusb_common.h ****   (void) memcpy(dest, src, count);
 108              		.loc 2 154 3 is_stmt 1 view .LVU31
 109              		.loc 2 154 10 is_stmt 0 view .LVU32
 110 0040 4946     		mov	r1, r9
 111 0042 2A46     		mov	r2, r5
ARM GAS  /tmp/ccA3k9s1.s 			page 8


 112 0044 3046     		mov	r0, r6
 113 0046 FFF7FEFF 		bl	memcpy
 114              	.LVL7:
 155:/home/pi/Developer/tinyusb/src/common/tusb_common.h ****   return 0;
 115              		.loc 2 155 3 is_stmt 1 view .LVU33
 116              	.L7:
 117              		.loc 2 155 3 is_stmt 0 view .LVU34
 118              	.LBE66:
 119              	.LBE65:
 120              		.loc 1 128 5 is_stmt 1 view .LVU35
 129:/home/pi/Developer/tinyusb/src/class/hid/hid_device.c ****   }
 130:/home/pi/Developer/tinyusb/src/class/hid/hid_device.c **** 
 131:/home/pi/Developer/tinyusb/src/class/hid/hid_device.c ****   return usbd_edpt_xfer(rhport, p_hid->ep_in, p_epbuf->epin, len, false);
 121              		.loc 1 131 3 view .LVU36
 122              		.loc 1 131 10 is_stmt 0 view .LVU37
 123 004a 5C44     		add	r4, r4, fp
 124              	.LVL8:
 125              		.loc 1 131 10 view .LVU38
 126 004c 0020     		movs	r0, #0
 127 004e 2B46     		mov	r3, r5
 128 0050 3246     		mov	r2, r6
 129 0052 08EB8408 		add	r8, r8, r4, lsl #2
 130 0056 0090     		str	r0, [sp]
 131 0058 98F80110 		ldrb	r1, [r8, #1]	@ zero_extendqisi2
 132 005c FFF7FEFF 		bl	usbd_edpt_xfer
 133              	.LVL9:
 132:/home/pi/Developer/tinyusb/src/class/hid/hid_device.c **** }
 134              		.loc 1 132 1 view .LVU39
 135 0060 03B0     		add	sp, sp, #12
 136              		.cfi_remember_state
 137              		.cfi_def_cfa_offset 36
 138              		@ sp needed
 139 0062 BDE8F08F 		pop	{r4, r5, r6, r7, r8, r9, r10, fp, pc}
 140              	.LVL10:
 141              	.L17:
 142              		.cfi_restore_state
 124:/home/pi/Developer/tinyusb/src/class/hid/hid_device.c ****     TU_VERIFY(0 == tu_memcpy_s(p_epbuf->epin + 1, CFG_TUD_HID_EP_BUFSIZE - 1, report, len));
 143              		.loc 1 124 5 is_stmt 1 view .LVU40
 125:/home/pi/Developer/tinyusb/src/class/hid/hid_device.c ****     len++;
 144              		.loc 1 125 5 is_stmt 0 view .LVU41
 145 0066 1823     		movs	r3, #24
 124:/home/pi/Developer/tinyusb/src/class/hid/hid_device.c ****     TU_VERIFY(0 == tu_memcpy_s(p_epbuf->epin + 1, CFG_TUD_HID_EP_BUFSIZE - 1, report, len));
 146              		.loc 1 124 22 view .LVU42
 147 0068 06EBCA0A 		add	r10, r6, r10, lsl #3
 125:/home/pi/Developer/tinyusb/src/class/hid/hid_device.c ****     len++;
 148              		.loc 1 125 5 view .LVU43
 149 006c 03FB0466 		mla	r6, r3, r4, r6
 124:/home/pi/Developer/tinyusb/src/class/hid/hid_device.c ****     TU_VERIFY(0 == tu_memcpy_s(p_epbuf->epin + 1, CFG_TUD_HID_EP_BUFSIZE - 1, report, len));
 150              		.loc 1 124 22 view .LVU44
 151 0070 8AF80870 		strb	r7, [r10, #8]
 125:/home/pi/Developer/tinyusb/src/class/hid/hid_device.c ****     len++;
 152              		.loc 1 125 5 is_stmt 1 view .LVU45
 125:/home/pi/Developer/tinyusb/src/class/hid/hid_device.c ****     len++;
 153              		.loc 1 125 5 view .LVU46
 154 0074 0836     		adds	r6, r6, #8
 155              	.LVL11:
 156              	.LBB67:
ARM GAS  /tmp/ccA3k9s1.s 			page 9


 157              	.LBI67:
 137:/home/pi/Developer/tinyusb/src/common/tusb_common.h ****   if (dest == NULL) {
 158              		.loc 2 137 41 view .LVU47
 159              	.LBB68:
 138:/home/pi/Developer/tinyusb/src/common/tusb_common.h ****     return -1;
 160              		.loc 2 138 3 view .LVU48
 142:/home/pi/Developer/tinyusb/src/common/tusb_common.h ****     return 0;
 161              		.loc 2 142 3 view .LVU49
 142:/home/pi/Developer/tinyusb/src/common/tusb_common.h ****     return 0;
 162              		.loc 2 142 6 is_stmt 0 view .LVU50
 163 0076 4DB1     		cbz	r5, .L5
 146:/home/pi/Developer/tinyusb/src/common/tusb_common.h ****     return -1;
 164              		.loc 2 146 3 is_stmt 1 view .LVU51
 150:/home/pi/Developer/tinyusb/src/common/tusb_common.h ****     return -1;
 165              		.loc 2 150 3 view .LVU52
 150:/home/pi/Developer/tinyusb/src/common/tusb_common.h ****     return -1;
 166              		.loc 2 150 6 is_stmt 0 view .LVU53
 167 0078 B9F1000F 		cmp	r9, #0
 168 007c 09D0     		beq	.L6
 169 007e 072D     		cmp	r5, #7
 170 0080 07D8     		bhi	.L6
 154:/home/pi/Developer/tinyusb/src/common/tusb_common.h ****   return 0;
 171              		.loc 2 154 3 is_stmt 1 view .LVU54
 154:/home/pi/Developer/tinyusb/src/common/tusb_common.h ****   return 0;
 172              		.loc 2 154 10 is_stmt 0 view .LVU55
 173 0082 4946     		mov	r1, r9
 174 0084 2A46     		mov	r2, r5
 175 0086 701C     		adds	r0, r6, #1
 176              	.LVL12:
 154:/home/pi/Developer/tinyusb/src/common/tusb_common.h ****   return 0;
 177              		.loc 2 154 10 view .LVU56
 178 0088 FFF7FEFF 		bl	memcpy
 179              	.LVL13:
 180              		.loc 2 155 3 is_stmt 1 view .LVU57
 181              	.L5:
 182              		.loc 2 155 3 is_stmt 0 view .LVU58
 183              	.LBE68:
 184              	.LBE67:
 125:/home/pi/Developer/tinyusb/src/class/hid/hid_device.c ****     len++;
 185              		.loc 1 125 5 is_stmt 1 view .LVU59
 126:/home/pi/Developer/tinyusb/src/class/hid/hid_device.c ****   } else {
 186              		.loc 1 126 5 view .LVU60
 126:/home/pi/Developer/tinyusb/src/class/hid/hid_device.c ****   } else {
 187              		.loc 1 126 8 is_stmt 0 view .LVU61
 188 008c 0135     		adds	r5, r5, #1
 189 008e ADB2     		uxth	r5, r5
 190              	.LVL14:
 126:/home/pi/Developer/tinyusb/src/class/hid/hid_device.c ****   } else {
 191              		.loc 1 126 8 view .LVU62
 192 0090 DBE7     		b	.L7
 193              	.LVL15:
 194              	.L6:
 120:/home/pi/Developer/tinyusb/src/class/hid/hid_device.c **** 
 195              		.loc 1 120 3 view .LVU63
 196 0092 0020     		movs	r0, #0
 197              		.loc 1 132 1 view .LVU64
 198 0094 03B0     		add	sp, sp, #12
ARM GAS  /tmp/ccA3k9s1.s 			page 10


 199              		.cfi_def_cfa_offset 36
 200              		@ sp needed
 201 0096 BDE8F08F 		pop	{r4, r5, r6, r7, r8, r9, r10, fp, pc}
 202              	.LVL16:
 203              	.L19:
 204              		.loc 1 132 1 view .LVU65
 205 009a 00BF     		.align	2
 206              	.L18:
 207 009c 00000000 		.word	.LANCHOR1
 208 00a0 00000000 		.word	.LANCHOR0
 209              		.cfi_endproc
 210              	.LFE441:
 212              		.section	.text.tud_hid_set_protocol_cb,"ax",%progbits
 213              		.align	1
 214              		.p2align 2,,3
 215              		.weak	tud_hid_set_protocol_cb
 216              		.syntax unified
 217              		.thumb
 218              		.thumb_func
 219              		.fpu fpv5-d16
 221              	tud_hid_set_protocol_cb:
 222              	.LVL17:
 223              	.LFB422:
  79:/home/pi/Developer/tinyusb/src/class/hid/hid_device.c ****   (void) instance;
 224              		.loc 1 79 79 is_stmt 1 view -0
 225              		.cfi_startproc
 226              		@ args = 0, pretend = 0, frame = 0
 227              		@ frame_needed = 0, uses_anonymous_args = 0
 228              		@ link register save eliminated.
  80:/home/pi/Developer/tinyusb/src/class/hid/hid_device.c ****   (void) protocol;
 229              		.loc 1 80 3 view .LVU67
  81:/home/pi/Developer/tinyusb/src/class/hid/hid_device.c **** }
 230              		.loc 1 81 3 view .LVU68
  82:/home/pi/Developer/tinyusb/src/class/hid/hid_device.c **** 
 231              		.loc 1 82 1 is_stmt 0 view .LVU69
 232 0000 7047     		bx	lr
 233              		.cfi_endproc
 234              	.LFE422:
 236 0002 00BF     		.section	.text.tud_hid_set_idle_cb,"ax",%progbits
 237              		.align	1
 238              		.p2align 2,,3
 239              		.weak	tud_hid_set_idle_cb
 240              		.syntax unified
 241              		.thumb
 242              		.thumb_func
 243              		.fpu fpv5-d16
 245              	tud_hid_set_idle_cb:
 246              	.LVL18:
 247              	.LFB423:
  84:/home/pi/Developer/tinyusb/src/class/hid/hid_device.c ****   (void) instance;
 248              		.loc 1 84 76 is_stmt 1 view -0
 249              		.cfi_startproc
 250              		@ args = 0, pretend = 0, frame = 0
 251              		@ frame_needed = 0, uses_anonymous_args = 0
 252              		@ link register save eliminated.
  85:/home/pi/Developer/tinyusb/src/class/hid/hid_device.c ****   (void) idle_rate;
 253              		.loc 1 85 3 view .LVU71
ARM GAS  /tmp/ccA3k9s1.s 			page 11


  86:/home/pi/Developer/tinyusb/src/class/hid/hid_device.c ****   return true;
 254              		.loc 1 86 3 view .LVU72
  87:/home/pi/Developer/tinyusb/src/class/hid/hid_device.c **** }
 255              		.loc 1 87 3 view .LVU73
  88:/home/pi/Developer/tinyusb/src/class/hid/hid_device.c **** 
 256              		.loc 1 88 1 is_stmt 0 view .LVU74
 257 0000 0120     		movs	r0, #1
 258              	.LVL19:
  88:/home/pi/Developer/tinyusb/src/class/hid/hid_device.c **** 
 259              		.loc 1 88 1 view .LVU75
 260 0002 7047     		bx	lr
 261              		.cfi_endproc
 262              	.LFE423:
 264              		.section	.text.tud_hid_report_complete_cb,"ax",%progbits
 265              		.align	1
 266              		.p2align 2,,3
 267              		.weak	tud_hid_report_complete_cb
 268              		.syntax unified
 269              		.thumb
 270              		.thumb_func
 271              		.fpu fpv5-d16
 273              	tud_hid_report_complete_cb:
 274              	.LVL20:
 275              	.LFB424:
  90:/home/pi/Developer/tinyusb/src/class/hid/hid_device.c ****   (void) instance;
 276              		.loc 1 90 101 is_stmt 1 view -0
 277              		.cfi_startproc
 278              		@ args = 0, pretend = 0, frame = 0
 279              		@ frame_needed = 0, uses_anonymous_args = 0
 280              		@ link register save eliminated.
  91:/home/pi/Developer/tinyusb/src/class/hid/hid_device.c ****   (void) report;
 281              		.loc 1 91 3 view .LVU77
  92:/home/pi/Developer/tinyusb/src/class/hid/hid_device.c ****   (void) len;
 282              		.loc 1 92 3 view .LVU78
  93:/home/pi/Developer/tinyusb/src/class/hid/hid_device.c **** }
 283              		.loc 1 93 3 view .LVU79
  94:/home/pi/Developer/tinyusb/src/class/hid/hid_device.c **** 
 284              		.loc 1 94 1 is_stmt 0 view .LVU80
 285 0000 7047     		bx	lr
 286              		.cfi_endproc
 287              	.LFE424:
 289 0002 00BF     		.section	.text.tud_hid_report_failed_cb,"ax",%progbits
 290              		.align	1
 291              		.p2align 2,,3
 292              		.weak	tud_hid_report_failed_cb
 293              		.syntax unified
 294              		.thumb
 295              		.thumb_func
 296              		.fpu fpv5-d16
 298              	tud_hid_report_failed_cb:
 299              	.LVL21:
 300              	.LFB425:
  97:/home/pi/Developer/tinyusb/src/class/hid/hid_device.c ****   (void) instance;
 301              		.loc 1 97 140 is_stmt 1 view -0
 302              		.cfi_startproc
 303              		@ args = 0, pretend = 0, frame = 0
 304              		@ frame_needed = 0, uses_anonymous_args = 0
ARM GAS  /tmp/ccA3k9s1.s 			page 12


 305              		@ link register save eliminated.
  98:/home/pi/Developer/tinyusb/src/class/hid/hid_device.c ****   (void) report_type;
 306              		.loc 1 98 3 view .LVU82
  99:/home/pi/Developer/tinyusb/src/class/hid/hid_device.c ****   (void) report;
 307              		.loc 1 99 3 view .LVU83
 100:/home/pi/Developer/tinyusb/src/class/hid/hid_device.c ****   (void) xferred_bytes;
 308              		.loc 1 100 3 view .LVU84
 101:/home/pi/Developer/tinyusb/src/class/hid/hid_device.c **** }
 309              		.loc 1 101 3 view .LVU85
 102:/home/pi/Developer/tinyusb/src/class/hid/hid_device.c **** 
 310              		.loc 1 102 1 is_stmt 0 view .LVU86
 311 0000 7047     		bx	lr
 312              		.cfi_endproc
 313              	.LFE425:
 315 0002 00BF     		.section	.text.tud_hid_n_ready,"ax",%progbits
 316              		.align	1
 317              		.p2align 2,,3
 318              		.global	tud_hid_n_ready
 319              		.syntax unified
 320              		.thumb
 321              		.thumb_func
 322              		.fpu fpv5-d16
 324              	tud_hid_n_ready:
 325              	.LVL22:
 326              	.LFB426:
 107:/home/pi/Developer/tinyusb/src/class/hid/hid_device.c ****   uint8_t const rhport = 0;
 327              		.loc 1 107 40 is_stmt 1 view -0
 328              		.cfi_startproc
 329              		@ args = 0, pretend = 0, frame = 0
 330              		@ frame_needed = 0, uses_anonymous_args = 0
 108:/home/pi/Developer/tinyusb/src/class/hid/hid_device.c ****   uint8_t const ep_in = _hidd_itf[instance].ep_in;
 331              		.loc 1 108 3 view .LVU88
 109:/home/pi/Developer/tinyusb/src/class/hid/hid_device.c ****   return tud_ready() && (ep_in != 0) && !usbd_edpt_busy(rhport, ep_in);
 332              		.loc 1 109 3 view .LVU89
 107:/home/pi/Developer/tinyusb/src/class/hid/hid_device.c ****   uint8_t const rhport = 0;
 333              		.loc 1 107 40 is_stmt 0 view .LVU90
 334 0000 38B5     		push	{r3, r4, r5, lr}
 335              		.cfi_def_cfa_offset 16
 336              		.cfi_offset 3, -16
 337              		.cfi_offset 4, -12
 338              		.cfi_offset 5, -8
 339              		.cfi_offset 14, -4
 109:/home/pi/Developer/tinyusb/src/class/hid/hid_device.c ****   return tud_ready() && (ep_in != 0) && !usbd_edpt_busy(rhport, ep_in);
 340              		.loc 1 109 17 view .LVU91
 341 0002 00EB4000 		add	r0, r0, r0, lsl #1
 342              	.LVL23:
 109:/home/pi/Developer/tinyusb/src/class/hid/hid_device.c ****   return tud_ready() && (ep_in != 0) && !usbd_edpt_busy(rhport, ep_in);
 343              		.loc 1 109 17 view .LVU92
 344 0006 0D4B     		ldr	r3, .L31
 345 0008 03EB8000 		add	r0, r3, r0, lsl #2
 346 000c 4578     		ldrb	r5, [r0, #1]	@ zero_extendqisi2
 347              	.LVL24:
 110:/home/pi/Developer/tinyusb/src/class/hid/hid_device.c **** }
 348              		.loc 1 110 3 is_stmt 1 view .LVU93
 349              	.LBB69:
 350              	.LBI69:
 351              		.file 3 "/home/pi/Developer/tinyusb/src/device/usbd.h"
ARM GAS  /tmp/ccA3k9s1.s 			page 13


   1:/home/pi/Developer/tinyusb/src/device/usbd.h **** /*
   2:/home/pi/Developer/tinyusb/src/device/usbd.h ****  * The MIT License (MIT)
   3:/home/pi/Developer/tinyusb/src/device/usbd.h ****  *
   4:/home/pi/Developer/tinyusb/src/device/usbd.h ****  * Copyright (c) 2019 Ha Thach (tinyusb.org)
   5:/home/pi/Developer/tinyusb/src/device/usbd.h ****  *
   6:/home/pi/Developer/tinyusb/src/device/usbd.h ****  * Permission is hereby granted, free of charge, to any person obtaining a copy
   7:/home/pi/Developer/tinyusb/src/device/usbd.h ****  * of this software and associated documentation files (the "Software"), to deal
   8:/home/pi/Developer/tinyusb/src/device/usbd.h ****  * in the Software without restriction, including without limitation the rights
   9:/home/pi/Developer/tinyusb/src/device/usbd.h ****  * to use, copy, modify, merge, publish, distribute, sublicense, and/or sell
  10:/home/pi/Developer/tinyusb/src/device/usbd.h ****  * copies of the Software, and to permit persons to whom the Software is
  11:/home/pi/Developer/tinyusb/src/device/usbd.h ****  * furnished to do so, subject to the following conditions:
  12:/home/pi/Developer/tinyusb/src/device/usbd.h ****  *
  13:/home/pi/Developer/tinyusb/src/device/usbd.h ****  * The above copyright notice and this permission notice shall be included in
  14:/home/pi/Developer/tinyusb/src/device/usbd.h ****  * all copies or substantial portions of the Software.
  15:/home/pi/Developer/tinyusb/src/device/usbd.h ****  *
  16:/home/pi/Developer/tinyusb/src/device/usbd.h ****  * THE SOFTWARE IS PROVIDED "AS IS", WITHOUT WARRANTY OF ANY KIND, EXPRESS OR
  17:/home/pi/Developer/tinyusb/src/device/usbd.h ****  * IMPLIED, INCLUDING BUT NOT LIMITED TO THE WARRANTIES OF MERCHANTABILITY,
  18:/home/pi/Developer/tinyusb/src/device/usbd.h ****  * FITNESS FOR A PARTICULAR PURPOSE AND NONINFRINGEMENT. IN NO EVENT SHALL THE
  19:/home/pi/Developer/tinyusb/src/device/usbd.h ****  * AUTHORS OR COPYRIGHT HOLDERS BE LIABLE FOR ANY CLAIM, DAMAGES OR OTHER
  20:/home/pi/Developer/tinyusb/src/device/usbd.h ****  * LIABILITY, WHETHER IN AN ACTION OF CONTRACT, TORT OR OTHERWISE, ARISING FROM,
  21:/home/pi/Developer/tinyusb/src/device/usbd.h ****  * OUT OF OR IN CONNECTION WITH THE SOFTWARE OR THE USE OR OTHER DEALINGS IN
  22:/home/pi/Developer/tinyusb/src/device/usbd.h ****  * THE SOFTWARE.
  23:/home/pi/Developer/tinyusb/src/device/usbd.h ****  *
  24:/home/pi/Developer/tinyusb/src/device/usbd.h ****  * This file is part of the TinyUSB stack.
  25:/home/pi/Developer/tinyusb/src/device/usbd.h ****  */
  26:/home/pi/Developer/tinyusb/src/device/usbd.h **** 
  27:/home/pi/Developer/tinyusb/src/device/usbd.h **** #ifndef TUSB_USBD_H_
  28:/home/pi/Developer/tinyusb/src/device/usbd.h **** #define TUSB_USBD_H_
  29:/home/pi/Developer/tinyusb/src/device/usbd.h **** 
  30:/home/pi/Developer/tinyusb/src/device/usbd.h **** #include "common/tusb_common.h"
  31:/home/pi/Developer/tinyusb/src/device/usbd.h **** 
  32:/home/pi/Developer/tinyusb/src/device/usbd.h **** #ifdef __cplusplus
  33:/home/pi/Developer/tinyusb/src/device/usbd.h **** extern "C" {
  34:/home/pi/Developer/tinyusb/src/device/usbd.h **** #endif
  35:/home/pi/Developer/tinyusb/src/device/usbd.h **** 
  36:/home/pi/Developer/tinyusb/src/device/usbd.h **** // ConfigID for tud_configure()
  37:/home/pi/Developer/tinyusb/src/device/usbd.h **** enum {
  38:/home/pi/Developer/tinyusb/src/device/usbd.h ****   TUD_CFGID_INVALID = 0,
  39:/home/pi/Developer/tinyusb/src/device/usbd.h ****   TUD_CFGID_DWC2 = 100,
  40:/home/pi/Developer/tinyusb/src/device/usbd.h **** };
  41:/home/pi/Developer/tinyusb/src/device/usbd.h **** 
  42:/home/pi/Developer/tinyusb/src/device/usbd.h **** typedef struct {
  43:/home/pi/Developer/tinyusb/src/device/usbd.h ****   uint16_t bm_double_buffered; // bitmap of IN endpoints to be double buffered, only effective for 
  44:/home/pi/Developer/tinyusb/src/device/usbd.h ****   bool vbus_sensing; // Vbus pin is used for device connection detection, mandatory for tud_umount_
  45:/home/pi/Developer/tinyusb/src/device/usbd.h **** } tud_configure_dwc2_t;
  46:/home/pi/Developer/tinyusb/src/device/usbd.h **** 
  47:/home/pi/Developer/tinyusb/src/device/usbd.h ****   #ifndef CFG_TUD_CONFIGURE_DWC2_DEFAULT
  48:/home/pi/Developer/tinyusb/src/device/usbd.h ****     #define CFG_TUD_CONFIGURE_DWC2_DEFAULT {.bm_double_buffered = 0, .vbus_sensing = CFG_TUD_VBUS_D
  49:/home/pi/Developer/tinyusb/src/device/usbd.h ****   #endif
  50:/home/pi/Developer/tinyusb/src/device/usbd.h **** 
  51:/home/pi/Developer/tinyusb/src/device/usbd.h **** typedef union {
  52:/home/pi/Developer/tinyusb/src/device/usbd.h ****   tud_configure_dwc2_t dwc2;
  53:/home/pi/Developer/tinyusb/src/device/usbd.h **** } tud_configure_param_t;
  54:/home/pi/Developer/tinyusb/src/device/usbd.h **** 
  55:/home/pi/Developer/tinyusb/src/device/usbd.h **** //--------------------------------------------------------------------+
  56:/home/pi/Developer/tinyusb/src/device/usbd.h **** // Application API
  57:/home/pi/Developer/tinyusb/src/device/usbd.h **** //--------------------------------------------------------------------+
ARM GAS  /tmp/ccA3k9s1.s 			page 14


  58:/home/pi/Developer/tinyusb/src/device/usbd.h **** 
  59:/home/pi/Developer/tinyusb/src/device/usbd.h **** // Configure device stack behavior with dynamic or port-specific parameters.
  60:/home/pi/Developer/tinyusb/src/device/usbd.h **** // Should be called before initialization of the device stack
  61:/home/pi/Developer/tinyusb/src/device/usbd.h **** // - cfg_id   : configure ID from TUD_CFGID_* enum values
  62:/home/pi/Developer/tinyusb/src/device/usbd.h **** // - cfg_param: configure data, structure depends on the ID
  63:/home/pi/Developer/tinyusb/src/device/usbd.h **** bool tud_configure(uint8_t rhport, uint32_t cfg_id, const void* cfg_param);
  64:/home/pi/Developer/tinyusb/src/device/usbd.h **** 
  65:/home/pi/Developer/tinyusb/src/device/usbd.h **** // New API to replace tud_init() to init device stack on specific roothub port
  66:/home/pi/Developer/tinyusb/src/device/usbd.h **** // Must be called in the same task/context as tud_task() if RTOS is used
  67:/home/pi/Developer/tinyusb/src/device/usbd.h **** bool tud_rhport_init(uint8_t rhport, const tusb_rhport_init_t* rh_init);
  68:/home/pi/Developer/tinyusb/src/device/usbd.h **** 
  69:/home/pi/Developer/tinyusb/src/device/usbd.h **** // Init device stack on roothub port
  70:/home/pi/Developer/tinyusb/src/device/usbd.h **** #if TUSB_VERSION_NUMBER > 2000  // 0.20.0
  71:/home/pi/Developer/tinyusb/src/device/usbd.h **** TU_ATTR_DEPRECATED("Please use tusb_init(rhport, rh_init) instead")
  72:/home/pi/Developer/tinyusb/src/device/usbd.h **** #endif
  73:/home/pi/Developer/tinyusb/src/device/usbd.h **** TU_ATTR_ALWAYS_INLINE static inline bool tud_init (uint8_t rhport) {
  74:/home/pi/Developer/tinyusb/src/device/usbd.h ****   const tusb_rhport_init_t rh_init = {
  75:/home/pi/Developer/tinyusb/src/device/usbd.h ****     .role = TUSB_ROLE_DEVICE,
  76:/home/pi/Developer/tinyusb/src/device/usbd.h ****     .speed = TUD_OPT_HIGH_SPEED ? TUSB_SPEED_HIGH : TUSB_SPEED_FULL
  77:/home/pi/Developer/tinyusb/src/device/usbd.h ****   };
  78:/home/pi/Developer/tinyusb/src/device/usbd.h ****   return tud_rhport_init(rhport, &rh_init);
  79:/home/pi/Developer/tinyusb/src/device/usbd.h **** }
  80:/home/pi/Developer/tinyusb/src/device/usbd.h **** 
  81:/home/pi/Developer/tinyusb/src/device/usbd.h **** // Deinit device stack on roothub port
  82:/home/pi/Developer/tinyusb/src/device/usbd.h **** // Must be called in the same task/context as tud_task() if RTOS is used
  83:/home/pi/Developer/tinyusb/src/device/usbd.h **** bool tud_deinit(uint8_t rhport);
  84:/home/pi/Developer/tinyusb/src/device/usbd.h **** 
  85:/home/pi/Developer/tinyusb/src/device/usbd.h **** // Check if device stack is already initialized
  86:/home/pi/Developer/tinyusb/src/device/usbd.h **** bool tud_inited(void);
  87:/home/pi/Developer/tinyusb/src/device/usbd.h **** 
  88:/home/pi/Developer/tinyusb/src/device/usbd.h **** // Task function should be called in main/rtos loop, extended version of tud_task()
  89:/home/pi/Developer/tinyusb/src/device/usbd.h **** // - timeout_ms: millisecond to wait, zero = no wait, 0xFFFFFFFF = wait forever
  90:/home/pi/Developer/tinyusb/src/device/usbd.h **** // - in_isr: if function is called in ISR
  91:/home/pi/Developer/tinyusb/src/device/usbd.h **** void tud_task_ext(uint32_t timeout_ms, bool in_isr);
  92:/home/pi/Developer/tinyusb/src/device/usbd.h **** 
  93:/home/pi/Developer/tinyusb/src/device/usbd.h **** // Task function should be called in main/rtos loop
  94:/home/pi/Developer/tinyusb/src/device/usbd.h **** TU_ATTR_ALWAYS_INLINE static inline
  95:/home/pi/Developer/tinyusb/src/device/usbd.h **** void tud_task (void) {
  96:/home/pi/Developer/tinyusb/src/device/usbd.h ****   tud_task_ext(UINT32_MAX, false);
  97:/home/pi/Developer/tinyusb/src/device/usbd.h **** }
  98:/home/pi/Developer/tinyusb/src/device/usbd.h **** 
  99:/home/pi/Developer/tinyusb/src/device/usbd.h **** // Check if there is pending events need processing by tud_task()
 100:/home/pi/Developer/tinyusb/src/device/usbd.h **** bool tud_task_event_ready(void);
 101:/home/pi/Developer/tinyusb/src/device/usbd.h **** 
 102:/home/pi/Developer/tinyusb/src/device/usbd.h **** #ifndef TUSB_DCD_H_
 103:/home/pi/Developer/tinyusb/src/device/usbd.h **** extern void dcd_int_handler(uint8_t rhport);
 104:/home/pi/Developer/tinyusb/src/device/usbd.h **** #endif
 105:/home/pi/Developer/tinyusb/src/device/usbd.h **** 
 106:/home/pi/Developer/tinyusb/src/device/usbd.h **** // Interrupt handler, name alias to DCD
 107:/home/pi/Developer/tinyusb/src/device/usbd.h **** #define tud_int_handler   dcd_int_handler
 108:/home/pi/Developer/tinyusb/src/device/usbd.h **** 
 109:/home/pi/Developer/tinyusb/src/device/usbd.h **** // Get current bus speed
 110:/home/pi/Developer/tinyusb/src/device/usbd.h **** tusb_speed_t tud_speed_get(void);
 111:/home/pi/Developer/tinyusb/src/device/usbd.h **** 
 112:/home/pi/Developer/tinyusb/src/device/usbd.h **** // Check if device is connected (may not mounted/configured yet)
 113:/home/pi/Developer/tinyusb/src/device/usbd.h **** // True if just got out of Bus Reset and received the very first data from host
 114:/home/pi/Developer/tinyusb/src/device/usbd.h **** bool tud_connected(void);
ARM GAS  /tmp/ccA3k9s1.s 			page 15


 115:/home/pi/Developer/tinyusb/src/device/usbd.h **** 
 116:/home/pi/Developer/tinyusb/src/device/usbd.h **** // Check if device is connected and configured
 117:/home/pi/Developer/tinyusb/src/device/usbd.h **** bool tud_mounted(void);
 118:/home/pi/Developer/tinyusb/src/device/usbd.h **** 
 119:/home/pi/Developer/tinyusb/src/device/usbd.h **** // Check if device is suspended
 120:/home/pi/Developer/tinyusb/src/device/usbd.h **** bool tud_suspended(void);
 121:/home/pi/Developer/tinyusb/src/device/usbd.h **** 
 122:/home/pi/Developer/tinyusb/src/device/usbd.h **** // Check if device is ready to transfer
 123:/home/pi/Developer/tinyusb/src/device/usbd.h **** TU_ATTR_ALWAYS_INLINE static inline
 124:/home/pi/Developer/tinyusb/src/device/usbd.h **** bool tud_ready(void) {
 352              		.loc 3 124 6 view .LVU94
 353              	.LBB70:
 125:/home/pi/Developer/tinyusb/src/device/usbd.h ****   const bool is_mounted = tud_mounted();
 354              		.loc 3 125 3 view .LVU95
 355              		.loc 3 125 27 is_stmt 0 view .LVU96
 356 000e FFF7FEFF 		bl	tud_mounted
 357              	.LVL25:
 358 0012 0446     		mov	r4, r0
 359              	.LVL26:
 126:/home/pi/Developer/tinyusb/src/device/usbd.h ****   const bool is_suspended = tud_suspended();
 360              		.loc 3 126 3 is_stmt 1 view .LVU97
 361              		.loc 3 126 29 is_stmt 0 view .LVU98
 362 0014 FFF7FEFF 		bl	tud_suspended
 363              	.LVL27:
 127:/home/pi/Developer/tinyusb/src/device/usbd.h ****   return is_mounted && !is_suspended;
 364              		.loc 3 127 3 is_stmt 1 view .LVU99
 365              		.loc 3 127 24 is_stmt 0 view .LVU100
 366 0018 80F00100 		eor	r0, r0, #1
 367              	.LBE70:
 368              	.LBE69:
 110:/home/pi/Developer/tinyusb/src/class/hid/hid_device.c **** }
 369              		.loc 1 110 22 view .LVU101
 370 001c 002D     		cmp	r5, #0
 371 001e 0CBF     		ite	eq
 372 0020 0023     		moveq	r3, #0
 373 0022 04F00103 		andne	r3, r4, #1
 374 0026 1840     		ands	r0, r3, r0
 375 0028 00D1     		bne	.L30
 111:/home/pi/Developer/tinyusb/src/class/hid/hid_device.c **** 
 376              		.loc 1 111 1 discriminator 8 view .LVU102
 377 002a 38BD     		pop	{r3, r4, r5, pc}
 378              	.LVL28:
 379              	.L30:
 110:/home/pi/Developer/tinyusb/src/class/hid/hid_device.c **** }
 380              		.loc 1 110 42 discriminator 3 view .LVU103
 381 002c 2946     		mov	r1, r5
 382 002e 0020     		movs	r0, #0
 383 0030 FFF7FEFF 		bl	usbd_edpt_busy
 384              	.LVL29:
 110:/home/pi/Developer/tinyusb/src/class/hid/hid_device.c **** }
 385              		.loc 1 110 38 discriminator 3 view .LVU104
 386 0034 80F00100 		eor	r0, r0, #1
 387 0038 C0B2     		uxtb	r0, r0
 111:/home/pi/Developer/tinyusb/src/class/hid/hid_device.c **** 
 388              		.loc 1 111 1 discriminator 3 view .LVU105
 389 003a 38BD     		pop	{r3, r4, r5, pc}
 390              	.LVL30:
ARM GAS  /tmp/ccA3k9s1.s 			page 16


 391              	.L32:
 111:/home/pi/Developer/tinyusb/src/class/hid/hid_device.c **** 
 392              		.loc 1 111 1 discriminator 3 view .LVU106
 393              		.align	2
 394              	.L31:
 395 003c 00000000 		.word	.LANCHOR0
 396              		.cfi_endproc
 397              	.LFE426:
 399              		.section	.text.tud_hid_n_report,"ax",%progbits
 400              		.align	1
 401              		.p2align 2,,3
 402              		.global	tud_hid_n_report
 403              		.syntax unified
 404              		.thumb
 405              		.thumb_func
 406              		.fpu fpv5-d16
 408              	tud_hid_n_report:
 409              	.LVL31:
 410              	.LFB427:
 113:/home/pi/Developer/tinyusb/src/class/hid/hid_device.c ****   TU_VERIFY(instance < CFG_TUD_HID);
 411              		.loc 1 113 94 is_stmt 1 view -0
 412              		.cfi_startproc
 413              		@ args = 0, pretend = 0, frame = 0
 414              		@ frame_needed = 0, uses_anonymous_args = 0
 415              		@ link register save eliminated.
 114:/home/pi/Developer/tinyusb/src/class/hid/hid_device.c ****   const uint8_t rhport = 0;
 416              		.loc 1 114 3 view .LVU108
 114:/home/pi/Developer/tinyusb/src/class/hid/hid_device.c ****   const uint8_t rhport = 0;
 417              		.loc 1 114 3 view .LVU109
 418 0000 0128     		cmp	r0, #1
 419 0002 01D9     		bls	.L35
 420              		.loc 1 132 1 is_stmt 0 view .LVU110
 421 0004 0020     		movs	r0, #0
 422              	.LVL32:
 423              		.loc 1 132 1 view .LVU111
 424 0006 7047     		bx	lr
 425              	.LVL33:
 426              	.L35:
 427              		.loc 1 132 1 view .LVU112
 428 0008 FFF7FEBF 		b	tud_hid_n_report.part.0
 429              	.LVL34:
 430              		.loc 1 132 1 view .LVU113
 431              		.cfi_endproc
 432              	.LFE427:
 434              		.section	.text.tud_hid_n_interface_protocol,"ax",%progbits
 435              		.align	1
 436              		.p2align 2,,3
 437              		.global	tud_hid_n_interface_protocol
 438              		.syntax unified
 439              		.thumb
 440              		.thumb_func
 441              		.fpu fpv5-d16
 443              	tud_hid_n_interface_protocol:
 444              	.LVL35:
 445              	.LFB428:
 133:/home/pi/Developer/tinyusb/src/class/hid/hid_device.c **** 
 134:/home/pi/Developer/tinyusb/src/class/hid/hid_device.c **** uint8_t tud_hid_n_interface_protocol(uint8_t instance) {
ARM GAS  /tmp/ccA3k9s1.s 			page 17


 446              		.loc 1 134 56 is_stmt 1 view -0
 447              		.cfi_startproc
 448              		@ args = 0, pretend = 0, frame = 0
 449              		@ frame_needed = 0, uses_anonymous_args = 0
 450              		@ link register save eliminated.
 135:/home/pi/Developer/tinyusb/src/class/hid/hid_device.c ****   return _hidd_itf[instance].itf_protocol;
 451              		.loc 1 135 3 view .LVU115
 452              		.loc 1 135 29 is_stmt 0 view .LVU116
 453 0000 034B     		ldr	r3, .L37
 454 0002 00EB4000 		add	r0, r0, r0, lsl #1
 455              	.LVL36:
 456              		.loc 1 135 29 view .LVU117
 457 0006 03EB8000 		add	r0, r3, r0, lsl #2
 136:/home/pi/Developer/tinyusb/src/class/hid/hid_device.c **** }
 458              		.loc 1 136 1 view .LVU118
 459 000a C078     		ldrb	r0, [r0, #3]	@ zero_extendqisi2
 460 000c 7047     		bx	lr
 461              	.L38:
 462 000e 00BF     		.align	2
 463              	.L37:
 464 0010 00000000 		.word	.LANCHOR0
 465              		.cfi_endproc
 466              	.LFE428:
 468              		.section	.text.tud_hid_n_get_protocol,"ax",%progbits
 469              		.align	1
 470              		.p2align 2,,3
 471              		.global	tud_hid_n_get_protocol
 472              		.syntax unified
 473              		.thumb
 474              		.thumb_func
 475              		.fpu fpv5-d16
 477              	tud_hid_n_get_protocol:
 478              	.LVL37:
 479              	.LFB429:
 137:/home/pi/Developer/tinyusb/src/class/hid/hid_device.c **** 
 138:/home/pi/Developer/tinyusb/src/class/hid/hid_device.c **** uint8_t tud_hid_n_get_protocol(uint8_t instance) {
 480              		.loc 1 138 50 is_stmt 1 view -0
 481              		.cfi_startproc
 482              		@ args = 0, pretend = 0, frame = 0
 483              		@ frame_needed = 0, uses_anonymous_args = 0
 484              		@ link register save eliminated.
 139:/home/pi/Developer/tinyusb/src/class/hid/hid_device.c ****   return _hidd_itf[instance].protocol_mode;
 485              		.loc 1 139 3 view .LVU120
 486              		.loc 1 139 29 is_stmt 0 view .LVU121
 487 0000 034B     		ldr	r3, .L40
 488 0002 00EB4000 		add	r0, r0, r0, lsl #1
 489              	.LVL38:
 490              		.loc 1 139 29 view .LVU122
 491 0006 03EB8000 		add	r0, r3, r0, lsl #2
 140:/home/pi/Developer/tinyusb/src/class/hid/hid_device.c **** }
 492              		.loc 1 140 1 view .LVU123
 493 000a 8079     		ldrb	r0, [r0, #6]	@ zero_extendqisi2
 494 000c 7047     		bx	lr
 495              	.L41:
 496 000e 00BF     		.align	2
 497              	.L40:
 498 0010 00000000 		.word	.LANCHOR0
ARM GAS  /tmp/ccA3k9s1.s 			page 18


 499              		.cfi_endproc
 500              	.LFE429:
 502              		.section	.text.tud_hid_n_keyboard_report,"ax",%progbits
 503              		.align	1
 504              		.p2align 2,,3
 505              		.global	tud_hid_n_keyboard_report
 506              		.syntax unified
 507              		.thumb
 508              		.thumb_func
 509              		.fpu fpv5-d16
 511              	tud_hid_n_keyboard_report:
 512              	.LVL39:
 513              	.LFB430:
 141:/home/pi/Developer/tinyusb/src/class/hid/hid_device.c **** 
 142:/home/pi/Developer/tinyusb/src/class/hid/hid_device.c **** bool tud_hid_n_keyboard_report(uint8_t instance, uint8_t report_id, uint8_t modifier, const uint8_t
 514              		.loc 1 142 113 is_stmt 1 view -0
 515              		.cfi_startproc
 516              		@ args = 0, pretend = 0, frame = 8
 517              		@ frame_needed = 0, uses_anonymous_args = 0
 143:/home/pi/Developer/tinyusb/src/class/hid/hid_device.c ****   hid_keyboard_report_t report;
 518              		.loc 1 143 3 view .LVU125
 144:/home/pi/Developer/tinyusb/src/class/hid/hid_device.c ****   report.modifier = modifier;
 519              		.loc 1 144 3 view .LVU126
 142:/home/pi/Developer/tinyusb/src/class/hid/hid_device.c ****   hid_keyboard_report_t report;
 520              		.loc 1 142 113 is_stmt 0 view .LVU127
 521 0000 00B5     		push	{lr}
 522              		.cfi_def_cfa_offset 4
 523              		.cfi_offset 14, -4
 145:/home/pi/Developer/tinyusb/src/class/hid/hid_device.c ****   report.reserved = 0;
 524              		.loc 1 145 19 view .LVU128
 525 0002 4FF0000C 		mov	ip, #0
 142:/home/pi/Developer/tinyusb/src/class/hid/hid_device.c ****   hid_keyboard_report_t report;
 526              		.loc 1 142 113 view .LVU129
 527 0006 83B0     		sub	sp, sp, #12
 528              		.cfi_def_cfa_offset 16
 144:/home/pi/Developer/tinyusb/src/class/hid/hid_device.c ****   report.modifier = modifier;
 529              		.loc 1 144 19 view .LVU130
 530 0008 8DF80020 		strb	r2, [sp]
 531              		.loc 1 145 3 is_stmt 1 view .LVU131
 532              		.loc 1 145 19 is_stmt 0 view .LVU132
 533 000c 8DF801C0 		strb	ip, [sp, #1]
 146:/home/pi/Developer/tinyusb/src/class/hid/hid_device.c **** 
 147:/home/pi/Developer/tinyusb/src/class/hid/hid_device.c ****   if (keycode) {
 534              		.loc 1 147 3 is_stmt 1 view .LVU133
 535              		.loc 1 147 6 is_stmt 0 view .LVU134
 536 0010 93B1     		cbz	r3, .L43
 148:/home/pi/Developer/tinyusb/src/class/hid/hid_device.c ****     memcpy(report.keycode, keycode, sizeof(report.keycode));
 537              		.loc 1 148 5 is_stmt 1 view .LVU135
 538 0012 1A68     		ldr	r2, [r3]	@ unaligned
 539              	.LVL40:
 540              		.loc 1 148 5 is_stmt 0 view .LVU136
 541 0014 9B88     		ldrh	r3, [r3, #4]	@ unaligned
 542              	.LVL41:
 543              		.loc 1 148 5 view .LVU137
 544 0016 CDF80220 		str	r2, [sp, #2]	@ unaligned
 545 001a ADF80630 		strh	r3, [sp, #6]	@ unaligned
 546              	.L44:
ARM GAS  /tmp/ccA3k9s1.s 			page 19


 149:/home/pi/Developer/tinyusb/src/class/hid/hid_device.c ****   } else {
 150:/home/pi/Developer/tinyusb/src/class/hid/hid_device.c ****     tu_memclr(report.keycode, 6);
 151:/home/pi/Developer/tinyusb/src/class/hid/hid_device.c ****   }
 152:/home/pi/Developer/tinyusb/src/class/hid/hid_device.c **** 
 153:/home/pi/Developer/tinyusb/src/class/hid/hid_device.c ****   return tud_hid_n_report(instance, report_id, &report, sizeof(report));
 547              		.loc 1 153 3 is_stmt 1 view .LVU138
 548              	.LVL42:
 549              	.LBB71:
 550              	.LBI71:
 113:/home/pi/Developer/tinyusb/src/class/hid/hid_device.c ****   TU_VERIFY(instance < CFG_TUD_HID);
 551              		.loc 1 113 6 view .LVU139
 552              	.LBB72:
 114:/home/pi/Developer/tinyusb/src/class/hid/hid_device.c ****   const uint8_t rhport = 0;
 553              		.loc 1 114 3 view .LVU140
 114:/home/pi/Developer/tinyusb/src/class/hid/hid_device.c ****   const uint8_t rhport = 0;
 554              		.loc 1 114 3 view .LVU141
 555 001e 0128     		cmp	r0, #1
 556 0020 03D9     		bls	.L48
 557 0022 0020     		movs	r0, #0
 558              	.LVL43:
 114:/home/pi/Developer/tinyusb/src/class/hid/hid_device.c ****   const uint8_t rhport = 0;
 559              		.loc 1 114 3 is_stmt 0 view .LVU142
 560              	.LBE72:
 561              	.LBE71:
 154:/home/pi/Developer/tinyusb/src/class/hid/hid_device.c **** }
 562              		.loc 1 154 1 view .LVU143
 563 0024 03B0     		add	sp, sp, #12
 564              		.cfi_remember_state
 565              		.cfi_def_cfa_offset 4
 566              	.LVL44:
 567              		.loc 1 154 1 view .LVU144
 568              		@ sp needed
 569 0026 5DF804FB 		ldr	pc, [sp], #4
 570              	.LVL45:
 571              	.L48:
 572              		.cfi_restore_state
 573              	.LBB74:
 574              	.LBB73:
 575              		.loc 1 154 1 view .LVU145
 576 002a 0823     		movs	r3, #8
 577 002c 6A46     		mov	r2, sp
 578 002e FFF7FEFF 		bl	tud_hid_n_report.part.0
 579              	.LVL46:
 580              		.loc 1 154 1 view .LVU146
 581              	.LBE73:
 582              	.LBE74:
 583 0032 03B0     		add	sp, sp, #12
 584              		.cfi_remember_state
 585              		.cfi_def_cfa_offset 4
 586              		@ sp needed
 587 0034 5DF804FB 		ldr	pc, [sp], #4
 588              	.LVL47:
 589              	.L43:
 590              		.cfi_restore_state
 150:/home/pi/Developer/tinyusb/src/class/hid/hid_device.c ****   }
 591              		.loc 1 150 5 is_stmt 1 view .LVU147
 592 0038 CDF80230 		str	r3, [sp, #2]	@ unaligned
ARM GAS  /tmp/ccA3k9s1.s 			page 20


 593 003c ADF80630 		strh	r3, [sp, #6]	@ movhi
 594 0040 EDE7     		b	.L44
 595              		.cfi_endproc
 596              	.LFE430:
 598 0042 00BF     		.section	.text.tud_hid_n_mouse_report,"ax",%progbits
 599              		.align	1
 600              		.p2align 2,,3
 601              		.global	tud_hid_n_mouse_report
 602              		.syntax unified
 603              		.thumb
 604              		.thumb_func
 605              		.fpu fpv5-d16
 607              	tud_hid_n_mouse_report:
 608              	.LVL48:
 609              	.LFB431:
 155:/home/pi/Developer/tinyusb/src/class/hid/hid_device.c **** 
 156:/home/pi/Developer/tinyusb/src/class/hid/hid_device.c **** bool tud_hid_n_mouse_report(uint8_t instance, uint8_t report_id,
 157:/home/pi/Developer/tinyusb/src/class/hid/hid_device.c ****                             uint8_t buttons, int8_t x, int8_t y, int8_t vertical, int8_t horizontal
 610              		.loc 1 157 102 view -0
 611              		.cfi_startproc
 612              		@ args = 12, pretend = 0, frame = 8
 613              		@ frame_needed = 0, uses_anonymous_args = 0
 158:/home/pi/Developer/tinyusb/src/class/hid/hid_device.c ****   hid_mouse_report_t report = {
 614              		.loc 1 158 3 view .LVU149
 157:/home/pi/Developer/tinyusb/src/class/hid/hid_device.c ****   hid_mouse_report_t report = {
 615              		.loc 1 157 102 is_stmt 0 view .LVU150
 616 0000 00B5     		push	{lr}
 617              		.cfi_def_cfa_offset 4
 618              		.cfi_offset 14, -4
 619 0002 83B0     		sub	sp, sp, #12
 620              		.cfi_def_cfa_offset 16
 621              	.LBB75:
 622              	.LBB76:
 114:/home/pi/Developer/tinyusb/src/class/hid/hid_device.c ****   const uint8_t rhport = 0;
 623              		.loc 1 114 3 view .LVU151
 624 0004 0128     		cmp	r0, #1
 625              	.LBE76:
 626              	.LBE75:
 627              		.loc 1 158 22 view .LVU152
 628 0006 8DF80130 		strb	r3, [sp, #1]
 157:/home/pi/Developer/tinyusb/src/class/hid/hid_device.c ****   hid_mouse_report_t report = {
 629              		.loc 1 157 102 view .LVU153
 630 000a 9DF91030 		ldrsb	r3, [sp, #16]
 631              	.LVL49:
 632              		.loc 1 158 22 view .LVU154
 633 000e 8DF80020 		strb	r2, [sp]
 634 0012 8DF80230 		strb	r3, [sp, #2]
 157:/home/pi/Developer/tinyusb/src/class/hid/hid_device.c ****   hid_mouse_report_t report = {
 635              		.loc 1 157 102 view .LVU155
 636 0016 9DF91420 		ldrsb	r2, [sp, #20]
 637              	.LVL50:
 157:/home/pi/Developer/tinyusb/src/class/hid/hid_device.c ****   hid_mouse_report_t report = {
 638              		.loc 1 157 102 view .LVU156
 639 001a 9DF91830 		ldrsb	r3, [sp, #24]
 640              		.loc 1 158 22 view .LVU157
 641 001e 8DF80320 		strb	r2, [sp, #3]
 642 0022 8DF80430 		strb	r3, [sp, #4]
ARM GAS  /tmp/ccA3k9s1.s 			page 21


 159:/home/pi/Developer/tinyusb/src/class/hid/hid_device.c ****     .buttons = buttons,
 160:/home/pi/Developer/tinyusb/src/class/hid/hid_device.c ****     .x = x,
 161:/home/pi/Developer/tinyusb/src/class/hid/hid_device.c ****     .y = y,
 162:/home/pi/Developer/tinyusb/src/class/hid/hid_device.c ****     .wheel = vertical,
 163:/home/pi/Developer/tinyusb/src/class/hid/hid_device.c ****     .pan = horizontal
 164:/home/pi/Developer/tinyusb/src/class/hid/hid_device.c ****   };
 165:/home/pi/Developer/tinyusb/src/class/hid/hid_device.c **** 
 166:/home/pi/Developer/tinyusb/src/class/hid/hid_device.c ****   return tud_hid_n_report(instance, report_id, &report, sizeof(report));
 643              		.loc 1 166 3 is_stmt 1 view .LVU158
 644              	.LVL51:
 645              	.LBB79:
 646              	.LBI75:
 113:/home/pi/Developer/tinyusb/src/class/hid/hid_device.c ****   TU_VERIFY(instance < CFG_TUD_HID);
 647              		.loc 1 113 6 view .LVU159
 648              	.LBB77:
 114:/home/pi/Developer/tinyusb/src/class/hid/hid_device.c ****   const uint8_t rhport = 0;
 649              		.loc 1 114 3 view .LVU160
 114:/home/pi/Developer/tinyusb/src/class/hid/hid_device.c ****   const uint8_t rhport = 0;
 650              		.loc 1 114 3 view .LVU161
 651 0026 03D9     		bls	.L53
 652 0028 0020     		movs	r0, #0
 653              	.LVL52:
 114:/home/pi/Developer/tinyusb/src/class/hid/hid_device.c ****   const uint8_t rhport = 0;
 654              		.loc 1 114 3 is_stmt 0 view .LVU162
 655              	.LBE77:
 656              	.LBE79:
 167:/home/pi/Developer/tinyusb/src/class/hid/hid_device.c **** }
 657              		.loc 1 167 1 view .LVU163
 658 002a 03B0     		add	sp, sp, #12
 659              		.cfi_remember_state
 660              		.cfi_def_cfa_offset 4
 661              	.LVL53:
 662              		.loc 1 167 1 view .LVU164
 663              		@ sp needed
 664 002c 5DF804FB 		ldr	pc, [sp], #4
 665              	.LVL54:
 666              	.L53:
 667              		.cfi_restore_state
 668              	.LBB80:
 669              	.LBB78:
 670              		.loc 1 167 1 view .LVU165
 671 0030 0523     		movs	r3, #5
 672 0032 6A46     		mov	r2, sp
 673 0034 FFF7FEFF 		bl	tud_hid_n_report.part.0
 674              	.LVL55:
 675              		.loc 1 167 1 view .LVU166
 676              	.LBE78:
 677              	.LBE80:
 678 0038 03B0     		add	sp, sp, #12
 679              		.cfi_def_cfa_offset 4
 680              		@ sp needed
 681 003a 5DF804FB 		ldr	pc, [sp], #4
 682              		.loc 1 167 1 view .LVU167
 683              		.cfi_endproc
 684              	.LFE431:
 686 003e 00BF     		.section	.text.tud_hid_n_abs_mouse_report,"ax",%progbits
 687              		.align	1
ARM GAS  /tmp/ccA3k9s1.s 			page 22


 688              		.p2align 2,,3
 689              		.global	tud_hid_n_abs_mouse_report
 690              		.syntax unified
 691              		.thumb
 692              		.thumb_func
 693              		.fpu fpv5-d16
 695              	tud_hid_n_abs_mouse_report:
 696              	.LVL56:
 697              	.LFB432:
 168:/home/pi/Developer/tinyusb/src/class/hid/hid_device.c **** 
 169:/home/pi/Developer/tinyusb/src/class/hid/hid_device.c **** bool tud_hid_n_abs_mouse_report(uint8_t instance, uint8_t report_id,
 170:/home/pi/Developer/tinyusb/src/class/hid/hid_device.c ****                                 uint8_t buttons, int16_t x, int16_t y, int8_t vertical, int8_t hori
 698              		.loc 1 170 108 is_stmt 1 view -0
 699              		.cfi_startproc
 700              		@ args = 12, pretend = 0, frame = 8
 701              		@ frame_needed = 0, uses_anonymous_args = 0
 171:/home/pi/Developer/tinyusb/src/class/hid/hid_device.c ****   hid_abs_mouse_report_t report = {
 702              		.loc 1 171 3 view .LVU169
 170:/home/pi/Developer/tinyusb/src/class/hid/hid_device.c ****   hid_abs_mouse_report_t report = {
 703              		.loc 1 170 108 is_stmt 0 view .LVU170
 704 0000 00B5     		push	{lr}
 705              		.cfi_def_cfa_offset 4
 706              		.cfi_offset 14, -4
 707 0002 83B0     		sub	sp, sp, #12
 708              		.cfi_def_cfa_offset 16
 709              	.LBB81:
 710              	.LBB82:
 114:/home/pi/Developer/tinyusb/src/class/hid/hid_device.c ****   const uint8_t rhport = 0;
 711              		.loc 1 114 3 view .LVU171
 712 0004 0128     		cmp	r0, #1
 713              	.LBE82:
 714              	.LBE81:
 715              		.loc 1 171 26 view .LVU172
 716 0006 ADF80130 		strh	r3, [sp, #1]	@ unaligned
 170:/home/pi/Developer/tinyusb/src/class/hid/hid_device.c ****   hid_abs_mouse_report_t report = {
 717              		.loc 1 170 108 view .LVU173
 718 000a BDF91030 		ldrsh	r3, [sp, #16]
 719              	.LVL57:
 720              		.loc 1 171 26 view .LVU174
 721 000e 8DF80020 		strb	r2, [sp]
 722 0012 ADF80330 		strh	r3, [sp, #3]	@ unaligned
 170:/home/pi/Developer/tinyusb/src/class/hid/hid_device.c ****   hid_abs_mouse_report_t report = {
 723              		.loc 1 170 108 view .LVU175
 724 0016 9DF91420 		ldrsb	r2, [sp, #20]
 725              	.LVL58:
 170:/home/pi/Developer/tinyusb/src/class/hid/hid_device.c ****   hid_abs_mouse_report_t report = {
 726              		.loc 1 170 108 view .LVU176
 727 001a 9DF91830 		ldrsb	r3, [sp, #24]
 728              		.loc 1 171 26 view .LVU177
 729 001e 8DF80520 		strb	r2, [sp, #5]
 730 0022 8DF80630 		strb	r3, [sp, #6]
 172:/home/pi/Developer/tinyusb/src/class/hid/hid_device.c ****     .buttons = buttons,
 173:/home/pi/Developer/tinyusb/src/class/hid/hid_device.c ****     .x = x,
 174:/home/pi/Developer/tinyusb/src/class/hid/hid_device.c ****     .y = y,
 175:/home/pi/Developer/tinyusb/src/class/hid/hid_device.c ****     .wheel = vertical,
 176:/home/pi/Developer/tinyusb/src/class/hid/hid_device.c ****     .pan = horizontal
 177:/home/pi/Developer/tinyusb/src/class/hid/hid_device.c ****   };
ARM GAS  /tmp/ccA3k9s1.s 			page 23


 178:/home/pi/Developer/tinyusb/src/class/hid/hid_device.c ****   return tud_hid_n_report(instance, report_id, &report, sizeof(report));
 731              		.loc 1 178 3 is_stmt 1 view .LVU178
 732              	.LVL59:
 733              	.LBB85:
 734              	.LBI81:
 113:/home/pi/Developer/tinyusb/src/class/hid/hid_device.c ****   TU_VERIFY(instance < CFG_TUD_HID);
 735              		.loc 1 113 6 view .LVU179
 736              	.LBB83:
 114:/home/pi/Developer/tinyusb/src/class/hid/hid_device.c ****   const uint8_t rhport = 0;
 737              		.loc 1 114 3 view .LVU180
 114:/home/pi/Developer/tinyusb/src/class/hid/hid_device.c ****   const uint8_t rhport = 0;
 738              		.loc 1 114 3 view .LVU181
 739 0026 03D9     		bls	.L58
 740 0028 0020     		movs	r0, #0
 741              	.LVL60:
 114:/home/pi/Developer/tinyusb/src/class/hid/hid_device.c ****   const uint8_t rhport = 0;
 742              		.loc 1 114 3 is_stmt 0 view .LVU182
 743              	.LBE83:
 744              	.LBE85:
 179:/home/pi/Developer/tinyusb/src/class/hid/hid_device.c **** }
 745              		.loc 1 179 1 view .LVU183
 746 002a 03B0     		add	sp, sp, #12
 747              		.cfi_remember_state
 748              		.cfi_def_cfa_offset 4
 749              	.LVL61:
 750              		.loc 1 179 1 view .LVU184
 751              		@ sp needed
 752 002c 5DF804FB 		ldr	pc, [sp], #4
 753              	.LVL62:
 754              	.L58:
 755              		.cfi_restore_state
 756              	.LBB86:
 757              	.LBB84:
 758              		.loc 1 179 1 view .LVU185
 759 0030 0723     		movs	r3, #7
 760 0032 6A46     		mov	r2, sp
 761 0034 FFF7FEFF 		bl	tud_hid_n_report.part.0
 762              	.LVL63:
 763              		.loc 1 179 1 view .LVU186
 764              	.LBE84:
 765              	.LBE86:
 766 0038 03B0     		add	sp, sp, #12
 767              		.cfi_def_cfa_offset 4
 768              		@ sp needed
 769 003a 5DF804FB 		ldr	pc, [sp], #4
 770              		.loc 1 179 1 view .LVU187
 771              		.cfi_endproc
 772              	.LFE432:
 774 003e 00BF     		.section	.text.tud_hid_n_gamepad_report,"ax",%progbits
 775              		.align	1
 776              		.p2align 2,,3
 777              		.global	tud_hid_n_gamepad_report
 778              		.syntax unified
 779              		.thumb
 780              		.thumb_func
 781              		.fpu fpv5-d16
 783              	tud_hid_n_gamepad_report:
ARM GAS  /tmp/ccA3k9s1.s 			page 24


 784              	.LVL64:
 785              	.LFB433:
 180:/home/pi/Developer/tinyusb/src/class/hid/hid_device.c **** 
 181:/home/pi/Developer/tinyusb/src/class/hid/hid_device.c **** bool tud_hid_n_gamepad_report(uint8_t instance, uint8_t report_id,
 182:/home/pi/Developer/tinyusb/src/class/hid/hid_device.c ****                               int8_t x, int8_t y, int8_t z, int8_t rz, int8_t rx, int8_t ry, uint8_
 786              		.loc 1 182 125 is_stmt 1 view -0
 787              		.cfi_startproc
 788              		@ args = 24, pretend = 0, frame = 0
 789              		@ frame_needed = 0, uses_anonymous_args = 0
 183:/home/pi/Developer/tinyusb/src/class/hid/hid_device.c ****   hid_gamepad_report_t report = {
 790              		.loc 1 183 3 view .LVU189
 184:/home/pi/Developer/tinyusb/src/class/hid/hid_device.c ****       .x = x,
 185:/home/pi/Developer/tinyusb/src/class/hid/hid_device.c ****       .y = y,
 186:/home/pi/Developer/tinyusb/src/class/hid/hid_device.c ****       .z = z,
 187:/home/pi/Developer/tinyusb/src/class/hid/hid_device.c ****       .rz = rz,
 188:/home/pi/Developer/tinyusb/src/class/hid/hid_device.c ****       .rx = rx,
 189:/home/pi/Developer/tinyusb/src/class/hid/hid_device.c ****       .ry = ry,
 190:/home/pi/Developer/tinyusb/src/class/hid/hid_device.c ****       .hat = hat,
 191:/home/pi/Developer/tinyusb/src/class/hid/hid_device.c ****       .buttons = buttons,
 192:/home/pi/Developer/tinyusb/src/class/hid/hid_device.c ****   };
 193:/home/pi/Developer/tinyusb/src/class/hid/hid_device.c **** 
 194:/home/pi/Developer/tinyusb/src/class/hid/hid_device.c ****   return tud_hid_n_report(instance, report_id, &report, sizeof(report));
 791              		.loc 1 194 3 view .LVU190
 792              	.LBB95:
 793              	.LBI95:
 113:/home/pi/Developer/tinyusb/src/class/hid/hid_device.c ****   TU_VERIFY(instance < CFG_TUD_HID);
 794              		.loc 1 113 6 view .LVU191
 795              	.LBB96:
 114:/home/pi/Developer/tinyusb/src/class/hid/hid_device.c ****   const uint8_t rhport = 0;
 796              		.loc 1 114 3 view .LVU192
 114:/home/pi/Developer/tinyusb/src/class/hid/hid_device.c ****   const uint8_t rhport = 0;
 797              		.loc 1 114 3 view .LVU193
 798 0000 0128     		cmp	r0, #1
 799 0002 01D9     		bls	.L73
 800              	.LVL65:
 114:/home/pi/Developer/tinyusb/src/class/hid/hid_device.c ****   const uint8_t rhport = 0;
 801              		.loc 1 114 3 is_stmt 0 view .LVU194
 802              	.LBE96:
 803              	.LBE95:
 195:/home/pi/Developer/tinyusb/src/class/hid/hid_device.c **** }
 804              		.loc 1 195 1 view .LVU195
 805 0004 0020     		movs	r0, #0
 806              	.LVL66:
 807              		.loc 1 195 1 view .LVU196
 808 0006 7047     		bx	lr
 809              	.LVL67:
 810              	.L73:
 182:/home/pi/Developer/tinyusb/src/class/hid/hid_device.c ****   hid_gamepad_report_t report = {
 811              		.loc 1 182 125 view .LVU197
 812 0008 38B5     		push	{r3, r4, r5, lr}
 813              		.cfi_def_cfa_offset 16
 814              		.cfi_offset 3, -16
 815              		.cfi_offset 4, -12
 816              		.cfi_offset 5, -8
 817              		.cfi_offset 14, -4
 818              	.LBB106:
 819              	.LBB104:
ARM GAS  /tmp/ccA3k9s1.s 			page 25


 820              	.LBB97:
 821              	.LBB98:
 120:/home/pi/Developer/tinyusb/src/class/hid/hid_device.c **** 
 822              		.loc 1 120 3 view .LVU198
 823 000a 00EB4004 		add	r4, r0, r0, lsl #1
 824 000e 094B     		ldr	r3, .L75
 825              	.LVL68:
 120:/home/pi/Developer/tinyusb/src/class/hid/hid_device.c **** 
 826              		.loc 1 120 3 view .LVU199
 827 0010 0D46     		mov	r5, r1
 828              	.LVL69:
 120:/home/pi/Developer/tinyusb/src/class/hid/hid_device.c **** 
 829              		.loc 1 120 3 view .LVU200
 830              	.LBE98:
 831              	.LBI97:
 113:/home/pi/Developer/tinyusb/src/class/hid/hid_device.c ****   TU_VERIFY(instance < CFG_TUD_HID);
 832              		.loc 1 113 6 is_stmt 1 view .LVU201
 833              	.LBB101:
 114:/home/pi/Developer/tinyusb/src/class/hid/hid_device.c ****   const uint8_t rhport = 0;
 834              		.loc 1 114 3 view .LVU202
 115:/home/pi/Developer/tinyusb/src/class/hid/hid_device.c ****   hidd_interface_t *p_hid = &_hidd_itf[instance];
 835              		.loc 1 115 3 view .LVU203
 116:/home/pi/Developer/tinyusb/src/class/hid/hid_device.c ****   hidd_epbuf_t *p_epbuf = &_hidd_epbuf[instance];
 836              		.loc 1 116 3 view .LVU204
 117:/home/pi/Developer/tinyusb/src/class/hid/hid_device.c **** 
 837              		.loc 1 117 3 view .LVU205
 120:/home/pi/Developer/tinyusb/src/class/hid/hid_device.c **** 
 838              		.loc 1 120 3 view .LVU206
 120:/home/pi/Developer/tinyusb/src/class/hid/hid_device.c **** 
 839              		.loc 1 120 3 view .LVU207
 840 0012 0020     		movs	r0, #0
 841              	.LVL70:
 120:/home/pi/Developer/tinyusb/src/class/hid/hid_device.c **** 
 842              		.loc 1 120 3 is_stmt 0 view .LVU208
 843 0014 03EB8403 		add	r3, r3, r4, lsl #2
 844 0018 5978     		ldrb	r1, [r3, #1]	@ zero_extendqisi2
 845              	.LVL71:
 120:/home/pi/Developer/tinyusb/src/class/hid/hid_device.c **** 
 846              		.loc 1 120 3 view .LVU209
 847 001a FFF7FEFF 		bl	usbd_edpt_claim
 848              	.LVL72:
 120:/home/pi/Developer/tinyusb/src/class/hid/hid_device.c **** 
 849              		.loc 1 120 3 is_stmt 1 view .LVU210
 123:/home/pi/Developer/tinyusb/src/class/hid/hid_device.c ****     p_epbuf->epin[0] = report_id;
 850              		.loc 1 123 3 view .LVU211
 123:/home/pi/Developer/tinyusb/src/class/hid/hid_device.c ****     p_epbuf->epin[0] = report_id;
 851              		.loc 1 123 6 is_stmt 0 view .LVU212
 852 001e 05B1     		cbz	r5, .L61
 853 0020 08B9     		cbnz	r0, .L74
 854              	.L61:
 855              	.LVL73:
 123:/home/pi/Developer/tinyusb/src/class/hid/hid_device.c ****     p_epbuf->epin[0] = report_id;
 856              		.loc 1 123 6 view .LVU213
 857              	.LBE101:
 858              	.LBE97:
 859              	.LBE104:
 860              	.LBE106:
ARM GAS  /tmp/ccA3k9s1.s 			page 26


 861              		.loc 1 195 1 view .LVU214
 862 0022 0020     		movs	r0, #0
 863 0024 38BD     		pop	{r3, r4, r5, pc}
 864              	.LVL74:
 865              	.L74:
 866              	.LBB107:
 867              	.LBB105:
 868              	.LBB103:
 869              	.LBB102:
 124:/home/pi/Developer/tinyusb/src/class/hid/hid_device.c ****     TU_VERIFY(0 == tu_memcpy_s(p_epbuf->epin + 1, CFG_TUD_HID_EP_BUFSIZE - 1, report, len));
 870              		.loc 1 124 5 is_stmt 1 view .LVU215
 124:/home/pi/Developer/tinyusb/src/class/hid/hid_device.c ****     TU_VERIFY(0 == tu_memcpy_s(p_epbuf->epin + 1, CFG_TUD_HID_EP_BUFSIZE - 1, report, len));
 871              		.loc 1 124 22 is_stmt 0 view .LVU216
 872 0026 0448     		ldr	r0, .L75+4
 873 0028 00EBC400 		add	r0, r0, r4, lsl #3
 874 002c 0572     		strb	r5, [r0, #8]
 125:/home/pi/Developer/tinyusb/src/class/hid/hid_device.c ****     len++;
 875              		.loc 1 125 5 is_stmt 1 view .LVU217
 125:/home/pi/Developer/tinyusb/src/class/hid/hid_device.c ****     len++;
 876              		.loc 1 125 5 view .LVU218
 877              	.LVL75:
 878              	.LBB99:
 879              	.LBI99:
 137:/home/pi/Developer/tinyusb/src/common/tusb_common.h ****   if (dest == NULL) {
 880              		.loc 2 137 41 view .LVU219
 881              	.LBB100:
 138:/home/pi/Developer/tinyusb/src/common/tusb_common.h ****     return -1;
 882              		.loc 2 138 3 view .LVU220
 142:/home/pi/Developer/tinyusb/src/common/tusb_common.h ****     return 0;
 883              		.loc 2 142 3 view .LVU221
 146:/home/pi/Developer/tinyusb/src/common/tusb_common.h ****     return -1;
 884              		.loc 2 146 3 view .LVU222
 150:/home/pi/Developer/tinyusb/src/common/tusb_common.h ****     return -1;
 885              		.loc 2 150 3 view .LVU223
 150:/home/pi/Developer/tinyusb/src/common/tusb_common.h ****     return -1;
 886              		.loc 2 150 3 is_stmt 0 view .LVU224
 887              	.LBE100:
 888              	.LBE99:
 889              	.LBE102:
 890              	.LBE103:
 891              	.LBE105:
 892              	.LBE107:
 893              		.loc 1 195 1 view .LVU225
 894 002e 0020     		movs	r0, #0
 895 0030 38BD     		pop	{r3, r4, r5, pc}
 896              	.LVL76:
 897              	.L76:
 898              		.loc 1 195 1 view .LVU226
 899 0032 00BF     		.align	2
 900              	.L75:
 901 0034 00000000 		.word	.LANCHOR0
 902 0038 00000000 		.word	.LANCHOR1
 903              		.cfi_endproc
 904              	.LFE433:
 906              		.section	.text.tud_hid_n_stylus_report,"ax",%progbits
 907              		.align	1
 908              		.p2align 2,,3
ARM GAS  /tmp/ccA3k9s1.s 			page 27


 909              		.global	tud_hid_n_stylus_report
 910              		.syntax unified
 911              		.thumb
 912              		.thumb_func
 913              		.fpu fpv5-d16
 915              	tud_hid_n_stylus_report:
 916              	.LVL77:
 917              	.LFB434:
 196:/home/pi/Developer/tinyusb/src/class/hid/hid_device.c **** 
 197:/home/pi/Developer/tinyusb/src/class/hid/hid_device.c **** bool tud_hid_n_stylus_report(uint8_t instance, uint8_t report_id, uint8_t attrs, uint16_t x, uint16
 918              		.loc 1 197 106 is_stmt 1 view -0
 919              		.cfi_startproc
 920              		@ args = 4, pretend = 0, frame = 8
 921              		@ frame_needed = 0, uses_anonymous_args = 0
 198:/home/pi/Developer/tinyusb/src/class/hid/hid_device.c ****   hid_stylus_report_t report = {
 922              		.loc 1 198 3 view .LVU228
 197:/home/pi/Developer/tinyusb/src/class/hid/hid_device.c ****   hid_stylus_report_t report = {
 923              		.loc 1 197 106 is_stmt 0 view .LVU229
 924 0000 00B5     		push	{lr}
 925              		.cfi_def_cfa_offset 4
 926              		.cfi_offset 14, -4
 927 0002 83B0     		sub	sp, sp, #12
 928              		.cfi_def_cfa_offset 16
 929              	.LBB108:
 930              	.LBB109:
 114:/home/pi/Developer/tinyusb/src/class/hid/hid_device.c ****   const uint8_t rhport = 0;
 931              		.loc 1 114 3 view .LVU230
 932 0004 0128     		cmp	r0, #1
 933              	.LBE109:
 934              	.LBE108:
 935              		.loc 1 198 23 view .LVU231
 936 0006 ADF80130 		strh	r3, [sp, #1]	@ unaligned
 197:/home/pi/Developer/tinyusb/src/class/hid/hid_device.c ****   hid_stylus_report_t report = {
 937              		.loc 1 197 106 view .LVU232
 938 000a BDF81030 		ldrh	r3, [sp, #16]
 939              	.LVL78:
 940              		.loc 1 198 23 view .LVU233
 941 000e 8DF80020 		strb	r2, [sp]
 942 0012 ADF80330 		strh	r3, [sp, #3]	@ unaligned
 199:/home/pi/Developer/tinyusb/src/class/hid/hid_device.c ****     .attr = attrs,
 200:/home/pi/Developer/tinyusb/src/class/hid/hid_device.c ****     .x = x,
 201:/home/pi/Developer/tinyusb/src/class/hid/hid_device.c ****     .y = y,
 202:/home/pi/Developer/tinyusb/src/class/hid/hid_device.c ****   };
 203:/home/pi/Developer/tinyusb/src/class/hid/hid_device.c **** 
 204:/home/pi/Developer/tinyusb/src/class/hid/hid_device.c ****   return tud_hid_n_report(instance, report_id, &report, sizeof(report));
 943              		.loc 1 204 3 is_stmt 1 view .LVU234
 944              	.LVL79:
 945              	.LBB112:
 946              	.LBI108:
 113:/home/pi/Developer/tinyusb/src/class/hid/hid_device.c ****   TU_VERIFY(instance < CFG_TUD_HID);
 947              		.loc 1 113 6 view .LVU235
 948              	.LBB110:
 114:/home/pi/Developer/tinyusb/src/class/hid/hid_device.c ****   const uint8_t rhport = 0;
 949              		.loc 1 114 3 view .LVU236
 114:/home/pi/Developer/tinyusb/src/class/hid/hid_device.c ****   const uint8_t rhport = 0;
 950              		.loc 1 114 3 view .LVU237
 951 0016 03D9     		bls	.L81
ARM GAS  /tmp/ccA3k9s1.s 			page 28


 952 0018 0020     		movs	r0, #0
 953              	.LVL80:
 114:/home/pi/Developer/tinyusb/src/class/hid/hid_device.c ****   const uint8_t rhport = 0;
 954              		.loc 1 114 3 is_stmt 0 view .LVU238
 955              	.LBE110:
 956              	.LBE112:
 205:/home/pi/Developer/tinyusb/src/class/hid/hid_device.c **** }
 957              		.loc 1 205 1 view .LVU239
 958 001a 03B0     		add	sp, sp, #12
 959              		.cfi_remember_state
 960              		.cfi_def_cfa_offset 4
 961              		@ sp needed
 962 001c 5DF804FB 		ldr	pc, [sp], #4
 963              	.LVL81:
 964              	.L81:
 965              		.cfi_restore_state
 966              	.LBB113:
 967              	.LBB111:
 968              		.loc 1 205 1 view .LVU240
 969 0020 0523     		movs	r3, #5
 970 0022 6A46     		mov	r2, sp
 971              	.LVL82:
 972              		.loc 1 205 1 view .LVU241
 973 0024 FFF7FEFF 		bl	tud_hid_n_report.part.0
 974              	.LVL83:
 975              		.loc 1 205 1 view .LVU242
 976              	.LBE111:
 977              	.LBE113:
 978 0028 03B0     		add	sp, sp, #12
 979              		.cfi_def_cfa_offset 4
 980              		@ sp needed
 981 002a 5DF804FB 		ldr	pc, [sp], #4
 982              		.loc 1 205 1 view .LVU243
 983              		.cfi_endproc
 984              	.LFE434:
 986 002e 00BF     		.section	.text.hidd_init,"ax",%progbits
 987              		.align	1
 988              		.p2align 2,,3
 989              		.global	hidd_init
 990              		.syntax unified
 991              		.thumb
 992              		.thumb_func
 993              		.fpu fpv5-d16
 995              	hidd_init:
 996              	.LFB435:
 206:/home/pi/Developer/tinyusb/src/class/hid/hid_device.c **** 
 207:/home/pi/Developer/tinyusb/src/class/hid/hid_device.c **** //--------------------------------------------------------------------+
 208:/home/pi/Developer/tinyusb/src/class/hid/hid_device.c **** // USBD-CLASS API
 209:/home/pi/Developer/tinyusb/src/class/hid/hid_device.c **** //--------------------------------------------------------------------+
 210:/home/pi/Developer/tinyusb/src/class/hid/hid_device.c **** void hidd_init(void) {
 997              		.loc 1 210 22 is_stmt 1 view -0
 998              		.cfi_startproc
 999              		@ args = 0, pretend = 0, frame = 0
 1000              		@ frame_needed = 0, uses_anonymous_args = 0
 1001              		@ link register save eliminated.
 211:/home/pi/Developer/tinyusb/src/class/hid/hid_device.c ****   hidd_reset(0);
 1002              		.loc 1 211 3 view .LVU245
ARM GAS  /tmp/ccA3k9s1.s 			page 29


 1003              	.LVL84:
 1004              	.LBB114:
 1005              	.LBI114:
 212:/home/pi/Developer/tinyusb/src/class/hid/hid_device.c **** }
 213:/home/pi/Developer/tinyusb/src/class/hid/hid_device.c **** 
 214:/home/pi/Developer/tinyusb/src/class/hid/hid_device.c **** bool hidd_deinit(void) {
 215:/home/pi/Developer/tinyusb/src/class/hid/hid_device.c ****   return true;
 216:/home/pi/Developer/tinyusb/src/class/hid/hid_device.c **** }
 217:/home/pi/Developer/tinyusb/src/class/hid/hid_device.c **** 
 218:/home/pi/Developer/tinyusb/src/class/hid/hid_device.c **** void hidd_reset(uint8_t rhport) {
 1006              		.loc 1 218 6 view .LVU246
 1007              	.LBB115:
 219:/home/pi/Developer/tinyusb/src/class/hid/hid_device.c ****   (void)rhport;
 1008              		.loc 1 219 3 view .LVU247
 220:/home/pi/Developer/tinyusb/src/class/hid/hid_device.c ****   tu_memclr(_hidd_itf, sizeof(_hidd_itf));
 1009              		.loc 1 220 3 view .LVU248
 1010 0000 044B     		ldr	r3, .L83
 1011 0002 0022     		movs	r2, #0
 1012 0004 C3E90022 		strd	r2, r2, [r3]
 1013 0008 C3E90222 		strd	r2, r2, [r3, #8]
 1014 000c C3E90422 		strd	r2, r2, [r3, #16]
 1015              	.LVL85:
 1016              		.loc 1 220 3 is_stmt 0 view .LVU249
 1017              	.LBE115:
 1018              	.LBE114:
 212:/home/pi/Developer/tinyusb/src/class/hid/hid_device.c **** }
 1019              		.loc 1 212 1 view .LVU250
 1020 0010 7047     		bx	lr
 1021              	.L84:
 1022 0012 00BF     		.align	2
 1023              	.L83:
 1024 0014 00000000 		.word	.LANCHOR0
 1025              		.cfi_endproc
 1026              	.LFE435:
 1028              		.section	.text.hidd_deinit,"ax",%progbits
 1029              		.align	1
 1030              		.p2align 2,,3
 1031              		.global	hidd_deinit
 1032              		.syntax unified
 1033              		.thumb
 1034              		.thumb_func
 1035              		.fpu fpv5-d16
 1037              	hidd_deinit:
 1038              	.LFB436:
 214:/home/pi/Developer/tinyusb/src/class/hid/hid_device.c ****   return true;
 1039              		.loc 1 214 24 is_stmt 1 view -0
 1040              		.cfi_startproc
 1041              		@ args = 0, pretend = 0, frame = 0
 1042              		@ frame_needed = 0, uses_anonymous_args = 0
 1043              		@ link register save eliminated.
 215:/home/pi/Developer/tinyusb/src/class/hid/hid_device.c **** }
 1044              		.loc 1 215 3 view .LVU252
 216:/home/pi/Developer/tinyusb/src/class/hid/hid_device.c **** 
 1045              		.loc 1 216 1 is_stmt 0 view .LVU253
 1046 0000 0120     		movs	r0, #1
 1047 0002 7047     		bx	lr
 1048              		.cfi_endproc
ARM GAS  /tmp/ccA3k9s1.s 			page 30


 1049              	.LFE436:
 1051              		.section	.text.hidd_reset,"ax",%progbits
 1052              		.align	1
 1053              		.p2align 2,,3
 1054              		.global	hidd_reset
 1055              		.syntax unified
 1056              		.thumb
 1057              		.thumb_func
 1058              		.fpu fpv5-d16
 1060              	hidd_reset:
 1061              	.LVL86:
 1062              	.LFB437:
 218:/home/pi/Developer/tinyusb/src/class/hid/hid_device.c ****   (void)rhport;
 1063              		.loc 1 218 33 is_stmt 1 view -0
 1064              		.cfi_startproc
 1065              		@ args = 0, pretend = 0, frame = 0
 1066              		@ frame_needed = 0, uses_anonymous_args = 0
 1067              		@ link register save eliminated.
 219:/home/pi/Developer/tinyusb/src/class/hid/hid_device.c ****   tu_memclr(_hidd_itf, sizeof(_hidd_itf));
 1068              		.loc 1 219 3 view .LVU255
 1069              		.loc 1 220 3 view .LVU256
 1070 0000 044B     		ldr	r3, .L87
 1071 0002 0022     		movs	r2, #0
 1072 0004 C3E90022 		strd	r2, r2, [r3]
 1073 0008 C3E90222 		strd	r2, r2, [r3, #8]
 1074 000c C3E90422 		strd	r2, r2, [r3, #16]
 221:/home/pi/Developer/tinyusb/src/class/hid/hid_device.c **** }
 1075              		.loc 1 221 1 is_stmt 0 view .LVU257
 1076 0010 7047     		bx	lr
 1077              	.L88:
 1078 0012 00BF     		.align	2
 1079              	.L87:
 1080 0014 00000000 		.word	.LANCHOR0
 1081              		.cfi_endproc
 1082              	.LFE437:
 1084              		.section	.text.hidd_open,"ax",%progbits
 1085              		.align	1
 1086              		.p2align 2,,3
 1087              		.global	hidd_open
 1088              		.syntax unified
 1089              		.thumb
 1090              		.thumb_func
 1091              		.fpu fpv5-d16
 1093              	hidd_open:
 1094              	.LVL87:
 1095              	.LFB438:
 222:/home/pi/Developer/tinyusb/src/class/hid/hid_device.c **** 
 223:/home/pi/Developer/tinyusb/src/class/hid/hid_device.c **** uint16_t hidd_open(uint8_t rhport, tusb_desc_interface_t const *desc_itf, uint16_t max_len) {
 1096              		.loc 1 223 93 is_stmt 1 view -0
 1097              		.cfi_startproc
 1098              		@ args = 0, pretend = 0, frame = 0
 1099              		@ frame_needed = 0, uses_anonymous_args = 0
 224:/home/pi/Developer/tinyusb/src/class/hid/hid_device.c ****   TU_VERIFY(TUSB_CLASS_HID == desc_itf->bInterfaceClass, 0);
 1100              		.loc 1 224 3 view .LVU259
 1101              		.loc 1 224 3 view .LVU260
 223:/home/pi/Developer/tinyusb/src/class/hid/hid_device.c ****   TU_VERIFY(TUSB_CLASS_HID == desc_itf->bInterfaceClass, 0);
 1102              		.loc 1 223 93 is_stmt 0 view .LVU261
ARM GAS  /tmp/ccA3k9s1.s 			page 31


 1103 0000 2DE9F041 		push	{r4, r5, r6, r7, r8, lr}
 1104              		.cfi_def_cfa_offset 24
 1105              		.cfi_offset 4, -24
 1106              		.cfi_offset 5, -20
 1107              		.cfi_offset 6, -16
 1108              		.cfi_offset 7, -12
 1109              		.cfi_offset 8, -8
 1110              		.cfi_offset 14, -4
 1111              		.loc 1 224 3 view .LVU262
 1112 0004 4B79     		ldrb	r3, [r1, #5]	@ zero_extendqisi2
 223:/home/pi/Developer/tinyusb/src/class/hid/hid_device.c ****   TU_VERIFY(TUSB_CLASS_HID == desc_itf->bInterfaceClass, 0);
 1113              		.loc 1 223 93 view .LVU263
 1114 0006 82B0     		sub	sp, sp, #8
 1115              		.cfi_def_cfa_offset 32
 1116              		.loc 1 224 3 view .LVU264
 1117 0008 032B     		cmp	r3, #3
 1118 000a 14D1     		bne	.L121
 1119              		.loc 1 224 3 is_stmt 1 discriminator 2 view .LVU265
 225:/home/pi/Developer/tinyusb/src/class/hid/hid_device.c **** 
 226:/home/pi/Developer/tinyusb/src/class/hid/hid_device.c ****   // len = interface + hid + n*endpoints
 227:/home/pi/Developer/tinyusb/src/class/hid/hid_device.c ****   uint16_t const drv_len = (uint16_t) (sizeof(tusb_desc_interface_t) + sizeof(tusb_hid_descriptor_h
 1120              		.loc 1 227 3 discriminator 2 view .LVU266
 1121 000c 0646     		mov	r6, r0
 228:/home/pi/Developer/tinyusb/src/class/hid/hid_device.c ****                                        desc_itf->bNumEndpoints * sizeof(tusb_desc_endpoint_t));
 1122              		.loc 1 228 48 is_stmt 0 discriminator 2 view .LVU267
 1123 000e 0879     		ldrb	r0, [r1, #4]	@ zero_extendqisi2
 1124              	.LVL88:
 1125              		.loc 1 228 48 discriminator 2 view .LVU268
 1126 0010 0C46     		mov	r4, r1
 1127              		.loc 1 228 64 discriminator 2 view .LVU269
 1128 0012 C0EBC005 		rsb	r5, r0, r0, lsl #3
 227:/home/pi/Developer/tinyusb/src/class/hid/hid_device.c ****                                        desc_itf->bNumEndpoints * sizeof(tusb_desc_endpoint_t));
 1129              		.loc 1 227 18 discriminator 2 view .LVU270
 1130 0016 1235     		adds	r5, r5, #18
 1131 0018 ADB2     		uxth	r5, r5
 1132              	.LVL89:
 229:/home/pi/Developer/tinyusb/src/class/hid/hid_device.c ****   TU_ASSERT(max_len >= drv_len, 0);
 1133              		.loc 1 229 3 is_stmt 1 discriminator 2 view .LVU271
 1134              		.loc 1 229 3 discriminator 2 view .LVU272
 1135 001a 9542     		cmp	r5, r2
 1136 001c 05D8     		bhi	.L92
 1137              	.LVL90:
 230:/home/pi/Developer/tinyusb/src/class/hid/hid_device.c **** 
 231:/home/pi/Developer/tinyusb/src/class/hid/hid_device.c ****   // Find available interface
 232:/home/pi/Developer/tinyusb/src/class/hid/hid_device.c ****   hidd_interface_t *p_hid;
 233:/home/pi/Developer/tinyusb/src/class/hid/hid_device.c ****   uint8_t hid_id;
 234:/home/pi/Developer/tinyusb/src/class/hid/hid_device.c ****   for (hid_id = 0; hid_id < CFG_TUD_HID; hid_id++) {
 1138              		.loc 1 234 20 view .LVU273
 235:/home/pi/Developer/tinyusb/src/class/hid/hid_device.c ****     p_hid = &_hidd_itf[hid_id];
 1139              		.loc 1 235 5 view .LVU274
 236:/home/pi/Developer/tinyusb/src/class/hid/hid_device.c ****     if (p_hid->ep_in == 0) {
 1140              		.loc 1 236 5 view .LVU275
 1141              		.loc 1 236 14 is_stmt 0 view .LVU276
 1142 001e 284F     		ldr	r7, .L128
 1143              		.loc 1 236 8 view .LVU277
 1144 0020 7A78     		ldrb	r2, [r7, #1]	@ zero_extendqisi2
 1145              	.LVL91:
ARM GAS  /tmp/ccA3k9s1.s 			page 32


 1146              		.loc 1 236 8 view .LVU278
 1147 0022 002A     		cmp	r2, #0
 1148 0024 4AD0     		beq	.L99
 234:/home/pi/Developer/tinyusb/src/class/hid/hid_device.c ****     p_hid = &_hidd_itf[hid_id];
 1149              		.loc 1 234 42 is_stmt 1 view .LVU279
 1150              	.LVL92:
 234:/home/pi/Developer/tinyusb/src/class/hid/hid_device.c ****     p_hid = &_hidd_itf[hid_id];
 1151              		.loc 1 234 20 view .LVU280
 235:/home/pi/Developer/tinyusb/src/class/hid/hid_device.c ****     p_hid = &_hidd_itf[hid_id];
 1152              		.loc 1 235 5 view .LVU281
 1153              		.loc 1 236 5 view .LVU282
 1154              		.loc 1 236 8 is_stmt 0 view .LVU283
 1155 0026 7A7B     		ldrb	r2, [r7, #13]	@ zero_extendqisi2
 1156 0028 62B1     		cbz	r2, .L126
 1157              	.LVL93:
 1158              	.L92:
 229:/home/pi/Developer/tinyusb/src/class/hid/hid_device.c **** 
 1159              		.loc 1 229 3 is_stmt 1 discriminator 1 view .LVU284
 229:/home/pi/Developer/tinyusb/src/class/hid/hid_device.c **** 
 1160              		.loc 1 229 3 discriminator 1 view .LVU285
 229:/home/pi/Developer/tinyusb/src/class/hid/hid_device.c **** 
 1161              		.loc 1 229 3 discriminator 1 view .LVU286
 229:/home/pi/Developer/tinyusb/src/class/hid/hid_device.c **** 
 1162              		.loc 1 229 3 discriminator 1 view .LVU287
 1163              	.LBB116:
 229:/home/pi/Developer/tinyusb/src/class/hid/hid_device.c **** 
 1164              		.loc 1 229 3 discriminator 1 view .LVU288
 229:/home/pi/Developer/tinyusb/src/class/hid/hid_device.c **** 
 1165              		.loc 1 229 3 discriminator 1 view .LVU289
 1166 002a 4FF0E023 		mov	r3, #-536813568
 1167 002e D3F8F03D 		ldr	r3, [r3, #3568]
 1168 0032 DA07     		lsls	r2, r3, #31
 1169 0034 04D4     		bmi	.L127
 1170              	.LVL94:
 1171              	.L121:
 229:/home/pi/Developer/tinyusb/src/class/hid/hid_device.c **** 
 1172              		.loc 1 229 3 is_stmt 0 discriminator 1 view .LVU290
 1173              	.LBE116:
 229:/home/pi/Developer/tinyusb/src/class/hid/hid_device.c **** 
 1174              		.loc 1 229 3 discriminator 3 view .LVU291
 1175 0036 0025     		movs	r5, #0
 1176              	.L91:
 237:/home/pi/Developer/tinyusb/src/class/hid/hid_device.c ****       break;
 238:/home/pi/Developer/tinyusb/src/class/hid/hid_device.c ****     }
 239:/home/pi/Developer/tinyusb/src/class/hid/hid_device.c ****   }
 240:/home/pi/Developer/tinyusb/src/class/hid/hid_device.c ****   TU_ASSERT(hid_id < CFG_TUD_HID, 0);
 241:/home/pi/Developer/tinyusb/src/class/hid/hid_device.c ****   hidd_epbuf_t *p_epbuf = &_hidd_epbuf[hid_id];
 242:/home/pi/Developer/tinyusb/src/class/hid/hid_device.c **** 
 243:/home/pi/Developer/tinyusb/src/class/hid/hid_device.c ****   uint8_t const *p_desc = (uint8_t const *)desc_itf;
 244:/home/pi/Developer/tinyusb/src/class/hid/hid_device.c **** 
 245:/home/pi/Developer/tinyusb/src/class/hid/hid_device.c ****   //------------- HID descriptor -------------//
 246:/home/pi/Developer/tinyusb/src/class/hid/hid_device.c ****   p_desc = tu_desc_next(p_desc);
 247:/home/pi/Developer/tinyusb/src/class/hid/hid_device.c ****   TU_ASSERT(HID_DESC_TYPE_HID == tu_desc_type(p_desc), 0);
 248:/home/pi/Developer/tinyusb/src/class/hid/hid_device.c ****   p_hid->hid_descriptor = (tusb_hid_descriptor_hid_t const *)p_desc;
 249:/home/pi/Developer/tinyusb/src/class/hid/hid_device.c **** 
 250:/home/pi/Developer/tinyusb/src/class/hid/hid_device.c ****   //------------- Endpoint Descriptor -------------//
 251:/home/pi/Developer/tinyusb/src/class/hid/hid_device.c ****   p_desc = tu_desc_next(p_desc);
ARM GAS  /tmp/ccA3k9s1.s 			page 33


 252:/home/pi/Developer/tinyusb/src/class/hid/hid_device.c ****   TU_ASSERT(usbd_open_edpt_pair(rhport, p_desc, desc_itf->bNumEndpoints, TUSB_XFER_INTERRUPT, &p_hi
 253:/home/pi/Developer/tinyusb/src/class/hid/hid_device.c **** 
 254:/home/pi/Developer/tinyusb/src/class/hid/hid_device.c ****   if (desc_itf->bInterfaceSubClass == HID_SUBCLASS_BOOT) {
 255:/home/pi/Developer/tinyusb/src/class/hid/hid_device.c ****     p_hid->itf_protocol = desc_itf->bInterfaceProtocol;
 256:/home/pi/Developer/tinyusb/src/class/hid/hid_device.c ****   }
 257:/home/pi/Developer/tinyusb/src/class/hid/hid_device.c **** 
 258:/home/pi/Developer/tinyusb/src/class/hid/hid_device.c ****   p_hid->protocol_mode = HID_PROTOCOL_REPORT; // Per Specs: default is report mode
 259:/home/pi/Developer/tinyusb/src/class/hid/hid_device.c ****   p_hid->itf_num = desc_itf->bInterfaceNumber;
 260:/home/pi/Developer/tinyusb/src/class/hid/hid_device.c **** 
 261:/home/pi/Developer/tinyusb/src/class/hid/hid_device.c ****   // Use offsetof to avoid pointer to the odd/misaligned address
 262:/home/pi/Developer/tinyusb/src/class/hid/hid_device.c ****   p_hid->report_desc_len = tu_unaligned_read16((uint8_t const *)p_hid->hid_descriptor + offsetof(tu
 263:/home/pi/Developer/tinyusb/src/class/hid/hid_device.c **** 
 264:/home/pi/Developer/tinyusb/src/class/hid/hid_device.c ****   // Prepare for output endpoint
 265:/home/pi/Developer/tinyusb/src/class/hid/hid_device.c ****   if (p_hid->ep_out) {
 266:/home/pi/Developer/tinyusb/src/class/hid/hid_device.c ****     TU_ASSERT(usbd_edpt_xfer(rhport, p_hid->ep_out, p_epbuf->epout, CFG_TUD_HID_EP_BUFSIZE, false),
 267:/home/pi/Developer/tinyusb/src/class/hid/hid_device.c ****   }
 268:/home/pi/Developer/tinyusb/src/class/hid/hid_device.c **** 
 269:/home/pi/Developer/tinyusb/src/class/hid/hid_device.c ****   return drv_len;
 270:/home/pi/Developer/tinyusb/src/class/hid/hid_device.c **** }
 1177              		.loc 1 270 1 view .LVU292
 1178 0038 2846     		mov	r0, r5
 1179 003a 02B0     		add	sp, sp, #8
 1180              		.cfi_remember_state
 1181              		.cfi_def_cfa_offset 24
 1182              		@ sp needed
 1183 003c BDE8F081 		pop	{r4, r5, r6, r7, r8, pc}
 1184              	.LVL95:
 1185              	.L127:
 1186              		.cfi_restore_state
 1187              	.LBB117:
 229:/home/pi/Developer/tinyusb/src/class/hid/hid_device.c **** 
 1188              		.loc 1 229 3 is_stmt 1 discriminator 3 view .LVU293
 1189              		.syntax unified
 1190              	@ 229 "/home/pi/Developer/tinyusb/src/class/hid/hid_device.c" 1
 1191 0040 00BE     		BKPT #0
 1192              	
 1193              	@ 0 "" 2
 1194              		.thumb
 1195              		.syntax unified
 1196 0042 F8E7     		b	.L121
 1197              	.LVL96:
 1198              	.L126:
 229:/home/pi/Developer/tinyusb/src/class/hid/hid_device.c **** 
 1199              		.loc 1 229 3 is_stmt 0 discriminator 3 view .LVU294
 1200              	.LBE117:
 235:/home/pi/Developer/tinyusb/src/class/hid/hid_device.c ****     if (p_hid->ep_in == 0) {
 1201              		.loc 1 235 11 view .LVU295
 1202 0044 0C37     		adds	r7, r7, #12
 236:/home/pi/Developer/tinyusb/src/class/hid/hid_device.c ****       break;
 1203              		.loc 1 236 8 view .LVU296
 1204 0046 4FF00108 		mov	r8, #1
 1205              	.LVL97:
 1206              	.L93:
 240:/home/pi/Developer/tinyusb/src/class/hid/hid_device.c ****   hidd_epbuf_t *p_epbuf = &_hidd_epbuf[hid_id];
 1207              		.loc 1 240 3 is_stmt 1 discriminator 2 view .LVU297
 241:/home/pi/Developer/tinyusb/src/class/hid/hid_device.c **** 
 1208              		.loc 1 241 3 discriminator 2 view .LVU298
ARM GAS  /tmp/ccA3k9s1.s 			page 34


 243:/home/pi/Developer/tinyusb/src/class/hid/hid_device.c **** 
 1209              		.loc 1 243 3 discriminator 2 view .LVU299
 246:/home/pi/Developer/tinyusb/src/class/hid/hid_device.c ****   TU_ASSERT(HID_DESC_TYPE_HID == tu_desc_type(p_desc), 0);
 1210              		.loc 1 246 3 discriminator 2 view .LVU300
 1211              	.LBB118:
 1212              	.LBI118:
 156:/home/pi/Developer/tinyusb/src/common/tusb_common.h **** }
 157:/home/pi/Developer/tinyusb/src/common/tusb_common.h **** 
 158:/home/pi/Developer/tinyusb/src/common/tusb_common.h **** TU_ATTR_ALWAYS_INLINE static inline bool tu_mem_is_zero(const void *buffer, size_t size) {
 159:/home/pi/Developer/tinyusb/src/common/tusb_common.h ****   const uint8_t* buf8 = (const uint8_t*) buffer;
 160:/home/pi/Developer/tinyusb/src/common/tusb_common.h ****   for (size_t i = 0; i < size; i++) {
 161:/home/pi/Developer/tinyusb/src/common/tusb_common.h ****     if (buf8[i] != 0) { return false; }
 162:/home/pi/Developer/tinyusb/src/common/tusb_common.h ****   }
 163:/home/pi/Developer/tinyusb/src/common/tusb_common.h ****   return true;
 164:/home/pi/Developer/tinyusb/src/common/tusb_common.h **** }
 165:/home/pi/Developer/tinyusb/src/common/tusb_common.h **** 
 166:/home/pi/Developer/tinyusb/src/common/tusb_common.h **** TU_ATTR_ALWAYS_INLINE static inline bool tu_mem_is_ff(const void *buffer, size_t size) {
 167:/home/pi/Developer/tinyusb/src/common/tusb_common.h ****   const uint8_t* buf8 = (const uint8_t*) buffer;
 168:/home/pi/Developer/tinyusb/src/common/tusb_common.h ****   for (size_t i = 0; i < size; i++) {
 169:/home/pi/Developer/tinyusb/src/common/tusb_common.h ****     if (buf8[i] != 0xff) { return false; }
 170:/home/pi/Developer/tinyusb/src/common/tusb_common.h ****   }
 171:/home/pi/Developer/tinyusb/src/common/tusb_common.h ****   return true;
 172:/home/pi/Developer/tinyusb/src/common/tusb_common.h **** }
 173:/home/pi/Developer/tinyusb/src/common/tusb_common.h **** 
 174:/home/pi/Developer/tinyusb/src/common/tusb_common.h **** 
 175:/home/pi/Developer/tinyusb/src/common/tusb_common.h **** //------------- Bytes -------------//
 176:/home/pi/Developer/tinyusb/src/common/tusb_common.h **** TU_ATTR_ALWAYS_INLINE static inline uint32_t tu_u32(uint8_t b3, uint8_t b2, uint8_t b1, uint8_t b0)
 177:/home/pi/Developer/tinyusb/src/common/tusb_common.h ****   return (((uint32_t)b3) << 24) | (((uint32_t)b2) << 16) | (((uint32_t)b1) << 8) | b0;
 178:/home/pi/Developer/tinyusb/src/common/tusb_common.h **** }
 179:/home/pi/Developer/tinyusb/src/common/tusb_common.h **** 
 180:/home/pi/Developer/tinyusb/src/common/tusb_common.h **** TU_ATTR_ALWAYS_INLINE static inline uint32_t tu_u32_from_u16(uint16_t high, uint16_t low) {
 181:/home/pi/Developer/tinyusb/src/common/tusb_common.h ****   return (((uint32_t)high) << 16) | low;
 182:/home/pi/Developer/tinyusb/src/common/tusb_common.h **** }
 183:/home/pi/Developer/tinyusb/src/common/tusb_common.h **** 
 184:/home/pi/Developer/tinyusb/src/common/tusb_common.h **** TU_ATTR_ALWAYS_INLINE static inline uint16_t tu_u16(uint8_t high, uint8_t low) {
 185:/home/pi/Developer/tinyusb/src/common/tusb_common.h ****   return (uint16_t)((((uint16_t)high) << 8) | low);
 186:/home/pi/Developer/tinyusb/src/common/tusb_common.h **** }
 187:/home/pi/Developer/tinyusb/src/common/tusb_common.h **** 
 188:/home/pi/Developer/tinyusb/src/common/tusb_common.h **** TU_ATTR_ALWAYS_INLINE static inline uint8_t tu_u32_byte3(uint32_t ui32) { return TU_U32_BYTE3(ui32)
 189:/home/pi/Developer/tinyusb/src/common/tusb_common.h **** TU_ATTR_ALWAYS_INLINE static inline uint8_t tu_u32_byte2(uint32_t ui32) { return TU_U32_BYTE2(ui32)
 190:/home/pi/Developer/tinyusb/src/common/tusb_common.h **** TU_ATTR_ALWAYS_INLINE static inline uint8_t tu_u32_byte1(uint32_t ui32) { return TU_U32_BYTE1(ui32)
 191:/home/pi/Developer/tinyusb/src/common/tusb_common.h **** TU_ATTR_ALWAYS_INLINE static inline uint8_t tu_u32_byte0(uint32_t ui32) { return TU_U32_BYTE0(ui32)
 192:/home/pi/Developer/tinyusb/src/common/tusb_common.h **** 
 193:/home/pi/Developer/tinyusb/src/common/tusb_common.h **** TU_ATTR_ALWAYS_INLINE static inline uint16_t tu_u32_high16(uint32_t ui32) { return (uint16_t) (ui32
 194:/home/pi/Developer/tinyusb/src/common/tusb_common.h **** TU_ATTR_ALWAYS_INLINE static inline uint16_t tu_u32_low16 (uint32_t ui32) { return (uint16_t) (ui32
 195:/home/pi/Developer/tinyusb/src/common/tusb_common.h **** 
 196:/home/pi/Developer/tinyusb/src/common/tusb_common.h **** TU_ATTR_ALWAYS_INLINE static inline uint8_t tu_u16_high(uint16_t ui16) { return TU_U16_HIGH(ui16); 
 197:/home/pi/Developer/tinyusb/src/common/tusb_common.h **** TU_ATTR_ALWAYS_INLINE static inline uint8_t tu_u16_low (uint16_t ui16) { return TU_U16_LOW(ui16); }
 198:/home/pi/Developer/tinyusb/src/common/tusb_common.h **** 
 199:/home/pi/Developer/tinyusb/src/common/tusb_common.h **** //------------- Bits -------------//
 200:/home/pi/Developer/tinyusb/src/common/tusb_common.h **** TU_ATTR_ALWAYS_INLINE static inline uint32_t tu_bit_set  (uint32_t value, uint8_t pos) { return val
 201:/home/pi/Developer/tinyusb/src/common/tusb_common.h **** TU_ATTR_ALWAYS_INLINE static inline uint32_t tu_bit_clear(uint32_t value, uint8_t pos) { return val
 202:/home/pi/Developer/tinyusb/src/common/tusb_common.h **** TU_ATTR_ALWAYS_INLINE static inline bool     tu_bit_test (uint32_t value, uint8_t pos) { return (va
 203:/home/pi/Developer/tinyusb/src/common/tusb_common.h **** 
 204:/home/pi/Developer/tinyusb/src/common/tusb_common.h **** //------------- Min -------------//
 205:/home/pi/Developer/tinyusb/src/common/tusb_common.h **** TU_ATTR_ALWAYS_INLINE static inline uint8_t  tu_min8  (uint8_t  x, uint8_t y ) { return (x < y) ? x
 206:/home/pi/Developer/tinyusb/src/common/tusb_common.h **** TU_ATTR_ALWAYS_INLINE static inline uint16_t tu_min16 (uint16_t x, uint16_t y) { return (x < y) ? x
ARM GAS  /tmp/ccA3k9s1.s 			page 35


 207:/home/pi/Developer/tinyusb/src/common/tusb_common.h **** TU_ATTR_ALWAYS_INLINE static inline uint32_t tu_min32 (uint32_t x, uint32_t y) { return (x < y) ? x
 208:/home/pi/Developer/tinyusb/src/common/tusb_common.h **** 
 209:/home/pi/Developer/tinyusb/src/common/tusb_common.h **** //------------- Max -------------//
 210:/home/pi/Developer/tinyusb/src/common/tusb_common.h **** TU_ATTR_ALWAYS_INLINE static inline uint8_t  tu_max8  (uint8_t  x, uint8_t y ) { return (x > y) ? x
 211:/home/pi/Developer/tinyusb/src/common/tusb_common.h **** TU_ATTR_ALWAYS_INLINE static inline uint16_t tu_max16 (uint16_t x, uint16_t y) { return (x > y) ? x
 212:/home/pi/Developer/tinyusb/src/common/tusb_common.h **** TU_ATTR_ALWAYS_INLINE static inline uint32_t tu_max32 (uint32_t x, uint32_t y) { return (x > y) ? x
 213:/home/pi/Developer/tinyusb/src/common/tusb_common.h **** 
 214:/home/pi/Developer/tinyusb/src/common/tusb_common.h **** //------------- Align -------------//
 215:/home/pi/Developer/tinyusb/src/common/tusb_common.h **** TU_ATTR_ALWAYS_INLINE static inline uint32_t tu_align(uint32_t value, uint32_t alignment) {
 216:/home/pi/Developer/tinyusb/src/common/tusb_common.h ****   return value & ((uint32_t) ~(alignment-1));
 217:/home/pi/Developer/tinyusb/src/common/tusb_common.h **** }
 218:/home/pi/Developer/tinyusb/src/common/tusb_common.h **** 
 219:/home/pi/Developer/tinyusb/src/common/tusb_common.h **** TU_ATTR_ALWAYS_INLINE static inline uint32_t tu_align4  (uint32_t value) { return (value & 0xFFFFFF
 220:/home/pi/Developer/tinyusb/src/common/tusb_common.h **** TU_ATTR_ALWAYS_INLINE static inline uint32_t tu_align8  (uint32_t value) { return (value & 0xFFFFFF
 221:/home/pi/Developer/tinyusb/src/common/tusb_common.h **** TU_ATTR_ALWAYS_INLINE static inline uint32_t tu_align16 (uint32_t value) { return (value & 0xFFFFFF
 222:/home/pi/Developer/tinyusb/src/common/tusb_common.h **** TU_ATTR_ALWAYS_INLINE static inline uint32_t tu_align32 (uint32_t value) { return (value & 0xFFFFFF
 223:/home/pi/Developer/tinyusb/src/common/tusb_common.h **** TU_ATTR_ALWAYS_INLINE static inline uint32_t tu_align4k (uint32_t value) { return (value & 0xFFFFF0
 224:/home/pi/Developer/tinyusb/src/common/tusb_common.h **** TU_ATTR_ALWAYS_INLINE static inline uint32_t tu_offset4k(uint32_t value) { return (value & 0xFFFUL)
 225:/home/pi/Developer/tinyusb/src/common/tusb_common.h **** 
 226:/home/pi/Developer/tinyusb/src/common/tusb_common.h **** TU_ATTR_ALWAYS_INLINE static inline bool tu_is_aligned32(uint32_t value) { return (value & 0x1FUL) 
 227:/home/pi/Developer/tinyusb/src/common/tusb_common.h **** TU_ATTR_ALWAYS_INLINE static inline bool tu_is_aligned64(uint64_t value) { return (value & 0x3FUL) 
 228:/home/pi/Developer/tinyusb/src/common/tusb_common.h **** 
 229:/home/pi/Developer/tinyusb/src/common/tusb_common.h **** //------------- Mathematics -------------//
 230:/home/pi/Developer/tinyusb/src/common/tusb_common.h **** TU_ATTR_ALWAYS_INLINE static inline uint32_t tu_div_ceil(uint32_t v, uint32_t d) { return TU_DIV_CE
 231:/home/pi/Developer/tinyusb/src/common/tusb_common.h **** TU_ATTR_ALWAYS_INLINE static inline uint32_t tu_div_round_nearest(uint32_t v, uint32_t d) { return 
 232:/home/pi/Developer/tinyusb/src/common/tusb_common.h **** 
 233:/home/pi/Developer/tinyusb/src/common/tusb_common.h **** TU_ATTR_ALWAYS_INLINE static inline uint32_t tu_round_up(uint32_t v, uint32_t f) { return tu_div_ce
 234:/home/pi/Developer/tinyusb/src/common/tusb_common.h **** 
 235:/home/pi/Developer/tinyusb/src/common/tusb_common.h **** // log2 of a value is its MSB's position
 236:/home/pi/Developer/tinyusb/src/common/tusb_common.h **** // TODO use clz TODO remove
 237:/home/pi/Developer/tinyusb/src/common/tusb_common.h **** TU_ATTR_ALWAYS_INLINE static inline uint8_t tu_log2(uint32_t value) {
 238:/home/pi/Developer/tinyusb/src/common/tusb_common.h ****   uint8_t result = 0;
 239:/home/pi/Developer/tinyusb/src/common/tusb_common.h ****   while ((value >>= 1u) != 0u) {
 240:/home/pi/Developer/tinyusb/src/common/tusb_common.h ****     result++;
 241:/home/pi/Developer/tinyusb/src/common/tusb_common.h ****   }
 242:/home/pi/Developer/tinyusb/src/common/tusb_common.h ****   return result;
 243:/home/pi/Developer/tinyusb/src/common/tusb_common.h **** }
 244:/home/pi/Developer/tinyusb/src/common/tusb_common.h **** 
 245:/home/pi/Developer/tinyusb/src/common/tusb_common.h **** //static inline uint8_t tu_log2(uint32_t value)
 246:/home/pi/Developer/tinyusb/src/common/tusb_common.h **** //{
 247:/home/pi/Developer/tinyusb/src/common/tusb_common.h **** //   return sizeof(uint32_t) * CHAR_BIT - __builtin_clz(x) - 1;
 248:/home/pi/Developer/tinyusb/src/common/tusb_common.h **** //}
 249:/home/pi/Developer/tinyusb/src/common/tusb_common.h **** 
 250:/home/pi/Developer/tinyusb/src/common/tusb_common.h **** TU_ATTR_ALWAYS_INLINE static inline bool tu_is_power_of_two(uint32_t value) {
 251:/home/pi/Developer/tinyusb/src/common/tusb_common.h ****    return (value != 0) && ((value & (value - 1)) == 0);
 252:/home/pi/Developer/tinyusb/src/common/tusb_common.h **** }
 253:/home/pi/Developer/tinyusb/src/common/tusb_common.h **** 
 254:/home/pi/Developer/tinyusb/src/common/tusb_common.h **** //------------- Unaligned Access -------------//
 255:/home/pi/Developer/tinyusb/src/common/tusb_common.h **** #if TUP_ARCH_STRICT_ALIGN
 256:/home/pi/Developer/tinyusb/src/common/tusb_common.h **** 
 257:/home/pi/Developer/tinyusb/src/common/tusb_common.h **** // Rely on compiler to generate correct code for unaligned access
 258:/home/pi/Developer/tinyusb/src/common/tusb_common.h **** typedef struct { uint16_t val; } TU_ATTR_PACKED tu_unaligned_uint16_t;
 259:/home/pi/Developer/tinyusb/src/common/tusb_common.h **** typedef struct { uint32_t val; } TU_ATTR_PACKED tu_unaligned_uint32_t;
 260:/home/pi/Developer/tinyusb/src/common/tusb_common.h **** 
 261:/home/pi/Developer/tinyusb/src/common/tusb_common.h **** TU_ATTR_ALWAYS_INLINE static inline uint32_t tu_unaligned_read32(const void *mem) {
 262:/home/pi/Developer/tinyusb/src/common/tusb_common.h ****   tu_unaligned_uint32_t const *ua32 = (tu_unaligned_uint32_t const *) mem;
 263:/home/pi/Developer/tinyusb/src/common/tusb_common.h ****   return ua32->val;
ARM GAS  /tmp/ccA3k9s1.s 			page 36


 264:/home/pi/Developer/tinyusb/src/common/tusb_common.h **** }
 265:/home/pi/Developer/tinyusb/src/common/tusb_common.h **** 
 266:/home/pi/Developer/tinyusb/src/common/tusb_common.h **** TU_ATTR_ALWAYS_INLINE static inline void tu_unaligned_write32(void *mem, uint32_t value) {
 267:/home/pi/Developer/tinyusb/src/common/tusb_common.h ****   tu_unaligned_uint32_t *ua32 = (tu_unaligned_uint32_t *) mem;
 268:/home/pi/Developer/tinyusb/src/common/tusb_common.h ****   ua32->val = value;
 269:/home/pi/Developer/tinyusb/src/common/tusb_common.h **** }
 270:/home/pi/Developer/tinyusb/src/common/tusb_common.h **** 
 271:/home/pi/Developer/tinyusb/src/common/tusb_common.h **** TU_ATTR_ALWAYS_INLINE static inline uint16_t tu_unaligned_read16(const void *mem) {
 272:/home/pi/Developer/tinyusb/src/common/tusb_common.h ****   tu_unaligned_uint16_t const *ua16 = (tu_unaligned_uint16_t const *) mem;
 273:/home/pi/Developer/tinyusb/src/common/tusb_common.h ****   return ua16->val;
 274:/home/pi/Developer/tinyusb/src/common/tusb_common.h **** }
 275:/home/pi/Developer/tinyusb/src/common/tusb_common.h **** 
 276:/home/pi/Developer/tinyusb/src/common/tusb_common.h **** TU_ATTR_ALWAYS_INLINE static inline void tu_unaligned_write16(void *mem, uint16_t value) {
 277:/home/pi/Developer/tinyusb/src/common/tusb_common.h ****   tu_unaligned_uint16_t *ua16 = (tu_unaligned_uint16_t *) mem;
 278:/home/pi/Developer/tinyusb/src/common/tusb_common.h ****   ua16->val = value;
 279:/home/pi/Developer/tinyusb/src/common/tusb_common.h **** }
 280:/home/pi/Developer/tinyusb/src/common/tusb_common.h **** 
 281:/home/pi/Developer/tinyusb/src/common/tusb_common.h **** #elif TUP_MCU_STRICT_ALIGN
 282:/home/pi/Developer/tinyusb/src/common/tusb_common.h **** 
 283:/home/pi/Developer/tinyusb/src/common/tusb_common.h **** // MCU such as LPC_IP3511 Highspeed cannot access unaligned memory on USB_RAM although it is ARM M4
 284:/home/pi/Developer/tinyusb/src/common/tusb_common.h **** // We have to manually pick up bytes since tu_unaligned_uint32_t will still generate unaligned code
 285:/home/pi/Developer/tinyusb/src/common/tusb_common.h **** // NOTE: volatile cast to memory to prevent compiler to optimize and generate unaligned code
 286:/home/pi/Developer/tinyusb/src/common/tusb_common.h **** // TODO Big Endian may need minor changes
 287:/home/pi/Developer/tinyusb/src/common/tusb_common.h **** TU_ATTR_ALWAYS_INLINE static inline uint32_t tu_unaligned_read32(const void* mem) {
 288:/home/pi/Developer/tinyusb/src/common/tusb_common.h ****   volatile uint8_t const* buf8 = (uint8_t const*) mem;
 289:/home/pi/Developer/tinyusb/src/common/tusb_common.h ****   return tu_u32(buf8[3], buf8[2], buf8[1], buf8[0]);
 290:/home/pi/Developer/tinyusb/src/common/tusb_common.h **** }
 291:/home/pi/Developer/tinyusb/src/common/tusb_common.h **** 
 292:/home/pi/Developer/tinyusb/src/common/tusb_common.h **** TU_ATTR_ALWAYS_INLINE static inline void tu_unaligned_write32(void* mem, uint32_t value) {
 293:/home/pi/Developer/tinyusb/src/common/tusb_common.h ****   volatile uint8_t* buf8 = (uint8_t*) mem;
 294:/home/pi/Developer/tinyusb/src/common/tusb_common.h ****   buf8[0] = tu_u32_byte0(value);
 295:/home/pi/Developer/tinyusb/src/common/tusb_common.h ****   buf8[1] = tu_u32_byte1(value);
 296:/home/pi/Developer/tinyusb/src/common/tusb_common.h ****   buf8[2] = tu_u32_byte2(value);
 297:/home/pi/Developer/tinyusb/src/common/tusb_common.h ****   buf8[3] = tu_u32_byte3(value);
 298:/home/pi/Developer/tinyusb/src/common/tusb_common.h **** }
 299:/home/pi/Developer/tinyusb/src/common/tusb_common.h **** 
 300:/home/pi/Developer/tinyusb/src/common/tusb_common.h **** TU_ATTR_ALWAYS_INLINE static inline uint16_t tu_unaligned_read16(const void* mem) {
 301:/home/pi/Developer/tinyusb/src/common/tusb_common.h ****   volatile uint8_t const* buf8 = (uint8_t const*) mem;
 302:/home/pi/Developer/tinyusb/src/common/tusb_common.h ****   return tu_u16(buf8[1], buf8[0]);
 303:/home/pi/Developer/tinyusb/src/common/tusb_common.h **** }
 304:/home/pi/Developer/tinyusb/src/common/tusb_common.h **** 
 305:/home/pi/Developer/tinyusb/src/common/tusb_common.h **** TU_ATTR_ALWAYS_INLINE static inline void tu_unaligned_write16(void* mem, uint16_t value) {
 306:/home/pi/Developer/tinyusb/src/common/tusb_common.h ****   volatile uint8_t* buf8 = (uint8_t*) mem;
 307:/home/pi/Developer/tinyusb/src/common/tusb_common.h ****   buf8[0] = tu_u16_low(value);
 308:/home/pi/Developer/tinyusb/src/common/tusb_common.h ****   buf8[1] = tu_u16_high(value);
 309:/home/pi/Developer/tinyusb/src/common/tusb_common.h **** }
 310:/home/pi/Developer/tinyusb/src/common/tusb_common.h **** 
 311:/home/pi/Developer/tinyusb/src/common/tusb_common.h **** #else
 312:/home/pi/Developer/tinyusb/src/common/tusb_common.h **** 
 313:/home/pi/Developer/tinyusb/src/common/tusb_common.h **** // MCU that could access unaligned memory natively
 314:/home/pi/Developer/tinyusb/src/common/tusb_common.h **** TU_ATTR_ALWAYS_INLINE static inline uint32_t tu_unaligned_read32(const void *mem) {
 315:/home/pi/Developer/tinyusb/src/common/tusb_common.h ****   return *((uint32_t const *) mem);
 316:/home/pi/Developer/tinyusb/src/common/tusb_common.h **** }
 317:/home/pi/Developer/tinyusb/src/common/tusb_common.h **** 
 318:/home/pi/Developer/tinyusb/src/common/tusb_common.h **** TU_ATTR_ALWAYS_INLINE static inline uint16_t tu_unaligned_read16(const void *mem) {
 319:/home/pi/Developer/tinyusb/src/common/tusb_common.h ****   return *((uint16_t const *) mem);
 320:/home/pi/Developer/tinyusb/src/common/tusb_common.h **** }
ARM GAS  /tmp/ccA3k9s1.s 			page 37


 321:/home/pi/Developer/tinyusb/src/common/tusb_common.h **** 
 322:/home/pi/Developer/tinyusb/src/common/tusb_common.h **** TU_ATTR_ALWAYS_INLINE static inline void tu_unaligned_write32(void *mem, uint32_t value) {
 323:/home/pi/Developer/tinyusb/src/common/tusb_common.h ****   *((uint32_t *) mem) = value;
 324:/home/pi/Developer/tinyusb/src/common/tusb_common.h **** }
 325:/home/pi/Developer/tinyusb/src/common/tusb_common.h **** 
 326:/home/pi/Developer/tinyusb/src/common/tusb_common.h **** TU_ATTR_ALWAYS_INLINE static inline void tu_unaligned_write16(void *mem, uint16_t value) {
 327:/home/pi/Developer/tinyusb/src/common/tusb_common.h ****   *((uint16_t *) mem) = value;
 328:/home/pi/Developer/tinyusb/src/common/tusb_common.h **** }
 329:/home/pi/Developer/tinyusb/src/common/tusb_common.h **** 
 330:/home/pi/Developer/tinyusb/src/common/tusb_common.h **** #endif
 331:/home/pi/Developer/tinyusb/src/common/tusb_common.h **** 
 332:/home/pi/Developer/tinyusb/src/common/tusb_common.h **** // scatter read 4 bytes from two buffers (LE). Parameter are not checked
 333:/home/pi/Developer/tinyusb/src/common/tusb_common.h **** TU_ATTR_ALWAYS_INLINE static inline uint32_t tu_scatter_read32(const uint8_t *buf1, uint8_t len1, c
 334:/home/pi/Developer/tinyusb/src/common/tusb_common.h ****                                                                uint8_t len2) {
 335:/home/pi/Developer/tinyusb/src/common/tusb_common.h ****   uint32_t result = 0;
 336:/home/pi/Developer/tinyusb/src/common/tusb_common.h ****   uint8_t  shift  = 0;
 337:/home/pi/Developer/tinyusb/src/common/tusb_common.h **** 
 338:/home/pi/Developer/tinyusb/src/common/tusb_common.h ****   for (uint8_t i = 0; i < len1; ++i) {
 339:/home/pi/Developer/tinyusb/src/common/tusb_common.h ****     result |= ((uint32_t)buf1[i]) << shift;
 340:/home/pi/Developer/tinyusb/src/common/tusb_common.h ****     shift += 8;
 341:/home/pi/Developer/tinyusb/src/common/tusb_common.h ****   }
 342:/home/pi/Developer/tinyusb/src/common/tusb_common.h **** 
 343:/home/pi/Developer/tinyusb/src/common/tusb_common.h ****   for (uint8_t i = 0; i < len2; ++i) {
 344:/home/pi/Developer/tinyusb/src/common/tusb_common.h ****     result |= ((uint32_t)buf2[i]) << shift;
 345:/home/pi/Developer/tinyusb/src/common/tusb_common.h ****     shift += 8;
 346:/home/pi/Developer/tinyusb/src/common/tusb_common.h ****   }
 347:/home/pi/Developer/tinyusb/src/common/tusb_common.h **** 
 348:/home/pi/Developer/tinyusb/src/common/tusb_common.h ****   return result;
 349:/home/pi/Developer/tinyusb/src/common/tusb_common.h **** }
 350:/home/pi/Developer/tinyusb/src/common/tusb_common.h **** 
 351:/home/pi/Developer/tinyusb/src/common/tusb_common.h **** // scatter write 4 bytes (LE) to two buffers. Parameter are not checked
 352:/home/pi/Developer/tinyusb/src/common/tusb_common.h **** TU_ATTR_ALWAYS_INLINE static inline void tu_scatter_write32(uint32_t value, uint8_t *buf1, uint8_t 
 353:/home/pi/Developer/tinyusb/src/common/tusb_common.h ****                                                             uint8_t *buf2, uint8_t len2) {
 354:/home/pi/Developer/tinyusb/src/common/tusb_common.h ****   for (uint8_t i = 0; i < len1; ++i) {
 355:/home/pi/Developer/tinyusb/src/common/tusb_common.h ****     buf1[i] = (uint8_t)(value & 0xFF);
 356:/home/pi/Developer/tinyusb/src/common/tusb_common.h ****     value >>= 8;
 357:/home/pi/Developer/tinyusb/src/common/tusb_common.h ****   }
 358:/home/pi/Developer/tinyusb/src/common/tusb_common.h **** 
 359:/home/pi/Developer/tinyusb/src/common/tusb_common.h ****   for (uint8_t i = 0; i < len2; ++i) {
 360:/home/pi/Developer/tinyusb/src/common/tusb_common.h ****     buf2[i] = (uint8_t)(value & 0xFF);
 361:/home/pi/Developer/tinyusb/src/common/tusb_common.h ****     value >>= 8;
 362:/home/pi/Developer/tinyusb/src/common/tusb_common.h ****   }
 363:/home/pi/Developer/tinyusb/src/common/tusb_common.h **** }
 364:/home/pi/Developer/tinyusb/src/common/tusb_common.h **** 
 365:/home/pi/Developer/tinyusb/src/common/tusb_common.h **** //--------------------------------------------------------------------+
 366:/home/pi/Developer/tinyusb/src/common/tusb_common.h **** // Descriptor helper
 367:/home/pi/Developer/tinyusb/src/common/tusb_common.h **** //--------------------------------------------------------------------+
 368:/home/pi/Developer/tinyusb/src/common/tusb_common.h **** 
 369:/home/pi/Developer/tinyusb/src/common/tusb_common.h **** // return next descriptor
 370:/home/pi/Developer/tinyusb/src/common/tusb_common.h **** TU_ATTR_ALWAYS_INLINE static inline uint8_t const * tu_desc_next(void const* desc) {
 1213              		.loc 2 370 53 discriminator 2 view .LVU301
 1214              	.LBB119:
 371:/home/pi/Developer/tinyusb/src/common/tusb_common.h ****   uint8_t const* desc8 = (uint8_t const*) desc;
 1215              		.loc 2 371 3 discriminator 2 view .LVU302
 372:/home/pi/Developer/tinyusb/src/common/tusb_common.h ****   return desc8 + desc8[DESC_OFFSET_LEN];
 1216              		.loc 2 372 3 discriminator 2 view .LVU303
 1217              		.loc 2 372 23 is_stmt 0 discriminator 2 view .LVU304
ARM GAS  /tmp/ccA3k9s1.s 			page 38


 1218 004a 2278     		ldrb	r2, [r4]	@ zero_extendqisi2
 1219              		.loc 2 372 16 discriminator 2 view .LVU305
 1220 004c A318     		adds	r3, r4, r2
 1221              	.LVL98:
 1222              		.loc 2 372 16 discriminator 2 view .LVU306
 1223              	.LBE119:
 1224              	.LBE118:
 247:/home/pi/Developer/tinyusb/src/class/hid/hid_device.c ****   p_hid->hid_descriptor = (tusb_hid_descriptor_hid_t const *)p_desc;
 1225              		.loc 1 247 3 is_stmt 1 discriminator 2 view .LVU307
 247:/home/pi/Developer/tinyusb/src/class/hid/hid_device.c ****   p_hid->hid_descriptor = (tusb_hid_descriptor_hid_t const *)p_desc;
 1226              		.loc 1 247 3 discriminator 2 view .LVU308
 1227              	.LBB120:
 1228              	.LBI120:
 373:/home/pi/Developer/tinyusb/src/common/tusb_common.h **** }
 374:/home/pi/Developer/tinyusb/src/common/tusb_common.h **** 
 375:/home/pi/Developer/tinyusb/src/common/tusb_common.h **** // get descriptor length
 376:/home/pi/Developer/tinyusb/src/common/tusb_common.h **** TU_ATTR_ALWAYS_INLINE static inline uint8_t tu_desc_len(void const* desc) {
 377:/home/pi/Developer/tinyusb/src/common/tusb_common.h ****   return ((uint8_t const*) desc)[DESC_OFFSET_LEN];
 378:/home/pi/Developer/tinyusb/src/common/tusb_common.h **** }
 379:/home/pi/Developer/tinyusb/src/common/tusb_common.h **** 
 380:/home/pi/Developer/tinyusb/src/common/tusb_common.h **** // get descriptor type
 381:/home/pi/Developer/tinyusb/src/common/tusb_common.h **** TU_ATTR_ALWAYS_INLINE static inline uint8_t tu_desc_type(void const* desc) {
 1229              		.loc 2 381 45 discriminator 2 view .LVU309
 1230              	.LBB121:
 382:/home/pi/Developer/tinyusb/src/common/tusb_common.h ****   return ((uint8_t const*) desc)[DESC_OFFSET_TYPE];
 1231              		.loc 2 382 3 discriminator 2 view .LVU310
 1232              		.loc 2 382 3 is_stmt 0 discriminator 2 view .LVU311
 1233              	.LBE121:
 1234              	.LBE120:
 247:/home/pi/Developer/tinyusb/src/class/hid/hid_device.c ****   p_hid->hid_descriptor = (tusb_hid_descriptor_hid_t const *)p_desc;
 1235              		.loc 1 247 3 discriminator 2 view .LVU312
 1236 004e 5978     		ldrb	r1, [r3, #1]	@ zero_extendqisi2
 1237              	.LVL99:
 247:/home/pi/Developer/tinyusb/src/class/hid/hid_device.c ****   p_hid->hid_descriptor = (tusb_hid_descriptor_hid_t const *)p_desc;
 1238              		.loc 1 247 3 discriminator 2 view .LVU313
 1239 0050 2129     		cmp	r1, #33
 1240 0052 EAD1     		bne	.L92
 247:/home/pi/Developer/tinyusb/src/class/hid/hid_device.c ****   p_hid->hid_descriptor = (tusb_hid_descriptor_hid_t const *)p_desc;
 1241              		.loc 1 247 3 is_stmt 1 discriminator 2 view .LVU314
 248:/home/pi/Developer/tinyusb/src/class/hid/hid_device.c **** 
 1242              		.loc 1 248 3 discriminator 2 view .LVU315
 248:/home/pi/Developer/tinyusb/src/class/hid/hid_device.c **** 
 1243              		.loc 1 248 25 is_stmt 0 discriminator 2 view .LVU316
 1244 0054 BB60     		str	r3, [r7, #8]
 251:/home/pi/Developer/tinyusb/src/class/hid/hid_device.c ****   TU_ASSERT(usbd_open_edpt_pair(rhport, p_desc, desc_itf->bNumEndpoints, TUSB_XFER_INTERRUPT, &p_hi
 1245              		.loc 1 251 3 is_stmt 1 discriminator 2 view .LVU317
 1246              	.LVL100:
 1247              	.LBB122:
 1248              	.LBI122:
 370:/home/pi/Developer/tinyusb/src/common/tusb_common.h ****   uint8_t const* desc8 = (uint8_t const*) desc;
 1249              		.loc 2 370 53 discriminator 2 view .LVU318
 1250              	.LBB123:
 371:/home/pi/Developer/tinyusb/src/common/tusb_common.h ****   return desc8 + desc8[DESC_OFFSET_LEN];
 1251              		.loc 2 371 3 discriminator 2 view .LVU319
 372:/home/pi/Developer/tinyusb/src/common/tusb_common.h **** }
 1252              		.loc 2 372 3 discriminator 2 view .LVU320
 372:/home/pi/Developer/tinyusb/src/common/tusb_common.h **** }
ARM GAS  /tmp/ccA3k9s1.s 			page 39


 1253              		.loc 2 372 3 is_stmt 0 discriminator 2 view .LVU321
 1254              	.LBE123:
 1255              	.LBE122:
 252:/home/pi/Developer/tinyusb/src/class/hid/hid_device.c **** 
 1256              		.loc 1 252 3 is_stmt 1 discriminator 2 view .LVU322
 252:/home/pi/Developer/tinyusb/src/class/hid/hid_device.c **** 
 1257              		.loc 1 252 3 discriminator 2 view .LVU323
 1258              	.LBB125:
 1259              	.LBB124:
 372:/home/pi/Developer/tinyusb/src/common/tusb_common.h **** }
 1260              		.loc 2 372 23 is_stmt 0 discriminator 2 view .LVU324
 1261 0056 A15C     		ldrb	r1, [r4, r2]	@ zero_extendqisi2
 1262              	.LBE124:
 1263              	.LBE125:
 252:/home/pi/Developer/tinyusb/src/class/hid/hid_device.c **** 
 1264              		.loc 1 252 3 discriminator 2 view .LVU325
 1265 0058 0246     		mov	r2, r0
 1266 005a 3046     		mov	r0, r6
 1267 005c 1944     		add	r1, r1, r3
 1268              	.LVL101:
 252:/home/pi/Developer/tinyusb/src/class/hid/hid_device.c **** 
 1269              		.loc 1 252 3 discriminator 2 view .LVU326
 1270 005e 7B1C     		adds	r3, r7, #1
 1271              	.LVL102:
 252:/home/pi/Developer/tinyusb/src/class/hid/hid_device.c **** 
 1272              		.loc 1 252 3 discriminator 2 view .LVU327
 1273 0060 0193     		str	r3, [sp, #4]
 1274              	.LVL103:
 252:/home/pi/Developer/tinyusb/src/class/hid/hid_device.c **** 
 1275              		.loc 1 252 3 discriminator 2 view .LVU328
 1276 0062 BB1C     		adds	r3, r7, #2
 1277 0064 0093     		str	r3, [sp]
 1278 0066 0323     		movs	r3, #3
 1279 0068 FFF7FEFF 		bl	usbd_open_edpt_pair
 1280              	.LVL104:
 252:/home/pi/Developer/tinyusb/src/class/hid/hid_device.c **** 
 1281              		.loc 1 252 3 discriminator 2 view .LVU329
 1282 006c 0028     		cmp	r0, #0
 1283 006e DCD0     		beq	.L92
 252:/home/pi/Developer/tinyusb/src/class/hid/hid_device.c **** 
 1284              		.loc 1 252 3 is_stmt 1 discriminator 2 view .LVU330
 254:/home/pi/Developer/tinyusb/src/class/hid/hid_device.c ****     p_hid->itf_protocol = desc_itf->bInterfaceProtocol;
 1285              		.loc 1 254 3 discriminator 2 view .LVU331
 254:/home/pi/Developer/tinyusb/src/class/hid/hid_device.c ****     p_hid->itf_protocol = desc_itf->bInterfaceProtocol;
 1286              		.loc 1 254 6 is_stmt 0 discriminator 2 view .LVU332
 1287 0070 A379     		ldrb	r3, [r4, #6]	@ zero_extendqisi2
 1288 0072 012B     		cmp	r3, #1
 1289 0074 01D1     		bne	.L98
 255:/home/pi/Developer/tinyusb/src/class/hid/hid_device.c ****   }
 1290              		.loc 1 255 5 is_stmt 1 view .LVU333
 255:/home/pi/Developer/tinyusb/src/class/hid/hid_device.c ****   }
 1291              		.loc 1 255 25 is_stmt 0 view .LVU334
 1292 0076 E379     		ldrb	r3, [r4, #7]	@ zero_extendqisi2
 1293 0078 FB70     		strb	r3, [r7, #3]
 1294              	.L98:
 258:/home/pi/Developer/tinyusb/src/class/hid/hid_device.c ****   p_hid->itf_num = desc_itf->bInterfaceNumber;
 1295              		.loc 1 258 3 is_stmt 1 view .LVU335
ARM GAS  /tmp/ccA3k9s1.s 			page 40


 258:/home/pi/Developer/tinyusb/src/class/hid/hid_device.c ****   p_hid->itf_num = desc_itf->bInterfaceNumber;
 1296              		.loc 1 258 24 is_stmt 0 view .LVU336
 1297 007a 0123     		movs	r3, #1
 265:/home/pi/Developer/tinyusb/src/class/hid/hid_device.c ****     TU_ASSERT(usbd_edpt_xfer(rhport, p_hid->ep_out, p_epbuf->epout, CFG_TUD_HID_EP_BUFSIZE, false),
 1298              		.loc 1 265 12 view .LVU337
 1299 007c B978     		ldrb	r1, [r7, #2]	@ zero_extendqisi2
 258:/home/pi/Developer/tinyusb/src/class/hid/hid_device.c ****   p_hid->itf_num = desc_itf->bInterfaceNumber;
 1300              		.loc 1 258 24 view .LVU338
 1301 007e BB71     		strb	r3, [r7, #6]
 259:/home/pi/Developer/tinyusb/src/class/hid/hid_device.c **** 
 1302              		.loc 1 259 3 is_stmt 1 view .LVU339
 259:/home/pi/Developer/tinyusb/src/class/hid/hid_device.c **** 
 1303              		.loc 1 259 18 is_stmt 0 view .LVU340
 1304 0080 A378     		ldrb	r3, [r4, #2]	@ zero_extendqisi2
 1305 0082 3B70     		strb	r3, [r7]
 262:/home/pi/Developer/tinyusb/src/class/hid/hid_device.c **** 
 1306              		.loc 1 262 3 is_stmt 1 view .LVU341
 1307              	.LVL105:
 1308              	.LBB126:
 1309              	.LBI126:
 318:/home/pi/Developer/tinyusb/src/common/tusb_common.h ****   return *((uint16_t const *) mem);
 1310              		.loc 2 318 46 view .LVU342
 1311              	.LBB127:
 319:/home/pi/Developer/tinyusb/src/common/tusb_common.h **** }
 1312              		.loc 2 319 3 view .LVU343
 319:/home/pi/Developer/tinyusb/src/common/tusb_common.h **** }
 1313              		.loc 2 319 10 is_stmt 0 view .LVU344
 1314 0084 BB68     		ldr	r3, [r7, #8]
 1315 0086 B3F80730 		ldrh	r3, [r3, #7]
 1316              	.LVL106:
 319:/home/pi/Developer/tinyusb/src/common/tusb_common.h **** }
 1317              		.loc 2 319 10 view .LVU345
 1318              	.LBE127:
 1319              	.LBE126:
 262:/home/pi/Developer/tinyusb/src/class/hid/hid_device.c **** 
 1320              		.loc 1 262 26 view .LVU346
 1321 008a BB80     		strh	r3, [r7, #4]	@ movhi
 265:/home/pi/Developer/tinyusb/src/class/hid/hid_device.c ****     TU_ASSERT(usbd_edpt_xfer(rhport, p_hid->ep_out, p_epbuf->epout, CFG_TUD_HID_EP_BUFSIZE, false),
 1322              		.loc 1 265 3 is_stmt 1 view .LVU347
 265:/home/pi/Developer/tinyusb/src/class/hid/hid_device.c ****     TU_ASSERT(usbd_edpt_xfer(rhport, p_hid->ep_out, p_epbuf->epout, CFG_TUD_HID_EP_BUFSIZE, false),
 1323              		.loc 1 265 6 is_stmt 0 view .LVU348
 1324 008c 0029     		cmp	r1, #0
 1325 008e D3D0     		beq	.L91
 266:/home/pi/Developer/tinyusb/src/class/hid/hid_device.c ****   }
 1326              		.loc 1 266 5 is_stmt 1 view .LVU349
 266:/home/pi/Developer/tinyusb/src/class/hid/hid_device.c ****   }
 1327              		.loc 1 266 5 view .LVU350
 1328 0090 0C4B     		ldr	r3, .L128+4
 1329 0092 08EB4802 		add	r2, r8, r8, lsl #1
 1330 0096 3046     		mov	r0, r6
 1331 0098 03EBC202 		add	r2, r3, r2, lsl #3
 1332 009c 0023     		movs	r3, #0
 1333 009e 1032     		adds	r2, r2, #16
 1334 00a0 0093     		str	r3, [sp]
 1335 00a2 0823     		movs	r3, #8
 1336 00a4 FFF7FEFF 		bl	usbd_edpt_xfer
 1337              	.LVL107:
ARM GAS  /tmp/ccA3k9s1.s 			page 41


 1338 00a8 0028     		cmp	r0, #0
 1339 00aa C5D1     		bne	.L91
 266:/home/pi/Developer/tinyusb/src/class/hid/hid_device.c ****   }
 1340              		.loc 1 266 5 discriminator 1 view .LVU351
 266:/home/pi/Developer/tinyusb/src/class/hid/hid_device.c ****   }
 1341              		.loc 1 266 5 discriminator 1 view .LVU352
 266:/home/pi/Developer/tinyusb/src/class/hid/hid_device.c ****   }
 1342              		.loc 1 266 5 discriminator 1 view .LVU353
 266:/home/pi/Developer/tinyusb/src/class/hid/hid_device.c ****   }
 1343              		.loc 1 266 5 discriminator 1 view .LVU354
 1344              	.LBB128:
 266:/home/pi/Developer/tinyusb/src/class/hid/hid_device.c ****   }
 1345              		.loc 1 266 5 discriminator 1 view .LVU355
 1346              	.LVL108:
 266:/home/pi/Developer/tinyusb/src/class/hid/hid_device.c ****   }
 1347              		.loc 1 266 5 discriminator 1 view .LVU356
 1348 00ac 4FF0E023 		mov	r3, #-536813568
 1349 00b0 D3F8F03D 		ldr	r3, [r3, #3568]
 1350 00b4 DB07     		lsls	r3, r3, #31
 1351 00b6 BFD5     		bpl	.L91
 266:/home/pi/Developer/tinyusb/src/class/hid/hid_device.c ****   }
 1352              		.loc 1 266 5 discriminator 3 view .LVU357
 1353              		.syntax unified
 1354              	@ 266 "/home/pi/Developer/tinyusb/src/class/hid/hid_device.c" 1
 1355 00b8 00BE     		BKPT #0
 1356              	
 1357              	@ 0 "" 2
 1358              		.thumb
 1359              		.syntax unified
 1360 00ba BDE7     		b	.L91
 1361              	.LVL109:
 1362              	.L99:
 266:/home/pi/Developer/tinyusb/src/class/hid/hid_device.c ****   }
 1363              		.loc 1 266 5 is_stmt 0 discriminator 3 view .LVU358
 1364              	.LBE128:
 236:/home/pi/Developer/tinyusb/src/class/hid/hid_device.c ****       break;
 1365              		.loc 1 236 8 view .LVU359
 1366 00bc 9046     		mov	r8, r2
 1367 00be C4E7     		b	.L93
 1368              	.L129:
 1369              		.align	2
 1370              	.L128:
 1371 00c0 00000000 		.word	.LANCHOR0
 1372 00c4 00000000 		.word	.LANCHOR1
 1373              		.cfi_endproc
 1374              	.LFE438:
 1376              		.section	.text.hidd_control_xfer_cb,"ax",%progbits
 1377              		.align	1
 1378              		.p2align 2,,3
 1379              		.global	hidd_control_xfer_cb
 1380              		.syntax unified
 1381              		.thumb
 1382              		.thumb_func
 1383              		.fpu fpv5-d16
 1385              	hidd_control_xfer_cb:
 1386              	.LVL110:
 1387              	.LFB439:
ARM GAS  /tmp/ccA3k9s1.s 			page 42


 271:/home/pi/Developer/tinyusb/src/class/hid/hid_device.c **** 
 272:/home/pi/Developer/tinyusb/src/class/hid/hid_device.c **** // Invoked when a control transfer occurred on an interface of this class
 273:/home/pi/Developer/tinyusb/src/class/hid/hid_device.c **** // Driver response accordingly to the request and the transfer stage (setup/data/ack)
 274:/home/pi/Developer/tinyusb/src/class/hid/hid_device.c **** // return false to stall control endpoint (e.g unsupported request)
 275:/home/pi/Developer/tinyusb/src/class/hid/hid_device.c **** bool hidd_control_xfer_cb(uint8_t rhport, uint8_t stage, tusb_control_request_t const *request) {
 1388              		.loc 1 275 97 is_stmt 1 view -0
 1389              		.cfi_startproc
 1390              		@ args = 0, pretend = 0, frame = 0
 1391              		@ frame_needed = 0, uses_anonymous_args = 0
 276:/home/pi/Developer/tinyusb/src/class/hid/hid_device.c ****   TU_VERIFY(request->bmRequestType_bit.recipient == TUSB_REQ_RCPT_INTERFACE);
 1392              		.loc 1 276 3 view .LVU361
 1393              		.loc 1 276 3 view .LVU362
 1394 0000 1378     		ldrb	r3, [r2]	@ zero_extendqisi2
 1395 0002 03F01F0C 		and	ip, r3, #31
 1396 0006 BCF1010F 		cmp	ip, #1
 1397 000a 13D1     		bne	.L186
 1398              		.loc 1 276 3 discriminator 2 view .LVU363
 277:/home/pi/Developer/tinyusb/src/class/hid/hid_device.c **** 
 278:/home/pi/Developer/tinyusb/src/class/hid/hid_device.c ****   uint8_t const hid_itf = get_index_by_itfnum((uint8_t)request->wIndex);
 1399              		.loc 1 278 3 discriminator 2 view .LVU364
 275:/home/pi/Developer/tinyusb/src/class/hid/hid_device.c ****   TU_VERIFY(request->bmRequestType_bit.recipient == TUSB_REQ_RCPT_INTERFACE);
 1400              		.loc 1 275 97 is_stmt 0 discriminator 2 view .LVU365
 1401 000c 2DE9F047 		push	{r4, r5, r6, r7, r8, r9, r10, lr}
 1402              		.cfi_def_cfa_offset 32
 1403              		.cfi_offset 4, -32
 1404              		.cfi_offset 5, -28
 1405              		.cfi_offset 6, -24
 1406              		.cfi_offset 7, -20
 1407              		.cfi_offset 8, -16
 1408              		.cfi_offset 9, -12
 1409              		.cfi_offset 10, -8
 1410              		.cfi_offset 14, -4
 1411 0010 1546     		mov	r5, r2
 1412              	.LBB129:
 1413              	.LBB130:
  69:/home/pi/Developer/tinyusb/src/class/hid/hid_device.c ****       return i;
 1414              		.loc 1 69 32 discriminator 2 view .LVU366
 1415 0012 8C4F     		ldr	r7, .L191
 1416              	.LBE130:
 1417              	.LBE129:
 1418              		.loc 1 278 63 discriminator 2 view .LVU367
 1419 0014 9288     		ldrh	r2, [r2, #4]	@ unaligned
 1420              	.LVL111:
 1421              		.loc 1 278 63 discriminator 2 view .LVU368
 1422 0016 0C46     		mov	r4, r1
 1423              	.LBB135:
 1424              	.LBB131:
  69:/home/pi/Developer/tinyusb/src/class/hid/hid_device.c ****       return i;
 1425              		.loc 1 69 8 discriminator 2 view .LVU369
 1426 0018 3978     		ldrb	r1, [r7]	@ zero_extendqisi2
 1427              	.LVL112:
  69:/home/pi/Developer/tinyusb/src/class/hid/hid_device.c ****       return i;
 1428              		.loc 1 69 8 discriminator 2 view .LVU370
 1429              	.LBE131:
 1430              	.LBE135:
 275:/home/pi/Developer/tinyusb/src/class/hid/hid_device.c ****   TU_VERIFY(request->bmRequestType_bit.recipient == TUSB_REQ_RCPT_INTERFACE);
 1431              		.loc 1 275 97 discriminator 2 view .LVU371
ARM GAS  /tmp/ccA3k9s1.s 			page 43


 1432 001a 82B0     		sub	sp, sp, #8
 1433              		.cfi_def_cfa_offset 40
 1434              		.loc 1 278 27 discriminator 2 view .LVU372
 1435 001c D2B2     		uxtb	r2, r2
 1436              	.LVL113:
 1437              	.LBB136:
 1438              	.LBI129:
  67:/home/pi/Developer/tinyusb/src/class/hid/hid_device.c ****   for (uint8_t i = 0; i < CFG_TUD_HID; i++) {
 1439              		.loc 1 67 45 is_stmt 1 discriminator 2 view .LVU373
 1440              	.LBE136:
  68:/home/pi/Developer/tinyusb/src/class/hid/hid_device.c ****     if (itf_num == _hidd_itf[i].itf_num) {
 1441              		.loc 1 68 3 discriminator 2 view .LVU374
 1442              	.LBB137:
 1443              	.LBB132:
  68:/home/pi/Developer/tinyusb/src/class/hid/hid_device.c ****     if (itf_num == _hidd_itf[i].itf_num) {
 1444              		.loc 1 68 8 discriminator 2 view .LVU375
  68:/home/pi/Developer/tinyusb/src/class/hid/hid_device.c ****     if (itf_num == _hidd_itf[i].itf_num) {
 1445              		.loc 1 68 23 discriminator 2 view .LVU376
  69:/home/pi/Developer/tinyusb/src/class/hid/hid_device.c ****       return i;
 1446              		.loc 1 69 5 discriminator 2 view .LVU377
 1447 001e 0646     		mov	r6, r0
  69:/home/pi/Developer/tinyusb/src/class/hid/hid_device.c ****       return i;
 1448              		.loc 1 69 8 is_stmt 0 discriminator 2 view .LVU378
 1449 0020 9142     		cmp	r1, r2
 1450 0022 09D0     		beq	.L149
  68:/home/pi/Developer/tinyusb/src/class/hid/hid_device.c ****     if (itf_num == _hidd_itf[i].itf_num) {
 1451              		.loc 1 68 40 is_stmt 1 view .LVU379
 1452              	.LVL114:
  68:/home/pi/Developer/tinyusb/src/class/hid/hid_device.c ****     if (itf_num == _hidd_itf[i].itf_num) {
 1453              		.loc 1 68 23 view .LVU380
  69:/home/pi/Developer/tinyusb/src/class/hid/hid_device.c ****       return i;
 1454              		.loc 1 69 5 view .LVU381
  69:/home/pi/Developer/tinyusb/src/class/hid/hid_device.c ****       return i;
 1455              		.loc 1 69 8 is_stmt 0 view .LVU382
 1456 0024 397B     		ldrb	r1, [r7, #12]	@ zero_extendqisi2
 1457 0026 9142     		cmp	r1, r2
 1458 0028 00F0E180 		beq	.L187
 1459              	.LVL115:
 1460              	.L151:
  69:/home/pi/Developer/tinyusb/src/class/hid/hid_device.c ****       return i;
 1461              		.loc 1 69 8 view .LVU383
 1462              	.LBE132:
 1463              	.LBE137:
 279:/home/pi/Developer/tinyusb/src/class/hid/hid_device.c ****   TU_VERIFY(hid_itf < CFG_TUD_HID);
 280:/home/pi/Developer/tinyusb/src/class/hid/hid_device.c ****   hidd_interface_t *p_hid = &_hidd_itf[hid_itf];
 281:/home/pi/Developer/tinyusb/src/class/hid/hid_device.c ****   hidd_epbuf_t *p_epbuf = &_hidd_epbuf[hid_itf];
 282:/home/pi/Developer/tinyusb/src/class/hid/hid_device.c **** 
 283:/home/pi/Developer/tinyusb/src/class/hid/hid_device.c ****   if (request->bmRequestType_bit.type == TUSB_REQ_TYPE_STANDARD) {
 284:/home/pi/Developer/tinyusb/src/class/hid/hid_device.c ****     //------------- STD Request -------------//
 285:/home/pi/Developer/tinyusb/src/class/hid/hid_device.c ****     if (stage == CONTROL_STAGE_SETUP) {
 286:/home/pi/Developer/tinyusb/src/class/hid/hid_device.c ****       uint8_t const desc_type = tu_u16_high(request->wValue);
 287:/home/pi/Developer/tinyusb/src/class/hid/hid_device.c ****       // uint8_t const desc_index = tu_u16_low (request->wValue);
 288:/home/pi/Developer/tinyusb/src/class/hid/hid_device.c **** 
 289:/home/pi/Developer/tinyusb/src/class/hid/hid_device.c ****       if (request->bRequest == TUSB_REQ_GET_DESCRIPTOR && desc_type == HID_DESC_TYPE_HID) {
 290:/home/pi/Developer/tinyusb/src/class/hid/hid_device.c ****         TU_VERIFY(p_hid->hid_descriptor);
 291:/home/pi/Developer/tinyusb/src/class/hid/hid_device.c ****         TU_VERIFY(tud_control_xfer(rhport, request, (void *)(uintptr_t)p_hid->hid_descriptor, p_hid
 292:/home/pi/Developer/tinyusb/src/class/hid/hid_device.c ****       } else if (request->bRequest == TUSB_REQ_GET_DESCRIPTOR && desc_type == HID_DESC_TYPE_REPORT)
ARM GAS  /tmp/ccA3k9s1.s 			page 44


 293:/home/pi/Developer/tinyusb/src/class/hid/hid_device.c ****         uint8_t const *desc_report = tud_hid_descriptor_report_cb(hid_itf);
 294:/home/pi/Developer/tinyusb/src/class/hid/hid_device.c ****         tud_control_xfer(rhport, request, (void *)(uintptr_t)desc_report, p_hid->report_desc_len);
 295:/home/pi/Developer/tinyusb/src/class/hid/hid_device.c ****       } else {
 296:/home/pi/Developer/tinyusb/src/class/hid/hid_device.c ****         return false; // stall unsupported request
 297:/home/pi/Developer/tinyusb/src/class/hid/hid_device.c ****       }
 298:/home/pi/Developer/tinyusb/src/class/hid/hid_device.c ****     }
 299:/home/pi/Developer/tinyusb/src/class/hid/hid_device.c ****   } else if (request->bmRequestType_bit.type == TUSB_REQ_TYPE_CLASS) {
 300:/home/pi/Developer/tinyusb/src/class/hid/hid_device.c ****     //------------- Class Specific Request -------------//
 301:/home/pi/Developer/tinyusb/src/class/hid/hid_device.c ****     switch (request->bRequest) {
 1464              		.loc 1 301 20 view .LVU384
 1465 002c 0020     		movs	r0, #0
 1466              	.LVL116:
 1467              	.L132:
 302:/home/pi/Developer/tinyusb/src/class/hid/hid_device.c ****       case HID_REQ_CONTROL_GET_REPORT:
 303:/home/pi/Developer/tinyusb/src/class/hid/hid_device.c ****         if (stage == CONTROL_STAGE_SETUP) {
 304:/home/pi/Developer/tinyusb/src/class/hid/hid_device.c ****           uint8_t const report_type = tu_u16_high(request->wValue);
 305:/home/pi/Developer/tinyusb/src/class/hid/hid_device.c ****           uint8_t const report_id = tu_u16_low(request->wValue);
 306:/home/pi/Developer/tinyusb/src/class/hid/hid_device.c **** 
 307:/home/pi/Developer/tinyusb/src/class/hid/hid_device.c ****           uint8_t* report_buf = p_epbuf->ctrl;
 308:/home/pi/Developer/tinyusb/src/class/hid/hid_device.c ****           uint16_t req_len = tu_min16(request->wLength, CFG_TUD_HID_EP_BUFSIZE);
 309:/home/pi/Developer/tinyusb/src/class/hid/hid_device.c ****           uint16_t xferlen = 0;
 310:/home/pi/Developer/tinyusb/src/class/hid/hid_device.c **** 
 311:/home/pi/Developer/tinyusb/src/class/hid/hid_device.c ****           // If host request a specific Report ID, add ID to as 1 byte of response
 312:/home/pi/Developer/tinyusb/src/class/hid/hid_device.c ****           if ((report_id != HID_REPORT_TYPE_INVALID) && (req_len > 1)) {
 313:/home/pi/Developer/tinyusb/src/class/hid/hid_device.c ****             *report_buf++ = report_id;
 314:/home/pi/Developer/tinyusb/src/class/hid/hid_device.c ****             req_len--;
 315:/home/pi/Developer/tinyusb/src/class/hid/hid_device.c ****             xferlen++;
 316:/home/pi/Developer/tinyusb/src/class/hid/hid_device.c ****           }
 317:/home/pi/Developer/tinyusb/src/class/hid/hid_device.c **** 
 318:/home/pi/Developer/tinyusb/src/class/hid/hid_device.c ****           xferlen += tud_hid_get_report_cb(hid_itf, report_id, (hid_report_type_t) report_type, rep
 319:/home/pi/Developer/tinyusb/src/class/hid/hid_device.c ****           TU_ASSERT(xferlen > 0);
 320:/home/pi/Developer/tinyusb/src/class/hid/hid_device.c **** 
 321:/home/pi/Developer/tinyusb/src/class/hid/hid_device.c ****           tud_control_xfer(rhport, request, p_epbuf->ctrl, xferlen);
 322:/home/pi/Developer/tinyusb/src/class/hid/hid_device.c ****         }
 323:/home/pi/Developer/tinyusb/src/class/hid/hid_device.c ****         break;
 324:/home/pi/Developer/tinyusb/src/class/hid/hid_device.c **** 
 325:/home/pi/Developer/tinyusb/src/class/hid/hid_device.c ****       case HID_REQ_CONTROL_SET_REPORT:
 326:/home/pi/Developer/tinyusb/src/class/hid/hid_device.c ****         if (stage == CONTROL_STAGE_SETUP) {
 327:/home/pi/Developer/tinyusb/src/class/hid/hid_device.c ****           TU_VERIFY(request->wLength <= CFG_TUD_HID_EP_BUFSIZE);
 328:/home/pi/Developer/tinyusb/src/class/hid/hid_device.c ****           tud_control_xfer(rhport, request, p_epbuf->ctrl, request->wLength);
 329:/home/pi/Developer/tinyusb/src/class/hid/hid_device.c ****         } else if (stage == CONTROL_STAGE_ACK) {
 330:/home/pi/Developer/tinyusb/src/class/hid/hid_device.c ****           uint8_t const report_type = tu_u16_high(request->wValue);
 331:/home/pi/Developer/tinyusb/src/class/hid/hid_device.c ****           uint8_t const report_id = tu_u16_low(request->wValue);
 332:/home/pi/Developer/tinyusb/src/class/hid/hid_device.c **** 
 333:/home/pi/Developer/tinyusb/src/class/hid/hid_device.c ****           uint8_t const* report_buf = p_epbuf->ctrl;
 334:/home/pi/Developer/tinyusb/src/class/hid/hid_device.c ****           uint16_t report_len = tu_min16(request->wLength, CFG_TUD_HID_EP_BUFSIZE);
 335:/home/pi/Developer/tinyusb/src/class/hid/hid_device.c **** 
 336:/home/pi/Developer/tinyusb/src/class/hid/hid_device.c ****           // If host request a specific Report ID, extract report ID in buffer before invoking call
 337:/home/pi/Developer/tinyusb/src/class/hid/hid_device.c ****           if ((report_id != HID_REPORT_TYPE_INVALID) && (report_len > 1) && (report_id == report_bu
 338:/home/pi/Developer/tinyusb/src/class/hid/hid_device.c ****             report_buf++;
 339:/home/pi/Developer/tinyusb/src/class/hid/hid_device.c ****             report_len--;
 340:/home/pi/Developer/tinyusb/src/class/hid/hid_device.c ****           }
 341:/home/pi/Developer/tinyusb/src/class/hid/hid_device.c **** 
 342:/home/pi/Developer/tinyusb/src/class/hid/hid_device.c ****           tud_hid_set_report_cb(hid_itf, report_id, (hid_report_type_t) report_type, report_buf, re
 343:/home/pi/Developer/tinyusb/src/class/hid/hid_device.c ****         }
 344:/home/pi/Developer/tinyusb/src/class/hid/hid_device.c ****         break;
 345:/home/pi/Developer/tinyusb/src/class/hid/hid_device.c **** 
ARM GAS  /tmp/ccA3k9s1.s 			page 45


 346:/home/pi/Developer/tinyusb/src/class/hid/hid_device.c ****       case HID_REQ_CONTROL_SET_IDLE:
 347:/home/pi/Developer/tinyusb/src/class/hid/hid_device.c ****         if (stage == CONTROL_STAGE_SETUP) {
 348:/home/pi/Developer/tinyusb/src/class/hid/hid_device.c ****           p_hid->idle_rate = tu_u16_high(request->wValue);
 349:/home/pi/Developer/tinyusb/src/class/hid/hid_device.c ****           TU_VERIFY(tud_hid_set_idle_cb(hid_itf, p_hid->idle_rate)); // stall if false
 350:/home/pi/Developer/tinyusb/src/class/hid/hid_device.c ****           tud_control_status(rhport, request);
 351:/home/pi/Developer/tinyusb/src/class/hid/hid_device.c ****         }
 352:/home/pi/Developer/tinyusb/src/class/hid/hid_device.c ****         break;
 353:/home/pi/Developer/tinyusb/src/class/hid/hid_device.c **** 
 354:/home/pi/Developer/tinyusb/src/class/hid/hid_device.c ****       case HID_REQ_CONTROL_GET_IDLE:
 355:/home/pi/Developer/tinyusb/src/class/hid/hid_device.c ****         if (stage == CONTROL_STAGE_SETUP) {
 356:/home/pi/Developer/tinyusb/src/class/hid/hid_device.c ****           // TODO idle rate of report
 357:/home/pi/Developer/tinyusb/src/class/hid/hid_device.c ****           tud_control_xfer(rhport, request, &p_hid->idle_rate, 1);
 358:/home/pi/Developer/tinyusb/src/class/hid/hid_device.c ****         }
 359:/home/pi/Developer/tinyusb/src/class/hid/hid_device.c ****         break;
 360:/home/pi/Developer/tinyusb/src/class/hid/hid_device.c **** 
 361:/home/pi/Developer/tinyusb/src/class/hid/hid_device.c ****       case HID_REQ_CONTROL_GET_PROTOCOL:
 362:/home/pi/Developer/tinyusb/src/class/hid/hid_device.c ****         if (stage == CONTROL_STAGE_SETUP) {
 363:/home/pi/Developer/tinyusb/src/class/hid/hid_device.c ****           tud_control_xfer(rhport, request, &p_hid->protocol_mode, 1);
 364:/home/pi/Developer/tinyusb/src/class/hid/hid_device.c ****         }
 365:/home/pi/Developer/tinyusb/src/class/hid/hid_device.c ****         break;
 366:/home/pi/Developer/tinyusb/src/class/hid/hid_device.c **** 
 367:/home/pi/Developer/tinyusb/src/class/hid/hid_device.c ****       case HID_REQ_CONTROL_SET_PROTOCOL:
 368:/home/pi/Developer/tinyusb/src/class/hid/hid_device.c ****         if (stage == CONTROL_STAGE_SETUP) {
 369:/home/pi/Developer/tinyusb/src/class/hid/hid_device.c ****           tud_control_status(rhport, request);
 370:/home/pi/Developer/tinyusb/src/class/hid/hid_device.c ****         } else if (stage == CONTROL_STAGE_ACK) {
 371:/home/pi/Developer/tinyusb/src/class/hid/hid_device.c ****           p_hid->protocol_mode = (uint8_t) request->wValue;
 372:/home/pi/Developer/tinyusb/src/class/hid/hid_device.c ****           tud_hid_set_protocol_cb(hid_itf, p_hid->protocol_mode);
 373:/home/pi/Developer/tinyusb/src/class/hid/hid_device.c ****         }
 374:/home/pi/Developer/tinyusb/src/class/hid/hid_device.c ****         break;
 375:/home/pi/Developer/tinyusb/src/class/hid/hid_device.c **** 
 376:/home/pi/Developer/tinyusb/src/class/hid/hid_device.c ****       default:
 377:/home/pi/Developer/tinyusb/src/class/hid/hid_device.c ****         return false; // stall unsupported request
 378:/home/pi/Developer/tinyusb/src/class/hid/hid_device.c ****     }
 379:/home/pi/Developer/tinyusb/src/class/hid/hid_device.c ****   } else {
 380:/home/pi/Developer/tinyusb/src/class/hid/hid_device.c ****     return false; // stall unsupported request
 381:/home/pi/Developer/tinyusb/src/class/hid/hid_device.c ****   }
 382:/home/pi/Developer/tinyusb/src/class/hid/hid_device.c **** 
 383:/home/pi/Developer/tinyusb/src/class/hid/hid_device.c ****   return true;
 384:/home/pi/Developer/tinyusb/src/class/hid/hid_device.c **** }
 1468              		.loc 1 384 1 view .LVU385
 1469 002e 02B0     		add	sp, sp, #8
 1470              		.cfi_def_cfa_offset 32
 1471              		@ sp needed
 1472 0030 BDE8F087 		pop	{r4, r5, r6, r7, r8, r9, r10, pc}
 1473              	.LVL117:
 1474              	.L186:
 1475              		.cfi_def_cfa_offset 0
 1476              		.cfi_restore 4
 1477              		.cfi_restore 5
 1478              		.cfi_restore 6
 1479              		.cfi_restore 7
 1480              		.cfi_restore 8
 1481              		.cfi_restore 9
 1482              		.cfi_restore 10
 1483              		.cfi_restore 14
 276:/home/pi/Developer/tinyusb/src/class/hid/hid_device.c **** 
 1484              		.loc 1 276 3 view .LVU386
ARM GAS  /tmp/ccA3k9s1.s 			page 46


 1485 0034 0020     		movs	r0, #0
 1486              	.LVL118:
 1487              		.loc 1 384 1 view .LVU387
 1488 0036 7047     		bx	lr
 1489              	.LVL119:
 1490              	.L149:
 1491              		.cfi_def_cfa_offset 40
 1492              		.cfi_offset 4, -32
 1493              		.cfi_offset 5, -28
 1494              		.cfi_offset 6, -24
 1495              		.cfi_offset 7, -20
 1496              		.cfi_offset 8, -16
 1497              		.cfi_offset 9, -12
 1498              		.cfi_offset 10, -8
 1499              		.cfi_offset 14, -4
 1500              	.LBB138:
 1501              	.LBB133:
  69:/home/pi/Developer/tinyusb/src/class/hid/hid_device.c ****       return i;
 1502              		.loc 1 69 8 view .LVU388
 1503 0038 4FF00008 		mov	r8, #0
  68:/home/pi/Developer/tinyusb/src/class/hid/hid_device.c ****     if (itf_num == _hidd_itf[i].itf_num) {
 1504              		.loc 1 68 16 view .LVU389
 1505 003c C446     		mov	ip, r8
 1506              	.LVL120:
 1507              	.L133:
  68:/home/pi/Developer/tinyusb/src/class/hid/hid_device.c ****     if (itf_num == _hidd_itf[i].itf_num) {
 1508              		.loc 1 68 16 view .LVU390
 1509              	.LBE133:
 1510              	.LBE138:
 279:/home/pi/Developer/tinyusb/src/class/hid/hid_device.c ****   hidd_interface_t *p_hid = &_hidd_itf[hid_itf];
 1511              		.loc 1 279 3 is_stmt 1 discriminator 2 view .LVU391
 280:/home/pi/Developer/tinyusb/src/class/hid/hid_device.c ****   hidd_epbuf_t *p_epbuf = &_hidd_epbuf[hid_itf];
 1512              		.loc 1 280 3 discriminator 2 view .LVU392
 281:/home/pi/Developer/tinyusb/src/class/hid/hid_device.c **** 
 1513              		.loc 1 281 3 discriminator 2 view .LVU393
 283:/home/pi/Developer/tinyusb/src/class/hid/hid_device.c ****     //------------- STD Request -------------//
 1514              		.loc 1 283 3 discriminator 2 view .LVU394
 283:/home/pi/Developer/tinyusb/src/class/hid/hid_device.c ****     //------------- STD Request -------------//
 1515              		.loc 1 283 6 is_stmt 0 discriminator 2 view .LVU395
 1516 003e 13F06003 		ands	r3, r3, #96
 1517 0042 06D1     		bne	.L135
 285:/home/pi/Developer/tinyusb/src/class/hid/hid_device.c ****       uint8_t const desc_type = tu_u16_high(request->wValue);
 1518              		.loc 1 285 5 is_stmt 1 view .LVU396
 285:/home/pi/Developer/tinyusb/src/class/hid/hid_device.c ****       uint8_t const desc_type = tu_u16_high(request->wValue);
 1519              		.loc 1 285 8 is_stmt 0 view .LVU397
 1520 0044 012C     		cmp	r4, #1
 1521 0046 00F0B880 		beq	.L188
 1522              	.L158:
 383:/home/pi/Developer/tinyusb/src/class/hid/hid_device.c **** }
 1523              		.loc 1 383 10 view .LVU398
 1524 004a 0120     		movs	r0, #1
 1525              	.LVL121:
 1526              		.loc 1 384 1 view .LVU399
 1527 004c 02B0     		add	sp, sp, #8
 1528              		.cfi_remember_state
 1529              		.cfi_def_cfa_offset 32
 1530              		@ sp needed
ARM GAS  /tmp/ccA3k9s1.s 			page 47


 1531 004e BDE8F087 		pop	{r4, r5, r6, r7, r8, r9, r10, pc}
 1532              	.LVL122:
 1533              	.L135:
 1534              		.cfi_restore_state
 299:/home/pi/Developer/tinyusb/src/class/hid/hid_device.c ****     //------------- Class Specific Request -------------//
 1535              		.loc 1 299 10 is_stmt 1 view .LVU400
 299:/home/pi/Developer/tinyusb/src/class/hid/hid_device.c ****     //------------- Class Specific Request -------------//
 1536              		.loc 1 299 13 is_stmt 0 view .LVU401
 1537 0052 202B     		cmp	r3, #32
 1538 0054 EAD1     		bne	.L151
 301:/home/pi/Developer/tinyusb/src/class/hid/hid_device.c ****       case HID_REQ_CONTROL_GET_REPORT:
 1539              		.loc 1 301 5 is_stmt 1 view .LVU402
 1540 0056 6B78     		ldrb	r3, [r5, #1]	@ zero_extendqisi2
 1541 0058 013B     		subs	r3, r3, #1
 1542 005a 0A2B     		cmp	r3, #10
 1543 005c E6D8     		bhi	.L151
 1544 005e 01A2     		adr	r2, .L138
 1545 0060 52F823F0 		ldr	pc, [r2, r3, lsl #2]
 1546              		.p2align 2
 1547              	.L138:
 1548 0064 59010000 		.word	.L143+1
 1549 0068 3D010000 		.word	.L142+1
 1550 006c 21010000 		.word	.L141+1
 1551 0070 2D000000 		.word	.L151+1
 1552 0074 2D000000 		.word	.L151+1
 1553 0078 2D000000 		.word	.L151+1
 1554 007c 2D000000 		.word	.L151+1
 1555 0080 2D000000 		.word	.L151+1
 1556 0084 D9000000 		.word	.L140+1
 1557 0088 B1000000 		.word	.L139+1
 1558 008c 91000000 		.word	.L137+1
 1559              		.p2align 1
 1560              	.L137:
 368:/home/pi/Developer/tinyusb/src/class/hid/hid_device.c ****           tud_control_status(rhport, request);
 1561              		.loc 1 368 9 view .LVU403
 368:/home/pi/Developer/tinyusb/src/class/hid/hid_device.c ****           tud_control_status(rhport, request);
 1562              		.loc 1 368 12 is_stmt 0 view .LVU404
 1563 0090 012C     		cmp	r4, #1
 1564 0092 1BD0     		beq	.L148
 370:/home/pi/Developer/tinyusb/src/class/hid/hid_device.c ****           p_hid->protocol_mode = (uint8_t) request->wValue;
 1565              		.loc 1 370 16 is_stmt 1 view .LVU405
 370:/home/pi/Developer/tinyusb/src/class/hid/hid_device.c ****           p_hid->protocol_mode = (uint8_t) request->wValue;
 1566              		.loc 1 370 19 is_stmt 0 view .LVU406
 1567 0094 032C     		cmp	r4, #3
 1568 0096 D8D1     		bne	.L158
 371:/home/pi/Developer/tinyusb/src/class/hid/hid_device.c ****           tud_hid_set_protocol_cb(hid_itf, p_hid->protocol_mode);
 1569              		.loc 1 371 11 is_stmt 1 view .LVU407
 371:/home/pi/Developer/tinyusb/src/class/hid/hid_device.c ****           tud_hid_set_protocol_cb(hid_itf, p_hid->protocol_mode);
 1570              		.loc 1 371 51 is_stmt 0 view .LVU408
 1571 0098 6988     		ldrh	r1, [r5, #2]	@ unaligned
 371:/home/pi/Developer/tinyusb/src/class/hid/hid_device.c ****           tud_hid_set_protocol_cb(hid_itf, p_hid->protocol_mode);
 1572              		.loc 1 371 32 view .LVU409
 1573 009a 08EB4808 		add	r8, r8, r8, lsl #1
 372:/home/pi/Developer/tinyusb/src/class/hid/hid_device.c ****         }
 1574              		.loc 1 372 11 view .LVU410
 1575 009e 6046     		mov	r0, ip
 1576              	.LVL123:
ARM GAS  /tmp/ccA3k9s1.s 			page 48


 371:/home/pi/Developer/tinyusb/src/class/hid/hid_device.c ****           tud_hid_set_protocol_cb(hid_itf, p_hid->protocol_mode);
 1577              		.loc 1 371 34 view .LVU411
 1578 00a0 C9B2     		uxtb	r1, r1
 371:/home/pi/Developer/tinyusb/src/class/hid/hid_device.c ****           tud_hid_set_protocol_cb(hid_itf, p_hid->protocol_mode);
 1579              		.loc 1 371 32 view .LVU412
 1580 00a2 07EB8807 		add	r7, r7, r8, lsl #2
 1581 00a6 B971     		strb	r1, [r7, #6]
 372:/home/pi/Developer/tinyusb/src/class/hid/hid_device.c ****         }
 1582              		.loc 1 372 11 is_stmt 1 view .LVU413
 1583 00a8 FFF7FEFF 		bl	tud_hid_set_protocol_cb
 1584              	.LVL124:
 383:/home/pi/Developer/tinyusb/src/class/hid/hid_device.c **** }
 1585              		.loc 1 383 10 is_stmt 0 view .LVU414
 1586 00ac 0120     		movs	r0, #1
 1587 00ae BEE7     		b	.L132
 1588              	.LVL125:
 1589              	.L139:
 347:/home/pi/Developer/tinyusb/src/class/hid/hid_device.c ****           p_hid->idle_rate = tu_u16_high(request->wValue);
 1590              		.loc 1 347 9 is_stmt 1 view .LVU415
 347:/home/pi/Developer/tinyusb/src/class/hid/hid_device.c ****           p_hid->idle_rate = tu_u16_high(request->wValue);
 1591              		.loc 1 347 12 is_stmt 0 view .LVU416
 1592 00b0 012C     		cmp	r4, #1
 1593 00b2 CAD1     		bne	.L158
 348:/home/pi/Developer/tinyusb/src/class/hid/hid_device.c ****           TU_VERIFY(tud_hid_set_idle_cb(hid_itf, p_hid->idle_rate)); // stall if false
 1594              		.loc 1 348 11 is_stmt 1 view .LVU417
 1595              	.LVL126:
 1596              	.LBB139:
 1597              	.LBI139:
 196:/home/pi/Developer/tinyusb/src/common/tusb_common.h **** TU_ATTR_ALWAYS_INLINE static inline uint8_t tu_u16_low (uint16_t ui16) { return TU_U16_LOW(ui16); }
 1598              		.loc 2 196 45 view .LVU418
 1599              	.LBB140:
 196:/home/pi/Developer/tinyusb/src/common/tusb_common.h **** TU_ATTR_ALWAYS_INLINE static inline uint8_t tu_u16_low (uint16_t ui16) { return TU_U16_LOW(ui16); }
 1600              		.loc 2 196 74 view .LVU419
 196:/home/pi/Developer/tinyusb/src/common/tusb_common.h **** TU_ATTR_ALWAYS_INLINE static inline uint8_t tu_u16_low (uint16_t ui16) { return TU_U16_LOW(ui16); }
 1601              		.loc 2 196 81 is_stmt 0 view .LVU420
 1602 00b4 6988     		ldrh	r1, [r5, #2]	@ unaligned
 1603              	.LBE140:
 1604              	.LBE139:
 348:/home/pi/Developer/tinyusb/src/class/hid/hid_device.c ****           TU_VERIFY(tud_hid_set_idle_cb(hid_itf, p_hid->idle_rate)); // stall if false
 1605              		.loc 1 348 28 view .LVU421
 1606 00b6 08EB4808 		add	r8, r8, r8, lsl #1
 349:/home/pi/Developer/tinyusb/src/class/hid/hid_device.c ****           tud_control_status(rhport, request);
 1607              		.loc 1 349 11 view .LVU422
 1608 00ba 6046     		mov	r0, ip
 1609              	.LVL127:
 348:/home/pi/Developer/tinyusb/src/class/hid/hid_device.c ****           TU_VERIFY(tud_hid_set_idle_cb(hid_itf, p_hid->idle_rate)); // stall if false
 1610              		.loc 1 348 28 view .LVU423
 1611 00bc 07EB8807 		add	r7, r7, r8, lsl #2
 1612              	.LBB142:
 1613              	.LBB141:
 196:/home/pi/Developer/tinyusb/src/common/tusb_common.h **** TU_ATTR_ALWAYS_INLINE static inline uint8_t tu_u16_low (uint16_t ui16) { return TU_U16_LOW(ui16); }
 1614              		.loc 2 196 81 view .LVU424
 1615 00c0 090A     		lsrs	r1, r1, #8
 1616              	.LVL128:
 196:/home/pi/Developer/tinyusb/src/common/tusb_common.h **** TU_ATTR_ALWAYS_INLINE static inline uint8_t tu_u16_low (uint16_t ui16) { return TU_U16_LOW(ui16); }
 1617              		.loc 2 196 81 view .LVU425
 1618              	.LBE141:
ARM GAS  /tmp/ccA3k9s1.s 			page 49


 1619              	.LBE142:
 348:/home/pi/Developer/tinyusb/src/class/hid/hid_device.c ****           TU_VERIFY(tud_hid_set_idle_cb(hid_itf, p_hid->idle_rate)); // stall if false
 1620              		.loc 1 348 28 view .LVU426
 1621 00c2 F971     		strb	r1, [r7, #7]
 349:/home/pi/Developer/tinyusb/src/class/hid/hid_device.c ****           tud_control_status(rhport, request);
 1622              		.loc 1 349 11 is_stmt 1 view .LVU427
 349:/home/pi/Developer/tinyusb/src/class/hid/hid_device.c ****           tud_control_status(rhport, request);
 1623              		.loc 1 349 11 view .LVU428
 1624 00c4 FFF7FEFF 		bl	tud_hid_set_idle_cb
 1625              	.LVL129:
 349:/home/pi/Developer/tinyusb/src/class/hid/hid_device.c ****           tud_control_status(rhport, request);
 1626              		.loc 1 349 11 is_stmt 0 view .LVU429
 1627 00c8 0028     		cmp	r0, #0
 1628 00ca AFD0     		beq	.L151
 1629              	.L148:
 349:/home/pi/Developer/tinyusb/src/class/hid/hid_device.c ****           tud_control_status(rhport, request);
 1630              		.loc 1 349 11 is_stmt 1 discriminator 2 view .LVU430
 350:/home/pi/Developer/tinyusb/src/class/hid/hid_device.c ****         }
 1631              		.loc 1 350 11 discriminator 2 view .LVU431
 1632 00cc 2946     		mov	r1, r5
 1633 00ce 3046     		mov	r0, r6
 1634 00d0 FFF7FEFF 		bl	tud_control_status
 1635              	.LVL130:
 383:/home/pi/Developer/tinyusb/src/class/hid/hid_device.c **** }
 1636              		.loc 1 383 10 is_stmt 0 discriminator 2 view .LVU432
 1637 00d4 0120     		movs	r0, #1
 1638 00d6 AAE7     		b	.L132
 1639              	.LVL131:
 1640              	.L140:
 326:/home/pi/Developer/tinyusb/src/class/hid/hid_device.c ****           TU_VERIFY(request->wLength <= CFG_TUD_HID_EP_BUFSIZE);
 1641              		.loc 1 326 9 is_stmt 1 view .LVU433
 326:/home/pi/Developer/tinyusb/src/class/hid/hid_device.c ****           TU_VERIFY(request->wLength <= CFG_TUD_HID_EP_BUFSIZE);
 1642              		.loc 1 326 12 is_stmt 0 view .LVU434
 1643 00d8 012C     		cmp	r4, #1
 1644 00da 00F09A80 		beq	.L189
 329:/home/pi/Developer/tinyusb/src/class/hid/hid_device.c ****           uint8_t const report_type = tu_u16_high(request->wValue);
 1645              		.loc 1 329 16 is_stmt 1 view .LVU435
 329:/home/pi/Developer/tinyusb/src/class/hid/hid_device.c ****           uint8_t const report_type = tu_u16_high(request->wValue);
 1646              		.loc 1 329 19 is_stmt 0 view .LVU436
 1647 00de 032C     		cmp	r4, #3
 1648 00e0 B3D1     		bne	.L158
 1649              	.LBB143:
 330:/home/pi/Developer/tinyusb/src/class/hid/hid_device.c ****           uint8_t const report_id = tu_u16_low(request->wValue);
 1650              		.loc 1 330 11 is_stmt 1 view .LVU437
 330:/home/pi/Developer/tinyusb/src/class/hid/hid_device.c ****           uint8_t const report_id = tu_u16_low(request->wValue);
 1651              		.loc 1 330 39 is_stmt 0 view .LVU438
 1652 00e2 6988     		ldrh	r1, [r5, #2]	@ unaligned
 1653              	.LVL132:
 1654              	.LBB144:
 1655              	.LBI144:
 196:/home/pi/Developer/tinyusb/src/common/tusb_common.h **** TU_ATTR_ALWAYS_INLINE static inline uint8_t tu_u16_low (uint16_t ui16) { return TU_U16_LOW(ui16); }
 1656              		.loc 2 196 45 is_stmt 1 view .LVU439
 1657              	.LBB145:
 196:/home/pi/Developer/tinyusb/src/common/tusb_common.h **** TU_ATTR_ALWAYS_INLINE static inline uint8_t tu_u16_low (uint16_t ui16) { return TU_U16_LOW(ui16); }
 1658              		.loc 2 196 74 view .LVU440
 1659              	.LBE145:
 1660              	.LBE144:
ARM GAS  /tmp/ccA3k9s1.s 			page 50


 333:/home/pi/Developer/tinyusb/src/class/hid/hid_device.c ****           uint16_t report_len = tu_min16(request->wLength, CFG_TUD_HID_EP_BUFSIZE);
 1661              		.loc 1 333 26 is_stmt 0 view .LVU441
 1662 00e4 08EB4808 		add	r8, r8, r8, lsl #1
 334:/home/pi/Developer/tinyusb/src/class/hid/hid_device.c **** 
 1663              		.loc 1 334 33 view .LVU442
 1664 00e8 ED88     		ldrh	r5, [r5, #6]	@ unaligned
 1665              	.LVL133:
 1666              	.LBB147:
 1667              	.LBB146:
 196:/home/pi/Developer/tinyusb/src/common/tusb_common.h **** TU_ATTR_ALWAYS_INLINE static inline uint8_t tu_u16_low (uint16_t ui16) { return TU_U16_LOW(ui16); }
 1668              		.loc 2 196 81 view .LVU443
 1669 00ea 0A0A     		lsrs	r2, r1, #8
 1670              	.LVL134:
 196:/home/pi/Developer/tinyusb/src/common/tusb_common.h **** TU_ATTR_ALWAYS_INLINE static inline uint8_t tu_u16_low (uint16_t ui16) { return TU_U16_LOW(ui16); }
 1671              		.loc 2 196 81 view .LVU444
 1672              	.LBE146:
 1673              	.LBE147:
 331:/home/pi/Developer/tinyusb/src/class/hid/hid_device.c **** 
 1674              		.loc 1 331 11 is_stmt 1 view .LVU445
 1675              	.LBB148:
 1676              	.LBI148:
 197:/home/pi/Developer/tinyusb/src/common/tusb_common.h **** 
 1677              		.loc 2 197 45 view .LVU446
 1678              	.LBB149:
 197:/home/pi/Developer/tinyusb/src/common/tusb_common.h **** 
 1679              		.loc 2 197 74 view .LVU447
 197:/home/pi/Developer/tinyusb/src/common/tusb_common.h **** 
 1680              		.loc 2 197 74 is_stmt 0 view .LVU448
 1681              	.LBE149:
 1682              	.LBE148:
 333:/home/pi/Developer/tinyusb/src/class/hid/hid_device.c ****           uint16_t report_len = tu_min16(request->wLength, CFG_TUD_HID_EP_BUFSIZE);
 1683              		.loc 1 333 11 is_stmt 1 view .LVU449
 333:/home/pi/Developer/tinyusb/src/class/hid/hid_device.c ****           uint16_t report_len = tu_min16(request->wLength, CFG_TUD_HID_EP_BUFSIZE);
 1684              		.loc 1 333 26 is_stmt 0 view .LVU450
 1685 00ec 5648     		ldr	r0, .L191+4
 1686              	.LVL135:
 1687              	.LBB150:
 1688              	.LBB151:
 206:/home/pi/Developer/tinyusb/src/common/tusb_common.h **** TU_ATTR_ALWAYS_INLINE static inline uint32_t tu_min32 (uint32_t x, uint32_t y) { return (x < y) ? x
 1689              		.loc 2 206 101 view .LVU451
 1690 00ee 082D     		cmp	r5, #8
 1691 00f0 2C46     		mov	r4, r5
 1692              	.LBE151:
 1693              	.LBE150:
 333:/home/pi/Developer/tinyusb/src/class/hid/hid_device.c ****           uint16_t report_len = tu_min16(request->wLength, CFG_TUD_HID_EP_BUFSIZE);
 1694              		.loc 1 333 26 view .LVU452
 1695 00f2 4FEAC806 		lsl	r6, r8, #3
 1696              	.LBB154:
 1697              	.LBB152:
 206:/home/pi/Developer/tinyusb/src/common/tusb_common.h **** TU_ATTR_ALWAYS_INLINE static inline uint32_t tu_min32 (uint32_t x, uint32_t y) { return (x < y) ? x
 1698              		.loc 2 206 101 view .LVU453
 1699 00f6 28BF     		it	cs
 1700 00f8 0824     		movcs	r4, #8
 1701              	.LBE152:
 1702              	.LBE154:
 337:/home/pi/Developer/tinyusb/src/class/hid/hid_device.c ****             report_buf++;
 1703              		.loc 1 337 26 view .LVU454
ARM GAS  /tmp/ccA3k9s1.s 			page 51


 1704 00fa 11F0FF01 		ands	r1, r1, #255
 1705              	.LVL136:
 333:/home/pi/Developer/tinyusb/src/class/hid/hid_device.c ****           uint16_t report_len = tu_min16(request->wLength, CFG_TUD_HID_EP_BUFSIZE);
 1706              		.loc 1 333 26 view .LVU455
 1707 00fe 00EBC803 		add	r3, r0, r8, lsl #3
 1708              	.LVL137:
 334:/home/pi/Developer/tinyusb/src/class/hid/hid_device.c **** 
 1709              		.loc 1 334 11 is_stmt 1 view .LVU456
 1710              	.LBB155:
 1711              	.LBI150:
 206:/home/pi/Developer/tinyusb/src/common/tusb_common.h **** TU_ATTR_ALWAYS_INLINE static inline uint32_t tu_min32 (uint32_t x, uint32_t y) { return (x < y) ? x
 1712              		.loc 2 206 46 view .LVU457
 1713              	.LBB153:
 206:/home/pi/Developer/tinyusb/src/common/tusb_common.h **** TU_ATTR_ALWAYS_INLINE static inline uint32_t tu_min32 (uint32_t x, uint32_t y) { return (x < y) ? x
 1714              		.loc 2 206 82 view .LVU458
 206:/home/pi/Developer/tinyusb/src/common/tusb_common.h **** TU_ATTR_ALWAYS_INLINE static inline uint32_t tu_min32 (uint32_t x, uint32_t y) { return (x < y) ? x
 1715              		.loc 2 206 82 is_stmt 0 view .LVU459
 1716              	.LBE153:
 1717              	.LBE155:
 337:/home/pi/Developer/tinyusb/src/class/hid/hid_device.c ****             report_buf++;
 1718              		.loc 1 337 11 is_stmt 1 view .LVU460
 337:/home/pi/Developer/tinyusb/src/class/hid/hid_device.c ****             report_buf++;
 1719              		.loc 1 337 14 is_stmt 0 view .LVU461
 1720 0102 07D0     		beq	.L147
 1721 0104 012D     		cmp	r5, #1
 1722 0106 05D9     		bls	.L147
 337:/home/pi/Developer/tinyusb/src/class/hid/hid_device.c ****             report_buf++;
 1723              		.loc 1 337 74 discriminator 1 view .LVU462
 1724 0108 805D     		ldrb	r0, [r0, r6]	@ zero_extendqisi2
 1725 010a 8842     		cmp	r0, r1
 1726 010c 02D1     		bne	.L147
 338:/home/pi/Developer/tinyusb/src/class/hid/hid_device.c ****             report_len--;
 1727              		.loc 1 338 13 is_stmt 1 view .LVU463
 339:/home/pi/Developer/tinyusb/src/class/hid/hid_device.c ****           }
 1728              		.loc 1 339 23 is_stmt 0 view .LVU464
 1729 010e 013C     		subs	r4, r4, #1
 1730              	.LVL138:
 338:/home/pi/Developer/tinyusb/src/class/hid/hid_device.c ****             report_len--;
 1731              		.loc 1 338 23 view .LVU465
 1732 0110 0133     		adds	r3, r3, #1
 1733              	.LVL139:
 339:/home/pi/Developer/tinyusb/src/class/hid/hid_device.c ****           }
 1734              		.loc 1 339 13 is_stmt 1 view .LVU466
 339:/home/pi/Developer/tinyusb/src/class/hid/hid_device.c ****           }
 1735              		.loc 1 339 23 is_stmt 0 view .LVU467
 1736 0112 A4B2     		uxth	r4, r4
 1737              	.LVL140:
 1738              	.L147:
 342:/home/pi/Developer/tinyusb/src/class/hid/hid_device.c ****         }
 1739              		.loc 1 342 11 is_stmt 1 view .LVU468
 1740 0114 6046     		mov	r0, ip
 1741 0116 0094     		str	r4, [sp]
 1742              	.LVL141:
 342:/home/pi/Developer/tinyusb/src/class/hid/hid_device.c ****         }
 1743              		.loc 1 342 11 is_stmt 0 view .LVU469
 1744 0118 FFF7FEFF 		bl	tud_hid_set_report_cb
 1745              	.LVL142:
ARM GAS  /tmp/ccA3k9s1.s 			page 52


 342:/home/pi/Developer/tinyusb/src/class/hid/hid_device.c ****         }
 1746              		.loc 1 342 11 view .LVU470
 1747              	.LBE143:
 383:/home/pi/Developer/tinyusb/src/class/hid/hid_device.c **** }
 1748              		.loc 1 383 10 view .LVU471
 1749 011c 0120     		movs	r0, #1
 1750 011e 86E7     		b	.L132
 1751              	.LVL143:
 1752              	.L141:
 362:/home/pi/Developer/tinyusb/src/class/hid/hid_device.c ****           tud_control_xfer(rhport, request, &p_hid->protocol_mode, 1);
 1753              		.loc 1 362 9 is_stmt 1 view .LVU472
 362:/home/pi/Developer/tinyusb/src/class/hid/hid_device.c ****           tud_control_xfer(rhport, request, &p_hid->protocol_mode, 1);
 1754              		.loc 1 362 12 is_stmt 0 view .LVU473
 1755 0120 012C     		cmp	r4, #1
 1756 0122 92D1     		bne	.L158
 363:/home/pi/Developer/tinyusb/src/class/hid/hid_device.c ****         }
 1757              		.loc 1 363 11 is_stmt 1 view .LVU474
 363:/home/pi/Developer/tinyusb/src/class/hid/hid_device.c ****         }
 1758              		.loc 1 363 45 is_stmt 0 view .LVU475
 1759 0124 08EB4808 		add	r8, r8, r8, lsl #1
 363:/home/pi/Developer/tinyusb/src/class/hid/hid_device.c ****         }
 1760              		.loc 1 363 11 view .LVU476
 1761 0128 2946     		mov	r1, r5
 1762 012a 3046     		mov	r0, r6
 1763              	.LVL144:
 363:/home/pi/Developer/tinyusb/src/class/hid/hid_device.c ****         }
 1764              		.loc 1 363 11 view .LVU477
 1765 012c 2346     		mov	r3, r4
 363:/home/pi/Developer/tinyusb/src/class/hid/hid_device.c ****         }
 1766              		.loc 1 363 45 view .LVU478
 1767 012e 07EB8802 		add	r2, r7, r8, lsl #2
 363:/home/pi/Developer/tinyusb/src/class/hid/hid_device.c ****         }
 1768              		.loc 1 363 11 view .LVU479
 1769 0132 0632     		adds	r2, r2, #6
 1770 0134 FFF7FEFF 		bl	tud_control_xfer
 1771              	.LVL145:
 383:/home/pi/Developer/tinyusb/src/class/hid/hid_device.c **** }
 1772              		.loc 1 383 10 view .LVU480
 1773 0138 2046     		mov	r0, r4
 1774 013a 78E7     		b	.L132
 1775              	.LVL146:
 1776              	.L142:
 355:/home/pi/Developer/tinyusb/src/class/hid/hid_device.c ****           // TODO idle rate of report
 1777              		.loc 1 355 9 is_stmt 1 view .LVU481
 355:/home/pi/Developer/tinyusb/src/class/hid/hid_device.c ****           // TODO idle rate of report
 1778              		.loc 1 355 12 is_stmt 0 view .LVU482
 1779 013c 012C     		cmp	r4, #1
 1780 013e 84D1     		bne	.L158
 357:/home/pi/Developer/tinyusb/src/class/hid/hid_device.c ****         }
 1781              		.loc 1 357 11 is_stmt 1 view .LVU483
 357:/home/pi/Developer/tinyusb/src/class/hid/hid_device.c ****         }
 1782              		.loc 1 357 45 is_stmt 0 view .LVU484
 1783 0140 08EB4808 		add	r8, r8, r8, lsl #1
 357:/home/pi/Developer/tinyusb/src/class/hid/hid_device.c ****         }
 1784              		.loc 1 357 11 view .LVU485
 1785 0144 2946     		mov	r1, r5
 1786 0146 3046     		mov	r0, r6
ARM GAS  /tmp/ccA3k9s1.s 			page 53


 1787              	.LVL147:
 357:/home/pi/Developer/tinyusb/src/class/hid/hid_device.c ****         }
 1788              		.loc 1 357 11 view .LVU486
 1789 0148 2346     		mov	r3, r4
 357:/home/pi/Developer/tinyusb/src/class/hid/hid_device.c ****         }
 1790              		.loc 1 357 45 view .LVU487
 1791 014a 07EB8802 		add	r2, r7, r8, lsl #2
 357:/home/pi/Developer/tinyusb/src/class/hid/hid_device.c ****         }
 1792              		.loc 1 357 11 view .LVU488
 1793 014e 0732     		adds	r2, r2, #7
 1794 0150 FFF7FEFF 		bl	tud_control_xfer
 1795              	.LVL148:
 383:/home/pi/Developer/tinyusb/src/class/hid/hid_device.c **** }
 1796              		.loc 1 383 10 view .LVU489
 1797 0154 2046     		mov	r0, r4
 1798 0156 6AE7     		b	.L132
 1799              	.LVL149:
 1800              	.L143:
 303:/home/pi/Developer/tinyusb/src/class/hid/hid_device.c ****           uint8_t const report_type = tu_u16_high(request->wValue);
 1801              		.loc 1 303 9 is_stmt 1 view .LVU490
 303:/home/pi/Developer/tinyusb/src/class/hid/hid_device.c ****           uint8_t const report_type = tu_u16_high(request->wValue);
 1802              		.loc 1 303 12 is_stmt 0 view .LVU491
 1803 0158 012C     		cmp	r4, #1
 1804 015a 7FF476AF 		bne	.L158
 1805              	.LBB156:
 304:/home/pi/Developer/tinyusb/src/class/hid/hid_device.c ****           uint8_t const report_id = tu_u16_low(request->wValue);
 1806              		.loc 1 304 11 is_stmt 1 view .LVU492
 308:/home/pi/Developer/tinyusb/src/class/hid/hid_device.c ****           uint16_t xferlen = 0;
 1807              		.loc 1 308 30 is_stmt 0 view .LVU493
 1808 015e B5F80690 		ldrh	r9, [r5, #6]	@ unaligned
 307:/home/pi/Developer/tinyusb/src/class/hid/hid_device.c ****           uint16_t req_len = tu_min16(request->wLength, CFG_TUD_HID_EP_BUFSIZE);
 1809              		.loc 1 307 20 view .LVU494
 1810 0162 08EB4808 		add	r8, r8, r8, lsl #1
 304:/home/pi/Developer/tinyusb/src/class/hid/hid_device.c ****           uint8_t const report_id = tu_u16_low(request->wValue);
 1811              		.loc 1 304 39 view .LVU495
 1812 0166 6B88     		ldrh	r3, [r5, #2]	@ unaligned
 1813              	.LVL150:
 1814              	.LBB157:
 1815              	.LBI157:
 196:/home/pi/Developer/tinyusb/src/common/tusb_common.h **** TU_ATTR_ALWAYS_INLINE static inline uint8_t tu_u16_low (uint16_t ui16) { return TU_U16_LOW(ui16); }
 1816              		.loc 2 196 45 is_stmt 1 view .LVU496
 1817              	.LBB158:
 196:/home/pi/Developer/tinyusb/src/common/tusb_common.h **** TU_ATTR_ALWAYS_INLINE static inline uint8_t tu_u16_low (uint16_t ui16) { return TU_U16_LOW(ui16); }
 1818              		.loc 2 196 74 view .LVU497
 1819              	.LBE158:
 1820              	.LBE157:
 1821              	.LBB160:
 1822              	.LBB161:
 206:/home/pi/Developer/tinyusb/src/common/tusb_common.h **** TU_ATTR_ALWAYS_INLINE static inline uint32_t tu_min32 (uint32_t x, uint32_t y) { return (x < y) ? x
 1823              		.loc 2 206 101 is_stmt 0 view .LVU498
 1824 0168 4846     		mov	r0, r9
 1825              	.LVL151:
 206:/home/pi/Developer/tinyusb/src/common/tusb_common.h **** TU_ATTR_ALWAYS_INLINE static inline uint32_t tu_min32 (uint32_t x, uint32_t y) { return (x < y) ? x
 1826              		.loc 2 206 101 view .LVU499
 1827              	.LBE161:
 1828              	.LBE160:
 307:/home/pi/Developer/tinyusb/src/class/hid/hid_device.c ****           uint16_t req_len = tu_min16(request->wLength, CFG_TUD_HID_EP_BUFSIZE);
ARM GAS  /tmp/ccA3k9s1.s 			page 54


 1829              		.loc 1 307 20 view .LVU500
 1830 016a 374F     		ldr	r7, .L191+4
 1831 016c 4FEAC80A 		lsl	r10, r8, #3
 1832              	.LBB164:
 1833              	.LBB162:
 206:/home/pi/Developer/tinyusb/src/common/tusb_common.h **** TU_ATTR_ALWAYS_INLINE static inline uint32_t tu_min32 (uint32_t x, uint32_t y) { return (x < y) ? x
 1834              		.loc 2 206 101 view .LVU501
 1835 0170 0828     		cmp	r0, #8
 1836              	.LBE162:
 1837              	.LBE164:
 1838              	.LBB165:
 1839              	.LBB159:
 196:/home/pi/Developer/tinyusb/src/common/tusb_common.h **** TU_ATTR_ALWAYS_INLINE static inline uint8_t tu_u16_low (uint16_t ui16) { return TU_U16_LOW(ui16); }
 1840              		.loc 2 196 81 view .LVU502
 1841 0172 4FEA1322 		lsr	r2, r3, #8
 1842              	.LVL152:
 196:/home/pi/Developer/tinyusb/src/common/tusb_common.h **** TU_ATTR_ALWAYS_INLINE static inline uint8_t tu_u16_low (uint16_t ui16) { return TU_U16_LOW(ui16); }
 1843              		.loc 2 196 81 view .LVU503
 1844              	.LBE159:
 1845              	.LBE165:
 305:/home/pi/Developer/tinyusb/src/class/hid/hid_device.c **** 
 1846              		.loc 1 305 11 is_stmt 1 view .LVU504
 1847              	.LBB166:
 1848              	.LBI166:
 197:/home/pi/Developer/tinyusb/src/common/tusb_common.h **** 
 1849              		.loc 2 197 45 view .LVU505
 1850              	.LBB167:
 197:/home/pi/Developer/tinyusb/src/common/tusb_common.h **** 
 1851              		.loc 2 197 74 view .LVU506
 197:/home/pi/Developer/tinyusb/src/common/tusb_common.h **** 
 1852              		.loc 2 197 74 is_stmt 0 view .LVU507
 1853              	.LBE167:
 1854              	.LBE166:
 307:/home/pi/Developer/tinyusb/src/class/hid/hid_device.c ****           uint16_t req_len = tu_min16(request->wLength, CFG_TUD_HID_EP_BUFSIZE);
 1855              		.loc 1 307 11 is_stmt 1 view .LVU508
 307:/home/pi/Developer/tinyusb/src/class/hid/hid_device.c ****           uint16_t req_len = tu_min16(request->wLength, CFG_TUD_HID_EP_BUFSIZE);
 1856              		.loc 1 307 20 is_stmt 0 view .LVU509
 1857 0176 07EBC808 		add	r8, r7, r8, lsl #3
 1858              	.LVL153:
 308:/home/pi/Developer/tinyusb/src/class/hid/hid_device.c ****           uint16_t xferlen = 0;
 1859              		.loc 1 308 11 is_stmt 1 view .LVU510
 1860              	.LBB168:
 1861              	.LBI160:
 206:/home/pi/Developer/tinyusb/src/common/tusb_common.h **** TU_ATTR_ALWAYS_INLINE static inline uint32_t tu_min32 (uint32_t x, uint32_t y) { return (x < y) ? x
 1862              		.loc 2 206 46 view .LVU511
 1863              	.LBB163:
 206:/home/pi/Developer/tinyusb/src/common/tusb_common.h **** TU_ATTR_ALWAYS_INLINE static inline uint32_t tu_min32 (uint32_t x, uint32_t y) { return (x < y) ? x
 1864              		.loc 2 206 82 view .LVU512
 206:/home/pi/Developer/tinyusb/src/common/tusb_common.h **** TU_ATTR_ALWAYS_INLINE static inline uint32_t tu_min32 (uint32_t x, uint32_t y) { return (x < y) ? x
 1865              		.loc 2 206 101 is_stmt 0 view .LVU513
 1866 017a 28BF     		it	cs
 1867 017c 0820     		movcs	r0, #8
 1868              	.LVL154:
 206:/home/pi/Developer/tinyusb/src/common/tusb_common.h **** TU_ATTR_ALWAYS_INLINE static inline uint32_t tu_min32 (uint32_t x, uint32_t y) { return (x < y) ? x
 1869              		.loc 2 206 101 view .LVU514
 1870              	.LBE163:
 1871              	.LBE168:
ARM GAS  /tmp/ccA3k9s1.s 			page 55


 309:/home/pi/Developer/tinyusb/src/class/hid/hid_device.c **** 
 1872              		.loc 1 309 11 is_stmt 1 view .LVU515
 312:/home/pi/Developer/tinyusb/src/class/hid/hid_device.c ****             *report_buf++ = report_id;
 1873              		.loc 1 312 11 view .LVU516
 312:/home/pi/Developer/tinyusb/src/class/hid/hid_device.c ****             *report_buf++ = report_id;
 1874              		.loc 1 312 26 is_stmt 0 view .LVU517
 1875 017e 13F0FF01 		ands	r1, r3, #255
 312:/home/pi/Developer/tinyusb/src/class/hid/hid_device.c ****             *report_buf++ = report_id;
 1876              		.loc 1 312 14 view .LVU518
 1877 0182 5CD0     		beq	.L153
 1878 0184 B9F1010F 		cmp	r9, #1
 1879 0188 59D9     		bls	.L153
 313:/home/pi/Developer/tinyusb/src/class/hid/hid_device.c ****             req_len--;
 1880              		.loc 1 313 13 is_stmt 1 view .LVU519
 314:/home/pi/Developer/tinyusb/src/class/hid/hid_device.c ****             xferlen++;
 1881              		.loc 1 314 20 is_stmt 0 view .LVU520
 1882 018a 0138     		subs	r0, r0, #1
 1883              	.LVL155:
 313:/home/pi/Developer/tinyusb/src/class/hid/hid_device.c ****             req_len--;
 1884              		.loc 1 313 24 view .LVU521
 1885 018c 08F10103 		add	r3, r8, #1
 1886              	.LVL156:
 314:/home/pi/Developer/tinyusb/src/class/hid/hid_device.c ****             xferlen++;
 1887              		.loc 1 314 13 is_stmt 1 view .LVU522
 313:/home/pi/Developer/tinyusb/src/class/hid/hid_device.c ****             req_len--;
 1888              		.loc 1 313 27 is_stmt 0 view .LVU523
 1889 0190 07F80A10 		strb	r1, [r7, r10]
 1890              	.LVL157:
 314:/home/pi/Developer/tinyusb/src/class/hid/hid_device.c ****             xferlen++;
 1891              		.loc 1 314 20 view .LVU524
 1892 0194 80B2     		uxth	r0, r0
 1893              	.LVL158:
 315:/home/pi/Developer/tinyusb/src/class/hid/hid_device.c ****           }
 1894              		.loc 1 315 13 is_stmt 1 view .LVU525
 1895              	.L144:
 318:/home/pi/Developer/tinyusb/src/class/hid/hid_device.c ****           TU_ASSERT(xferlen > 0);
 1896              		.loc 1 318 11 view .LVU526
 318:/home/pi/Developer/tinyusb/src/class/hid/hid_device.c ****           TU_ASSERT(xferlen > 0);
 1897              		.loc 1 318 22 is_stmt 0 view .LVU527
 1898 0196 0090     		str	r0, [sp]
 1899 0198 6046     		mov	r0, ip
 1900              	.LVL159:
 318:/home/pi/Developer/tinyusb/src/class/hid/hid_device.c ****           TU_ASSERT(xferlen > 0);
 1901              		.loc 1 318 22 view .LVU528
 1902 019a FFF7FEFF 		bl	tud_hid_get_report_cb
 1903              	.LVL160:
 318:/home/pi/Developer/tinyusb/src/class/hid/hid_device.c ****           TU_ASSERT(xferlen > 0);
 1904              		.loc 1 318 19 view .LVU529
 1905 019e 2318     		adds	r3, r4, r0
 1906 01a0 9BB2     		uxth	r3, r3
 1907              	.LVL161:
 319:/home/pi/Developer/tinyusb/src/class/hid/hid_device.c **** 
 1908              		.loc 1 319 11 is_stmt 1 view .LVU530
 319:/home/pi/Developer/tinyusb/src/class/hid/hid_device.c **** 
 1909              		.loc 1 319 11 view .LVU531
 1910 01a2 002B     		cmp	r3, #0
 1911 01a4 44D1     		bne	.L145
ARM GAS  /tmp/ccA3k9s1.s 			page 56


 319:/home/pi/Developer/tinyusb/src/class/hid/hid_device.c **** 
 1912              		.loc 1 319 11 discriminator 1 view .LVU532
 319:/home/pi/Developer/tinyusb/src/class/hid/hid_device.c **** 
 1913              		.loc 1 319 11 discriminator 1 view .LVU533
 319:/home/pi/Developer/tinyusb/src/class/hid/hid_device.c **** 
 1914              		.loc 1 319 11 discriminator 1 view .LVU534
 319:/home/pi/Developer/tinyusb/src/class/hid/hid_device.c **** 
 1915              		.loc 1 319 11 discriminator 1 view .LVU535
 1916              	.LBB169:
 319:/home/pi/Developer/tinyusb/src/class/hid/hid_device.c **** 
 1917              		.loc 1 319 11 discriminator 1 view .LVU536
 1918              	.LVL162:
 319:/home/pi/Developer/tinyusb/src/class/hid/hid_device.c **** 
 1919              		.loc 1 319 11 discriminator 1 view .LVU537
 1920 01a6 4FF0E022 		mov	r2, #-536813568
 1921 01aa D2F8F02D 		ldr	r2, [r2, #3568]
 1922 01ae D207     		lsls	r2, r2, #31
 1923 01b0 7FF53CAF 		bpl	.L151
 319:/home/pi/Developer/tinyusb/src/class/hid/hid_device.c **** 
 1924              		.loc 1 319 11 discriminator 3 view .LVU538
 1925              		.syntax unified
 1926              	@ 319 "/home/pi/Developer/tinyusb/src/class/hid/hid_device.c" 1
 1927 01b4 00BE     		BKPT #0
 1928              	
 1929              	@ 0 "" 2
 1930              		.thumb
 1931              		.syntax unified
 1932              	.LBE169:
 1933 01b6 1846     		mov	r0, r3
 1934 01b8 39E7     		b	.L132
 1935              	.LVL163:
 1936              	.L188:
 319:/home/pi/Developer/tinyusb/src/class/hid/hid_device.c **** 
 1937              		.loc 1 319 11 is_stmt 0 discriminator 3 view .LVU539
 1938              	.LBE156:
 1939              	.LBB170:
 286:/home/pi/Developer/tinyusb/src/class/hid/hid_device.c ****       // uint8_t const desc_index = tu_u16_low (request->wValue);
 1940              		.loc 1 286 7 is_stmt 1 view .LVU540
 1941              	.LBB171:
 1942              	.LBI171:
 196:/home/pi/Developer/tinyusb/src/common/tusb_common.h **** TU_ATTR_ALWAYS_INLINE static inline uint8_t tu_u16_low (uint16_t ui16) { return TU_U16_LOW(ui16); }
 1943              		.loc 2 196 45 view .LVU541
 1944              	.LBB172:
 196:/home/pi/Developer/tinyusb/src/common/tusb_common.h **** TU_ATTR_ALWAYS_INLINE static inline uint8_t tu_u16_low (uint16_t ui16) { return TU_U16_LOW(ui16); }
 1945              		.loc 2 196 74 view .LVU542
 196:/home/pi/Developer/tinyusb/src/common/tusb_common.h **** TU_ATTR_ALWAYS_INLINE static inline uint8_t tu_u16_low (uint16_t ui16) { return TU_U16_LOW(ui16); }
 1946              		.loc 2 196 74 is_stmt 0 view .LVU543
 1947              	.LBE172:
 1948              	.LBE171:
 289:/home/pi/Developer/tinyusb/src/class/hid/hid_device.c ****         TU_VERIFY(p_hid->hid_descriptor);
 1949              		.loc 1 289 7 is_stmt 1 view .LVU544
 289:/home/pi/Developer/tinyusb/src/class/hid/hid_device.c ****         TU_VERIFY(p_hid->hid_descriptor);
 1950              		.loc 1 289 10 is_stmt 0 view .LVU545
 1951 01ba 6B78     		ldrb	r3, [r5, #1]	@ zero_extendqisi2
 1952 01bc 062B     		cmp	r3, #6
 1953 01be 7FF435AF 		bne	.L151
 1954              	.LBB174:
ARM GAS  /tmp/ccA3k9s1.s 			page 57


 1955              	.LBB173:
 196:/home/pi/Developer/tinyusb/src/common/tusb_common.h **** TU_ATTR_ALWAYS_INLINE static inline uint8_t tu_u16_low (uint16_t ui16) { return TU_U16_LOW(ui16); }
 1956              		.loc 2 196 81 discriminator 1 view .LVU546
 1957 01c2 6B88     		ldrh	r3, [r5, #2]	@ unaligned
 1958 01c4 1B0A     		lsrs	r3, r3, #8
 1959              	.LBE173:
 1960              	.LBE174:
 289:/home/pi/Developer/tinyusb/src/class/hid/hid_device.c ****         TU_VERIFY(p_hid->hid_descriptor);
 1961              		.loc 1 289 56 discriminator 1 view .LVU547
 1962 01c6 212B     		cmp	r3, #33
 1963 01c8 13D0     		beq	.L190
 292:/home/pi/Developer/tinyusb/src/class/hid/hid_device.c ****         uint8_t const *desc_report = tud_hid_descriptor_report_cb(hid_itf);
 1964              		.loc 1 292 14 is_stmt 1 discriminator 1 view .LVU548
 292:/home/pi/Developer/tinyusb/src/class/hid/hid_device.c ****         uint8_t const *desc_report = tud_hid_descriptor_report_cb(hid_itf);
 1965              		.loc 1 292 63 is_stmt 0 discriminator 1 view .LVU549
 1966 01ca 222B     		cmp	r3, #34
 1967 01cc 7FF42EAF 		bne	.L151
 1968              	.LBB175:
 293:/home/pi/Developer/tinyusb/src/class/hid/hid_device.c ****         tud_control_xfer(rhport, request, (void *)(uintptr_t)desc_report, p_hid->report_desc_len);
 1969              		.loc 1 293 9 is_stmt 1 view .LVU550
 294:/home/pi/Developer/tinyusb/src/class/hid/hid_device.c ****       } else {
 1970              		.loc 1 294 9 is_stmt 0 view .LVU551
 1971 01d0 08EB4808 		add	r8, r8, r8, lsl #1
 293:/home/pi/Developer/tinyusb/src/class/hid/hid_device.c ****         tud_control_xfer(rhport, request, (void *)(uintptr_t)desc_report, p_hid->report_desc_len);
 1972              		.loc 1 293 38 view .LVU552
 1973 01d4 6046     		mov	r0, ip
 1974              	.LVL164:
 293:/home/pi/Developer/tinyusb/src/class/hid/hid_device.c ****         tud_control_xfer(rhport, request, (void *)(uintptr_t)desc_report, p_hid->report_desc_len);
 1975              		.loc 1 293 38 view .LVU553
 1976 01d6 FFF7FEFF 		bl	tud_hid_descriptor_report_cb
 1977              	.LVL165:
 294:/home/pi/Developer/tinyusb/src/class/hid/hid_device.c ****       } else {
 1978              		.loc 1 294 9 view .LVU554
 1979 01da 2946     		mov	r1, r5
 1980 01dc 07EB8807 		add	r7, r7, r8, lsl #2
 293:/home/pi/Developer/tinyusb/src/class/hid/hid_device.c ****         tud_control_xfer(rhport, request, (void *)(uintptr_t)desc_report, p_hid->report_desc_len);
 1981              		.loc 1 293 38 view .LVU555
 1982 01e0 0246     		mov	r2, r0
 1983              	.LVL166:
 294:/home/pi/Developer/tinyusb/src/class/hid/hid_device.c ****       } else {
 1984              		.loc 1 294 9 is_stmt 1 view .LVU556
 1985 01e2 3046     		mov	r0, r6
 1986              	.LVL167:
 294:/home/pi/Developer/tinyusb/src/class/hid/hid_device.c ****       } else {
 1987              		.loc 1 294 9 is_stmt 0 view .LVU557
 1988 01e4 BB88     		ldrh	r3, [r7, #4]
 1989 01e6 FFF7FEFF 		bl	tud_control_xfer
 1990              	.LVL168:
 294:/home/pi/Developer/tinyusb/src/class/hid/hid_device.c ****       } else {
 1991              		.loc 1 294 9 view .LVU558
 1992              	.LBE175:
 1993              	.LBE170:
 383:/home/pi/Developer/tinyusb/src/class/hid/hid_device.c **** }
 1994              		.loc 1 383 10 view .LVU559
 1995 01ea 2046     		mov	r0, r4
 1996              	.LBB176:
 292:/home/pi/Developer/tinyusb/src/class/hid/hid_device.c ****         uint8_t const *desc_report = tud_hid_descriptor_report_cb(hid_itf);
ARM GAS  /tmp/ccA3k9s1.s 			page 58


 1997              		.loc 1 292 101 view .LVU560
 1998 01ec 1FE7     		b	.L132
 1999              	.LVL169:
 2000              	.L187:
 292:/home/pi/Developer/tinyusb/src/class/hid/hid_device.c ****         uint8_t const *desc_report = tud_hid_descriptor_report_cb(hid_itf);
 2001              		.loc 1 292 101 view .LVU561
 2002              	.LBE176:
 2003              	.LBB177:
 2004              	.LBB134:
  69:/home/pi/Developer/tinyusb/src/class/hid/hid_device.c ****       return i;
 2005              		.loc 1 69 8 view .LVU562
 2006 01ee E046     		mov	r8, ip
 2007 01f0 25E7     		b	.L133
 2008              	.LVL170:
 2009              	.L190:
  69:/home/pi/Developer/tinyusb/src/class/hid/hid_device.c ****       return i;
 2010              		.loc 1 69 8 view .LVU563
 2011              	.LBE134:
 2012              	.LBE177:
 2013              	.LBB178:
 290:/home/pi/Developer/tinyusb/src/class/hid/hid_device.c ****         TU_VERIFY(tud_control_xfer(rhport, request, (void *)(uintptr_t)p_hid->hid_descriptor, p_hid
 2014              		.loc 1 290 9 is_stmt 1 view .LVU564
 290:/home/pi/Developer/tinyusb/src/class/hid/hid_device.c ****         TU_VERIFY(tud_control_xfer(rhport, request, (void *)(uintptr_t)p_hid->hid_descriptor, p_hid
 2015              		.loc 1 290 9 view .LVU565
 2016 01f2 08EB4808 		add	r8, r8, r8, lsl #1
 2017 01f6 07EB8807 		add	r7, r7, r8, lsl #2
 2018 01fa BA68     		ldr	r2, [r7, #8]
 2019 01fc 002A     		cmp	r2, #0
 2020 01fe 3FF415AF 		beq	.L151
 290:/home/pi/Developer/tinyusb/src/class/hid/hid_device.c ****         TU_VERIFY(tud_control_xfer(rhport, request, (void *)(uintptr_t)p_hid->hid_descriptor, p_hid
 2021              		.loc 1 290 9 discriminator 2 view .LVU566
 291:/home/pi/Developer/tinyusb/src/class/hid/hid_device.c ****       } else if (request->bRequest == TUSB_REQ_GET_DESCRIPTOR && desc_type == HID_DESC_TYPE_REPORT)
 2022              		.loc 1 291 9 discriminator 2 view .LVU567
 291:/home/pi/Developer/tinyusb/src/class/hid/hid_device.c ****       } else if (request->bRequest == TUSB_REQ_GET_DESCRIPTOR && desc_type == HID_DESC_TYPE_REPORT)
 2023              		.loc 1 291 9 discriminator 2 view .LVU568
 2024 0202 1378     		ldrb	r3, [r2]	@ zero_extendqisi2
 2025 0204 2946     		mov	r1, r5
 2026 0206 3046     		mov	r0, r6
 2027              	.LVL171:
 291:/home/pi/Developer/tinyusb/src/class/hid/hid_device.c ****       } else if (request->bRequest == TUSB_REQ_GET_DESCRIPTOR && desc_type == HID_DESC_TYPE_REPORT)
 2028              		.loc 1 291 9 is_stmt 0 discriminator 2 view .LVU569
 2029              	.LBE178:
 2030              		.loc 1 384 1 discriminator 2 view .LVU570
 2031 0208 02B0     		add	sp, sp, #8
 2032              		.cfi_remember_state
 2033              		.cfi_def_cfa_offset 32
 2034              		@ sp needed
 2035 020a BDE8F047 		pop	{r4, r5, r6, r7, r8, r9, r10, lr}
 2036              		.cfi_restore 14
 2037              		.cfi_restore 10
 2038              		.cfi_restore 9
 2039              		.cfi_restore 8
 2040              		.cfi_restore 7
 2041              		.cfi_restore 6
 2042              		.cfi_restore 5
 2043              		.cfi_restore 4
 2044              		.cfi_def_cfa_offset 0
ARM GAS  /tmp/ccA3k9s1.s 			page 59


 2045              	.LVL172:
 2046              	.LBB179:
 291:/home/pi/Developer/tinyusb/src/class/hid/hid_device.c ****       } else if (request->bRequest == TUSB_REQ_GET_DESCRIPTOR && desc_type == HID_DESC_TYPE_REPORT)
 2047              		.loc 1 291 9 discriminator 2 view .LVU571
 2048 020e FFF7FEBF 		b	tud_control_xfer
 2049              	.LVL173:
 2050              	.L189:
 2051              		.cfi_restore_state
 291:/home/pi/Developer/tinyusb/src/class/hid/hid_device.c ****       } else if (request->bRequest == TUSB_REQ_GET_DESCRIPTOR && desc_type == HID_DESC_TYPE_REPORT)
 2052              		.loc 1 291 9 discriminator 2 view .LVU572
 2053              	.LBE179:
 327:/home/pi/Developer/tinyusb/src/class/hid/hid_device.c ****           tud_control_xfer(rhport, request, p_epbuf->ctrl, request->wLength);
 2054              		.loc 1 327 11 is_stmt 1 view .LVU573
 327:/home/pi/Developer/tinyusb/src/class/hid/hid_device.c ****           tud_control_xfer(rhport, request, p_epbuf->ctrl, request->wLength);
 2055              		.loc 1 327 11 view .LVU574
 2056 0212 EB88     		ldrh	r3, [r5, #6]	@ unaligned
 2057 0214 082B     		cmp	r3, #8
 2058 0216 3FF609AF 		bhi	.L151
 327:/home/pi/Developer/tinyusb/src/class/hid/hid_device.c ****           tud_control_xfer(rhport, request, p_epbuf->ctrl, request->wLength);
 2059              		.loc 1 327 11 discriminator 2 view .LVU575
 328:/home/pi/Developer/tinyusb/src/class/hid/hid_device.c ****         } else if (stage == CONTROL_STAGE_ACK) {
 2060              		.loc 1 328 11 discriminator 2 view .LVU576
 328:/home/pi/Developer/tinyusb/src/class/hid/hid_device.c ****         } else if (stage == CONTROL_STAGE_ACK) {
 2061              		.loc 1 328 52 is_stmt 0 discriminator 2 view .LVU577
 2062 021a 08EB4808 		add	r8, r8, r8, lsl #1
 2063 021e 0A4A     		ldr	r2, .L191+4
 328:/home/pi/Developer/tinyusb/src/class/hid/hid_device.c ****         } else if (stage == CONTROL_STAGE_ACK) {
 2064              		.loc 1 328 11 discriminator 2 view .LVU578
 2065 0220 2946     		mov	r1, r5
 2066 0222 3046     		mov	r0, r6
 2067              	.LVL174:
 328:/home/pi/Developer/tinyusb/src/class/hid/hid_device.c ****         } else if (stage == CONTROL_STAGE_ACK) {
 2068              		.loc 1 328 11 discriminator 2 view .LVU579
 2069 0224 02EBC802 		add	r2, r2, r8, lsl #3
 2070 0228 FFF7FEFF 		bl	tud_control_xfer
 2071              	.LVL175:
 383:/home/pi/Developer/tinyusb/src/class/hid/hid_device.c **** }
 2072              		.loc 1 383 10 discriminator 2 view .LVU580
 2073 022c 2046     		mov	r0, r4
 2074 022e FEE6     		b	.L132
 2075              	.LVL176:
 2076              	.L145:
 2077              	.LBB180:
 319:/home/pi/Developer/tinyusb/src/class/hid/hid_device.c **** 
 2078              		.loc 1 319 11 is_stmt 1 discriminator 2 view .LVU581
 321:/home/pi/Developer/tinyusb/src/class/hid/hid_device.c ****         }
 2079              		.loc 1 321 11 discriminator 2 view .LVU582
 2080 0230 4246     		mov	r2, r8
 2081 0232 2946     		mov	r1, r5
 2082 0234 3046     		mov	r0, r6
 2083 0236 FFF7FEFF 		bl	tud_control_xfer
 2084              	.LVL177:
 321:/home/pi/Developer/tinyusb/src/class/hid/hid_device.c ****         }
 2085              		.loc 1 321 11 is_stmt 0 discriminator 2 view .LVU583
 2086              	.LBE180:
 383:/home/pi/Developer/tinyusb/src/class/hid/hid_device.c **** }
 2087              		.loc 1 383 10 discriminator 2 view .LVU584
ARM GAS  /tmp/ccA3k9s1.s 			page 60


 2088 023a 0120     		movs	r0, #1
 2089 023c F7E6     		b	.L132
 2090              	.LVL178:
 2091              	.L153:
 2092              	.LBB181:
 307:/home/pi/Developer/tinyusb/src/class/hid/hid_device.c ****           uint16_t req_len = tu_min16(request->wLength, CFG_TUD_HID_EP_BUFSIZE);
 2093              		.loc 1 307 20 view .LVU585
 2094 023e 4346     		mov	r3, r8
 2095              	.LVL179:
 309:/home/pi/Developer/tinyusb/src/class/hid/hid_device.c **** 
 2096              		.loc 1 309 20 view .LVU586
 2097 0240 0024     		movs	r4, #0
 2098 0242 A8E7     		b	.L144
 2099              	.L192:
 2100              		.align	2
 2101              	.L191:
 2102 0244 00000000 		.word	.LANCHOR0
 2103 0248 00000000 		.word	.LANCHOR1
 2104              	.LBE181:
 2105              		.cfi_endproc
 2106              	.LFE439:
 2108              		.section	.text.hidd_xfer_cb,"ax",%progbits
 2109              		.align	1
 2110              		.p2align 2,,3
 2111              		.global	hidd_xfer_cb
 2112              		.syntax unified
 2113              		.thumb
 2114              		.thumb_func
 2115              		.fpu fpv5-d16
 2117              	hidd_xfer_cb:
 2118              	.LVL180:
 2119              	.LFB440:
 385:/home/pi/Developer/tinyusb/src/class/hid/hid_device.c **** 
 386:/home/pi/Developer/tinyusb/src/class/hid/hid_device.c **** bool hidd_xfer_cb(uint8_t rhport, uint8_t ep_addr, xfer_result_t result, uint32_t xferred_bytes) {
 2120              		.loc 1 386 98 is_stmt 1 view -0
 2121              		.cfi_startproc
 2122              		@ args = 0, pretend = 0, frame = 0
 2123              		@ frame_needed = 0, uses_anonymous_args = 0
 387:/home/pi/Developer/tinyusb/src/class/hid/hid_device.c ****   uint8_t instance;
 2124              		.loc 1 387 3 view .LVU588
 388:/home/pi/Developer/tinyusb/src/class/hid/hid_device.c ****   hidd_interface_t *p_hid;
 2125              		.loc 1 388 3 view .LVU589
 389:/home/pi/Developer/tinyusb/src/class/hid/hid_device.c **** 
 390:/home/pi/Developer/tinyusb/src/class/hid/hid_device.c ****   // Identify which interface to use
 391:/home/pi/Developer/tinyusb/src/class/hid/hid_device.c ****   for (instance = 0; instance < CFG_TUD_HID; instance++) {
 2126              		.loc 1 391 3 view .LVU590
 2127              		.loc 1 391 22 view .LVU591
 392:/home/pi/Developer/tinyusb/src/class/hid/hid_device.c ****     p_hid = &_hidd_itf[instance];
 2128              		.loc 1 392 5 view .LVU592
 393:/home/pi/Developer/tinyusb/src/class/hid/hid_device.c ****     if ((ep_addr == p_hid->ep_out) || (ep_addr == p_hid->ep_in)) {
 2129              		.loc 1 393 5 view .LVU593
 386:/home/pi/Developer/tinyusb/src/class/hid/hid_device.c ****   uint8_t instance;
 2130              		.loc 1 386 98 is_stmt 0 view .LVU594
 2131 0000 F0B5     		push	{r4, r5, r6, r7, lr}
 2132              		.cfi_def_cfa_offset 20
 2133              		.cfi_offset 4, -20
 2134              		.cfi_offset 5, -16
ARM GAS  /tmp/ccA3k9s1.s 			page 61


 2135              		.cfi_offset 6, -12
 2136              		.cfi_offset 7, -8
 2137              		.cfi_offset 14, -4
 2138              		.loc 1 393 26 view .LVU595
 2139 0002 2F4E     		ldr	r6, .L215
 386:/home/pi/Developer/tinyusb/src/class/hid/hid_device.c ****   uint8_t instance;
 2140              		.loc 1 386 98 view .LVU596
 2141 0004 83B0     		sub	sp, sp, #12
 2142              		.cfi_def_cfa_offset 32
 386:/home/pi/Developer/tinyusb/src/class/hid/hid_device.c ****   uint8_t instance;
 2143              		.loc 1 386 98 view .LVU597
 2144 0006 0546     		mov	r5, r0
 2145              		.loc 1 393 8 view .LVU598
 2146 0008 B478     		ldrb	r4, [r6, #2]	@ zero_extendqisi2
 2147 000a 8C42     		cmp	r4, r1
 2148 000c 13D0     		beq	.L194
 2149              		.loc 1 393 36 view .LVU599
 2150 000e 7078     		ldrb	r0, [r6, #1]	@ zero_extendqisi2
 2151              	.LVL181:
 2152              		.loc 1 393 36 view .LVU600
 2153 0010 8842     		cmp	r0, r1
 2154 0012 31D0     		beq	.L206
 391:/home/pi/Developer/tinyusb/src/class/hid/hid_device.c ****     p_hid = &_hidd_itf[instance];
 2155              		.loc 1 391 46 is_stmt 1 view .LVU601
 2156              	.LVL182:
 391:/home/pi/Developer/tinyusb/src/class/hid/hid_device.c ****     p_hid = &_hidd_itf[instance];
 2157              		.loc 1 391 22 view .LVU602
 392:/home/pi/Developer/tinyusb/src/class/hid/hid_device.c ****     if ((ep_addr == p_hid->ep_out) || (ep_addr == p_hid->ep_in)) {
 2158              		.loc 1 392 5 view .LVU603
 2159              		.loc 1 393 5 view .LVU604
 2160              		.loc 1 393 8 is_stmt 0 view .LVU605
 2161 0014 B07B     		ldrb	r0, [r6, #14]	@ zero_extendqisi2
 2162 0016 8842     		cmp	r0, r1
 2163 0018 49D0     		beq	.L214
 2164              		.loc 1 393 36 view .LVU606
 2165 001a 707B     		ldrb	r0, [r6, #13]	@ zero_extendqisi2
 2166 001c 8842     		cmp	r0, r1
 2167 001e 4BD0     		beq	.L207
 391:/home/pi/Developer/tinyusb/src/class/hid/hid_device.c ****     p_hid = &_hidd_itf[instance];
 2168              		.loc 1 391 46 is_stmt 1 view .LVU607
 2169              	.LVL183:
 391:/home/pi/Developer/tinyusb/src/class/hid/hid_device.c ****     p_hid = &_hidd_itf[instance];
 2170              		.loc 1 391 22 view .LVU608
 394:/home/pi/Developer/tinyusb/src/class/hid/hid_device.c ****       break;
 395:/home/pi/Developer/tinyusb/src/class/hid/hid_device.c ****     }
 396:/home/pi/Developer/tinyusb/src/class/hid/hid_device.c ****   }
 397:/home/pi/Developer/tinyusb/src/class/hid/hid_device.c ****   TU_ASSERT(instance < CFG_TUD_HID);
 2171              		.loc 1 397 3 view .LVU609
 2172              		.loc 1 397 3 view .LVU610
 2173              		.loc 1 397 3 view .LVU611
 2174              		.loc 1 397 3 view .LVU612
 2175              		.loc 1 397 3 view .LVU613
 2176              		.loc 1 397 3 view .LVU614
 2177              	.LBB182:
 2178              		.loc 1 397 3 view .LVU615
 2179              		.loc 1 397 3 view .LVU616
 2180 0020 4FF0E023 		mov	r3, #-536813568
ARM GAS  /tmp/ccA3k9s1.s 			page 62


 2181              	.LVL184:
 2182              		.loc 1 397 3 is_stmt 0 view .LVU617
 2183 0024 D3F8F03D 		ldr	r3, [r3, #3568]
 2184 0028 DA07     		lsls	r2, r3, #31
 2185              	.LVL185:
 2186              		.loc 1 397 3 view .LVU618
 2187 002a 02D4     		bmi	.L198
 2188              	.LVL186:
 2189              	.L213:
 2190              		.loc 1 397 3 view .LVU619
 2191              	.LBE182:
 2192              		.loc 1 397 3 discriminator 3 view .LVU620
 2193 002c 0020     		movs	r0, #0
 2194              	.L208:
 398:/home/pi/Developer/tinyusb/src/class/hid/hid_device.c ****   hidd_epbuf_t *p_epbuf = &_hidd_epbuf[instance];
 399:/home/pi/Developer/tinyusb/src/class/hid/hid_device.c **** 
 400:/home/pi/Developer/tinyusb/src/class/hid/hid_device.c ****   if (ep_addr == p_hid->ep_in) {
 401:/home/pi/Developer/tinyusb/src/class/hid/hid_device.c ****     // Input report
 402:/home/pi/Developer/tinyusb/src/class/hid/hid_device.c ****     if (XFER_RESULT_SUCCESS == result) {
 403:/home/pi/Developer/tinyusb/src/class/hid/hid_device.c ****       tud_hid_report_complete_cb(instance, p_epbuf->epin, (uint16_t) xferred_bytes);
 404:/home/pi/Developer/tinyusb/src/class/hid/hid_device.c ****     } else {
 405:/home/pi/Developer/tinyusb/src/class/hid/hid_device.c ****       tud_hid_report_failed_cb(instance, HID_REPORT_TYPE_INPUT, p_epbuf->epin, (uint16_t) xferred_b
 406:/home/pi/Developer/tinyusb/src/class/hid/hid_device.c ****     }
 407:/home/pi/Developer/tinyusb/src/class/hid/hid_device.c ****   } else {
 408:/home/pi/Developer/tinyusb/src/class/hid/hid_device.c ****     // Output report
 409:/home/pi/Developer/tinyusb/src/class/hid/hid_device.c ****     if (XFER_RESULT_SUCCESS == result) {
 410:/home/pi/Developer/tinyusb/src/class/hid/hid_device.c ****       tud_hid_set_report_cb(instance, 0, HID_REPORT_TYPE_OUTPUT, p_epbuf->epout, (uint16_t)xferred_
 411:/home/pi/Developer/tinyusb/src/class/hid/hid_device.c ****     } else {
 412:/home/pi/Developer/tinyusb/src/class/hid/hid_device.c ****       tud_hid_report_failed_cb(instance, HID_REPORT_TYPE_OUTPUT, p_epbuf->epout, (uint16_t) xferred
 413:/home/pi/Developer/tinyusb/src/class/hid/hid_device.c ****     }
 414:/home/pi/Developer/tinyusb/src/class/hid/hid_device.c **** 
 415:/home/pi/Developer/tinyusb/src/class/hid/hid_device.c ****     // prepare for new transfer
 416:/home/pi/Developer/tinyusb/src/class/hid/hid_device.c ****     TU_ASSERT(usbd_edpt_xfer(rhport, p_hid->ep_out, p_epbuf->epout, CFG_TUD_HID_EP_BUFSIZE, false))
 417:/home/pi/Developer/tinyusb/src/class/hid/hid_device.c ****   }
 418:/home/pi/Developer/tinyusb/src/class/hid/hid_device.c **** 
 419:/home/pi/Developer/tinyusb/src/class/hid/hid_device.c ****   return true;
 420:/home/pi/Developer/tinyusb/src/class/hid/hid_device.c **** }
 2195              		.loc 1 420 1 view .LVU621
 2196 002e 03B0     		add	sp, sp, #12
 2197              		.cfi_remember_state
 2198              		.cfi_def_cfa_offset 20
 2199              		@ sp needed
 2200 0030 F0BD     		pop	{r4, r5, r6, r7, pc}
 2201              	.LVL187:
 2202              	.L198:
 2203              		.cfi_restore_state
 2204              	.LBB183:
 397:/home/pi/Developer/tinyusb/src/class/hid/hid_device.c ****   hidd_epbuf_t *p_epbuf = &_hidd_epbuf[instance];
 2205              		.loc 1 397 3 is_stmt 1 discriminator 3 view .LVU622
 2206              		.syntax unified
 2207              	@ 397 "/home/pi/Developer/tinyusb/src/class/hid/hid_device.c" 1
 2208 0032 00BE     		BKPT #0
 2209              	
 2210              	@ 0 "" 2
 2211              		.thumb
 2212              		.syntax unified
 2213 0034 FAE7     		b	.L213
ARM GAS  /tmp/ccA3k9s1.s 			page 63


 2214              	.LVL188:
 2215              	.L194:
 397:/home/pi/Developer/tinyusb/src/class/hid/hid_device.c ****   hidd_epbuf_t *p_epbuf = &_hidd_epbuf[instance];
 2216              		.loc 1 397 3 is_stmt 0 discriminator 3 view .LVU623
 2217              	.LBE183:
 400:/home/pi/Developer/tinyusb/src/class/hid/hid_device.c ****     // Input report
 2218              		.loc 1 400 23 view .LVU624
 2219 0036 0027     		movs	r7, #0
 2220 0038 7478     		ldrb	r4, [r6, #1]	@ zero_extendqisi2
 391:/home/pi/Developer/tinyusb/src/class/hid/hid_device.c ****     p_hid = &_hidd_itf[instance];
 2221              		.loc 1 391 17 view .LVU625
 2222 003a 3846     		mov	r0, r7
 2223              	.LVL189:
 2224              	.L197:
 397:/home/pi/Developer/tinyusb/src/class/hid/hid_device.c ****   hidd_epbuf_t *p_epbuf = &_hidd_epbuf[instance];
 2225              		.loc 1 397 3 is_stmt 1 discriminator 2 view .LVU626
 398:/home/pi/Developer/tinyusb/src/class/hid/hid_device.c **** 
 2226              		.loc 1 398 3 discriminator 2 view .LVU627
 400:/home/pi/Developer/tinyusb/src/class/hid/hid_device.c ****     // Input report
 2227              		.loc 1 400 3 discriminator 2 view .LVU628
 400:/home/pi/Developer/tinyusb/src/class/hid/hid_device.c ****     // Input report
 2228              		.loc 1 400 6 is_stmt 0 discriminator 2 view .LVU629
 2229 003c A142     		cmp	r1, r4
 2230 003e 1DD0     		beq	.L205
 409:/home/pi/Developer/tinyusb/src/class/hid/hid_device.c ****       tud_hid_set_report_cb(instance, 0, HID_REPORT_TYPE_OUTPUT, p_epbuf->epout, (uint16_t)xferred_
 2231              		.loc 1 409 5 is_stmt 1 view .LVU630
 410:/home/pi/Developer/tinyusb/src/class/hid/hid_device.c ****     } else {
 2232              		.loc 1 410 7 is_stmt 0 view .LVU631
 2233 0040 9BB2     		uxth	r3, r3
 2234              	.LVL190:
 409:/home/pi/Developer/tinyusb/src/class/hid/hid_device.c ****       tud_hid_set_report_cb(instance, 0, HID_REPORT_TYPE_OUTPUT, p_epbuf->epout, (uint16_t)xferred_
 2235              		.loc 1 409 8 view .LVU632
 2236 0042 22BB     		cbnz	r2, .L202
 410:/home/pi/Developer/tinyusb/src/class/hid/hid_device.c ****     } else {
 2237              		.loc 1 410 7 is_stmt 1 view .LVU633
 410:/home/pi/Developer/tinyusb/src/class/hid/hid_device.c ****     } else {
 2238              		.loc 1 410 73 is_stmt 0 view .LVU634
 2239 0044 1F4C     		ldr	r4, .L215+4
 410:/home/pi/Developer/tinyusb/src/class/hid/hid_device.c ****     } else {
 2240              		.loc 1 410 7 view .LVU635
 2241 0046 1146     		mov	r1, r2
 2242              	.LVL191:
 410:/home/pi/Developer/tinyusb/src/class/hid/hid_device.c ****     } else {
 2243              		.loc 1 410 7 view .LVU636
 2244 0048 0093     		str	r3, [sp]
 2245 004a 0222     		movs	r2, #2
 2246              	.LVL192:
 410:/home/pi/Developer/tinyusb/src/class/hid/hid_device.c ****     } else {
 2247              		.loc 1 410 73 view .LVU637
 2248 004c 3C44     		add	r4, r4, r7
 410:/home/pi/Developer/tinyusb/src/class/hid/hid_device.c ****     } else {
 2249              		.loc 1 410 7 view .LVU638
 2250 004e 2346     		mov	r3, r4
 2251 0050 FFF7FEFF 		bl	tud_hid_set_report_cb
 2252              	.LVL193:
 2253              	.L203:
 416:/home/pi/Developer/tinyusb/src/class/hid/hid_device.c ****   }
ARM GAS  /tmp/ccA3k9s1.s 			page 64


 2254              		.loc 1 416 5 is_stmt 1 view .LVU639
 416:/home/pi/Developer/tinyusb/src/class/hid/hid_device.c ****   }
 2255              		.loc 1 416 5 view .LVU640
 2256 0054 0027     		movs	r7, #0
 2257 0056 B178     		ldrb	r1, [r6, #2]	@ zero_extendqisi2
 2258 0058 0823     		movs	r3, #8
 2259 005a 2246     		mov	r2, r4
 2260 005c 2846     		mov	r0, r5
 2261 005e 0097     		str	r7, [sp]
 2262 0060 FFF7FEFF 		bl	usbd_edpt_xfer
 2263              	.LVL194:
 2264 0064 0028     		cmp	r0, #0
 2265 0066 E2D1     		bne	.L208
 416:/home/pi/Developer/tinyusb/src/class/hid/hid_device.c ****   }
 2266              		.loc 1 416 5 discriminator 1 view .LVU641
 416:/home/pi/Developer/tinyusb/src/class/hid/hid_device.c ****   }
 2267              		.loc 1 416 5 discriminator 1 view .LVU642
 416:/home/pi/Developer/tinyusb/src/class/hid/hid_device.c ****   }
 2268              		.loc 1 416 5 discriminator 1 view .LVU643
 416:/home/pi/Developer/tinyusb/src/class/hid/hid_device.c ****   }
 2269              		.loc 1 416 5 discriminator 1 view .LVU644
 2270              	.LBB184:
 416:/home/pi/Developer/tinyusb/src/class/hid/hid_device.c ****   }
 2271              		.loc 1 416 5 discriminator 1 view .LVU645
 2272              	.LVL195:
 416:/home/pi/Developer/tinyusb/src/class/hid/hid_device.c ****   }
 2273              		.loc 1 416 5 discriminator 1 view .LVU646
 2274 0068 4FF0E023 		mov	r3, #-536813568
 2275 006c D3F8F03D 		ldr	r3, [r3, #3568]
 2276 0070 DB07     		lsls	r3, r3, #31
 2277 0072 DBD5     		bpl	.L213
 416:/home/pi/Developer/tinyusb/src/class/hid/hid_device.c ****   }
 2278              		.loc 1 416 5 discriminator 3 view .LVU647
 2279              		.syntax unified
 2280              	@ 416 "/home/pi/Developer/tinyusb/src/class/hid/hid_device.c" 1
 2281 0074 00BE     		BKPT #0
 2282              	
 2283              	@ 0 "" 2
 2284              		.thumb
 2285              		.syntax unified
 2286 0076 DAE7     		b	.L208
 2287              	.LVL196:
 2288              	.L206:
 416:/home/pi/Developer/tinyusb/src/class/hid/hid_device.c ****   }
 2289              		.loc 1 416 5 is_stmt 0 discriminator 3 view .LVU648
 2290              	.LBE184:
 393:/home/pi/Developer/tinyusb/src/class/hid/hid_device.c ****       break;
 2291              		.loc 1 393 36 view .LVU649
 2292 0078 0027     		movs	r7, #0
 391:/home/pi/Developer/tinyusb/src/class/hid/hid_device.c ****     p_hid = &_hidd_itf[instance];
 2293              		.loc 1 391 17 view .LVU650
 2294 007a 3846     		mov	r0, r7
 2295              	.LVL197:
 2296              	.L205:
 402:/home/pi/Developer/tinyusb/src/class/hid/hid_device.c ****       tud_hid_report_complete_cb(instance, p_epbuf->epin, (uint16_t) xferred_bytes);
 2297              		.loc 1 402 5 is_stmt 1 view .LVU651
 402:/home/pi/Developer/tinyusb/src/class/hid/hid_device.c ****       tud_hid_report_complete_cb(instance, p_epbuf->epin, (uint16_t) xferred_bytes);
ARM GAS  /tmp/ccA3k9s1.s 			page 65


 2298              		.loc 1 402 8 is_stmt 0 view .LVU652
 2299 007c 72B9     		cbnz	r2, .L201
 403:/home/pi/Developer/tinyusb/src/class/hid/hid_device.c ****     } else {
 2300              		.loc 1 403 7 is_stmt 1 view .LVU653
 403:/home/pi/Developer/tinyusb/src/class/hid/hid_device.c ****     } else {
 2301              		.loc 1 403 51 is_stmt 0 view .LVU654
 2302 007e 1249     		ldr	r1, .L215+8
 2303              	.LVL198:
 403:/home/pi/Developer/tinyusb/src/class/hid/hid_device.c ****     } else {
 2304              		.loc 1 403 7 view .LVU655
 2305 0080 9AB2     		uxth	r2, r3
 2306              	.LVL199:
 403:/home/pi/Developer/tinyusb/src/class/hid/hid_device.c ****     } else {
 2307              		.loc 1 403 7 view .LVU656
 2308 0082 3944     		add	r1, r1, r7
 2309 0084 FFF7FEFF 		bl	tud_hid_report_complete_cb
 2310              	.LVL200:
 419:/home/pi/Developer/tinyusb/src/class/hid/hid_device.c **** }
 2311              		.loc 1 419 10 view .LVU657
 2312 0088 0120     		movs	r0, #1
 2313              		.loc 1 420 1 view .LVU658
 2314 008a 03B0     		add	sp, sp, #12
 2315              		.cfi_remember_state
 2316              		.cfi_def_cfa_offset 20
 2317              		@ sp needed
 2318 008c F0BD     		pop	{r4, r5, r6, r7, pc}
 2319              	.LVL201:
 2320              	.L202:
 2321              		.cfi_restore_state
 412:/home/pi/Developer/tinyusb/src/class/hid/hid_device.c ****     }
 2322              		.loc 1 412 7 is_stmt 1 view .LVU659
 412:/home/pi/Developer/tinyusb/src/class/hid/hid_device.c ****     }
 2323              		.loc 1 412 73 is_stmt 0 view .LVU660
 2324 008e 0D4C     		ldr	r4, .L215+4
 412:/home/pi/Developer/tinyusb/src/class/hid/hid_device.c ****     }
 2325              		.loc 1 412 7 view .LVU661
 2326 0090 0221     		movs	r1, #2
 2327              	.LVL202:
 412:/home/pi/Developer/tinyusb/src/class/hid/hid_device.c ****     }
 2328              		.loc 1 412 73 view .LVU662
 2329 0092 3C44     		add	r4, r4, r7
 412:/home/pi/Developer/tinyusb/src/class/hid/hid_device.c ****     }
 2330              		.loc 1 412 7 view .LVU663
 2331 0094 2246     		mov	r2, r4
 2332              	.LVL203:
 412:/home/pi/Developer/tinyusb/src/class/hid/hid_device.c ****     }
 2333              		.loc 1 412 7 view .LVU664
 2334 0096 FFF7FEFF 		bl	tud_hid_report_failed_cb
 2335              	.LVL204:
 412:/home/pi/Developer/tinyusb/src/class/hid/hid_device.c ****     }
 2336              		.loc 1 412 7 view .LVU665
 2337 009a DBE7     		b	.L203
 2338              	.LVL205:
 2339              	.L201:
 405:/home/pi/Developer/tinyusb/src/class/hid/hid_device.c ****     }
 2340              		.loc 1 405 7 is_stmt 1 view .LVU666
 405:/home/pi/Developer/tinyusb/src/class/hid/hid_device.c ****     }
ARM GAS  /tmp/ccA3k9s1.s 			page 66


 2341              		.loc 1 405 72 is_stmt 0 view .LVU667
 2342 009c 0A4A     		ldr	r2, .L215+8
 2343              	.LVL206:
 405:/home/pi/Developer/tinyusb/src/class/hid/hid_device.c ****     }
 2344              		.loc 1 405 7 view .LVU668
 2345 009e 9BB2     		uxth	r3, r3
 2346              	.LVL207:
 405:/home/pi/Developer/tinyusb/src/class/hid/hid_device.c ****     }
 2347              		.loc 1 405 7 view .LVU669
 2348 00a0 0121     		movs	r1, #1
 2349              	.LVL208:
 405:/home/pi/Developer/tinyusb/src/class/hid/hid_device.c ****     }
 2350              		.loc 1 405 7 view .LVU670
 2351 00a2 3A44     		add	r2, r2, r7
 2352 00a4 FFF7FEFF 		bl	tud_hid_report_failed_cb
 2353              	.LVL209:
 419:/home/pi/Developer/tinyusb/src/class/hid/hid_device.c **** }
 2354              		.loc 1 419 10 view .LVU671
 2355 00a8 0120     		movs	r0, #1
 2356              		.loc 1 420 1 view .LVU672
 2357 00aa 03B0     		add	sp, sp, #12
 2358              		.cfi_remember_state
 2359              		.cfi_def_cfa_offset 20
 2360              		@ sp needed
 2361 00ac F0BD     		pop	{r4, r5, r6, r7, pc}
 2362              	.LVL210:
 2363              	.L214:
 2364              		.cfi_restore_state
 400:/home/pi/Developer/tinyusb/src/class/hid/hid_device.c ****     // Input report
 2365              		.loc 1 400 23 view .LVU673
 2366 00ae 747B     		ldrb	r4, [r6, #13]	@ zero_extendqisi2
 2367 00b0 1827     		movs	r7, #24
 392:/home/pi/Developer/tinyusb/src/class/hid/hid_device.c ****     if ((ep_addr == p_hid->ep_out) || (ep_addr == p_hid->ep_in)) {
 2368              		.loc 1 392 11 view .LVU674
 2369 00b2 0C36     		adds	r6, r6, #12
 391:/home/pi/Developer/tinyusb/src/class/hid/hid_device.c ****     p_hid = &_hidd_itf[instance];
 2370              		.loc 1 391 54 view .LVU675
 2371 00b4 0120     		movs	r0, #1
 2372 00b6 C1E7     		b	.L197
 2373              	.L207:
 393:/home/pi/Developer/tinyusb/src/class/hid/hid_device.c ****       break;
 2374              		.loc 1 393 36 view .LVU676
 2375 00b8 1827     		movs	r7, #24
 391:/home/pi/Developer/tinyusb/src/class/hid/hid_device.c ****     p_hid = &_hidd_itf[instance];
 2376              		.loc 1 391 54 view .LVU677
 2377 00ba 0120     		movs	r0, #1
 2378              	.LVL211:
 397:/home/pi/Developer/tinyusb/src/class/hid/hid_device.c ****   hidd_epbuf_t *p_epbuf = &_hidd_epbuf[instance];
 2379              		.loc 1 397 3 is_stmt 1 view .LVU678
 398:/home/pi/Developer/tinyusb/src/class/hid/hid_device.c **** 
 2380              		.loc 1 398 3 view .LVU679
 400:/home/pi/Developer/tinyusb/src/class/hid/hid_device.c ****     // Input report
 2381              		.loc 1 400 3 view .LVU680
 2382 00bc DEE7     		b	.L205
 2383              	.L216:
 2384 00be 00BF     		.align	2
 2385              	.L215:
ARM GAS  /tmp/ccA3k9s1.s 			page 67


 2386 00c0 00000000 		.word	.LANCHOR0
 2387 00c4 10000000 		.word	.LANCHOR1+16
 2388 00c8 08000000 		.word	.LANCHOR1+8
 2389              		.cfi_endproc
 2390              	.LFE440:
 2392              		.section	.bss._hidd_epbuf,"aw",%nobits
 2393              		.align	2
 2394              		.set	.LANCHOR1,. + 0
 2397              	_hidd_epbuf:
 2398 0000 00000000 		.space	48
 2398      00000000 
 2398      00000000 
 2398      00000000 
 2398      00000000 
 2399              		.section	.bss._hidd_itf,"aw",%nobits
 2400              		.align	2
 2401              		.set	.LANCHOR0,. + 0
 2404              	_hidd_itf:
 2405 0000 00000000 		.space	24
 2405      00000000 
 2405      00000000 
 2405      00000000 
 2405      00000000 
 2406              		.text
 2407              	.Letext0:
 2408              		.file 4 "/home/pi/Developer/gcc-arm-none-eabi-10-2020-q4-major/arm-none-eabi/include/machine/_defa
 2409              		.file 5 "/home/pi/Developer/gcc-arm-none-eabi-10-2020-q4-major/arm-none-eabi/include/sys/_stdint.h
 2410              		.file 6 "/home/pi/Developer/gcc-arm-none-eabi-10-2020-q4-major/lib/gcc/arm-none-eabi/10.2.1/includ
 2411              		.file 7 "/home/pi/Developer/tinyusb/src/common/tusb_types.h"
 2412              		.file 8 "/home/pi/Developer/tinyusb/src/class/hid/hid.h"
 2413              		.file 9 "/home/pi/Developer/tinyusb/src/class/hid/hid_device.h"
 2414              		.file 10 "/home/pi/Developer/tinyusb/src/device/usbd_pvt.h"
 2415              		.file 11 "<built-in>"
ARM GAS  /tmp/ccA3k9s1.s 			page 68

