ARM GAS  /tmp/cc1gtgF4.s 			page 1


   1              		.cpu cortex-m7
   2              		.eabi_attribute 28, 1
   3              		.eabi_attribute 20, 1
   4              		.eabi_attribute 21, 1
   5              		.eabi_attribute 23, 3
   6              		.eabi_attribute 24, 1
   7              		.eabi_attribute 25, 1
   8              		.eabi_attribute 26, 1
   9              		.eabi_attribute 30, 2
  10              		.eabi_attribute 34, 1
  11              		.eabi_attribute 18, 4
  12              		.file	"TinyUsbHidExternal.cpp"
  13              		.text
  14              	.Ltext0:
  15              		.cfi_sections	.debug_frame
  16              		.section	.text._ZN5daisy9DaisySeedD2Ev,"axG",%progbits,_ZN5daisy9DaisySeedD5Ev,comdat
  17              		.align	1
  18              		.p2align 2,,3
  19              		.weak	_ZN5daisy9DaisySeedD2Ev
  20              		.arch armv7e-m
  21              		.syntax unified
  22              		.thumb
  23              		.thumb_func
  24              		.fpu fpv5-d16
  26              	_ZN5daisy9DaisySeedD2Ev:
  27              	.LVL0:
  28              	.LFB2555:
  29              		.file 1 "../../libDaisy/src/daisy_seed.h"
   1:../../libDaisy/src/daisy_seed.h **** #pragma once
   2:../../libDaisy/src/daisy_seed.h **** #ifndef DSY_SEED_H
   3:../../libDaisy/src/daisy_seed.h **** #define DSY_SEED_H
   4:../../libDaisy/src/daisy_seed.h **** 
   5:../../libDaisy/src/daisy_seed.h **** #include "daisy.h"
   6:../../libDaisy/src/daisy_seed.h **** 
   7:../../libDaisy/src/daisy_seed.h **** //Uncomment this out if you're still using the rev2 hardware
   8:../../libDaisy/src/daisy_seed.h **** //#define SEED_REV2
   9:../../libDaisy/src/daisy_seed.h **** 
  10:../../libDaisy/src/daisy_seed.h **** namespace daisy
  11:../../libDaisy/src/daisy_seed.h **** {
  12:../../libDaisy/src/daisy_seed.h **** /**
  13:../../libDaisy/src/daisy_seed.h ****    @brief This is the higher-level interface for the Daisy board. \n 
  14:../../libDaisy/src/daisy_seed.h ****     All basic peripheral configuration/initialization is setup here. \n
  15:../../libDaisy/src/daisy_seed.h **** 
  16:../../libDaisy/src/daisy_seed.h ****    @ingroup boards
  17:../../libDaisy/src/daisy_seed.h **** */
  18:../../libDaisy/src/daisy_seed.h **** class DaisySeed
  19:../../libDaisy/src/daisy_seed.h **** {
  20:../../libDaisy/src/daisy_seed.h ****   public:
  21:../../libDaisy/src/daisy_seed.h ****     DaisySeed() {}
  22:../../libDaisy/src/daisy_seed.h ****     ~DaisySeed() {}
  30              		.loc 1 22 5 view -0
  31              		.cfi_startproc
  32              		@ args = 0, pretend = 0, frame = 0
  33              		@ frame_needed = 0, uses_anonymous_args = 0
  34              		@ link register save eliminated.
  35              	.LBB80:
  36              	.LBI80:
ARM GAS  /tmp/cc1gtgF4.s 			page 2


  37              		.file 2 "../../libDaisy/src/sys/system.h"
   1:../../libDaisy/src/sys/system.h **** #ifndef DSY_SYSTEM_H
   2:../../libDaisy/src/sys/system.h **** #define DSY_SYSTEM_H
   3:../../libDaisy/src/sys/system.h **** 
   4:../../libDaisy/src/sys/system.h **** #ifndef UNIT_TEST // for unit tests, a dummy implementation is provided below
   5:../../libDaisy/src/sys/system.h **** 
   6:../../libDaisy/src/sys/system.h **** #include <cstdint>
   7:../../libDaisy/src/sys/system.h **** #include "per/tim.h"
   8:../../libDaisy/src/sys/system.h **** 
   9:../../libDaisy/src/sys/system.h **** namespace daisy
  10:../../libDaisy/src/sys/system.h **** {
  11:../../libDaisy/src/sys/system.h **** /** A handle for interacting with the Core System.
  12:../../libDaisy/src/sys/system.h ****  ** This includes the Clock tree, MPU, global DMA initialization,
  13:../../libDaisy/src/sys/system.h ****  ** cache handling, and any other necessary global initiailzation
  14:../../libDaisy/src/sys/system.h ****  **
  15:../../libDaisy/src/sys/system.h ****  ** @author shensley
  16:../../libDaisy/src/sys/system.h ****  ** @ingroup system
  17:../../libDaisy/src/sys/system.h ****  */
  18:../../libDaisy/src/sys/system.h **** class System
  19:../../libDaisy/src/sys/system.h **** {
  20:../../libDaisy/src/sys/system.h ****   public:
  21:../../libDaisy/src/sys/system.h ****     /** Contains settings for initializing the System */
  22:../../libDaisy/src/sys/system.h ****     struct Config
  23:../../libDaisy/src/sys/system.h ****     {
  24:../../libDaisy/src/sys/system.h ****         /** Specifies the system clock frequency that feeds APB/AHB clocks, etc. */
  25:../../libDaisy/src/sys/system.h ****         enum class SysClkFreq
  26:../../libDaisy/src/sys/system.h ****         {
  27:../../libDaisy/src/sys/system.h ****             FREQ_400MHZ,
  28:../../libDaisy/src/sys/system.h ****             FREQ_480MHZ,
  29:../../libDaisy/src/sys/system.h ****         };
  30:../../libDaisy/src/sys/system.h **** 
  31:../../libDaisy/src/sys/system.h ****         /** Method to call on the struct to set to defaults
  32:../../libDaisy/src/sys/system.h ****          ** CPU Freq set to 400MHz
  33:../../libDaisy/src/sys/system.h ****          ** Cache Enabled
  34:../../libDaisy/src/sys/system.h ****          ** */
  35:../../libDaisy/src/sys/system.h ****         void Defaults()
  36:../../libDaisy/src/sys/system.h ****         {
  37:../../libDaisy/src/sys/system.h ****             cpu_freq    = SysClkFreq::FREQ_400MHZ;
  38:../../libDaisy/src/sys/system.h ****             use_dcache  = true;
  39:../../libDaisy/src/sys/system.h ****             use_icache  = true;
  40:../../libDaisy/src/sys/system.h ****             skip_clocks = false;
  41:../../libDaisy/src/sys/system.h ****         }
  42:../../libDaisy/src/sys/system.h **** 
  43:../../libDaisy/src/sys/system.h ****         /** Method to call on the struct to set to boost mode:
  44:../../libDaisy/src/sys/system.h ****          ** CPU Freq set to 480MHz
  45:../../libDaisy/src/sys/system.h ****          ** Cache Enabled
  46:../../libDaisy/src/sys/system.h ****          ** */
  47:../../libDaisy/src/sys/system.h ****         void Boost()
  48:../../libDaisy/src/sys/system.h ****         {
  49:../../libDaisy/src/sys/system.h ****             cpu_freq    = SysClkFreq::FREQ_480MHZ;
  50:../../libDaisy/src/sys/system.h ****             use_dcache  = true;
  51:../../libDaisy/src/sys/system.h ****             use_icache  = true;
  52:../../libDaisy/src/sys/system.h ****             skip_clocks = false;
  53:../../libDaisy/src/sys/system.h ****         }
  54:../../libDaisy/src/sys/system.h **** 
  55:../../libDaisy/src/sys/system.h ****         SysClkFreq cpu_freq;
  56:../../libDaisy/src/sys/system.h ****         bool       use_dcache;
ARM GAS  /tmp/cc1gtgF4.s 			page 3


  57:../../libDaisy/src/sys/system.h ****         bool       use_icache;
  58:../../libDaisy/src/sys/system.h ****         bool       skip_clocks;
  59:../../libDaisy/src/sys/system.h ****     };
  60:../../libDaisy/src/sys/system.h **** 
  61:../../libDaisy/src/sys/system.h ****     /** Describes the different regions of memory available to the Daisy */
  62:../../libDaisy/src/sys/system.h ****     enum MemoryRegion
  63:../../libDaisy/src/sys/system.h ****     {
  64:../../libDaisy/src/sys/system.h ****         INTERNAL_FLASH = 0,
  65:../../libDaisy/src/sys/system.h ****         ITCMRAM,
  66:../../libDaisy/src/sys/system.h ****         DTCMRAM,
  67:../../libDaisy/src/sys/system.h ****         SRAM_D1,
  68:../../libDaisy/src/sys/system.h ****         SRAM_D2,
  69:../../libDaisy/src/sys/system.h ****         SRAM_D3,
  70:../../libDaisy/src/sys/system.h ****         SDRAM,
  71:../../libDaisy/src/sys/system.h ****         QSPI,
  72:../../libDaisy/src/sys/system.h ****         INVALID_ADDRESS,
  73:../../libDaisy/src/sys/system.h ****     };
  74:../../libDaisy/src/sys/system.h **** 
  75:../../libDaisy/src/sys/system.h ****     /** Bootloader struct for controlling bootloading parameters */
  76:../../libDaisy/src/sys/system.h ****     struct BootInfo
  77:../../libDaisy/src/sys/system.h ****     {
  78:../../libDaisy/src/sys/system.h ****         enum class Type : uint32_t
  79:../../libDaisy/src/sys/system.h ****         {
  80:../../libDaisy/src/sys/system.h ****             INVALID      = 0x00000000,
  81:../../libDaisy/src/sys/system.h ****             JUMP         = 0xDEADBEEF,
  82:../../libDaisy/src/sys/system.h ****             SKIP_TIMEOUT = 0x5AFEB007,
  83:../../libDaisy/src/sys/system.h ****             INF_TIMEOUT  = 0xB0074EFA,
  84:../../libDaisy/src/sys/system.h ****         } status;
  85:../../libDaisy/src/sys/system.h ****         uint32_t data;
  86:../../libDaisy/src/sys/system.h ****         enum class Version : uint32_t
  87:../../libDaisy/src/sys/system.h ****         {
  88:../../libDaisy/src/sys/system.h ****             LT_v6_0 = 0, // Less than v6.0
  89:../../libDaisy/src/sys/system.h ****             NONE,        // No bootloader present
  90:../../libDaisy/src/sys/system.h ****             v6_0,        // v6.0
  91:../../libDaisy/src/sys/system.h ****             v6_1,        // v6.1 or greater
  92:../../libDaisy/src/sys/system.h ****             LAST
  93:../../libDaisy/src/sys/system.h ****         } version;
  94:../../libDaisy/src/sys/system.h ****     };
  95:../../libDaisy/src/sys/system.h **** 
  96:../../libDaisy/src/sys/system.h ****     System() {}
  97:../../libDaisy/src/sys/system.h ****     ~System() {}
  38              		.loc 2 97 5 view .LVU1
  39              		.loc 2 97 5 is_stmt 0 view .LVU2
  40              	.LBE80:
  41              	.LBB81:
  42              	.LBI81:
  43              		.file 3 "../../libDaisy/src/hid/usb.h"
   1:../../libDaisy/src/hid/usb.h **** #pragma once
   2:../../libDaisy/src/hid/usb.h **** #ifndef DSY_HID_USB_H
   3:../../libDaisy/src/hid/usb.h **** #define DSY_HID_USB_H
   4:../../libDaisy/src/hid/usb.h **** #include <stdint.h>
   5:../../libDaisy/src/hid/usb.h **** #include <stdlib.h>
   6:../../libDaisy/src/hid/usb.h **** 
   7:../../libDaisy/src/hid/usb.h **** namespace daisy
   8:../../libDaisy/src/hid/usb.h **** /** @addtogroup human_interface
   9:../../libDaisy/src/hid/usb.h ****     @{
  10:../../libDaisy/src/hid/usb.h **** */
ARM GAS  /tmp/cc1gtgF4.s 			page 4


  11:../../libDaisy/src/hid/usb.h **** 
  12:../../libDaisy/src/hid/usb.h **** {
  13:../../libDaisy/src/hid/usb.h **** /** 
  14:../../libDaisy/src/hid/usb.h ****     @brief Interface for initializing and using the USB Peripherals on the daisy
  15:../../libDaisy/src/hid/usb.h ****     @author Stephen Hensley
  16:../../libDaisy/src/hid/usb.h ****     @date December 2019
  17:../../libDaisy/src/hid/usb.h **** */
  18:../../libDaisy/src/hid/usb.h **** class UsbHandle
  19:../../libDaisy/src/hid/usb.h **** {
  20:../../libDaisy/src/hid/usb.h ****   public:
  21:../../libDaisy/src/hid/usb.h ****     /** Return values for USBHandle Functions */
  22:../../libDaisy/src/hid/usb.h ****     enum class Result
  23:../../libDaisy/src/hid/usb.h ****     {
  24:../../libDaisy/src/hid/usb.h ****         OK,
  25:../../libDaisy/src/hid/usb.h ****         ERR,
  26:../../libDaisy/src/hid/usb.h ****     };
  27:../../libDaisy/src/hid/usb.h **** 
  28:../../libDaisy/src/hid/usb.h ****     /** Specified which of the two USB Peripherals to initialize. */
  29:../../libDaisy/src/hid/usb.h ****     enum UsbPeriph
  30:../../libDaisy/src/hid/usb.h ****     {
  31:../../libDaisy/src/hid/usb.h ****         FS_INTERNAL, /**< Internal pin */
  32:../../libDaisy/src/hid/usb.h ****         FS_EXTERNAL, /**< FS External D+ pin is Pin 38 (GPIO32). FS External D- pin is Pin 37 (GPIO
  33:../../libDaisy/src/hid/usb.h ****         FS_BOTH,     /**< Both */
  34:../../libDaisy/src/hid/usb.h ****     };
  35:../../libDaisy/src/hid/usb.h **** 
  36:../../libDaisy/src/hid/usb.h **** 
  37:../../libDaisy/src/hid/usb.h ****     /** Function called upon reception of a buffer */
  38:../../libDaisy/src/hid/usb.h ****     typedef void (*ReceiveCallback)(uint8_t* buff, uint32_t* len);
  39:../../libDaisy/src/hid/usb.h **** 
  40:../../libDaisy/src/hid/usb.h ****     UsbHandle() {}
  41:../../libDaisy/src/hid/usb.h **** 
  42:../../libDaisy/src/hid/usb.h ****     ~UsbHandle() {}
  44              		.loc 3 42 5 is_stmt 1 view .LVU3
  45              		.loc 3 42 5 is_stmt 0 view .LVU4
  46              	.LBE81:
  47              	.LBB82:
  48              	.LBI82:
  49              		.file 4 "../../libDaisy/src/per/adc.h"
   1:../../libDaisy/src/per/adc.h **** #pragma once
   2:../../libDaisy/src/per/adc.h **** #ifndef DSY_ADC_H
   3:../../libDaisy/src/per/adc.h **** #define DSY_ADC_H /**< Macro */
   4:../../libDaisy/src/per/adc.h **** #include <stdint.h>
   5:../../libDaisy/src/per/adc.h **** #include <stdlib.h>
   6:../../libDaisy/src/per/adc.h **** #include "daisy_core.h"
   7:../../libDaisy/src/per/adc.h **** #include "per/gpio.h"
   8:../../libDaisy/src/per/adc.h **** 
   9:../../libDaisy/src/per/adc.h **** #define DSY_ADC_MAX_CHANNELS 16 /**< Maximum number of ADC channels */
  10:../../libDaisy/src/per/adc.h **** 
  11:../../libDaisy/src/per/adc.h **** namespace daisy
  12:../../libDaisy/src/per/adc.h **** {
  13:../../libDaisy/src/per/adc.h **** /** @addtogroup per_analog
  14:../../libDaisy/src/per/adc.h ****     @{
  15:../../libDaisy/src/per/adc.h **** */
  16:../../libDaisy/src/per/adc.h **** 
  17:../../libDaisy/src/per/adc.h **** /* While there may not be many configuration options here,
  18:../../libDaisy/src/per/adc.h **** using a struct like this allows us to add more configuration
  19:../../libDaisy/src/per/adc.h **** later without breaking existing functionality.
ARM GAS  /tmp/cc1gtgF4.s 			page 5


  20:../../libDaisy/src/per/adc.h **** */
  21:../../libDaisy/src/per/adc.h **** 
  22:../../libDaisy/src/per/adc.h **** /** @brief   Configuration Structure for an ADC Channel 
  23:../../libDaisy/src/per/adc.h ****  *  @details This can be used to configure a a single input, 
  24:../../libDaisy/src/per/adc.h ****  *           or a multiplexed input, allowing up to 8 inputs on 
  25:../../libDaisy/src/per/adc.h ****  *           one channel.
  26:../../libDaisy/src/per/adc.h ****  *  @note    Sharing data lines to multiple muxes _is_ possible, but
  27:../../libDaisy/src/per/adc.h ****  *           each channel sharing data lines must be set to the maximum
  28:../../libDaisy/src/per/adc.h ****  *           number of channels, even if some multiplexers have fewer
  29:../../libDaisy/src/per/adc.h ****  *           inputs connected.
  30:../../libDaisy/src/per/adc.h **** */
  31:../../libDaisy/src/per/adc.h **** struct AdcChannelConfig
  32:../../libDaisy/src/per/adc.h **** {
  33:../../libDaisy/src/per/adc.h ****     /** Which pin to use for multiplexing */
  34:../../libDaisy/src/per/adc.h ****     enum MuxPin
  35:../../libDaisy/src/per/adc.h ****     {
  36:../../libDaisy/src/per/adc.h ****         MUX_SEL_0,    /**< & */
  37:../../libDaisy/src/per/adc.h ****         MUX_SEL_1,    /**< & */
  38:../../libDaisy/src/per/adc.h ****         MUX_SEL_2,    /**< & */
  39:../../libDaisy/src/per/adc.h ****         MUX_SEL_LAST, /**< & */
  40:../../libDaisy/src/per/adc.h ****     };
  41:../../libDaisy/src/per/adc.h **** 
  42:../../libDaisy/src/per/adc.h ****     /** \brief per channel conversion speed added to fixed time based on bitdepth, etc. */
  43:../../libDaisy/src/per/adc.h ****     enum ConversionSpeed
  44:../../libDaisy/src/per/adc.h ****     {
  45:../../libDaisy/src/per/adc.h ****         SPEED_1CYCLES_5,
  46:../../libDaisy/src/per/adc.h ****         SPEED_2CYCLES_5,
  47:../../libDaisy/src/per/adc.h ****         SPEED_8CYCLES_5,
  48:../../libDaisy/src/per/adc.h ****         SPEED_16CYCLES_5,
  49:../../libDaisy/src/per/adc.h ****         SPEED_32CYCLES_5,
  50:../../libDaisy/src/per/adc.h ****         SPEED_64CYCLES_5,
  51:../../libDaisy/src/per/adc.h ****         SPEED_387CYCLES_5,
  52:../../libDaisy/src/per/adc.h ****         SPEED_810CYCLES_5,
  53:../../libDaisy/src/per/adc.h ****     };
  54:../../libDaisy/src/per/adc.h **** 
  55:../../libDaisy/src/per/adc.h ****     /** Initializes a single ADC pin as an ADC. 
  56:../../libDaisy/src/per/adc.h ****     \param pin Pin to init.
  57:../../libDaisy/src/per/adc.h ****     \param speed conversion speed for this pin defaults to 8.5 cycles
  58:../../libDaisy/src/per/adc.h ****      */
  59:../../libDaisy/src/per/adc.h ****     void InitSingle(dsy_gpio_pin pin, ConversionSpeed speed = SPEED_8CYCLES_5);
  60:../../libDaisy/src/per/adc.h **** 
  61:../../libDaisy/src/per/adc.h ****     /** 
  62:../../libDaisy/src/per/adc.h ****     Initializes a single ADC pin as a Multiplexed ADC.
  63:../../libDaisy/src/per/adc.h ****     Requires a CD405X Multiplexer connected to the pin.
  64:../../libDaisy/src/per/adc.h ****     You only need to supply the mux pins that are required,
  65:../../libDaisy/src/per/adc.h ****     e.g. a 4052 mux would only require mux_0 and mux_1.
  66:../../libDaisy/src/per/adc.h ****     Internal Callbacks handle the pin addressing.
  67:../../libDaisy/src/per/adc.h ****     \param adc_pin &
  68:../../libDaisy/src/per/adc.h ****     \param mux_channels must be 1-8
  69:../../libDaisy/src/per/adc.h ****     \param mux_0 First mux pin
  70:../../libDaisy/src/per/adc.h ****     \param mux_1 Second mux pin
  71:../../libDaisy/src/per/adc.h ****     \param mux_2 Third mux pin
  72:../../libDaisy/src/per/adc.h ****     \param speed conversion speed for this pin defaults to 8.5 cycles
  73:../../libDaisy/src/per/adc.h ****     */
  74:../../libDaisy/src/per/adc.h ****     void InitMux(dsy_gpio_pin    adc_pin,
  75:../../libDaisy/src/per/adc.h ****                  size_t          mux_channels,
  76:../../libDaisy/src/per/adc.h ****                  dsy_gpio_pin    mux_0,
ARM GAS  /tmp/cc1gtgF4.s 			page 6


  77:../../libDaisy/src/per/adc.h ****                  dsy_gpio_pin    mux_1 = {DSY_GPIOX, 0},
  78:../../libDaisy/src/per/adc.h ****                  dsy_gpio_pin    mux_2 = {DSY_GPIOX, 0},
  79:../../libDaisy/src/per/adc.h ****                  ConversionSpeed speed = SPEED_8CYCLES_5);
  80:../../libDaisy/src/per/adc.h **** 
  81:../../libDaisy/src/per/adc.h ****     dsy_gpio        pin_;                   /**< & */
  82:../../libDaisy/src/per/adc.h ****     dsy_gpio        mux_pin_[MUX_SEL_LAST]; /**< & */
  83:../../libDaisy/src/per/adc.h ****     uint8_t         mux_channels_;          /**< & */
  84:../../libDaisy/src/per/adc.h ****     ConversionSpeed speed_;
  85:../../libDaisy/src/per/adc.h **** };
  86:../../libDaisy/src/per/adc.h **** 
  87:../../libDaisy/src/per/adc.h **** /**
  88:../../libDaisy/src/per/adc.h ****    @brief Handler for analog to digital conversion
  89:../../libDaisy/src/per/adc.h **** */
  90:../../libDaisy/src/per/adc.h **** class AdcHandle
  91:../../libDaisy/src/per/adc.h **** {
  92:../../libDaisy/src/per/adc.h ****   public:
  93:../../libDaisy/src/per/adc.h ****     /** Supported oversampling amounts */
  94:../../libDaisy/src/per/adc.h ****     enum OverSampling
  95:../../libDaisy/src/per/adc.h ****     {
  96:../../libDaisy/src/per/adc.h ****         OVS_NONE, /**< & */
  97:../../libDaisy/src/per/adc.h ****         OVS_4,    /**< & */
  98:../../libDaisy/src/per/adc.h ****         OVS_8,    /**< & */
  99:../../libDaisy/src/per/adc.h ****         OVS_16,   /**< & */
 100:../../libDaisy/src/per/adc.h ****         OVS_32,   /**< & */
 101:../../libDaisy/src/per/adc.h ****         OVS_64,   /**< & */
 102:../../libDaisy/src/per/adc.h ****         OVS_128,  /**< & */
 103:../../libDaisy/src/per/adc.h ****         OVS_256,  /**< & */
 104:../../libDaisy/src/per/adc.h ****         OVS_512,  /**< & */
 105:../../libDaisy/src/per/adc.h ****         OVS_1024, /**< & */
 106:../../libDaisy/src/per/adc.h ****         OVS_LAST, /**< & */
 107:../../libDaisy/src/per/adc.h ****     };
 108:../../libDaisy/src/per/adc.h **** 
 109:../../libDaisy/src/per/adc.h ****     AdcHandle() {}
 110:../../libDaisy/src/per/adc.h ****     ~AdcHandle() {}
  50              		.loc 4 110 5 is_stmt 1 view .LVU5
  51              		.loc 4 110 5 is_stmt 0 view .LVU6
  52              	.LBE82:
  53              	.LBB83:
  54              	.LBI83:
  55              		.file 5 "../../libDaisy/src/hid/audio.h"
   1:../../libDaisy/src/hid/audio.h **** #ifndef DSY_AUDIO_H
   2:../../libDaisy/src/hid/audio.h **** #define DSY_AUDIO_H /**< & */
   3:../../libDaisy/src/hid/audio.h **** 
   4:../../libDaisy/src/hid/audio.h **** #include "per/sai.h"
   5:../../libDaisy/src/hid/audio.h **** 
   6:../../libDaisy/src/hid/audio.h **** namespace daisy
   7:../../libDaisy/src/hid/audio.h **** {
   8:../../libDaisy/src/hid/audio.h **** /** @brief Audio Engine Handle
   9:../../libDaisy/src/hid/audio.h ****  *  @ingroup audio 
  10:../../libDaisy/src/hid/audio.h ****  *  @details This class allows for higher level access to an audio engine.
  11:../../libDaisy/src/hid/audio.h ****  *           If you're using a SOM like the DaisySeed or DaisyPatchSM (or any 
  12:../../libDaisy/src/hid/audio.h ****  *            board that includes one of those objects) then the intialization
  13:../../libDaisy/src/hid/audio.h ****  *            is already taken  care of.
  14:../../libDaisy/src/hid/audio.h ****  *           If you're setting up your own custom hardware, or need to make changes
  15:../../libDaisy/src/hid/audio.h ****  *           you will have to take the following steps:
  16:../../libDaisy/src/hid/audio.h ****  *             1. Create and Initialize an SaiHandle or two depending on your requirements
  17:../../libDaisy/src/hid/audio.h ****  *             2. Initialize the Audio Handle with the desired settings and the Initialized SaiHand
ARM GAS  /tmp/cc1gtgF4.s 			page 7


  18:../../libDaisy/src/hid/audio.h ****  *             3. If the connected codec requires special configuration or initialization, do so
  19:../../libDaisy/src/hid/audio.h ****  *             4. Write a callback method using either the AudioCallback or the InterleavingAudioCa
  20:../../libDaisy/src/hid/audio.h ****  *             5. Start the Audio using one of the StartAudio function
  21:../../libDaisy/src/hid/audio.h ****  */
  22:../../libDaisy/src/hid/audio.h **** class AudioHandle
  23:../../libDaisy/src/hid/audio.h **** {
  24:../../libDaisy/src/hid/audio.h ****   public:
  25:../../libDaisy/src/hid/audio.h ****     /** Manually configurable details about the Audio Engine */
  26:../../libDaisy/src/hid/audio.h ****     /** TODO: Figure out how to get samplerate in here. */
  27:../../libDaisy/src/hid/audio.h ****     struct Config
  28:../../libDaisy/src/hid/audio.h ****     {
  29:../../libDaisy/src/hid/audio.h ****         /** number of samples to process per callback */
  30:../../libDaisy/src/hid/audio.h ****         size_t blocksize;
  31:../../libDaisy/src/hid/audio.h **** 
  32:../../libDaisy/src/hid/audio.h ****         /**< Sample rate of audio */
  33:../../libDaisy/src/hid/audio.h ****         SaiHandle::Config::SampleRate samplerate;
  34:../../libDaisy/src/hid/audio.h **** 
  35:../../libDaisy/src/hid/audio.h ****         /** factor for adjustment before and after callback for hardware that may have extra headro
  36:../../libDaisy/src/hid/audio.h ****         float postgain;
  37:../../libDaisy/src/hid/audio.h **** 
  38:../../libDaisy/src/hid/audio.h ****         /** factor for additional one-sided compensation to audio path for hardware that may
  39:../../libDaisy/src/hid/audio.h ****          *  have unequal input/output ranges
  40:../../libDaisy/src/hid/audio.h ****          */
  41:../../libDaisy/src/hid/audio.h ****         float output_compensation;
  42:../../libDaisy/src/hid/audio.h **** 
  43:../../libDaisy/src/hid/audio.h ****         /** Sets default values for config struct */
  44:../../libDaisy/src/hid/audio.h ****         Config()
  45:../../libDaisy/src/hid/audio.h ****         : blocksize(48),
  46:../../libDaisy/src/hid/audio.h ****           samplerate(SaiHandle::Config::SampleRate::SAI_48KHZ),
  47:../../libDaisy/src/hid/audio.h ****           postgain(1.f),
  48:../../libDaisy/src/hid/audio.h ****           output_compensation(1.f)
  49:../../libDaisy/src/hid/audio.h ****         {
  50:../../libDaisy/src/hid/audio.h ****         }
  51:../../libDaisy/src/hid/audio.h ****     };
  52:../../libDaisy/src/hid/audio.h **** 
  53:../../libDaisy/src/hid/audio.h ****     enum class Result
  54:../../libDaisy/src/hid/audio.h ****     {
  55:../../libDaisy/src/hid/audio.h ****         OK,
  56:../../libDaisy/src/hid/audio.h ****         ERR,
  57:../../libDaisy/src/hid/audio.h ****     };
  58:../../libDaisy/src/hid/audio.h **** 
  59:../../libDaisy/src/hid/audio.h ****     /** Non-Interleaving input buffer
  60:../../libDaisy/src/hid/audio.h ****      * Buffer arranged by float[chn][sample] 
  61:../../libDaisy/src/hid/audio.h ****      * const so that the user can't modify the input
  62:../../libDaisy/src/hid/audio.h ****      */
  63:../../libDaisy/src/hid/audio.h ****     typedef const float* const* InputBuffer;
  64:../../libDaisy/src/hid/audio.h **** 
  65:../../libDaisy/src/hid/audio.h ****     /** Non-Interleaving output buffer
  66:../../libDaisy/src/hid/audio.h ****      * Arranged by float[chn][sample] 
  67:../../libDaisy/src/hid/audio.h ****      */
  68:../../libDaisy/src/hid/audio.h ****     typedef float** OutputBuffer;
  69:../../libDaisy/src/hid/audio.h **** 
  70:../../libDaisy/src/hid/audio.h ****     /** Type for a Non-Interleaving audio callback 
  71:../../libDaisy/src/hid/audio.h ****      * Non-Interleaving audio callbacks in daisy will be of this type
  72:../../libDaisy/src/hid/audio.h ****      */
  73:../../libDaisy/src/hid/audio.h ****     typedef void (*AudioCallback)(InputBuffer  in,
  74:../../libDaisy/src/hid/audio.h ****                                   OutputBuffer out,
ARM GAS  /tmp/cc1gtgF4.s 			page 8


  75:../../libDaisy/src/hid/audio.h ****                                   size_t       size);
  76:../../libDaisy/src/hid/audio.h **** 
  77:../../libDaisy/src/hid/audio.h ****     /** Interleaving Input buffer
  78:../../libDaisy/src/hid/audio.h ****      ** audio is prepared as { L0, R0, L1, R1, . . . LN, RN }]
  79:../../libDaisy/src/hid/audio.h ****      ** this is const, as the user shouldn't modify it
  80:../../libDaisy/src/hid/audio.h ****     */
  81:../../libDaisy/src/hid/audio.h ****     typedef const float* InterleavingInputBuffer;
  82:../../libDaisy/src/hid/audio.h **** 
  83:../../libDaisy/src/hid/audio.h ****     /** Interleaving Output buffer 
  84:../../libDaisy/src/hid/audio.h ****      ** audio is prepared as { L0, R0, L1, R1, . . . LN, RN }
  85:../../libDaisy/src/hid/audio.h ****     */
  86:../../libDaisy/src/hid/audio.h ****     typedef float* InterleavingOutputBuffer;
  87:../../libDaisy/src/hid/audio.h **** 
  88:../../libDaisy/src/hid/audio.h ****     /** Interleaving Audio Callback 
  89:../../libDaisy/src/hid/audio.h ****      * Interleaving audio callbacks in daisy must be of this type
  90:../../libDaisy/src/hid/audio.h ****      */
  91:../../libDaisy/src/hid/audio.h ****     typedef void (*InterleavingAudioCallback)(InterleavingInputBuffer  in,
  92:../../libDaisy/src/hid/audio.h ****                                               InterleavingOutputBuffer out,
  93:../../libDaisy/src/hid/audio.h ****                                               size_t                   size);
  94:../../libDaisy/src/hid/audio.h **** 
  95:../../libDaisy/src/hid/audio.h ****     AudioHandle() : pimpl_(nullptr) {}
  96:../../libDaisy/src/hid/audio.h ****     ~AudioHandle() {}
  56              		.loc 5 96 5 is_stmt 1 view .LVU7
  57              		.loc 5 96 5 is_stmt 0 view .LVU8
  58              	.LBE83:
  59              		.loc 1 22 19 view .LVU9
  60 0000 7047     		bx	lr
  61              		.cfi_endproc
  62              	.LFE2555:
  64              		.weak	_ZN5daisy9DaisySeedD1Ev
  65              		.thumb_set _ZN5daisy9DaisySeedD1Ev,_ZN5daisy9DaisySeedD2Ev
  66 0002 00BF     		.section	.text.dsy_tinyusb_irq_handler,"ax",%progbits
  67              		.align	1
  68              		.p2align 2,,3
  69              		.global	dsy_tinyusb_irq_handler
  70              		.syntax unified
  71              		.thumb
  72              		.thumb_func
  73              		.fpu fpv5-d16
  75              	dsy_tinyusb_irq_handler:
  76              	.LFB2653:
  77              		.file 6 "TinyUsbHidExternal.cpp"
   1:TinyUsbHidExternal.cpp **** #include "daisy_seed.h"
   2:TinyUsbHidExternal.cpp **** #include "bsp/board_api.h"
   3:TinyUsbHidExternal.cpp **** #include "tusb.h"
   4:TinyUsbHidExternal.cpp **** #include "usb_descriptors.h"
   5:TinyUsbHidExternal.cpp **** 
   6:TinyUsbHidExternal.cpp **** using namespace daisy;
   7:TinyUsbHidExternal.cpp **** 
   8:TinyUsbHidExternal.cpp **** DaisySeed hw;
   9:TinyUsbHidExternal.cpp **** static uint32_t blink_interval_ms = 250;
  10:TinyUsbHidExternal.cpp **** 
  11:TinyUsbHidExternal.cpp **** extern "C" void dsy_tinyusb_irq_handler(void)
  12:TinyUsbHidExternal.cpp **** {
  78              		.loc 6 12 1 is_stmt 1 view -0
  79              		.cfi_startproc
  80              		@ args = 0, pretend = 0, frame = 0
ARM GAS  /tmp/cc1gtgF4.s 			page 9


  81              		@ frame_needed = 0, uses_anonymous_args = 0
  82              		@ link register save eliminated.
  13:TinyUsbHidExternal.cpp ****     tud_int_handler(0);
  83              		.loc 6 13 5 view .LVU11
  84              		.loc 6 13 20 is_stmt 0 view .LVU12
  85 0000 0020     		movs	r0, #0
  86 0002 FFF7FEBF 		b	dcd_int_handler
  87              	.LVL1:
  88              		.cfi_endproc
  89              	.LFE2653:
  91 0006 00BF     		.section	.rodata.board_get_unique_id.str1.4,"aMS",%progbits,1
  92              		.align	2
  93              	.LC1:
  94 0000 44414953 		.ascii	"DAISYSEEDHID01\000"
  94      59534545 
  94      44484944 
  94      303100
  95              		.section	.text.board_get_unique_id,"ax",%progbits
  96              		.align	1
  97              		.p2align 2,,3
  98              		.global	board_get_unique_id
  99              		.syntax unified
 100              		.thumb
 101              		.thumb_func
 102              		.fpu fpv5-d16
 104              	board_get_unique_id:
 105              	.LVL2:
 106              	.LFB2654:
  14:TinyUsbHidExternal.cpp **** }
  15:TinyUsbHidExternal.cpp **** 
  16:TinyUsbHidExternal.cpp **** extern "C" size_t board_get_unique_id(uint8_t id[], size_t max_len)
  17:TinyUsbHidExternal.cpp **** {
 107              		.loc 6 17 1 is_stmt 1 view -0
 108              		.cfi_startproc
 109              		@ args = 0, pretend = 0, frame = 0
 110              		@ frame_needed = 0, uses_anonymous_args = 0
 111              		@ link register save eliminated.
  18:TinyUsbHidExternal.cpp ****     const char* serial = "DAISYSEEDHID01";
 112              		.loc 6 18 5 view .LVU14
  19:TinyUsbHidExternal.cpp ****     size_t n = 14;
 113              		.loc 6 19 5 view .LVU15
  20:TinyUsbHidExternal.cpp ****     if(n > max_len)
 114              		.loc 6 20 5 view .LVU16
 115 0000 0D29     		cmp	r1, #13
  17:TinyUsbHidExternal.cpp ****     const char* serial = "DAISYSEEDHID01";
 116              		.loc 6 17 1 is_stmt 0 view .LVU17
 117 0002 8446     		mov	ip, r0
 118              		.loc 6 20 5 view .LVU18
 119 0004 13D8     		bhi	.L8
 120              	.LVL3:
  21:TinyUsbHidExternal.cpp ****         n = max_len;
  22:TinyUsbHidExternal.cpp ****     for(size_t i = 0; i < n; i++)
 121              		.loc 6 22 5 is_stmt 1 view .LVU19
 122              	.LBB84:
 123              		.loc 6 22 25 view .LVU20
 124 0006 0846     		mov	r0, r1
 125              	.LVL4:
ARM GAS  /tmp/cc1gtgF4.s 			page 10


 126              		.loc 6 22 25 is_stmt 0 view .LVU21
 127 0008 99B1     		cbz	r1, .L9
 128              	.LVL5:
 129              	.L5:
 130              		.loc 6 22 25 view .LVU22
 131 000a 0CF1FF33 		add	r3, ip, #-1
 132 000e 4421     		movs	r1, #68
 133              	.LVL6:
 134              		.loc 6 22 25 view .LVU23
 135              	.LBE84:
  17:TinyUsbHidExternal.cpp ****     const char* serial = "DAISYSEEDHID01";
 136              		.loc 6 17 1 view .LVU24
 137 0010 10B4     		push	{r4}
 138              		.cfi_def_cfa_offset 4
 139              		.cfi_offset 4, -4
 140 0012 084C     		ldr	r4, .L15
 141 0014 01E0     		b	.L7
 142              	.LVL7:
 143              	.L14:
 144              	.LBB85:
  23:TinyUsbHidExternal.cpp ****         id[i] = (uint8_t)serial[i];
 145              		.loc 6 23 17 view .LVU25
 146 0016 14F8011F 		ldrb	r1, [r4, #1]!	@ zero_extendqisi2
 147              	.LVL8:
 148              	.L7:
 149              		.loc 6 23 9 is_stmt 1 discriminator 2 view .LVU26
  22:TinyUsbHidExternal.cpp ****         id[i] = (uint8_t)serial[i];
 150              		.loc 6 22 25 is_stmt 0 discriminator 2 view .LVU27
 151 001a 9A1C     		adds	r2, r3, #2
 152              		.loc 6 23 15 discriminator 2 view .LVU28
 153 001c 5970     		strb	r1, [r3, #1]
  22:TinyUsbHidExternal.cpp ****         id[i] = (uint8_t)serial[i];
 154              		.loc 6 22 5 is_stmt 1 discriminator 2 view .LVU29
 155              		.loc 6 23 15 is_stmt 0 discriminator 2 view .LVU30
 156 001e 0133     		adds	r3, r3, #1
 157              	.LVL9:
  22:TinyUsbHidExternal.cpp ****         id[i] = (uint8_t)serial[i];
 158              		.loc 6 22 25 is_stmt 1 discriminator 2 view .LVU31
 159 0020 A2EB0C02 		sub	r2, r2, ip
 160 0024 9042     		cmp	r0, r2
 161 0026 F6D8     		bhi	.L14
 162              	.LBE85:
  24:TinyUsbHidExternal.cpp ****     return n;
  25:TinyUsbHidExternal.cpp **** }
 163              		.loc 6 25 1 is_stmt 0 view .LVU32
 164 0028 5DF8044B 		ldr	r4, [sp], #4
 165              		.cfi_restore 4
 166              		.cfi_def_cfa_offset 0
 167 002c 7047     		bx	lr
 168              	.LVL10:
 169              	.L8:
  19:TinyUsbHidExternal.cpp ****     if(n > max_len)
 170              		.loc 6 19 12 view .LVU33
 171 002e 0E20     		movs	r0, #14
 172              	.LVL11:
  19:TinyUsbHidExternal.cpp ****     if(n > max_len)
 173              		.loc 6 19 12 view .LVU34
ARM GAS  /tmp/cc1gtgF4.s 			page 11


 174 0030 EBE7     		b	.L5
 175              	.LVL12:
 176              	.L9:
  24:TinyUsbHidExternal.cpp ****     return n;
 177              		.loc 6 24 5 is_stmt 1 view .LVU35
 178              		.loc 6 25 1 is_stmt 0 view .LVU36
 179 0032 7047     		bx	lr
 180              	.L16:
 181              		.align	2
 182              	.L15:
 183 0034 00000000 		.word	.LC1
 184              		.cfi_endproc
 185              	.LFE2654:
 187              		.section	.text.board_button_read,"ax",%progbits
 188              		.align	1
 189              		.p2align 2,,3
 190              		.global	board_button_read
 191              		.syntax unified
 192              		.thumb
 193              		.thumb_func
 194              		.fpu fpv5-d16
 196              	board_button_read:
 197              	.LFB2655:
  26:TinyUsbHidExternal.cpp **** 
  27:TinyUsbHidExternal.cpp **** extern "C" uint32_t board_button_read(void)
  28:TinyUsbHidExternal.cpp **** {
 198              		.loc 6 28 1 is_stmt 1 view -0
 199              		.cfi_startproc
 200              		@ args = 0, pretend = 0, frame = 0
 201              		@ frame_needed = 0, uses_anonymous_args = 0
 202              		@ link register save eliminated.
  29:TinyUsbHidExternal.cpp ****     return 1;
 203              		.loc 6 29 5 view .LVU38
  30:TinyUsbHidExternal.cpp **** }
 204              		.loc 6 30 1 is_stmt 0 view .LVU39
 205 0000 0120     		movs	r0, #1
 206 0002 7047     		bx	lr
 207              		.cfi_endproc
 208              	.LFE2655:
 210              		.section	.text.board_led_write,"ax",%progbits
 211              		.align	1
 212              		.p2align 2,,3
 213              		.global	board_led_write
 214              		.syntax unified
 215              		.thumb
 216              		.thumb_func
 217              		.fpu fpv5-d16
 219              	board_led_write:
 220              	.LVL13:
 221              	.LFB2656:
  31:TinyUsbHidExternal.cpp **** 
  32:TinyUsbHidExternal.cpp **** extern "C" void board_led_write(bool state)
  33:TinyUsbHidExternal.cpp **** {
 222              		.loc 6 33 1 is_stmt 1 view -0
 223              		.cfi_startproc
 224              		@ args = 0, pretend = 0, frame = 0
 225              		@ frame_needed = 0, uses_anonymous_args = 0
ARM GAS  /tmp/cc1gtgF4.s 			page 12


 226              		@ link register save eliminated.
  34:TinyUsbHidExternal.cpp ****     hw.SetLed(state);
 227              		.loc 6 34 5 view .LVU41
  33:TinyUsbHidExternal.cpp ****     hw.SetLed(state);
 228              		.loc 6 33 1 is_stmt 0 view .LVU42
 229 0000 0146     		mov	r1, r0
 230              		.loc 6 34 14 view .LVU43
 231 0002 0148     		ldr	r0, .L19
 232              	.LVL14:
 233              		.loc 6 34 14 view .LVU44
 234 0004 FFF7FEBF 		b	_ZN5daisy9DaisySeed6SetLedEb
 235              	.LVL15:
 236              	.L20:
 237              		.align	2
 238              	.L19:
 239 0008 00000000 		.word	.LANCHOR0
 240              		.cfi_endproc
 241              	.LFE2656:
 243              		.section	.text.tud_mount_cb,"ax",%progbits
 244              		.align	1
 245              		.p2align 2,,3
 246              		.global	tud_mount_cb
 247              		.syntax unified
 248              		.thumb
 249              		.thumb_func
 250              		.fpu fpv5-d16
 252              	tud_mount_cb:
 253              	.LFB2659:
  35:TinyUsbHidExternal.cpp **** }
  36:TinyUsbHidExternal.cpp **** 
  37:TinyUsbHidExternal.cpp **** static void led_blinking_task()
  38:TinyUsbHidExternal.cpp **** {
  39:TinyUsbHidExternal.cpp ****     static uint32_t start_ms = 0;
  40:TinyUsbHidExternal.cpp ****     static bool led_state = false;
  41:TinyUsbHidExternal.cpp **** 
  42:TinyUsbHidExternal.cpp ****     if(!blink_interval_ms)
  43:TinyUsbHidExternal.cpp ****         return;
  44:TinyUsbHidExternal.cpp ****     if(System::GetNow() - start_ms < blink_interval_ms)
  45:TinyUsbHidExternal.cpp ****         return;
  46:TinyUsbHidExternal.cpp ****     start_ms += blink_interval_ms;
  47:TinyUsbHidExternal.cpp ****     hw.SetLed(led_state);
  48:TinyUsbHidExternal.cpp ****     led_state = !led_state;
  49:TinyUsbHidExternal.cpp **** }
  50:TinyUsbHidExternal.cpp **** 
  51:TinyUsbHidExternal.cpp **** static void hid_task(void)
  52:TinyUsbHidExternal.cpp **** {
  53:TinyUsbHidExternal.cpp ****     const uint32_t interval_ms = 10;
  54:TinyUsbHidExternal.cpp ****     static uint32_t start_ms = 0;
  55:TinyUsbHidExternal.cpp **** 
  56:TinyUsbHidExternal.cpp ****     if(System::GetNow() - start_ms < interval_ms)
  57:TinyUsbHidExternal.cpp ****         return;
  58:TinyUsbHidExternal.cpp ****     start_ms += interval_ms;
  59:TinyUsbHidExternal.cpp **** 
  60:TinyUsbHidExternal.cpp ****     uint32_t const btn = board_button_read();
  61:TinyUsbHidExternal.cpp **** 
  62:TinyUsbHidExternal.cpp ****     if(tud_suspended() && btn)
  63:TinyUsbHidExternal.cpp ****     {
ARM GAS  /tmp/cc1gtgF4.s 			page 13


  64:TinyUsbHidExternal.cpp ****         tud_remote_wakeup();
  65:TinyUsbHidExternal.cpp ****     }
  66:TinyUsbHidExternal.cpp ****     else
  67:TinyUsbHidExternal.cpp ****     {
  68:TinyUsbHidExternal.cpp ****         if(tud_hid_n_ready(ITF_NUM_KEYBOARD))
  69:TinyUsbHidExternal.cpp ****         {
  70:TinyUsbHidExternal.cpp ****             static bool has_keyboard_key = false;
  71:TinyUsbHidExternal.cpp ****             uint8_t const report_id = 0;
  72:TinyUsbHidExternal.cpp ****             uint8_t const modifier = 0;
  73:TinyUsbHidExternal.cpp **** 
  74:TinyUsbHidExternal.cpp ****             if(btn)
  75:TinyUsbHidExternal.cpp ****             {
  76:TinyUsbHidExternal.cpp ****                 uint8_t keycode[6] = {0};
  77:TinyUsbHidExternal.cpp ****                 keycode[0] = HID_KEY_A;
  78:TinyUsbHidExternal.cpp ****                 tud_hid_n_keyboard_report(ITF_NUM_KEYBOARD, report_id, modifier, keycode);
  79:TinyUsbHidExternal.cpp ****                 has_keyboard_key = true;
  80:TinyUsbHidExternal.cpp ****             }
  81:TinyUsbHidExternal.cpp ****             else
  82:TinyUsbHidExternal.cpp ****             {
  83:TinyUsbHidExternal.cpp ****                 if(has_keyboard_key)
  84:TinyUsbHidExternal.cpp ****                     tud_hid_n_keyboard_report(ITF_NUM_KEYBOARD, report_id, modifier, NULL);
  85:TinyUsbHidExternal.cpp ****                 has_keyboard_key = false;
  86:TinyUsbHidExternal.cpp ****             }
  87:TinyUsbHidExternal.cpp ****         }
  88:TinyUsbHidExternal.cpp ****     }
  89:TinyUsbHidExternal.cpp **** }
  90:TinyUsbHidExternal.cpp **** 
  91:TinyUsbHidExternal.cpp **** extern "C" void tud_mount_cb(void) { blink_interval_ms = 1000; }
 254              		.loc 6 91 36 is_stmt 1 view -0
 255              		.cfi_startproc
 256              		@ args = 0, pretend = 0, frame = 0
 257              		@ frame_needed = 0, uses_anonymous_args = 0
 258              		@ link register save eliminated.
 259              		.loc 6 91 38 view .LVU46
 260              		.loc 6 91 56 is_stmt 0 view .LVU47
 261 0000 024B     		ldr	r3, .L22
 262 0002 4FF47A72 		mov	r2, #1000
 263 0006 1A60     		str	r2, [r3]
 264              		.loc 6 91 64 view .LVU48
 265 0008 7047     		bx	lr
 266              	.L23:
 267 000a 00BF     		.align	2
 268              	.L22:
 269 000c 00000000 		.word	.LANCHOR1
 270              		.cfi_endproc
 271              	.LFE2659:
 273              		.section	.text.tud_umount_cb,"ax",%progbits
 274              		.align	1
 275              		.p2align 2,,3
 276              		.global	tud_umount_cb
 277              		.syntax unified
 278              		.thumb
 279              		.thumb_func
 280              		.fpu fpv5-d16
 282              	tud_umount_cb:
 283              	.LFB2660:
  92:TinyUsbHidExternal.cpp **** extern "C" void tud_umount_cb(void) { blink_interval_ms = 250; }
ARM GAS  /tmp/cc1gtgF4.s 			page 14


 284              		.loc 6 92 37 is_stmt 1 view -0
 285              		.cfi_startproc
 286              		@ args = 0, pretend = 0, frame = 0
 287              		@ frame_needed = 0, uses_anonymous_args = 0
 288              		@ link register save eliminated.
 289              		.loc 6 92 39 view .LVU50
 290              		.loc 6 92 57 is_stmt 0 view .LVU51
 291 0000 014B     		ldr	r3, .L25
 292 0002 FA22     		movs	r2, #250
 293 0004 1A60     		str	r2, [r3]
 294              		.loc 6 92 64 view .LVU52
 295 0006 7047     		bx	lr
 296              	.L26:
 297              		.align	2
 298              	.L25:
 299 0008 00000000 		.word	.LANCHOR1
 300              		.cfi_endproc
 301              	.LFE2660:
 303              		.section	.text.tud_suspend_cb,"ax",%progbits
 304              		.align	1
 305              		.p2align 2,,3
 306              		.global	tud_suspend_cb
 307              		.syntax unified
 308              		.thumb
 309              		.thumb_func
 310              		.fpu fpv5-d16
 312              	tud_suspend_cb:
 313              	.LVL16:
 314              	.LFB2661:
  93:TinyUsbHidExternal.cpp **** extern "C" void tud_suspend_cb(bool remote_wakeup_en)
  94:TinyUsbHidExternal.cpp **** {
 315              		.loc 6 94 1 is_stmt 1 view -0
 316              		.cfi_startproc
 317              		@ args = 0, pretend = 0, frame = 0
 318              		@ frame_needed = 0, uses_anonymous_args = 0
 319              		@ link register save eliminated.
  95:TinyUsbHidExternal.cpp ****     (void)remote_wakeup_en;
 320              		.loc 6 95 5 view .LVU54
  96:TinyUsbHidExternal.cpp ****     blink_interval_ms = 2500;
 321              		.loc 6 96 5 view .LVU55
 322              		.loc 6 96 23 is_stmt 0 view .LVU56
 323 0000 024B     		ldr	r3, .L28
 324 0002 40F6C412 		movw	r2, #2500
 325 0006 1A60     		str	r2, [r3]
  97:TinyUsbHidExternal.cpp **** }
 326              		.loc 6 97 1 view .LVU57
 327 0008 7047     		bx	lr
 328              	.L29:
 329 000a 00BF     		.align	2
 330              	.L28:
 331 000c 00000000 		.word	.LANCHOR1
 332              		.cfi_endproc
 333              	.LFE2661:
 335              		.section	.text.tud_resume_cb,"ax",%progbits
 336              		.align	1
 337              		.p2align 2,,3
 338              		.global	tud_resume_cb
ARM GAS  /tmp/cc1gtgF4.s 			page 15


 339              		.syntax unified
 340              		.thumb
 341              		.thumb_func
 342              		.fpu fpv5-d16
 344              	tud_resume_cb:
 345              	.LFB2662:
  98:TinyUsbHidExternal.cpp **** extern "C" void tud_resume_cb(void)
  99:TinyUsbHidExternal.cpp **** {
 346              		.loc 6 99 1 is_stmt 1 view -0
 347              		.cfi_startproc
 348              		@ args = 0, pretend = 0, frame = 0
 349              		@ frame_needed = 0, uses_anonymous_args = 0
 100:TinyUsbHidExternal.cpp ****     blink_interval_ms = tud_mounted() ? 1000 : 250;
 350              		.loc 6 100 5 view .LVU59
  99:TinyUsbHidExternal.cpp ****     blink_interval_ms = tud_mounted() ? 1000 : 250;
 351              		.loc 6 99 1 is_stmt 0 view .LVU60
 352 0000 08B5     		push	{r3, lr}
 353              		.cfi_def_cfa_offset 8
 354              		.cfi_offset 3, -8
 355              		.cfi_offset 14, -4
 356              		.loc 6 100 36 view .LVU61
 357 0002 FFF7FEFF 		bl	tud_mounted
 358              	.LVL17:
 359              		.loc 6 100 39 view .LVU62
 360 0006 0028     		cmp	r0, #0
 361              		.loc 6 100 23 view .LVU63
 362 0008 034B     		ldr	r3, .L34
 363              		.loc 6 100 39 view .LVU64
 364 000a 14BF     		ite	ne
 365 000c 4FF47A72 		movne	r2, #1000
 366 0010 FA22     		moveq	r2, #250
 367              		.loc 6 100 23 view .LVU65
 368 0012 1A60     		str	r2, [r3]
 101:TinyUsbHidExternal.cpp **** }
 369              		.loc 6 101 1 view .LVU66
 370 0014 08BD     		pop	{r3, pc}
 371              	.L35:
 372 0016 00BF     		.align	2
 373              	.L34:
 374 0018 00000000 		.word	.LANCHOR1
 375              		.cfi_endproc
 376              	.LFE2662:
 378              		.section	.text.tud_hid_set_protocol_cb,"ax",%progbits
 379              		.align	1
 380              		.p2align 2,,3
 381              		.global	tud_hid_set_protocol_cb
 382              		.syntax unified
 383              		.thumb
 384              		.thumb_func
 385              		.fpu fpv5-d16
 387              	tud_hid_set_protocol_cb:
 388              	.LVL18:
 389              	.LFB2663:
 102:TinyUsbHidExternal.cpp **** extern "C" void tud_hid_set_protocol_cb(uint8_t instance, uint8_t protocol)
 103:TinyUsbHidExternal.cpp **** {
 390              		.loc 6 103 1 is_stmt 1 view -0
 391              		.cfi_startproc
ARM GAS  /tmp/cc1gtgF4.s 			page 16


 392              		@ args = 0, pretend = 0, frame = 0
 393              		@ frame_needed = 0, uses_anonymous_args = 0
 394              		@ link register save eliminated.
 104:TinyUsbHidExternal.cpp ****     (void)instance;
 395              		.loc 6 104 5 view .LVU68
 105:TinyUsbHidExternal.cpp ****     (void)protocol;
 396              		.loc 6 105 5 view .LVU69
 106:TinyUsbHidExternal.cpp **** }
 397              		.loc 6 106 1 is_stmt 0 view .LVU70
 398 0000 7047     		bx	lr
 399              		.cfi_endproc
 400              	.LFE2663:
 402 0002 00BF     		.section	.text.tud_hid_report_complete_cb,"ax",%progbits
 403              		.align	1
 404              		.p2align 2,,3
 405              		.global	tud_hid_report_complete_cb
 406              		.syntax unified
 407              		.thumb
 408              		.thumb_func
 409              		.fpu fpv5-d16
 411              	tud_hid_report_complete_cb:
 412              	.LVL19:
 413              	.LFB2664:
 107:TinyUsbHidExternal.cpp **** extern "C" void tud_hid_report_complete_cb(uint8_t instance, uint8_t const* report, uint16_t len)
 108:TinyUsbHidExternal.cpp **** {
 414              		.loc 6 108 1 is_stmt 1 view -0
 415              		.cfi_startproc
 416              		@ args = 0, pretend = 0, frame = 0
 417              		@ frame_needed = 0, uses_anonymous_args = 0
 418              		@ link register save eliminated.
 109:TinyUsbHidExternal.cpp ****     (void)instance;
 419              		.loc 6 109 5 view .LVU72
 110:TinyUsbHidExternal.cpp ****     (void)report;
 420              		.loc 6 110 5 view .LVU73
 111:TinyUsbHidExternal.cpp ****     (void)len;
 421              		.loc 6 111 5 view .LVU74
 112:TinyUsbHidExternal.cpp **** }
 422              		.loc 6 112 1 is_stmt 0 view .LVU75
 423 0000 7047     		bx	lr
 424              		.cfi_endproc
 425              	.LFE2664:
 427 0002 00BF     		.section	.text.tud_hid_get_report_cb,"ax",%progbits
 428              		.align	1
 429              		.p2align 2,,3
 430              		.global	tud_hid_get_report_cb
 431              		.syntax unified
 432              		.thumb
 433              		.thumb_func
 434              		.fpu fpv5-d16
 436              	tud_hid_get_report_cb:
 437              	.LVL20:
 438              	.LFB2665:
 113:TinyUsbHidExternal.cpp **** extern "C" uint16_t tud_hid_get_report_cb(uint8_t instance, uint8_t report_id, hid_report_type_t re
 114:TinyUsbHidExternal.cpp **** {
 439              		.loc 6 114 1 is_stmt 1 view -0
 440              		.cfi_startproc
 441              		@ args = 4, pretend = 0, frame = 0
ARM GAS  /tmp/cc1gtgF4.s 			page 17


 442              		@ frame_needed = 0, uses_anonymous_args = 0
 443              		@ link register save eliminated.
 115:TinyUsbHidExternal.cpp ****     (void)instance;
 444              		.loc 6 115 5 view .LVU77
 116:TinyUsbHidExternal.cpp ****     (void)report_id;
 445              		.loc 6 116 5 view .LVU78
 117:TinyUsbHidExternal.cpp ****     (void)report_type;
 446              		.loc 6 117 5 view .LVU79
 118:TinyUsbHidExternal.cpp ****     (void)buffer;
 447              		.loc 6 118 5 view .LVU80
 119:TinyUsbHidExternal.cpp ****     (void)reqlen;
 448              		.loc 6 119 5 view .LVU81
 120:TinyUsbHidExternal.cpp ****     return 0;
 449              		.loc 6 120 5 view .LVU82
 121:TinyUsbHidExternal.cpp **** }
 450              		.loc 6 121 1 is_stmt 0 view .LVU83
 451 0000 0020     		movs	r0, #0
 452              	.LVL21:
 453              		.loc 6 121 1 view .LVU84
 454 0002 7047     		bx	lr
 455              		.cfi_endproc
 456              	.LFE2665:
 458              		.section	.text.tud_hid_set_report_cb,"ax",%progbits
 459              		.align	1
 460              		.p2align 2,,3
 461              		.global	tud_hid_set_report_cb
 462              		.syntax unified
 463              		.thumb
 464              		.thumb_func
 465              		.fpu fpv5-d16
 467              	tud_hid_set_report_cb:
 468              	.LVL22:
 469              	.LFB2666:
 122:TinyUsbHidExternal.cpp **** extern "C" void tud_hid_set_report_cb(uint8_t instance, uint8_t report_id, hid_report_type_t report
 123:TinyUsbHidExternal.cpp **** {
 470              		.loc 6 123 1 is_stmt 1 view -0
 471              		.cfi_startproc
 472              		@ args = 4, pretend = 0, frame = 0
 473              		@ frame_needed = 0, uses_anonymous_args = 0
 474              		@ link register save eliminated.
 124:TinyUsbHidExternal.cpp ****     (void)instance;
 475              		.loc 6 124 5 view .LVU86
 125:TinyUsbHidExternal.cpp ****     (void)report_id;
 476              		.loc 6 125 5 view .LVU87
 126:TinyUsbHidExternal.cpp ****     (void)report_type;
 477              		.loc 6 126 5 view .LVU88
 127:TinyUsbHidExternal.cpp ****     (void)buffer;
 478              		.loc 6 127 5 view .LVU89
 128:TinyUsbHidExternal.cpp ****     (void)bufsize;
 479              		.loc 6 128 5 view .LVU90
 129:TinyUsbHidExternal.cpp **** }
 480              		.loc 6 129 1 is_stmt 0 view .LVU91
 481 0000 7047     		bx	lr
 482              		.cfi_endproc
 483              	.LFE2666:
 485 0002 00BF     		.section	.text.startup.main,"ax",%progbits
 486              		.align	1
ARM GAS  /tmp/cc1gtgF4.s 			page 18


 487              		.p2align 2,,3
 488              		.global	main
 489              		.syntax unified
 490              		.thumb
 491              		.thumb_func
 492              		.fpu fpv5-d16
 494              	main:
 495              	.LFB2667:
 130:TinyUsbHidExternal.cpp **** 
 131:TinyUsbHidExternal.cpp **** int main(void)
 132:TinyUsbHidExternal.cpp **** {
 496              		.loc 6 132 1 is_stmt 1 view -0
 497              		.cfi_startproc
 498              		@ Volatile: function does not return.
 499              		@ args = 0, pretend = 0, frame = 16
 500              		@ frame_needed = 0, uses_anonymous_args = 0
 133:TinyUsbHidExternal.cpp ****     hw.Configure();
 501              		.loc 6 133 5 view .LVU93
 132:TinyUsbHidExternal.cpp ****     hw.Configure();
 502              		.loc 6 132 1 is_stmt 0 view .LVU94
 503 0000 80B5     		push	{r7, lr}
 504              		.cfi_def_cfa_offset 8
 505              		.cfi_offset 7, -8
 506              		.cfi_offset 14, -4
 507              		.loc 6 133 17 view .LVU95
 508 0002 2948     		ldr	r0, .L53
 132:TinyUsbHidExternal.cpp ****     hw.Configure();
 509              		.loc 6 132 1 view .LVU96
 510 0004 84B0     		sub	sp, sp, #16
 511              		.cfi_def_cfa_offset 24
 512              		.loc 6 133 17 view .LVU97
 513 0006 FFF7FEFF 		bl	_ZN5daisy9DaisySeed9ConfigureEv
 514              	.LVL23:
 134:TinyUsbHidExternal.cpp ****     hw.Init();
 515              		.loc 6 134 5 is_stmt 1 view .LVU98
 516              		.loc 6 134 12 is_stmt 0 view .LVU99
 517 000a 0021     		movs	r1, #0
 518 000c 2648     		ldr	r0, .L53
 519 000e FFF7FEFF 		bl	_ZN5daisy9DaisySeed4InitEb
 520              	.LVL24:
 135:TinyUsbHidExternal.cpp ****     hw.usb_handle.Init(UsbHandle::FS_EXTERNAL);
 521              		.loc 6 135 5 is_stmt 1 view .LVU100
 522              		.loc 6 135 23 is_stmt 0 view .LVU101
 523 0012 0121     		movs	r1, #1
 524 0014 2548     		ldr	r0, .L53+4
 525 0016 FFF7FEFF 		bl	_ZN5daisy9UsbHandle4InitENS0_9UsbPeriphE
 526              	.LVL25:
 136:TinyUsbHidExternal.cpp **** 
 137:TinyUsbHidExternal.cpp ****     tusb_rhport_init_t dev_init = {.role = TUSB_ROLE_DEVICE, .speed = TUSB_SPEED_AUTO};
 527              		.loc 6 137 5 is_stmt 1 view .LVU102
 528              		.loc 6 137 24 is_stmt 0 view .LVU103
 529 001a 254B     		ldr	r3, .L53+8
 138:TinyUsbHidExternal.cpp ****     tusb_init(0, &dev_init);
 530              		.loc 6 138 5 view .LVU104
 531 001c 01A9     		add	r1, sp, #4
 532 001e 0020     		movs	r0, #0
 137:TinyUsbHidExternal.cpp ****     tusb_init(0, &dev_init);
ARM GAS  /tmp/cc1gtgF4.s 			page 19


 533              		.loc 6 137 24 view .LVU105
 534 0020 1B88     		ldrh	r3, [r3]
 535 0022 244D     		ldr	r5, .L53+12
 536 0024 244E     		ldr	r6, .L53+16
 537 0026 254F     		ldr	r7, .L53+20
 538 0028 254C     		ldr	r4, .L53+24
 539 002a ADF80430 		strh	r3, [sp, #4]	@ movhi
 540              		.loc 6 138 5 is_stmt 1 view .LVU106
 541 002e FFF7FEFF 		bl	tusb_rhport_init
 542              	.LVL26:
 543              	.L45:
 139:TinyUsbHidExternal.cpp **** 
 140:TinyUsbHidExternal.cpp ****     while(1)
 544              		.loc 6 140 5 discriminator 1 view .LVU107
 141:TinyUsbHidExternal.cpp ****     {
 142:TinyUsbHidExternal.cpp ****         tud_task();
 545              		.loc 6 142 9 discriminator 1 view .LVU108
 546              	.LBB97:
 547              	.LBI97:
 548              		.file 7 "/home/pi/Developer/tinyusb/src/device/usbd.h"
   1:/home/pi/Developer/tinyusb/src/device/usbd.h **** /*
   2:/home/pi/Developer/tinyusb/src/device/usbd.h ****  * The MIT License (MIT)
   3:/home/pi/Developer/tinyusb/src/device/usbd.h ****  *
   4:/home/pi/Developer/tinyusb/src/device/usbd.h ****  * Copyright (c) 2019 Ha Thach (tinyusb.org)
   5:/home/pi/Developer/tinyusb/src/device/usbd.h ****  *
   6:/home/pi/Developer/tinyusb/src/device/usbd.h ****  * Permission is hereby granted, free of charge, to any person obtaining a copy
   7:/home/pi/Developer/tinyusb/src/device/usbd.h ****  * of this software and associated documentation files (the "Software"), to deal
   8:/home/pi/Developer/tinyusb/src/device/usbd.h ****  * in the Software without restriction, including without limitation the rights
   9:/home/pi/Developer/tinyusb/src/device/usbd.h ****  * to use, copy, modify, merge, publish, distribute, sublicense, and/or sell
  10:/home/pi/Developer/tinyusb/src/device/usbd.h ****  * copies of the Software, and to permit persons to whom the Software is
  11:/home/pi/Developer/tinyusb/src/device/usbd.h ****  * furnished to do so, subject to the following conditions:
  12:/home/pi/Developer/tinyusb/src/device/usbd.h ****  *
  13:/home/pi/Developer/tinyusb/src/device/usbd.h ****  * The above copyright notice and this permission notice shall be included in
  14:/home/pi/Developer/tinyusb/src/device/usbd.h ****  * all copies or substantial portions of the Software.
  15:/home/pi/Developer/tinyusb/src/device/usbd.h ****  *
  16:/home/pi/Developer/tinyusb/src/device/usbd.h ****  * THE SOFTWARE IS PROVIDED "AS IS", WITHOUT WARRANTY OF ANY KIND, EXPRESS OR
  17:/home/pi/Developer/tinyusb/src/device/usbd.h ****  * IMPLIED, INCLUDING BUT NOT LIMITED TO THE WARRANTIES OF MERCHANTABILITY,
  18:/home/pi/Developer/tinyusb/src/device/usbd.h ****  * FITNESS FOR A PARTICULAR PURPOSE AND NONINFRINGEMENT. IN NO EVENT SHALL THE
  19:/home/pi/Developer/tinyusb/src/device/usbd.h ****  * AUTHORS OR COPYRIGHT HOLDERS BE LIABLE FOR ANY CLAIM, DAMAGES OR OTHER
  20:/home/pi/Developer/tinyusb/src/device/usbd.h ****  * LIABILITY, WHETHER IN AN ACTION OF CONTRACT, TORT OR OTHERWISE, ARISING FROM,
  21:/home/pi/Developer/tinyusb/src/device/usbd.h ****  * OUT OF OR IN CONNECTION WITH THE SOFTWARE OR THE USE OR OTHER DEALINGS IN
  22:/home/pi/Developer/tinyusb/src/device/usbd.h ****  * THE SOFTWARE.
  23:/home/pi/Developer/tinyusb/src/device/usbd.h ****  *
  24:/home/pi/Developer/tinyusb/src/device/usbd.h ****  * This file is part of the TinyUSB stack.
  25:/home/pi/Developer/tinyusb/src/device/usbd.h ****  */
  26:/home/pi/Developer/tinyusb/src/device/usbd.h **** 
  27:/home/pi/Developer/tinyusb/src/device/usbd.h **** #ifndef TUSB_USBD_H_
  28:/home/pi/Developer/tinyusb/src/device/usbd.h **** #define TUSB_USBD_H_
  29:/home/pi/Developer/tinyusb/src/device/usbd.h **** 
  30:/home/pi/Developer/tinyusb/src/device/usbd.h **** #include "common/tusb_common.h"
  31:/home/pi/Developer/tinyusb/src/device/usbd.h **** 
  32:/home/pi/Developer/tinyusb/src/device/usbd.h **** #ifdef __cplusplus
  33:/home/pi/Developer/tinyusb/src/device/usbd.h **** extern "C" {
  34:/home/pi/Developer/tinyusb/src/device/usbd.h **** #endif
  35:/home/pi/Developer/tinyusb/src/device/usbd.h **** 
  36:/home/pi/Developer/tinyusb/src/device/usbd.h **** // ConfigID for tud_configure()
  37:/home/pi/Developer/tinyusb/src/device/usbd.h **** enum {
ARM GAS  /tmp/cc1gtgF4.s 			page 20


  38:/home/pi/Developer/tinyusb/src/device/usbd.h ****   TUD_CFGID_INVALID = 0,
  39:/home/pi/Developer/tinyusb/src/device/usbd.h ****   TUD_CFGID_DWC2 = 100,
  40:/home/pi/Developer/tinyusb/src/device/usbd.h **** };
  41:/home/pi/Developer/tinyusb/src/device/usbd.h **** 
  42:/home/pi/Developer/tinyusb/src/device/usbd.h **** typedef struct {
  43:/home/pi/Developer/tinyusb/src/device/usbd.h ****   uint16_t bm_double_buffered; // bitmap of IN endpoints to be double buffered, only effective for 
  44:/home/pi/Developer/tinyusb/src/device/usbd.h ****   bool vbus_sensing; // Vbus pin is used for device connection detection, mandatory for tud_umount_
  45:/home/pi/Developer/tinyusb/src/device/usbd.h **** } tud_configure_dwc2_t;
  46:/home/pi/Developer/tinyusb/src/device/usbd.h **** 
  47:/home/pi/Developer/tinyusb/src/device/usbd.h ****   #ifndef CFG_TUD_CONFIGURE_DWC2_DEFAULT
  48:/home/pi/Developer/tinyusb/src/device/usbd.h ****     #define CFG_TUD_CONFIGURE_DWC2_DEFAULT {.bm_double_buffered = 0, .vbus_sensing = CFG_TUD_VBUS_D
  49:/home/pi/Developer/tinyusb/src/device/usbd.h ****   #endif
  50:/home/pi/Developer/tinyusb/src/device/usbd.h **** 
  51:/home/pi/Developer/tinyusb/src/device/usbd.h **** typedef union {
  52:/home/pi/Developer/tinyusb/src/device/usbd.h ****   tud_configure_dwc2_t dwc2;
  53:/home/pi/Developer/tinyusb/src/device/usbd.h **** } tud_configure_param_t;
  54:/home/pi/Developer/tinyusb/src/device/usbd.h **** 
  55:/home/pi/Developer/tinyusb/src/device/usbd.h **** //--------------------------------------------------------------------+
  56:/home/pi/Developer/tinyusb/src/device/usbd.h **** // Application API
  57:/home/pi/Developer/tinyusb/src/device/usbd.h **** //--------------------------------------------------------------------+
  58:/home/pi/Developer/tinyusb/src/device/usbd.h **** 
  59:/home/pi/Developer/tinyusb/src/device/usbd.h **** // Configure device stack behavior with dynamic or port-specific parameters.
  60:/home/pi/Developer/tinyusb/src/device/usbd.h **** // Should be called before initialization of the device stack
  61:/home/pi/Developer/tinyusb/src/device/usbd.h **** // - cfg_id   : configure ID from TUD_CFGID_* enum values
  62:/home/pi/Developer/tinyusb/src/device/usbd.h **** // - cfg_param: configure data, structure depends on the ID
  63:/home/pi/Developer/tinyusb/src/device/usbd.h **** bool tud_configure(uint8_t rhport, uint32_t cfg_id, const void* cfg_param);
  64:/home/pi/Developer/tinyusb/src/device/usbd.h **** 
  65:/home/pi/Developer/tinyusb/src/device/usbd.h **** // New API to replace tud_init() to init device stack on specific roothub port
  66:/home/pi/Developer/tinyusb/src/device/usbd.h **** // Must be called in the same task/context as tud_task() if RTOS is used
  67:/home/pi/Developer/tinyusb/src/device/usbd.h **** bool tud_rhport_init(uint8_t rhport, const tusb_rhport_init_t* rh_init);
  68:/home/pi/Developer/tinyusb/src/device/usbd.h **** 
  69:/home/pi/Developer/tinyusb/src/device/usbd.h **** // Init device stack on roothub port
  70:/home/pi/Developer/tinyusb/src/device/usbd.h **** #if TUSB_VERSION_NUMBER > 2000  // 0.20.0
  71:/home/pi/Developer/tinyusb/src/device/usbd.h **** TU_ATTR_DEPRECATED("Please use tusb_init(rhport, rh_init) instead")
  72:/home/pi/Developer/tinyusb/src/device/usbd.h **** #endif
  73:/home/pi/Developer/tinyusb/src/device/usbd.h **** TU_ATTR_ALWAYS_INLINE static inline bool tud_init (uint8_t rhport) {
  74:/home/pi/Developer/tinyusb/src/device/usbd.h ****   const tusb_rhport_init_t rh_init = {
  75:/home/pi/Developer/tinyusb/src/device/usbd.h ****     .role = TUSB_ROLE_DEVICE,
  76:/home/pi/Developer/tinyusb/src/device/usbd.h ****     .speed = TUD_OPT_HIGH_SPEED ? TUSB_SPEED_HIGH : TUSB_SPEED_FULL
  77:/home/pi/Developer/tinyusb/src/device/usbd.h ****   };
  78:/home/pi/Developer/tinyusb/src/device/usbd.h ****   return tud_rhport_init(rhport, &rh_init);
  79:/home/pi/Developer/tinyusb/src/device/usbd.h **** }
  80:/home/pi/Developer/tinyusb/src/device/usbd.h **** 
  81:/home/pi/Developer/tinyusb/src/device/usbd.h **** // Deinit device stack on roothub port
  82:/home/pi/Developer/tinyusb/src/device/usbd.h **** // Must be called in the same task/context as tud_task() if RTOS is used
  83:/home/pi/Developer/tinyusb/src/device/usbd.h **** bool tud_deinit(uint8_t rhport);
  84:/home/pi/Developer/tinyusb/src/device/usbd.h **** 
  85:/home/pi/Developer/tinyusb/src/device/usbd.h **** // Check if device stack is already initialized
  86:/home/pi/Developer/tinyusb/src/device/usbd.h **** bool tud_inited(void);
  87:/home/pi/Developer/tinyusb/src/device/usbd.h **** 
  88:/home/pi/Developer/tinyusb/src/device/usbd.h **** // Task function should be called in main/rtos loop, extended version of tud_task()
  89:/home/pi/Developer/tinyusb/src/device/usbd.h **** // - timeout_ms: millisecond to wait, zero = no wait, 0xFFFFFFFF = wait forever
  90:/home/pi/Developer/tinyusb/src/device/usbd.h **** // - in_isr: if function is called in ISR
  91:/home/pi/Developer/tinyusb/src/device/usbd.h **** void tud_task_ext(uint32_t timeout_ms, bool in_isr);
  92:/home/pi/Developer/tinyusb/src/device/usbd.h **** 
  93:/home/pi/Developer/tinyusb/src/device/usbd.h **** // Task function should be called in main/rtos loop
  94:/home/pi/Developer/tinyusb/src/device/usbd.h **** TU_ATTR_ALWAYS_INLINE static inline
ARM GAS  /tmp/cc1gtgF4.s 			page 21


  95:/home/pi/Developer/tinyusb/src/device/usbd.h **** void tud_task (void) {
 549              		.loc 7 95 6 discriminator 1 view .LVU109
 550              	.LBB98:
  96:/home/pi/Developer/tinyusb/src/device/usbd.h ****   tud_task_ext(UINT32_MAX, false);
 551              		.loc 7 96 3 discriminator 1 view .LVU110
 552              		.loc 7 96 15 is_stmt 0 discriminator 1 view .LVU111
 553 0032 0021     		movs	r1, #0
 554 0034 4FF0FF30 		mov	r0, #-1
 555 0038 FFF7FEFF 		bl	tud_task_ext
 556              	.LVL27:
 557              	.LBE98:
 558              	.LBE97:
 143:TinyUsbHidExternal.cpp ****         led_blinking_task();
 559              		.loc 6 143 9 is_stmt 1 discriminator 1 view .LVU112
 560              	.LBB99:
 561              	.LBI99:
  37:TinyUsbHidExternal.cpp **** {
 562              		.loc 6 37 13 discriminator 1 view .LVU113
 563              	.LBB100:
  39:TinyUsbHidExternal.cpp ****     static bool led_state = false;
 564              		.loc 6 39 5 discriminator 1 view .LVU114
  40:TinyUsbHidExternal.cpp **** 
 565              		.loc 6 40 5 discriminator 1 view .LVU115
  42:TinyUsbHidExternal.cpp ****         return;
 566              		.loc 6 42 5 discriminator 1 view .LVU116
  44:TinyUsbHidExternal.cpp ****         return;
 567              		.loc 6 44 5 discriminator 1 view .LVU117
  42:TinyUsbHidExternal.cpp ****         return;
 568              		.loc 6 42 5 is_stmt 0 discriminator 1 view .LVU118
 569 003c 2B68     		ldr	r3, [r5]
 570 003e 8BB1     		cbz	r3, .L43
  44:TinyUsbHidExternal.cpp ****         return;
 571              		.loc 6 44 22 view .LVU119
 572 0040 FFF7FEFF 		bl	_ZN5daisy6System6GetNowEv
 573              	.LVL28:
  46:TinyUsbHidExternal.cpp ****     hw.SetLed(led_state);
 574              		.loc 6 46 5 is_stmt 1 view .LVU120
  44:TinyUsbHidExternal.cpp ****         return;
 575              		.loc 6 44 25 is_stmt 0 view .LVU121
 576 0044 3368     		ldr	r3, [r6]
  44:TinyUsbHidExternal.cpp ****         return;
 577              		.loc 6 44 22 view .LVU122
 578 0046 0246     		mov	r2, r0
  44:TinyUsbHidExternal.cpp ****         return;
 579              		.loc 6 44 36 view .LVU123
 580 0048 2968     		ldr	r1, [r5]
  47:TinyUsbHidExternal.cpp ****     led_state = !led_state;
 581              		.loc 6 47 14 view .LVU124
 582 004a 1748     		ldr	r0, .L53
  44:TinyUsbHidExternal.cpp ****         return;
 583              		.loc 6 44 25 view .LVU125
 584 004c D21A     		subs	r2, r2, r3
  46:TinyUsbHidExternal.cpp ****     hw.SetLed(led_state);
 585              		.loc 6 46 14 view .LVU126
 586 004e 0B44     		add	r3, r3, r1
  44:TinyUsbHidExternal.cpp ****         return;
 587              		.loc 6 44 5 view .LVU127
ARM GAS  /tmp/cc1gtgF4.s 			page 22


 588 0050 8A42     		cmp	r2, r1
 589 0052 07D3     		bcc	.L43
  47:TinyUsbHidExternal.cpp ****     led_state = !led_state;
 590              		.loc 6 47 14 view .LVU128
 591 0054 3978     		ldrb	r1, [r7]	@ zero_extendqisi2
  46:TinyUsbHidExternal.cpp ****     hw.SetLed(led_state);
 592              		.loc 6 46 14 view .LVU129
 593 0056 3360     		str	r3, [r6]
  47:TinyUsbHidExternal.cpp ****     led_state = !led_state;
 594              		.loc 6 47 5 is_stmt 1 view .LVU130
  47:TinyUsbHidExternal.cpp ****     led_state = !led_state;
 595              		.loc 6 47 14 is_stmt 0 view .LVU131
 596 0058 FFF7FEFF 		bl	_ZN5daisy9DaisySeed6SetLedEb
 597              	.LVL29:
  48:TinyUsbHidExternal.cpp **** }
 598              		.loc 6 48 5 is_stmt 1 view .LVU132
  48:TinyUsbHidExternal.cpp **** }
 599              		.loc 6 48 17 is_stmt 0 view .LVU133
 600 005c 3B78     		ldrb	r3, [r7]	@ zero_extendqisi2
 601 005e 83F00103 		eor	r3, r3, #1
  48:TinyUsbHidExternal.cpp **** }
 602              		.loc 6 48 15 view .LVU134
 603 0062 3B70     		strb	r3, [r7]
 604              	.L43:
 605              	.LBE100:
 606              	.LBE99:
 144:TinyUsbHidExternal.cpp ****         hid_task();
 607              		.loc 6 144 9 is_stmt 1 view .LVU135
 608              	.LBB101:
 609              	.LBI101:
  51:TinyUsbHidExternal.cpp **** {
 610              		.loc 6 51 13 view .LVU136
 611              	.LBB102:
  53:TinyUsbHidExternal.cpp ****     static uint32_t start_ms = 0;
 612              		.loc 6 53 5 view .LVU137
 613              	.LVL30:
  54:TinyUsbHidExternal.cpp **** 
 614              		.loc 6 54 5 view .LVU138
  56:TinyUsbHidExternal.cpp ****         return;
 615              		.loc 6 56 5 view .LVU139
  56:TinyUsbHidExternal.cpp ****         return;
 616              		.loc 6 56 22 is_stmt 0 view .LVU140
 617 0064 FFF7FEFF 		bl	_ZN5daisy6System6GetNowEv
 618              	.LVL31:
  58:TinyUsbHidExternal.cpp **** 
 619              		.loc 6 58 5 is_stmt 1 view .LVU141
  56:TinyUsbHidExternal.cpp ****         return;
 620              		.loc 6 56 25 is_stmt 0 view .LVU142
 621 0068 2368     		ldr	r3, [r4]
 622 006a C01A     		subs	r0, r0, r3
  58:TinyUsbHidExternal.cpp **** 
 623              		.loc 6 58 14 view .LVU143
 624 006c 0A33     		adds	r3, r3, #10
  56:TinyUsbHidExternal.cpp ****         return;
 625              		.loc 6 56 5 view .LVU144
 626 006e 0928     		cmp	r0, #9
 627 0070 DFD9     		bls	.L45
ARM GAS  /tmp/cc1gtgF4.s 			page 23


  58:TinyUsbHidExternal.cpp **** 
 628              		.loc 6 58 14 view .LVU145
 629 0072 2360     		str	r3, [r4]
  60:TinyUsbHidExternal.cpp **** 
 630              		.loc 6 60 5 is_stmt 1 view .LVU146
 631              	.LBE102:
 632              	.LBE101:
  29:TinyUsbHidExternal.cpp **** }
 633              		.loc 6 29 5 view .LVU147
 634              	.LVL32:
 635              	.LBB111:
 636              	.LBB109:
  62:TinyUsbHidExternal.cpp ****     {
 637              		.loc 6 62 5 view .LVU148
 638              	.LBB103:
  62:TinyUsbHidExternal.cpp ****     {
 639              		.loc 6 62 21 is_stmt 0 view .LVU149
 640 0074 FFF7FEFF 		bl	tud_suspended
 641              	.LVL33:
  64:TinyUsbHidExternal.cpp ****     }
 642              		.loc 6 64 9 is_stmt 1 view .LVU150
 643              	.LBE103:
 644              	.LBE109:
 645              	.LBE111:
  68:TinyUsbHidExternal.cpp ****         {
 646              		.loc 6 68 9 view .LVU151
 647              	.LBB112:
 648              	.LBB110:
 649              	.LBB108:
  62:TinyUsbHidExternal.cpp ****     {
 650              		.loc 6 62 24 is_stmt 0 view .LVU152
 651 0078 8046     		mov	r8, r0
 652 007a 10B1     		cbz	r0, .L46
  64:TinyUsbHidExternal.cpp ****     }
 653              		.loc 6 64 26 view .LVU153
 654 007c FFF7FEFF 		bl	tud_remote_wakeup
 655              	.LVL34:
 656 0080 D7E7     		b	.L45
 657              	.L46:
 658              	.LBB104:
  68:TinyUsbHidExternal.cpp ****         {
 659              		.loc 6 68 27 view .LVU154
 660 0082 FFF7FEFF 		bl	tud_hid_n_ready
 661              	.LVL35:
  68:TinyUsbHidExternal.cpp ****         {
 662              		.loc 6 68 9 view .LVU155
 663 0086 0028     		cmp	r0, #0
 664 0088 D3D0     		beq	.L45
 665              	.LBB105:
  70:TinyUsbHidExternal.cpp ****             uint8_t const report_id = 0;
 666              		.loc 6 70 13 is_stmt 1 view .LVU156
  71:TinyUsbHidExternal.cpp ****             uint8_t const modifier = 0;
 667              		.loc 6 71 13 view .LVU157
 668              	.LVL36:
  72:TinyUsbHidExternal.cpp **** 
 669              		.loc 6 72 13 view .LVU158
  74:TinyUsbHidExternal.cpp ****             {
ARM GAS  /tmp/cc1gtgF4.s 			page 24


 670              		.loc 6 74 13 view .LVU159
 671              	.LBB106:
 672              	.LBB107:
  76:TinyUsbHidExternal.cpp ****                 keycode[0] = HID_KEY_A;
 673              		.loc 6 76 17 view .LVU160
  77:TinyUsbHidExternal.cpp ****                 tud_hid_n_keyboard_report(ITF_NUM_KEYBOARD, report_id, modifier, keycode);
 674              		.loc 6 77 28 is_stmt 0 view .LVU161
 675 008a 4FF0040C 		mov	ip, #4
  78:TinyUsbHidExternal.cpp ****                 has_keyboard_key = true;
 676              		.loc 6 78 42 view .LVU162
 677 008e 02AB     		add	r3, sp, #8
 678 0090 4246     		mov	r2, r8
 679 0092 4146     		mov	r1, r8
 680 0094 4046     		mov	r0, r8
  76:TinyUsbHidExternal.cpp ****                 keycode[0] = HID_KEY_A;
 681              		.loc 6 76 25 view .LVU163
 682 0096 CDF80880 		str	r8, [sp, #8]
 683 009a ADF80C80 		strh	r8, [sp, #12]	@ movhi
  77:TinyUsbHidExternal.cpp ****                 tud_hid_n_keyboard_report(ITF_NUM_KEYBOARD, report_id, modifier, keycode);
 684              		.loc 6 77 17 is_stmt 1 view .LVU164
  77:TinyUsbHidExternal.cpp ****                 tud_hid_n_keyboard_report(ITF_NUM_KEYBOARD, report_id, modifier, keycode);
 685              		.loc 6 77 28 is_stmt 0 view .LVU165
 686 009e 8DF808C0 		strb	ip, [sp, #8]
  78:TinyUsbHidExternal.cpp ****                 has_keyboard_key = true;
 687              		.loc 6 78 17 is_stmt 1 view .LVU166
  78:TinyUsbHidExternal.cpp ****                 has_keyboard_key = true;
 688              		.loc 6 78 42 is_stmt 0 view .LVU167
 689 00a2 FFF7FEFF 		bl	tud_hid_n_keyboard_report
 690              	.LVL37:
  79:TinyUsbHidExternal.cpp ****             }
 691              		.loc 6 79 17 is_stmt 1 view .LVU168
 692              	.LBE107:
 693 00a6 C4E7     		b	.L45
 694              	.L54:
 695              		.align	2
 696              	.L53:
 697 00a8 00000000 		.word	.LANCHOR0
 698 00ac 24000000 		.word	.LANCHOR0+36
 699 00b0 00000000 		.word	.LANCHOR2
 700 00b4 00000000 		.word	.LANCHOR1
 701 00b8 00000000 		.word	.LANCHOR3
 702 00bc 00000000 		.word	.LANCHOR4
 703 00c0 00000000 		.word	.LANCHOR5
 704              	.LBE106:
 705              	.LBE105:
 706              	.LBE104:
 707              	.LBE108:
 708              	.LBE110:
 709              	.LBE112:
 710              		.cfi_endproc
 711              	.LFE2667:
 713              		.section	.text.startup._GLOBAL__sub_I_hw,"ax",%progbits
 714              		.align	1
 715              		.p2align 2,,3
 716              		.syntax unified
 717              		.thumb
 718              		.thumb_func
ARM GAS  /tmp/cc1gtgF4.s 			page 25


 719              		.fpu fpv5-d16
 721              	_GLOBAL__sub_I_hw:
 722              	.LFB2686:
 145:TinyUsbHidExternal.cpp ****     }
 146:TinyUsbHidExternal.cpp **** }
 723              		.loc 6 146 1 view -0
 724              		.cfi_startproc
 725              		@ args = 0, pretend = 0, frame = 0
 726              		@ frame_needed = 0, uses_anonymous_args = 0
 727              		@ link register save eliminated.
 728              	.LBB134:
 729              	.LBI134:
 730              		.loc 6 146 1 view .LVU170
 731              	.LVL38:
 732              	.LBB135:
 733              	.LBB136:
 734              	.LBI136:
  21:../../libDaisy/src/daisy_seed.h ****     ~DaisySeed() {}
 735              		.loc 1 21 5 view .LVU171
 736              	.LBB137:
 737              	.LBB138:
 738              	.LBI138:
 739              		.file 8 "../../libDaisy/src/per/qspi.h"
   1:../../libDaisy/src/per/qspi.h **** #ifndef DSY_QSPI
   2:../../libDaisy/src/per/qspi.h **** #define DSY_QSPI /**< Macro */
   3:../../libDaisy/src/per/qspi.h **** 
   4:../../libDaisy/src/per/qspi.h **** #ifndef UNIT_TEST // for unit tests, a dummy implementation
   5:../../libDaisy/src/per/qspi.h **** 
   6:../../libDaisy/src/per/qspi.h **** #include <cstdint>
   7:../../libDaisy/src/per/qspi.h **** #include "daisy_core.h" // Added for dsy_gpio_pin typedef
   8:../../libDaisy/src/per/qspi.h **** 
   9:../../libDaisy/src/per/qspi.h **** #define DSY_QSPI_TEXT       \
  10:../../libDaisy/src/per/qspi.h ****     __attribute__((section( \
  11:../../libDaisy/src/per/qspi.h ****         ".qspiflash_text"))) /**< used for reading memory in memory_mapped mode. */
  12:../../libDaisy/src/per/qspi.h **** #define DSY_QSPI_DATA       \
  13:../../libDaisy/src/per/qspi.h ****     __attribute__((section( \
  14:../../libDaisy/src/per/qspi.h ****         ".qspiflash_data"))) /**< used for reading memory in memory_mapped mode. */
  15:../../libDaisy/src/per/qspi.h **** #define DSY_QSPI_BSS        \
  16:../../libDaisy/src/per/qspi.h ****     __attribute__((section( \
  17:../../libDaisy/src/per/qspi.h ****         ".qspiflash_bss"))) /**< used for reading memory in memory_mapped mode. */
  18:../../libDaisy/src/per/qspi.h **** 
  19:../../libDaisy/src/per/qspi.h **** namespace daisy
  20:../../libDaisy/src/per/qspi.h **** {
  21:../../libDaisy/src/per/qspi.h **** /** @addtogroup serial
  22:../../libDaisy/src/per/qspi.h **** @{
  23:../../libDaisy/src/per/qspi.h **** */
  24:../../libDaisy/src/per/qspi.h **** 
  25:../../libDaisy/src/per/qspi.h **** /** 
  26:../../libDaisy/src/per/qspi.h ****  Driver for QSPI peripheral to interface with external flash memory. \n 
  27:../../libDaisy/src/per/qspi.h ****     Currently supported QSPI Devices: \n 
  28:../../libDaisy/src/per/qspi.h ****     * IS25LP080D
  29:../../libDaisy/src/per/qspi.h **** */
  30:../../libDaisy/src/per/qspi.h **** class QSPIHandle
  31:../../libDaisy/src/per/qspi.h **** {
  32:../../libDaisy/src/per/qspi.h ****   public:
  33:../../libDaisy/src/per/qspi.h ****     enum Result
  34:../../libDaisy/src/per/qspi.h ****     {
ARM GAS  /tmp/cc1gtgF4.s 			page 26


  35:../../libDaisy/src/per/qspi.h ****         OK = 0,
  36:../../libDaisy/src/per/qspi.h ****         ERR
  37:../../libDaisy/src/per/qspi.h ****     };
  38:../../libDaisy/src/per/qspi.h **** 
  39:../../libDaisy/src/per/qspi.h ****     /** Indicates the current status of the module. 
  40:../../libDaisy/src/per/qspi.h ****          *  Warnings are indicated by a leading W.
  41:../../libDaisy/src/per/qspi.h ****          *  Errors are indicated by a leading E and cause an immediate exit.
  42:../../libDaisy/src/per/qspi.h ****          * 
  43:../../libDaisy/src/per/qspi.h ****          *  \param GOOD - No errors have been reported.
  44:../../libDaisy/src/per/qspi.h ****          *  \param E_HAL_ERROR - HAL code did not return HAL_OK.
  45:../../libDaisy/src/per/qspi.h ****          *  \param E_SWITCHING_MODES - An error was encountered while switching QSPI peripheral mod
  46:../../libDaisy/src/per/qspi.h ****          *  \param E_INVALID_MODE - QSPI should not be written to while the program is executing fr
  47:../../libDaisy/src/per/qspi.h ****          */
  48:../../libDaisy/src/per/qspi.h ****     enum Status
  49:../../libDaisy/src/per/qspi.h ****     {
  50:../../libDaisy/src/per/qspi.h ****         GOOD = 0,
  51:../../libDaisy/src/per/qspi.h ****         E_HAL_ERROR,
  52:../../libDaisy/src/per/qspi.h ****         E_SWITCHING_MODES,
  53:../../libDaisy/src/per/qspi.h ****         E_INVALID_MODE,
  54:../../libDaisy/src/per/qspi.h ****     };
  55:../../libDaisy/src/per/qspi.h **** 
  56:../../libDaisy/src/per/qspi.h ****     /** Configuration structure for interfacing with QSPI Driver */
  57:../../libDaisy/src/per/qspi.h ****     struct Config
  58:../../libDaisy/src/per/qspi.h ****     {
  59:../../libDaisy/src/per/qspi.h ****         /** Flash Devices supported. (Both of these are more-or-less the same, just different sizes
  60:../../libDaisy/src/per/qspi.h ****         enum Device
  61:../../libDaisy/src/per/qspi.h ****         {
  62:../../libDaisy/src/per/qspi.h ****             IS25LP080D,  /**< & */
  63:../../libDaisy/src/per/qspi.h ****             IS25LP064A,  /**< & */
  64:../../libDaisy/src/per/qspi.h ****             DEVICE_LAST, /**< & */
  65:../../libDaisy/src/per/qspi.h ****         };
  66:../../libDaisy/src/per/qspi.h **** 
  67:../../libDaisy/src/per/qspi.h ****         /** 
  68:../../libDaisy/src/per/qspi.h ****         Modes of operation.
  69:../../libDaisy/src/per/qspi.h ****         Memory Mapped mode: QSPI configured so that the QSPI can be
  70:../../libDaisy/src/per/qspi.h ****         read from starting address 0x90000000. Writing is not
  71:../../libDaisy/src/per/qspi.h ****         possible in this mode. \n 
  72:../../libDaisy/src/per/qspi.h ****         Indirect Polling mode: Device driver enabled. 
  73:../../libDaisy/src/per/qspi.h ****         */
  74:../../libDaisy/src/per/qspi.h ****         enum Mode
  75:../../libDaisy/src/per/qspi.h ****         {
  76:../../libDaisy/src/per/qspi.h ****             MEMORY_MAPPED,    /**< & */
  77:../../libDaisy/src/per/qspi.h ****             INDIRECT_POLLING, /**< & */
  78:../../libDaisy/src/per/qspi.h ****             MODE_LAST,
  79:../../libDaisy/src/per/qspi.h ****         };
  80:../../libDaisy/src/per/qspi.h **** 
  81:../../libDaisy/src/per/qspi.h ****         //SCK,  CE# (active low)
  82:../../libDaisy/src/per/qspi.h ****         struct
  83:../../libDaisy/src/per/qspi.h ****         {
  84:../../libDaisy/src/per/qspi.h ****             dsy_gpio_pin io0; /**< & */
  85:../../libDaisy/src/per/qspi.h ****             dsy_gpio_pin io1; /**< & */
  86:../../libDaisy/src/per/qspi.h ****             dsy_gpio_pin io2; /**< & */
  87:../../libDaisy/src/per/qspi.h ****             dsy_gpio_pin io3; /**< & */
  88:../../libDaisy/src/per/qspi.h ****             dsy_gpio_pin clk; /**< & */
  89:../../libDaisy/src/per/qspi.h ****             dsy_gpio_pin ncs; /**< & */
  90:../../libDaisy/src/per/qspi.h ****         } pin_config;
  91:../../libDaisy/src/per/qspi.h **** 
ARM GAS  /tmp/cc1gtgF4.s 			page 27


  92:../../libDaisy/src/per/qspi.h ****         Device device;
  93:../../libDaisy/src/per/qspi.h ****         Mode   mode;
  94:../../libDaisy/src/per/qspi.h ****     };
  95:../../libDaisy/src/per/qspi.h **** 
  96:../../libDaisy/src/per/qspi.h ****     /** 
  97:../../libDaisy/src/per/qspi.h ****         Initializes QSPI peripheral, and Resets, and prepares memory for access.
  98:../../libDaisy/src/per/qspi.h ****         \param config should be populated with the mode, device and pin_config before calling this 
  99:../../libDaisy/src/per/qspi.h ****         \return Result::OK or Result::ERR
 100:../../libDaisy/src/per/qspi.h ****         */
 101:../../libDaisy/src/per/qspi.h ****     Result Init(const Config& config);
 102:../../libDaisy/src/per/qspi.h **** 
 103:../../libDaisy/src/per/qspi.h ****     /** Returns the current config. */
 104:../../libDaisy/src/per/qspi.h ****     const Config& GetConfig() const;
 105:../../libDaisy/src/per/qspi.h **** 
 106:../../libDaisy/src/per/qspi.h ****     // Couldn't this just be called before anything else in init? That
 107:../../libDaisy/src/per/qspi.h ****     // would make manually calling it unnecessary.
 108:../../libDaisy/src/per/qspi.h ****     /** 
 109:../../libDaisy/src/per/qspi.h ****         Deinitializes the peripheral
 110:../../libDaisy/src/per/qspi.h ****         This should be called before reinitializing QSPI in a different mode.
 111:../../libDaisy/src/per/qspi.h ****         \return Result::OK or Result::ERR
 112:../../libDaisy/src/per/qspi.h ****         */
 113:../../libDaisy/src/per/qspi.h ****     Result DeInit();
 114:../../libDaisy/src/per/qspi.h **** 
 115:../../libDaisy/src/per/qspi.h ****     /** 
 116:../../libDaisy/src/per/qspi.h ****         Writes a single page to to the specified address on the QSPI chip.
 117:../../libDaisy/src/per/qspi.h ****         For IS25LP*, page size is 256 bytes.
 118:../../libDaisy/src/per/qspi.h ****         \param address Address to write to
 119:../../libDaisy/src/per/qspi.h ****         \param size Buffer size
 120:../../libDaisy/src/per/qspi.h ****         \param buffer Buffer to write
 121:../../libDaisy/src/per/qspi.h ****         \return Result::OK or Result::ERR
 122:../../libDaisy/src/per/qspi.h ****         */
 123:../../libDaisy/src/per/qspi.h ****     Result WritePage(uint32_t address, uint32_t size, uint8_t* buffer);
 124:../../libDaisy/src/per/qspi.h **** 
 125:../../libDaisy/src/per/qspi.h ****     /** 
 126:../../libDaisy/src/per/qspi.h ****         Writes data in buffer to to the QSPI. Starting at address to address+size 
 127:../../libDaisy/src/per/qspi.h ****         \param address Address to write to
 128:../../libDaisy/src/per/qspi.h ****         \param size Buffer size
 129:../../libDaisy/src/per/qspi.h ****         \param buffer Buffer to write
 130:../../libDaisy/src/per/qspi.h ****         \return Result::OK or Result::ERR
 131:../../libDaisy/src/per/qspi.h ****         */
 132:../../libDaisy/src/per/qspi.h ****     Result Write(uint32_t address, uint32_t size, uint8_t* buffer);
 133:../../libDaisy/src/per/qspi.h **** 
 134:../../libDaisy/src/per/qspi.h ****     /** 
 135:../../libDaisy/src/per/qspi.h ****         Erases the area specified on the chip.
 136:../../libDaisy/src/per/qspi.h ****         Erasures will happen by 4K, 32K or 64K increments.
 137:../../libDaisy/src/per/qspi.h ****         Smallest erase possible is 4kB at a time. (on IS25LP*)
 138:../../libDaisy/src/per/qspi.h ****         \param start_addr Address to begin erasing from
 139:../../libDaisy/src/per/qspi.h ****         \param end_addr  Address to stop erasing at
 140:../../libDaisy/src/per/qspi.h ****         \return Result::OK or Result::ERR
 141:../../libDaisy/src/per/qspi.h ****         */
 142:../../libDaisy/src/per/qspi.h ****     Result Erase(uint32_t start_addr, uint32_t end_addr);
 143:../../libDaisy/src/per/qspi.h **** 
 144:../../libDaisy/src/per/qspi.h ****     /**  
 145:../../libDaisy/src/per/qspi.h ****          Erases a single sector of the chip.  
 146:../../libDaisy/src/per/qspi.h ****         TODO: Document the size of this function. 
 147:../../libDaisy/src/per/qspi.h ****         \param address Address of sector to erase
 148:../../libDaisy/src/per/qspi.h ****         \return Result::OK or Result::ERR
ARM GAS  /tmp/cc1gtgF4.s 			page 28


 149:../../libDaisy/src/per/qspi.h ****         */
 150:../../libDaisy/src/per/qspi.h ****     Result EraseSector(uint32_t address);
 151:../../libDaisy/src/per/qspi.h **** 
 152:../../libDaisy/src/per/qspi.h ****     /** Returns the current class status. Useful for debugging.
 153:../../libDaisy/src/per/qspi.h ****      *  \returns Status
 154:../../libDaisy/src/per/qspi.h ****      */
 155:../../libDaisy/src/per/qspi.h ****     Status GetStatus();
 156:../../libDaisy/src/per/qspi.h **** 
 157:../../libDaisy/src/per/qspi.h ****     /** Returns a pointer to the actual memory used 
 158:../../libDaisy/src/per/qspi.h ****      *  The memory at this address is read-only
 159:../../libDaisy/src/per/qspi.h ****      *  to write to it use the Write function.
 160:../../libDaisy/src/per/qspi.h ****      * 
 161:../../libDaisy/src/per/qspi.h ****      *  \param offset returns the pointer starting this 
 162:../../libDaisy/src/per/qspi.h ****      *                many bytes into the memory
 163:../../libDaisy/src/per/qspi.h ****     */
 164:../../libDaisy/src/per/qspi.h ****     void* GetData(uint32_t offset = 0);
 165:../../libDaisy/src/per/qspi.h **** 
 166:../../libDaisy/src/per/qspi.h ****     QSPIHandle() : pimpl_(nullptr) {}
 740              		.loc 8 166 5 view .LVU172
 741              	.LBB139:
 742              	.LBB140:
 743              		.loc 8 166 34 is_stmt 0 view .LVU173
 744 0000 0448     		ldr	r0, .L56
 745 0002 0023     		movs	r3, #0
 746              	.LBE140:
 747              	.LBE139:
 748              	.LBE138:
 749              	.LBE137:
 750              	.LBE136:
   8:TinyUsbHidExternal.cpp **** static uint32_t blink_interval_ms = 250;
 751              		.loc 6 8 11 view .LVU174
 752 0004 044A     		ldr	r2, .L56+4
 753 0006 0549     		ldr	r1, .L56+8
 754              	.LBB157:
 755              	.LBB156:
 756              	.LBB143:
 757              	.LBB142:
 758              	.LBB141:
 759              		.loc 8 166 34 view .LVU175
 760 0008 0360     		str	r3, [r0]
 761              	.LVL39:
 762              		.loc 8 166 34 view .LVU176
 763              	.LBE141:
 764              	.LBE142:
 765              	.LBE143:
 766              	.LBB144:
 767              	.LBI144:
  95:../../libDaisy/src/hid/audio.h ****     ~AudioHandle() {}
 768              		.loc 5 95 5 is_stmt 1 view .LVU177
 769              	.LBB145:
 770              	.LBB146:
  95:../../libDaisy/src/hid/audio.h ****     ~AudioHandle() {}
 771              		.loc 5 95 35 is_stmt 0 view .LVU178
 772 000a 4361     		str	r3, [r0, #20]
 773              	.LVL40:
  95:../../libDaisy/src/hid/audio.h ****     ~AudioHandle() {}
 774              		.loc 5 95 35 view .LVU179
ARM GAS  /tmp/cc1gtgF4.s 			page 29


 775              	.LBE146:
 776              	.LBE145:
 777              	.LBE144:
 778              	.LBB147:
 779              	.LBI147:
 109:../../libDaisy/src/per/adc.h ****     ~AdcHandle() {}
 780              		.loc 4 109 5 is_stmt 1 view .LVU180
 109:../../libDaisy/src/per/adc.h ****     ~AdcHandle() {}
 781              		.loc 4 109 5 is_stmt 0 view .LVU181
 782              	.LBE147:
 783              	.LBB148:
 784              	.LBI148:
 785              		.file 9 "../../libDaisy/src/per/dac.h"
   1:../../libDaisy/src/per/dac.h **** #pragma once
   2:../../libDaisy/src/per/dac.h **** #ifndef DSY_DAC_H
   3:../../libDaisy/src/per/dac.h **** #define DSY_DAC_H
   4:../../libDaisy/src/per/dac.h **** 
   5:../../libDaisy/src/per/dac.h **** #include "daisy_core.h"
   6:../../libDaisy/src/per/dac.h **** 
   7:../../libDaisy/src/per/dac.h **** namespace daisy
   8:../../libDaisy/src/per/dac.h **** {
   9:../../libDaisy/src/per/dac.h **** /** @brief DAC handle for Built-in DAC Peripheral 
  10:../../libDaisy/src/per/dac.h ****  *  @ingroup per_analog
  11:../../libDaisy/src/per/dac.h ****  ** 
  12:../../libDaisy/src/per/dac.h ****  ** For now only Normal Mode is supported,
  13:../../libDaisy/src/per/dac.h ****  ** Sample and hold mode provides reduced power consumption, but requires a bit more setup.
  14:../../libDaisy/src/per/dac.h ****  **
  15:../../libDaisy/src/per/dac.h ****  ** For now connecting the DAC through other internal peripherals is also not supported.
  16:../../libDaisy/src/per/dac.h ****  **
  17:../../libDaisy/src/per/dac.h ****  ** Since the DAC channels have dedicated pins we don't need to pass in a pin config like with
  18:../../libDaisy/src/per/dac.h ****  ** other modules. However, it is still important to not try to use the DAC pins for anything else.
  19:../../libDaisy/src/per/dac.h ****  ** DAC Channel 1 is on PA4, and DAC Channel 2 is on PA5
  20:../../libDaisy/src/per/dac.h ****  ***/
  21:../../libDaisy/src/per/dac.h **** class DacHandle
  22:../../libDaisy/src/per/dac.h **** {
  23:../../libDaisy/src/per/dac.h ****   public:
  24:../../libDaisy/src/per/dac.h ****     /** Return Values for the DacHandle class */
  25:../../libDaisy/src/per/dac.h ****     enum class Result
  26:../../libDaisy/src/per/dac.h ****     {
  27:../../libDaisy/src/per/dac.h ****         OK,
  28:../../libDaisy/src/per/dac.h ****         ERR,
  29:../../libDaisy/src/per/dac.h ****     };
  30:../../libDaisy/src/per/dac.h **** 
  31:../../libDaisy/src/per/dac.h ****     /** Selects which channel(s) will be configured for use. */
  32:../../libDaisy/src/per/dac.h ****     enum class Channel
  33:../../libDaisy/src/per/dac.h ****     {
  34:../../libDaisy/src/per/dac.h ****         ONE,
  35:../../libDaisy/src/per/dac.h ****         TWO,
  36:../../libDaisy/src/per/dac.h ****         BOTH,
  37:../../libDaisy/src/per/dac.h ****     };
  38:../../libDaisy/src/per/dac.h **** 
  39:../../libDaisy/src/per/dac.h ****     /** Sets the Mode for the DAC channels.
  40:../../libDaisy/src/per/dac.h ****      **
  41:../../libDaisy/src/per/dac.h ****      ** Polling mode uses the blocking mode to transmit a single value at a time.
  42:../../libDaisy/src/per/dac.h ****      **
  43:../../libDaisy/src/per/dac.h ****      ** DMA mode uses a buffer, and periodically transmits it triggering a 
  44:../../libDaisy/src/per/dac.h ****      ** callback to fill the buffer when it is ready for more samples.
ARM GAS  /tmp/cc1gtgF4.s 			page 30


  45:../../libDaisy/src/per/dac.h ****      ***/
  46:../../libDaisy/src/per/dac.h ****     enum class Mode
  47:../../libDaisy/src/per/dac.h ****     {
  48:../../libDaisy/src/per/dac.h ****         POLLING,
  49:../../libDaisy/src/per/dac.h ****         DMA,
  50:../../libDaisy/src/per/dac.h ****     };
  51:../../libDaisy/src/per/dac.h **** 
  52:../../libDaisy/src/per/dac.h ****     /** Sets the number of bits per sample transmitted out of the DAC.
  53:../../libDaisy/src/per/dac.h ****      ** The output range will be: 0V - VDDA
  54:../../libDaisy/src/per/dac.h ****      ** The resolution will be roughly: bitdepth / (VDDA - 0V) 
  55:../../libDaisy/src/per/dac.h ****      ***/
  56:../../libDaisy/src/per/dac.h ****     enum class BitDepth
  57:../../libDaisy/src/per/dac.h ****     {
  58:../../libDaisy/src/per/dac.h ****         BITS_8,
  59:../../libDaisy/src/per/dac.h ****         BITS_12
  60:../../libDaisy/src/per/dac.h ****     };
  61:../../libDaisy/src/per/dac.h **** 
  62:../../libDaisy/src/per/dac.h ****     /** Sets whether the DAC output is buffered for higher drive ability. */
  63:../../libDaisy/src/per/dac.h ****     enum class BufferState
  64:../../libDaisy/src/per/dac.h ****     {
  65:../../libDaisy/src/per/dac.h ****         ENABLED,
  66:../../libDaisy/src/per/dac.h ****         DISABLED,
  67:../../libDaisy/src/per/dac.h ****     };
  68:../../libDaisy/src/per/dac.h **** 
  69:../../libDaisy/src/per/dac.h ****     /** Configuration structure for initializing the DAC structure. */
  70:../../libDaisy/src/per/dac.h ****     struct Config
  71:../../libDaisy/src/per/dac.h ****     {
  72:../../libDaisy/src/per/dac.h ****         /** Target Samplerate in Hz used to configure the internal 
  73:../../libDaisy/src/per/dac.h ****          ** timebase for DMA mode. Does nothing in POLLING mode.
  74:../../libDaisy/src/per/dac.h ****          ** If the value is 0 at Init time this will default to 48000Hz 
  75:../../libDaisy/src/per/dac.h ****          ** otherwise the driver will attempt meet the target.*/
  76:../../libDaisy/src/per/dac.h ****         uint32_t target_samplerate;
  77:../../libDaisy/src/per/dac.h **** 
  78:../../libDaisy/src/per/dac.h ****         Channel     chn;
  79:../../libDaisy/src/per/dac.h ****         Mode        mode;
  80:../../libDaisy/src/per/dac.h ****         BitDepth    bitdepth;
  81:../../libDaisy/src/per/dac.h ****         BufferState buff_state;
  82:../../libDaisy/src/per/dac.h ****     };
  83:../../libDaisy/src/per/dac.h **** 
  84:../../libDaisy/src/per/dac.h ****     DacHandle() : pimpl_(nullptr) {}
 786              		.loc 9 84 5 is_stmt 1 view .LVU182
 787              	.LBB149:
 788              	.LBB150:
 789              		.loc 9 84 33 is_stmt 0 view .LVU183
 790 000c 0362     		str	r3, [r0, #32]
 791              	.LVL41:
 792              		.loc 9 84 33 view .LVU184
 793              	.LBE150:
 794              	.LBE149:
 795              	.LBE148:
 796              	.LBB151:
 797              	.LBI151:
  40:../../libDaisy/src/hid/usb.h **** 
 798              		.loc 3 40 5 is_stmt 1 view .LVU185
  40:../../libDaisy/src/hid/usb.h **** 
 799              		.loc 3 40 5 is_stmt 0 view .LVU186
 800              	.LBE151:
ARM GAS  /tmp/cc1gtgF4.s 			page 31


 801              	.LBB152:
 802              	.LBI152:
  96:../../libDaisy/src/sys/system.h ****     ~System() {}
 803              		.loc 2 96 5 is_stmt 1 view .LVU187
  96:../../libDaisy/src/sys/system.h ****     ~System() {}
 804              		.loc 2 96 5 is_stmt 0 view .LVU188
 805              	.LBE152:
 806              	.LBB153:
 807              	.LBI153:
 808              		.file 10 "../../libDaisy/src/per/sai.h"
   1:../../libDaisy/src/per/sai.h **** #pragma once
   2:../../libDaisy/src/per/sai.h **** #ifndef DSY_SAI_H
   3:../../libDaisy/src/per/sai.h **** #define DSY_SAI_H
   4:../../libDaisy/src/per/sai.h **** 
   5:../../libDaisy/src/per/sai.h **** #include "daisy_core.h"
   6:../../libDaisy/src/per/sai.h **** 
   7:../../libDaisy/src/per/sai.h **** namespace daisy
   8:../../libDaisy/src/per/sai.h **** {
   9:../../libDaisy/src/per/sai.h **** /** 
  10:../../libDaisy/src/per/sai.h ****  * Support for I2S Audio Protocol with different bit-depth, samplerate options
  11:../../libDaisy/src/per/sai.h ****  * Allows for master or slave, as well as freedom of selecting direction, 
  12:../../libDaisy/src/per/sai.h ****  * and other behavior for each peripheral, and block.
  13:../../libDaisy/src/per/sai.h ****  * 
  14:../../libDaisy/src/per/sai.h ****  * DMA Transfer commands must use buffers located within non-cached memory or use cache maintenance
  15:../../libDaisy/src/per/sai.h ****  * To declare an unitialized global element in the DMA memory section:
  16:../../libDaisy/src/per/sai.h ****  *    int32_t DSY_DMA_BUFFER_SECTOR my_buffer[96];
  17:../../libDaisy/src/per/sai.h ****  *
  18:../../libDaisy/src/per/sai.h ****  * Callback functions will be called once per half of the buffer. In the above example, 
  19:../../libDaisy/src/per/sai.h ****  * the callback function would be called once for every 48 samples.
  20:../../libDaisy/src/per/sai.h ****  * 
  21:../../libDaisy/src/per/sai.h ****  * Use SAI Handle like this:
  22:../../libDaisy/src/per/sai.h ****  * 
  23:../../libDaisy/src/per/sai.h ****  *  SaiHandle::Config sai_config;
  24:../../libDaisy/src/per/sai.h ****  *  sai_config.periph          = SaiHandle::Config::Peripheral::SAI_1;
  25:../../libDaisy/src/per/sai.h ****  *  sai_config.sr              = SaiHandle::Config::SampleRate::SAI_48KHZ;
  26:../../libDaisy/src/per/sai.h ****  *  sai_config.bit_depth       = SaiHandle::Config::BitDepth::SAI_24BIT;
  27:../../libDaisy/src/per/sai.h ****  *  sai_config.a_sync          = SaiHandle::Config::Sync::MASTER;
  28:../../libDaisy/src/per/sai.h ****  *  sai_config.b_sync          = SaiHandle::Config::Sync::SLAVE;
  29:../../libDaisy/src/per/sai.h ****  *  sai_config.a_dir           = SaiHandle::Config::Direction::RECEIVE;
  30:../../libDaisy/src/per/sai.h ****  *  sai_config.b_dir           = SaiHandle::Config::Direction::TRANSMIT;
  31:../../libDaisy/src/per/sai.h ****  *  sai_config.pin_config.fs   = {DSY_GPIOE, 4};
  32:../../libDaisy/src/per/sai.h ****  *  sai_config.pin_config.mclk = {DSY_GPIOE, 2};
  33:../../libDaisy/src/per/sai.h ****  *  sai_config.pin_config.sck  = {DSY_GPIOE, 5};
  34:../../libDaisy/src/per/sai.h ****  *  sai_config.pin_config.sa   = {DSY_GPIOE, 6};
  35:../../libDaisy/src/per/sai.h ****  *  sai_config.pin_config.sb   = {DSY_GPIOE, 3};
  36:../../libDaisy/src/per/sai.h ****  *  // Then Initialize
  37:../../libDaisy/src/per/sai.h ****  *  SaiHandle sai;
  38:../../libDaisy/src/per/sai.h ****  *  sai.Init(sai_config);
  39:../../libDaisy/src/per/sai.h ****  *  // Now you can use it:
  40:../../libDaisy/src/per/sai.h ****  *  sai.StartDma(. . .);
  41:../../libDaisy/src/per/sai.h ****  */
  42:../../libDaisy/src/per/sai.h **** class SaiHandle
  43:../../libDaisy/src/per/sai.h **** {
  44:../../libDaisy/src/per/sai.h ****   public:
  45:../../libDaisy/src/per/sai.h ****     /** Contains settings for initialising an SAI Interface */
  46:../../libDaisy/src/per/sai.h ****     struct Config
  47:../../libDaisy/src/per/sai.h ****     {
ARM GAS  /tmp/cc1gtgF4.s 			page 32


  48:../../libDaisy/src/per/sai.h ****         /** Specifies the internal peripheral to use (mapped to different hardware pins) */
  49:../../libDaisy/src/per/sai.h ****         enum class Peripheral
  50:../../libDaisy/src/per/sai.h ****         {
  51:../../libDaisy/src/per/sai.h ****             SAI_1,
  52:../../libDaisy/src/per/sai.h ****             SAI_2,
  53:../../libDaisy/src/per/sai.h ****         };
  54:../../libDaisy/src/per/sai.h **** 
  55:../../libDaisy/src/per/sai.h ****         /** Rate at which samples will be streaming to/from the device. */
  56:../../libDaisy/src/per/sai.h ****         enum class SampleRate
  57:../../libDaisy/src/per/sai.h ****         {
  58:../../libDaisy/src/per/sai.h ****             SAI_8KHZ,
  59:../../libDaisy/src/per/sai.h ****             SAI_16KHZ,
  60:../../libDaisy/src/per/sai.h ****             SAI_32KHZ,
  61:../../libDaisy/src/per/sai.h ****             SAI_48KHZ,
  62:../../libDaisy/src/per/sai.h ****             SAI_96KHZ,
  63:../../libDaisy/src/per/sai.h ****         };
  64:../../libDaisy/src/per/sai.h **** 
  65:../../libDaisy/src/per/sai.h ****         /** Bit Depth that the hardware expects to be transferred to/from the device. */
  66:../../libDaisy/src/per/sai.h ****         enum class BitDepth
  67:../../libDaisy/src/per/sai.h ****         {
  68:../../libDaisy/src/per/sai.h ****             SAI_16BIT,
  69:../../libDaisy/src/per/sai.h ****             SAI_24BIT,
  70:../../libDaisy/src/per/sai.h ****             SAI_32BIT,
  71:../../libDaisy/src/per/sai.h ****         };
  72:../../libDaisy/src/per/sai.h **** 
  73:../../libDaisy/src/per/sai.h ****         /** Specifies whether a particular block is the master or the slave 
  74:../../libDaisy/src/per/sai.h ****          ** If both are set to slave, no MCLK signal will be used, and it is
  75:../../libDaisy/src/per/sai.h ****          ** expected that the codec will have its own xtal.
  76:../../libDaisy/src/per/sai.h ****          */
  77:../../libDaisy/src/per/sai.h ****         enum class Sync
  78:../../libDaisy/src/per/sai.h ****         {
  79:../../libDaisy/src/per/sai.h ****             MASTER,
  80:../../libDaisy/src/per/sai.h ****             SLAVE,
  81:../../libDaisy/src/per/sai.h ****         };
  82:../../libDaisy/src/per/sai.h **** 
  83:../../libDaisy/src/per/sai.h ****         /** Specifies the direction for each peripheral block. */
  84:../../libDaisy/src/per/sai.h ****         enum class Direction
  85:../../libDaisy/src/per/sai.h ****         {
  86:../../libDaisy/src/per/sai.h ****             TRANSMIT,
  87:../../libDaisy/src/per/sai.h ****             RECEIVE,
  88:../../libDaisy/src/per/sai.h ****         };
  89:../../libDaisy/src/per/sai.h **** 
  90:../../libDaisy/src/per/sai.h ****         Peripheral periph;
  91:../../libDaisy/src/per/sai.h ****         struct
  92:../../libDaisy/src/per/sai.h ****         {
  93:../../libDaisy/src/per/sai.h ****             dsy_gpio_pin mclk, fs, sck, sa, sb;
  94:../../libDaisy/src/per/sai.h ****         } pin_config;
  95:../../libDaisy/src/per/sai.h ****         SampleRate sr;
  96:../../libDaisy/src/per/sai.h ****         BitDepth   bit_depth;
  97:../../libDaisy/src/per/sai.h ****         Sync       a_sync, b_sync;
  98:../../libDaisy/src/per/sai.h ****         Direction  a_dir, b_dir;
  99:../../libDaisy/src/per/sai.h ****     };
 100:../../libDaisy/src/per/sai.h **** 
 101:../../libDaisy/src/per/sai.h ****     /** Return values for SAI functions */
 102:../../libDaisy/src/per/sai.h ****     enum class Result
 103:../../libDaisy/src/per/sai.h ****     {
 104:../../libDaisy/src/per/sai.h ****         OK,
ARM GAS  /tmp/cc1gtgF4.s 			page 33


 105:../../libDaisy/src/per/sai.h ****         ERR,
 106:../../libDaisy/src/per/sai.h ****     };
 107:../../libDaisy/src/per/sai.h **** 
 108:../../libDaisy/src/per/sai.h ****     SaiHandle() : pimpl_(nullptr) {}
 809              		.loc 10 108 5 is_stmt 1 view .LVU189
 810              	.LBB154:
 811              	.LBB155:
 812              		.loc 10 108 33 is_stmt 0 view .LVU190
 813 000e C363     		str	r3, [r0, #60]
 814              	.LVL42:
 815              		.loc 10 108 33 view .LVU191
 816              	.LBE155:
 817              	.LBE154:
 818              	.LBE153:
 819              	.LBE156:
 820              	.LBE157:
   8:TinyUsbHidExternal.cpp **** static uint32_t blink_interval_ms = 250;
 821              		.loc 6 8 11 view .LVU192
 822 0010 FFF7FEBF 		b	__aeabi_atexit
 823              	.LVL43:
 824              	.L57:
 825              		.align	2
 826              	.L56:
 827 0014 00000000 		.word	.LANCHOR0
 828 0018 00000000 		.word	__dso_handle
 829 001c 00000000 		.word	_ZN5daisy9DaisySeedD1Ev
 830              	.LBE135:
 831              	.LBE134:
 832              		.cfi_endproc
 833              	.LFE2686:
 835              		.section	.init_array,"aw",%init_array
 836              		.align	2
 837 0000 00000000 		.word	_GLOBAL__sub_I_hw(target1)
 838              		.global	hw
 839              		.section	.rodata
 840              		.align	2
 841              		.set	.LANCHOR2,. + 0
 842              	.LC0:
 843 0000 01       		.byte	1
 844 0001 AA       		.byte	-86
 845              		.section	.bss._ZZL17led_blinking_taskvE8start_ms,"aw",%nobits
 846              		.align	2
 847              		.set	.LANCHOR3,. + 0
 850              	_ZZL17led_blinking_taskvE8start_ms:
 851 0000 00000000 		.space	4
 852              		.section	.bss._ZZL17led_blinking_taskvE9led_state,"aw",%nobits
 853              		.set	.LANCHOR4,. + 0
 856              	_ZZL17led_blinking_taskvE9led_state:
 857 0000 00       		.space	1
 858              		.section	.bss._ZZL8hid_taskvE8start_ms,"aw",%nobits
 859              		.align	2
 860              		.set	.LANCHOR5,. + 0
 863              	_ZZL8hid_taskvE8start_ms:
 864 0000 00000000 		.space	4
 865              		.section	.bss.hw,"aw",%nobits
 866              		.align	2
 867              		.set	.LANCHOR0,. + 0
ARM GAS  /tmp/cc1gtgF4.s 			page 34


 870              	hw:
 871 0000 00000000 		.space	64
 871      00000000 
 871      00000000 
 871      00000000 
 871      00000000 
 872              		.section	.data._ZL17blink_interval_ms,"aw"
 873              		.align	2
 874              		.set	.LANCHOR1,. + 0
 877              	_ZL17blink_interval_ms:
 878 0000 FA000000 		.word	250
 879              		.text
 880              	.Letext0:
 881              		.file 11 "/home/pi/Developer/gcc-arm-none-eabi-10-2020-q4-major/arm-none-eabi/include/machine/_def
 882              		.file 12 "/home/pi/Developer/gcc-arm-none-eabi-10-2020-q4-major/arm-none-eabi/include/sys/_stdint.
 883              		.file 13 "/home/pi/Developer/gcc-arm-none-eabi-10-2020-q4-major/arm-none-eabi/include/stdint.h"
 884              		.file 14 "/home/pi/Developer/gcc-arm-none-eabi-10-2020-q4-major/lib/gcc/arm-none-eabi/10.2.1/inclu
 885              		.file 15 "/home/pi/Developer/gcc-arm-none-eabi-10-2020-q4-major/arm-none-eabi/include/c++/10.2.1/c
 886              		.file 16 "/home/pi/Developer/gcc-arm-none-eabi-10-2020-q4-major/arm-none-eabi/include/c++/10.2.1/b
 887              		.file 17 "/home/pi/Developer/gcc-arm-none-eabi-10-2020-q4-major/arm-none-eabi/include/c++/10.2.1/c
 888              		.file 18 "/home/pi/Developer/gcc-arm-none-eabi-10-2020-q4-major/arm-none-eabi/include/c++/10.2.1/c
 889              		.file 19 "/home/pi/Developer/gcc-arm-none-eabi-10-2020-q4-major/arm-none-eabi/include/c++/10.2.1/t
 890              		.file 20 "/home/pi/Developer/gcc-arm-none-eabi-10-2020-q4-major/arm-none-eabi/include/c++/10.2.1/d
 891              		.file 21 "/home/pi/Developer/gcc-arm-none-eabi-10-2020-q4-major/arm-none-eabi/include/c++/10.2.1/a
 892              		.file 22 "/home/pi/Developer/gcc-arm-none-eabi-10-2020-q4-major/arm-none-eabi/include/c++/10.2.1/b
 893              		.file 23 "/home/pi/Developer/gcc-arm-none-eabi-10-2020-q4-major/arm-none-eabi/include/c++/10.2.1/b
 894              		.file 24 "/home/pi/Developer/gcc-arm-none-eabi-10-2020-q4-major/arm-none-eabi/include/c++/10.2.1/b
 895              		.file 25 "/home/pi/Developer/gcc-arm-none-eabi-10-2020-q4-major/arm-none-eabi/include/c++/10.2.1/c
 896              		.file 26 "/home/pi/Developer/gcc-arm-none-eabi-10-2020-q4-major/arm-none-eabi/include/c++/10.2.1/c
 897              		.file 27 "/home/pi/Developer/gcc-arm-none-eabi-10-2020-q4-major/arm-none-eabi/include/c++/10.2.1/c
 898              		.file 28 "/home/pi/Developer/gcc-arm-none-eabi-10-2020-q4-major/arm-none-eabi/include/c++/10.2.1/b
 899              		.file 29 "/home/pi/Developer/gcc-arm-none-eabi-10-2020-q4-major/arm-none-eabi/include/sys/_types.h
 900              		.file 30 "/home/pi/Developer/gcc-arm-none-eabi-10-2020-q4-major/arm-none-eabi/include/sys/reent.h"
 901              		.file 31 "/home/pi/Developer/gcc-arm-none-eabi-10-2020-q4-major/arm-none-eabi/include/sys/lock.h"
 902              		.file 32 "/home/pi/Developer/gcc-arm-none-eabi-10-2020-q4-major/arm-none-eabi/include/math.h"
 903              		.file 33 "/home/pi/Developer/gcc-arm-none-eabi-10-2020-q4-major/arm-none-eabi/include/stdlib.h"
 904              		.file 34 "/home/pi/Developer/gcc-arm-none-eabi-10-2020-q4-major/arm-none-eabi/include/c++/10.2.1/m
 905              		.file 35 "/home/pi/Developer/gcc-arm-none-eabi-10-2020-q4-major/arm-none-eabi/include/c++/10.2.1/s
 906              		.file 36 "../../libDaisy/src/daisy_core.h"
 907              		.file 37 "../../libDaisy/src/per/tim.h"
 908              		.file 38 "../../libDaisy/src/util/wav_format.h"
 909              		.file 39 "../../libDaisy/src/dev/max11300.h"
 910              		.file 40 "../../libDaisy/src/per/gpio.h"
 911              		.file 41 "../../libDaisy/src/dev/sdram.h"
 912              		.file 42 "/home/pi/Developer/gcc-arm-none-eabi-10-2020-q4-major/lib/gcc/arm-none-eabi/10.2.1/inclu
 913              		.file 43 "/home/pi/Developer/gcc-arm-none-eabi-10-2020-q4-major/arm-none-eabi/include/stdio.h"
 914              		.file 44 "/home/pi/Developer/gcc-arm-none-eabi-10-2020-q4-major/arm-none-eabi/include/string.h"
 915              		.file 45 "/home/pi/Developer/tinyusb/src/common/tusb_types.h"
 916              		.file 46 "/home/pi/Developer/tinyusb/src/class/hid/hid.h"
 917              		.file 47 "../../libDaisy/src/dev/sr_595.h"
 918              		.file 48 "/home/pi/Developer/tinyusb/src/class/hid/hid_device.h"
 919              		.file 49 "/home/pi/Developer/tinyusb/src/tusb.h"
 920              		.file 50 "<built-in>"
 921              		.file 51 "usb_descriptors.h"
ARM GAS  /tmp/cc1gtgF4.s 			page 35

