ARM GAS  /tmp/cci2pXLM.s 			page 1


   1              		.cpu cortex-m7
   2              		.eabi_attribute 28, 1
   3              		.eabi_attribute 20, 1
   4              		.eabi_attribute 21, 1
   5              		.eabi_attribute 23, 3
   6              		.eabi_attribute 24, 1
   7              		.eabi_attribute 25, 1
   8              		.eabi_attribute 26, 1
   9              		.eabi_attribute 30, 2
  10              		.eabi_attribute 34, 1
  11              		.eabi_attribute 18, 4
  12              		.file	"usbd.c"
  13              		.text
  14              	.Ltext0:
  15              		.cfi_sections	.debug_frame
  16              		.section	.text.tud_vendor_control_xfer_cb,"ax",%progbits
  17              		.align	1
  18              		.p2align 2,,3
  19              		.weak	tud_vendor_control_xfer_cb
  20              		.arch armv7e-m
  21              		.syntax unified
  22              		.thumb
  23              		.thumb_func
  24              		.fpu fpv5-d16
  26              	tud_vendor_control_xfer_cb:
  27              	.LVL0:
  28              	.LFB435:
  29              		.file 1 "/home/pi/Developer/tinyusb/src/device/usbd.c"
   1:/home/pi/Developer/tinyusb/src/device/usbd.c **** /*
   2:/home/pi/Developer/tinyusb/src/device/usbd.c ****  * The MIT License (MIT)
   3:/home/pi/Developer/tinyusb/src/device/usbd.c ****  *
   4:/home/pi/Developer/tinyusb/src/device/usbd.c ****  * Copyright (c) 2019 Ha Thach (tinyusb.org)
   5:/home/pi/Developer/tinyusb/src/device/usbd.c ****  *
   6:/home/pi/Developer/tinyusb/src/device/usbd.c ****  * Permission is hereby granted, free of charge, to any person obtaining a copy
   7:/home/pi/Developer/tinyusb/src/device/usbd.c ****  * of this software and associated documentation files (the "Software"), to deal
   8:/home/pi/Developer/tinyusb/src/device/usbd.c ****  * in the Software without restriction, including without limitation the rights
   9:/home/pi/Developer/tinyusb/src/device/usbd.c ****  * to use, copy, modify, merge, publish, distribute, sublicense, and/or sell
  10:/home/pi/Developer/tinyusb/src/device/usbd.c ****  * copies of the Software, and to permit persons to whom the Software is
  11:/home/pi/Developer/tinyusb/src/device/usbd.c ****  * furnished to do so, subject to the following conditions:
  12:/home/pi/Developer/tinyusb/src/device/usbd.c ****  *
  13:/home/pi/Developer/tinyusb/src/device/usbd.c ****  * The above copyright notice and this permission notice shall be included in
  14:/home/pi/Developer/tinyusb/src/device/usbd.c ****  * all copies or substantial portions of the Software.
  15:/home/pi/Developer/tinyusb/src/device/usbd.c ****  *
  16:/home/pi/Developer/tinyusb/src/device/usbd.c ****  * THE SOFTWARE IS PROVIDED "AS IS", WITHOUT WARRANTY OF ANY KIND, EXPRESS OR
  17:/home/pi/Developer/tinyusb/src/device/usbd.c ****  * IMPLIED, INCLUDING BUT NOT LIMITED TO THE WARRANTIES OF MERCHANTABILITY,
  18:/home/pi/Developer/tinyusb/src/device/usbd.c ****  * FITNESS FOR A PARTICULAR PURPOSE AND NONINFRINGEMENT. IN NO EVENT SHALL THE
  19:/home/pi/Developer/tinyusb/src/device/usbd.c ****  * AUTHORS OR COPYRIGHT HOLDERS BE LIABLE FOR ANY CLAIM, DAMAGES OR OTHER
  20:/home/pi/Developer/tinyusb/src/device/usbd.c ****  * LIABILITY, WHETHER IN AN ACTION OF CONTRACT, TORT OR OTHERWISE, ARISING FROM,
  21:/home/pi/Developer/tinyusb/src/device/usbd.c ****  * OUT OF OR IN CONNECTION WITH THE SOFTWARE OR THE USE OR OTHER DEALINGS IN
  22:/home/pi/Developer/tinyusb/src/device/usbd.c ****  * THE SOFTWARE.
  23:/home/pi/Developer/tinyusb/src/device/usbd.c ****  *
  24:/home/pi/Developer/tinyusb/src/device/usbd.c ****  * This file is part of the TinyUSB stack.
  25:/home/pi/Developer/tinyusb/src/device/usbd.c ****  */
  26:/home/pi/Developer/tinyusb/src/device/usbd.c **** 
  27:/home/pi/Developer/tinyusb/src/device/usbd.c **** #include "tusb_option.h"
  28:/home/pi/Developer/tinyusb/src/device/usbd.c **** 
  29:/home/pi/Developer/tinyusb/src/device/usbd.c **** #if CFG_TUD_ENABLED
ARM GAS  /tmp/cci2pXLM.s 			page 2


  30:/home/pi/Developer/tinyusb/src/device/usbd.c **** 
  31:/home/pi/Developer/tinyusb/src/device/usbd.c **** #include "device/dcd.h"
  32:/home/pi/Developer/tinyusb/src/device/usbd.c **** #include "tusb.h"
  33:/home/pi/Developer/tinyusb/src/device/usbd.c **** #include "common/tusb_private.h"
  34:/home/pi/Developer/tinyusb/src/device/usbd.c **** 
  35:/home/pi/Developer/tinyusb/src/device/usbd.c **** #include "device/usbd.h"
  36:/home/pi/Developer/tinyusb/src/device/usbd.c **** #include "device/usbd_pvt.h"
  37:/home/pi/Developer/tinyusb/src/device/usbd.c **** 
  38:/home/pi/Developer/tinyusb/src/device/usbd.c **** //--------------------------------------------------------------------+
  39:/home/pi/Developer/tinyusb/src/device/usbd.c **** // USBD Configuration
  40:/home/pi/Developer/tinyusb/src/device/usbd.c **** //--------------------------------------------------------------------+
  41:/home/pi/Developer/tinyusb/src/device/usbd.c **** #ifndef CFG_TUD_TASK_QUEUE_SZ
  42:/home/pi/Developer/tinyusb/src/device/usbd.c ****   #define CFG_TUD_TASK_QUEUE_SZ   16
  43:/home/pi/Developer/tinyusb/src/device/usbd.c **** #endif
  44:/home/pi/Developer/tinyusb/src/device/usbd.c **** 
  45:/home/pi/Developer/tinyusb/src/device/usbd.c **** //--------------------------------------------------------------------+
  46:/home/pi/Developer/tinyusb/src/device/usbd.c **** // Weak stubs: invoked if no strong implementation is available
  47:/home/pi/Developer/tinyusb/src/device/usbd.c **** //--------------------------------------------------------------------+
  48:/home/pi/Developer/tinyusb/src/device/usbd.c **** TU_ATTR_WEAK void tud_event_hook_cb(uint8_t rhport, uint32_t eventid, bool in_isr) {
  49:/home/pi/Developer/tinyusb/src/device/usbd.c ****   (void) rhport; (void) eventid; (void) in_isr;
  50:/home/pi/Developer/tinyusb/src/device/usbd.c **** }
  51:/home/pi/Developer/tinyusb/src/device/usbd.c **** 
  52:/home/pi/Developer/tinyusb/src/device/usbd.c **** TU_ATTR_WEAK void tud_sof_cb(uint32_t frame_count) {
  53:/home/pi/Developer/tinyusb/src/device/usbd.c ****   (void) frame_count;
  54:/home/pi/Developer/tinyusb/src/device/usbd.c **** }
  55:/home/pi/Developer/tinyusb/src/device/usbd.c **** 
  56:/home/pi/Developer/tinyusb/src/device/usbd.c **** TU_ATTR_WEAK uint8_t const* tud_descriptor_bos_cb(void) {
  57:/home/pi/Developer/tinyusb/src/device/usbd.c ****   return NULL;
  58:/home/pi/Developer/tinyusb/src/device/usbd.c **** }
  59:/home/pi/Developer/tinyusb/src/device/usbd.c **** 
  60:/home/pi/Developer/tinyusb/src/device/usbd.c **** TU_ATTR_WEAK uint8_t const* tud_descriptor_device_qualifier_cb(void) {
  61:/home/pi/Developer/tinyusb/src/device/usbd.c ****   return NULL;
  62:/home/pi/Developer/tinyusb/src/device/usbd.c **** }
  63:/home/pi/Developer/tinyusb/src/device/usbd.c **** 
  64:/home/pi/Developer/tinyusb/src/device/usbd.c **** TU_ATTR_WEAK uint8_t const* tud_descriptor_other_speed_configuration_cb(uint8_t index) {
  65:/home/pi/Developer/tinyusb/src/device/usbd.c ****   (void) index;
  66:/home/pi/Developer/tinyusb/src/device/usbd.c ****   return NULL;
  67:/home/pi/Developer/tinyusb/src/device/usbd.c **** }
  68:/home/pi/Developer/tinyusb/src/device/usbd.c **** 
  69:/home/pi/Developer/tinyusb/src/device/usbd.c **** TU_ATTR_WEAK void tud_mount_cb(void) {
  70:/home/pi/Developer/tinyusb/src/device/usbd.c **** }
  71:/home/pi/Developer/tinyusb/src/device/usbd.c **** 
  72:/home/pi/Developer/tinyusb/src/device/usbd.c **** TU_ATTR_WEAK void tud_umount_cb(void) {
  73:/home/pi/Developer/tinyusb/src/device/usbd.c **** }
  74:/home/pi/Developer/tinyusb/src/device/usbd.c **** 
  75:/home/pi/Developer/tinyusb/src/device/usbd.c **** TU_ATTR_WEAK void tud_suspend_cb(bool remote_wakeup_en) {
  76:/home/pi/Developer/tinyusb/src/device/usbd.c ****   (void) remote_wakeup_en;
  77:/home/pi/Developer/tinyusb/src/device/usbd.c **** }
  78:/home/pi/Developer/tinyusb/src/device/usbd.c **** 
  79:/home/pi/Developer/tinyusb/src/device/usbd.c **** TU_ATTR_WEAK void tud_resume_cb(void) {
  80:/home/pi/Developer/tinyusb/src/device/usbd.c **** }
  81:/home/pi/Developer/tinyusb/src/device/usbd.c **** 
  82:/home/pi/Developer/tinyusb/src/device/usbd.c **** TU_ATTR_WEAK bool tud_vendor_control_xfer_cb(uint8_t rhport, uint8_t stage, tusb_control_request_t 
  30              		.loc 1 82 116 view -0
  31              		.cfi_startproc
  32              		@ args = 0, pretend = 0, frame = 0
  33              		@ frame_needed = 0, uses_anonymous_args = 0
ARM GAS  /tmp/cci2pXLM.s 			page 3


  34              		@ link register save eliminated.
  83:/home/pi/Developer/tinyusb/src/device/usbd.c ****   (void) rhport; (void) stage; (void) request;
  35              		.loc 1 83 3 view .LVU1
  36              		.loc 1 83 18 view .LVU2
  37              		.loc 1 83 32 view .LVU3
  84:/home/pi/Developer/tinyusb/src/device/usbd.c ****   return false;
  38              		.loc 1 84 3 view .LVU4
  85:/home/pi/Developer/tinyusb/src/device/usbd.c **** }
  39              		.loc 1 85 1 is_stmt 0 view .LVU5
  40 0000 0020     		movs	r0, #0
  41              	.LVL1:
  42              		.loc 1 85 1 view .LVU6
  43 0002 7047     		bx	lr
  44              		.cfi_endproc
  45              	.LFE435:
  47              		.section	.text.configuration_reset,"ax",%progbits
  48              		.align	1
  49              		.p2align 2,,3
  50              		.syntax unified
  51              		.thumb
  52              		.thumb_func
  53              		.fpu fpv5-d16
  55              	configuration_reset:
  56              	.LVL2:
  57              	.LFB459:
  86:/home/pi/Developer/tinyusb/src/device/usbd.c **** 
  87:/home/pi/Developer/tinyusb/src/device/usbd.c **** TU_ATTR_WEAK bool dcd_deinit(uint8_t rhport) {
  88:/home/pi/Developer/tinyusb/src/device/usbd.c ****   (void) rhport;
  89:/home/pi/Developer/tinyusb/src/device/usbd.c ****   return false;
  90:/home/pi/Developer/tinyusb/src/device/usbd.c **** }
  91:/home/pi/Developer/tinyusb/src/device/usbd.c **** 
  92:/home/pi/Developer/tinyusb/src/device/usbd.c **** TU_ATTR_WEAK void dcd_connect(uint8_t rhport) {
  93:/home/pi/Developer/tinyusb/src/device/usbd.c ****   (void) rhport;
  94:/home/pi/Developer/tinyusb/src/device/usbd.c **** }
  95:/home/pi/Developer/tinyusb/src/device/usbd.c **** 
  96:/home/pi/Developer/tinyusb/src/device/usbd.c **** TU_ATTR_WEAK void dcd_disconnect(uint8_t rhport) {
  97:/home/pi/Developer/tinyusb/src/device/usbd.c ****   (void) rhport;
  98:/home/pi/Developer/tinyusb/src/device/usbd.c **** }
  99:/home/pi/Developer/tinyusb/src/device/usbd.c **** 
 100:/home/pi/Developer/tinyusb/src/device/usbd.c **** TU_ATTR_WEAK bool dcd_dcache_clean(const void* addr, uint32_t data_size) {
 101:/home/pi/Developer/tinyusb/src/device/usbd.c ****   (void) addr; (void) data_size;
 102:/home/pi/Developer/tinyusb/src/device/usbd.c ****   return true;
 103:/home/pi/Developer/tinyusb/src/device/usbd.c **** }
 104:/home/pi/Developer/tinyusb/src/device/usbd.c **** 
 105:/home/pi/Developer/tinyusb/src/device/usbd.c **** TU_ATTR_WEAK bool dcd_dcache_invalidate(const void* addr, uint32_t data_size) {
 106:/home/pi/Developer/tinyusb/src/device/usbd.c ****   (void) addr; (void) data_size;
 107:/home/pi/Developer/tinyusb/src/device/usbd.c ****   return true;
 108:/home/pi/Developer/tinyusb/src/device/usbd.c **** }
 109:/home/pi/Developer/tinyusb/src/device/usbd.c **** 
 110:/home/pi/Developer/tinyusb/src/device/usbd.c **** TU_ATTR_WEAK bool dcd_dcache_clean_invalidate(const void* addr, uint32_t data_size) {
 111:/home/pi/Developer/tinyusb/src/device/usbd.c ****   (void) addr; (void) data_size;
 112:/home/pi/Developer/tinyusb/src/device/usbd.c ****   return true;
 113:/home/pi/Developer/tinyusb/src/device/usbd.c **** }
 114:/home/pi/Developer/tinyusb/src/device/usbd.c **** 
 115:/home/pi/Developer/tinyusb/src/device/usbd.c **** //--------------------------------------------------------------------+
 116:/home/pi/Developer/tinyusb/src/device/usbd.c **** // Device Data
 117:/home/pi/Developer/tinyusb/src/device/usbd.c **** //--------------------------------------------------------------------+
ARM GAS  /tmp/cci2pXLM.s 			page 4


 118:/home/pi/Developer/tinyusb/src/device/usbd.c **** 
 119:/home/pi/Developer/tinyusb/src/device/usbd.c **** // Per-control-transfer state: populated at process_setup_received() entry,
 120:/home/pi/Developer/tinyusb/src/device/usbd.c **** // consumed asynchronously by usbd_control_xfer_cb() when the EP0 transfer completes.
 121:/home/pi/Developer/tinyusb/src/device/usbd.c **** typedef struct {
 122:/home/pi/Developer/tinyusb/src/device/usbd.c ****   tusb_control_request_t request;
 123:/home/pi/Developer/tinyusb/src/device/usbd.c ****   uint8_t* buffer;
 124:/home/pi/Developer/tinyusb/src/device/usbd.c ****   uint16_t data_len;
 125:/home/pi/Developer/tinyusb/src/device/usbd.c ****   uint16_t total_xferred;
 126:/home/pi/Developer/tinyusb/src/device/usbd.c ****   usbd_control_xfer_cb_t complete_cb;
 127:/home/pi/Developer/tinyusb/src/device/usbd.c **** } usbd_control_xfer_t;
 128:/home/pi/Developer/tinyusb/src/device/usbd.c **** 
 129:/home/pi/Developer/tinyusb/src/device/usbd.c **** typedef struct {
 130:/home/pi/Developer/tinyusb/src/device/usbd.c ****   usbd_control_xfer_t ctrl_xfer;
 131:/home/pi/Developer/tinyusb/src/device/usbd.c **** 
 132:/home/pi/Developer/tinyusb/src/device/usbd.c ****   // Note: these may share an enum state
 133:/home/pi/Developer/tinyusb/src/device/usbd.c ****   volatile uint8_t connected;
 134:/home/pi/Developer/tinyusb/src/device/usbd.c ****   volatile uint8_t addressed;
 135:/home/pi/Developer/tinyusb/src/device/usbd.c ****   volatile uint8_t suspended;
 136:/home/pi/Developer/tinyusb/src/device/usbd.c **** 
 137:/home/pi/Developer/tinyusb/src/device/usbd.c ****   union {
 138:/home/pi/Developer/tinyusb/src/device/usbd.c ****     struct TU_ATTR_PACKED {
 139:/home/pi/Developer/tinyusb/src/device/usbd.c ****       uint8_t self_powered     : 1; // configuration descriptor's attribute;
 140:/home/pi/Developer/tinyusb/src/device/usbd.c ****       uint8_t remote_wakeup_en : 1; // enable/disable by host
 141:/home/pi/Developer/tinyusb/src/device/usbd.c ****     };
 142:/home/pi/Developer/tinyusb/src/device/usbd.c ****     uint8_t dev_state_bm;
 143:/home/pi/Developer/tinyusb/src/device/usbd.c ****   };
 144:/home/pi/Developer/tinyusb/src/device/usbd.c **** 
 145:/home/pi/Developer/tinyusb/src/device/usbd.c ****   uint8_t          cfg_num; // current active configuration (0x00 is not configured)
 146:/home/pi/Developer/tinyusb/src/device/usbd.c ****   uint8_t          speed;
 147:/home/pi/Developer/tinyusb/src/device/usbd.c ****   volatile uint8_t sof_consumer;
 148:/home/pi/Developer/tinyusb/src/device/usbd.c **** 
 149:/home/pi/Developer/tinyusb/src/device/usbd.c ****   uint8_t itf2drv[CFG_TUD_INTERFACE_MAX];   // map interface number to driver (0xff is invalid)
 150:/home/pi/Developer/tinyusb/src/device/usbd.c ****   uint8_t ep2drv[CFG_TUD_ENDPPOINT_MAX][2]; // map endpoint to driver ( 0xff is invalid ), can use 
 151:/home/pi/Developer/tinyusb/src/device/usbd.c **** 
 152:/home/pi/Developer/tinyusb/src/device/usbd.c ****   volatile uint8_t ep_status[CFG_TUD_ENDPPOINT_MAX][2];
 153:/home/pi/Developer/tinyusb/src/device/usbd.c **** } usbd_device_t;
 154:/home/pi/Developer/tinyusb/src/device/usbd.c **** 
 155:/home/pi/Developer/tinyusb/src/device/usbd.c **** static usbd_device_t    _usbd_dev;
 156:/home/pi/Developer/tinyusb/src/device/usbd.c **** static volatile uint8_t _usbd_queued_setup;
 157:/home/pi/Developer/tinyusb/src/device/usbd.c **** 
 158:/home/pi/Developer/tinyusb/src/device/usbd.c **** CFG_TUD_MEM_SECTION static struct {
 159:/home/pi/Developer/tinyusb/src/device/usbd.c ****   TUD_EPBUF_DEF(buf, CFG_TUD_ENDPOINT0_BUFSIZE);
 160:/home/pi/Developer/tinyusb/src/device/usbd.c **** } _ctrl_epbuf;
 161:/home/pi/Developer/tinyusb/src/device/usbd.c **** 
 162:/home/pi/Developer/tinyusb/src/device/usbd.c **** //--------------------------------------------------------------------+
 163:/home/pi/Developer/tinyusb/src/device/usbd.c **** // Class Driver
 164:/home/pi/Developer/tinyusb/src/device/usbd.c **** //--------------------------------------------------------------------+
 165:/home/pi/Developer/tinyusb/src/device/usbd.c ****   #if CFG_TUSB_DEBUG >= CFG_TUD_LOG_LEVEL
 166:/home/pi/Developer/tinyusb/src/device/usbd.c ****     #define DRIVER_NAME(_name) _name
 167:/home/pi/Developer/tinyusb/src/device/usbd.c ****   #else
 168:/home/pi/Developer/tinyusb/src/device/usbd.c ****     #define DRIVER_NAME(_name) NULL
 169:/home/pi/Developer/tinyusb/src/device/usbd.c ****   #endif
 170:/home/pi/Developer/tinyusb/src/device/usbd.c **** 
 171:/home/pi/Developer/tinyusb/src/device/usbd.c **** // Built-in class drivers
 172:/home/pi/Developer/tinyusb/src/device/usbd.c **** static const usbd_class_driver_t _usbd_driver[] = {
 173:/home/pi/Developer/tinyusb/src/device/usbd.c ****   #if CFG_TUD_CDC
 174:/home/pi/Developer/tinyusb/src/device/usbd.c ****     {
ARM GAS  /tmp/cci2pXLM.s 			page 5


 175:/home/pi/Developer/tinyusb/src/device/usbd.c ****         .name             = DRIVER_NAME("CDC"),
 176:/home/pi/Developer/tinyusb/src/device/usbd.c ****         .init             = cdcd_init,
 177:/home/pi/Developer/tinyusb/src/device/usbd.c ****         .deinit           = cdcd_deinit,
 178:/home/pi/Developer/tinyusb/src/device/usbd.c ****         .reset            = cdcd_reset,
 179:/home/pi/Developer/tinyusb/src/device/usbd.c ****         .open             = cdcd_open,
 180:/home/pi/Developer/tinyusb/src/device/usbd.c ****         .control_xfer_cb  = cdcd_control_xfer_cb,
 181:/home/pi/Developer/tinyusb/src/device/usbd.c ****         .xfer_cb          = cdcd_xfer_cb,
 182:/home/pi/Developer/tinyusb/src/device/usbd.c ****         .xfer_isr         = NULL,
 183:/home/pi/Developer/tinyusb/src/device/usbd.c ****         .sof              = NULL
 184:/home/pi/Developer/tinyusb/src/device/usbd.c ****     },
 185:/home/pi/Developer/tinyusb/src/device/usbd.c ****     #endif
 186:/home/pi/Developer/tinyusb/src/device/usbd.c **** 
 187:/home/pi/Developer/tinyusb/src/device/usbd.c ****     #if CFG_TUD_MSC
 188:/home/pi/Developer/tinyusb/src/device/usbd.c ****     {
 189:/home/pi/Developer/tinyusb/src/device/usbd.c ****         .name             = DRIVER_NAME("MSC"),
 190:/home/pi/Developer/tinyusb/src/device/usbd.c ****         .init             = mscd_init,
 191:/home/pi/Developer/tinyusb/src/device/usbd.c ****         .deinit           = NULL,
 192:/home/pi/Developer/tinyusb/src/device/usbd.c ****         .reset            = mscd_reset,
 193:/home/pi/Developer/tinyusb/src/device/usbd.c ****         .open             = mscd_open,
 194:/home/pi/Developer/tinyusb/src/device/usbd.c ****         .control_xfer_cb  = mscd_control_xfer_cb,
 195:/home/pi/Developer/tinyusb/src/device/usbd.c ****         .xfer_cb          = mscd_xfer_cb,
 196:/home/pi/Developer/tinyusb/src/device/usbd.c ****         .xfer_isr         = NULL,
 197:/home/pi/Developer/tinyusb/src/device/usbd.c ****         .sof              = NULL
 198:/home/pi/Developer/tinyusb/src/device/usbd.c ****     },
 199:/home/pi/Developer/tinyusb/src/device/usbd.c ****     #endif
 200:/home/pi/Developer/tinyusb/src/device/usbd.c **** 
 201:/home/pi/Developer/tinyusb/src/device/usbd.c ****     #if CFG_TUD_HID
 202:/home/pi/Developer/tinyusb/src/device/usbd.c ****     {
 203:/home/pi/Developer/tinyusb/src/device/usbd.c ****         .name             = DRIVER_NAME("HID"),
 204:/home/pi/Developer/tinyusb/src/device/usbd.c ****         .init             = hidd_init,
 205:/home/pi/Developer/tinyusb/src/device/usbd.c ****         .deinit           = hidd_deinit,
 206:/home/pi/Developer/tinyusb/src/device/usbd.c ****         .reset            = hidd_reset,
 207:/home/pi/Developer/tinyusb/src/device/usbd.c ****         .open             = hidd_open,
 208:/home/pi/Developer/tinyusb/src/device/usbd.c ****         .control_xfer_cb  = hidd_control_xfer_cb,
 209:/home/pi/Developer/tinyusb/src/device/usbd.c ****         .xfer_cb          = hidd_xfer_cb,
 210:/home/pi/Developer/tinyusb/src/device/usbd.c ****         .xfer_isr         = NULL,
 211:/home/pi/Developer/tinyusb/src/device/usbd.c ****         .sof              = NULL
 212:/home/pi/Developer/tinyusb/src/device/usbd.c ****     },
 213:/home/pi/Developer/tinyusb/src/device/usbd.c ****     #endif
 214:/home/pi/Developer/tinyusb/src/device/usbd.c **** 
 215:/home/pi/Developer/tinyusb/src/device/usbd.c ****     #if CFG_TUD_AUDIO
 216:/home/pi/Developer/tinyusb/src/device/usbd.c ****     {
 217:/home/pi/Developer/tinyusb/src/device/usbd.c ****         .name             = DRIVER_NAME("AUDIO"),
 218:/home/pi/Developer/tinyusb/src/device/usbd.c ****         .init             = audiod_init,
 219:/home/pi/Developer/tinyusb/src/device/usbd.c ****         .deinit           = audiod_deinit,
 220:/home/pi/Developer/tinyusb/src/device/usbd.c ****         .reset            = audiod_reset,
 221:/home/pi/Developer/tinyusb/src/device/usbd.c ****         .open             = audiod_open,
 222:/home/pi/Developer/tinyusb/src/device/usbd.c ****         .control_xfer_cb  = audiod_control_xfer_cb,
 223:/home/pi/Developer/tinyusb/src/device/usbd.c ****         .xfer_cb          = audiod_xfer_cb,
 224:/home/pi/Developer/tinyusb/src/device/usbd.c ****         .xfer_isr         = audiod_xfer_isr,
 225:/home/pi/Developer/tinyusb/src/device/usbd.c ****         .sof              = audiod_sof_isr
 226:/home/pi/Developer/tinyusb/src/device/usbd.c ****     },
 227:/home/pi/Developer/tinyusb/src/device/usbd.c ****     #endif
 228:/home/pi/Developer/tinyusb/src/device/usbd.c **** 
 229:/home/pi/Developer/tinyusb/src/device/usbd.c ****     #if CFG_TUD_VIDEO
 230:/home/pi/Developer/tinyusb/src/device/usbd.c ****     {
 231:/home/pi/Developer/tinyusb/src/device/usbd.c ****         .name             = DRIVER_NAME("VIDEO"),
ARM GAS  /tmp/cci2pXLM.s 			page 6


 232:/home/pi/Developer/tinyusb/src/device/usbd.c ****         .init             = videod_init,
 233:/home/pi/Developer/tinyusb/src/device/usbd.c ****         .deinit           = videod_deinit,
 234:/home/pi/Developer/tinyusb/src/device/usbd.c ****         .reset            = videod_reset,
 235:/home/pi/Developer/tinyusb/src/device/usbd.c ****         .open             = videod_open,
 236:/home/pi/Developer/tinyusb/src/device/usbd.c ****         .control_xfer_cb  = videod_control_xfer_cb,
 237:/home/pi/Developer/tinyusb/src/device/usbd.c ****         .xfer_cb          = videod_xfer_cb,
 238:/home/pi/Developer/tinyusb/src/device/usbd.c ****         .xfer_isr         = NULL,
 239:/home/pi/Developer/tinyusb/src/device/usbd.c ****         .sof              = NULL
 240:/home/pi/Developer/tinyusb/src/device/usbd.c ****     },
 241:/home/pi/Developer/tinyusb/src/device/usbd.c ****     #endif
 242:/home/pi/Developer/tinyusb/src/device/usbd.c **** 
 243:/home/pi/Developer/tinyusb/src/device/usbd.c ****     #if CFG_TUD_MIDI
 244:/home/pi/Developer/tinyusb/src/device/usbd.c ****     {
 245:/home/pi/Developer/tinyusb/src/device/usbd.c ****         .name             = DRIVER_NAME("MIDI"),
 246:/home/pi/Developer/tinyusb/src/device/usbd.c ****         .init             = midid_init,
 247:/home/pi/Developer/tinyusb/src/device/usbd.c ****         .deinit           = midid_deinit,
 248:/home/pi/Developer/tinyusb/src/device/usbd.c ****         .open             = midid_open,
 249:/home/pi/Developer/tinyusb/src/device/usbd.c ****         .reset            = midid_reset,
 250:/home/pi/Developer/tinyusb/src/device/usbd.c ****         .control_xfer_cb  = midid_control_xfer_cb,
 251:/home/pi/Developer/tinyusb/src/device/usbd.c ****         .xfer_cb          = midid_xfer_cb,
 252:/home/pi/Developer/tinyusb/src/device/usbd.c ****         .xfer_isr         = NULL,
 253:/home/pi/Developer/tinyusb/src/device/usbd.c ****         .sof              = NULL
 254:/home/pi/Developer/tinyusb/src/device/usbd.c ****     },
 255:/home/pi/Developer/tinyusb/src/device/usbd.c ****     #endif
 256:/home/pi/Developer/tinyusb/src/device/usbd.c **** 
 257:/home/pi/Developer/tinyusb/src/device/usbd.c ****     #if CFG_TUD_VENDOR
 258:/home/pi/Developer/tinyusb/src/device/usbd.c ****     {
 259:/home/pi/Developer/tinyusb/src/device/usbd.c ****         .name             = DRIVER_NAME("VENDOR"),
 260:/home/pi/Developer/tinyusb/src/device/usbd.c ****         .init             = vendord_init,
 261:/home/pi/Developer/tinyusb/src/device/usbd.c ****         .deinit           = vendord_deinit,
 262:/home/pi/Developer/tinyusb/src/device/usbd.c ****         .reset            = vendord_reset,
 263:/home/pi/Developer/tinyusb/src/device/usbd.c ****         .open             = vendord_open,
 264:/home/pi/Developer/tinyusb/src/device/usbd.c ****         .control_xfer_cb  = tud_vendor_control_xfer_cb,
 265:/home/pi/Developer/tinyusb/src/device/usbd.c ****         .xfer_cb          = vendord_xfer_cb,
 266:/home/pi/Developer/tinyusb/src/device/usbd.c ****         .xfer_isr         = NULL,
 267:/home/pi/Developer/tinyusb/src/device/usbd.c ****         .sof              = NULL
 268:/home/pi/Developer/tinyusb/src/device/usbd.c ****     },
 269:/home/pi/Developer/tinyusb/src/device/usbd.c ****     #endif
 270:/home/pi/Developer/tinyusb/src/device/usbd.c **** 
 271:/home/pi/Developer/tinyusb/src/device/usbd.c ****     #if CFG_TUD_USBTMC
 272:/home/pi/Developer/tinyusb/src/device/usbd.c ****     {
 273:/home/pi/Developer/tinyusb/src/device/usbd.c ****         .name             = DRIVER_NAME("TMC"),
 274:/home/pi/Developer/tinyusb/src/device/usbd.c ****         .init             = usbtmcd_init_cb,
 275:/home/pi/Developer/tinyusb/src/device/usbd.c ****         .deinit           = usbtmcd_deinit,
 276:/home/pi/Developer/tinyusb/src/device/usbd.c ****         .reset            = usbtmcd_reset_cb,
 277:/home/pi/Developer/tinyusb/src/device/usbd.c ****         .open             = usbtmcd_open_cb,
 278:/home/pi/Developer/tinyusb/src/device/usbd.c ****         .control_xfer_cb  = usbtmcd_control_xfer_cb,
 279:/home/pi/Developer/tinyusb/src/device/usbd.c ****         .xfer_cb          = usbtmcd_xfer_cb,
 280:/home/pi/Developer/tinyusb/src/device/usbd.c ****         .xfer_isr         = NULL,
 281:/home/pi/Developer/tinyusb/src/device/usbd.c ****         .sof              = NULL
 282:/home/pi/Developer/tinyusb/src/device/usbd.c ****     },
 283:/home/pi/Developer/tinyusb/src/device/usbd.c ****     #endif
 284:/home/pi/Developer/tinyusb/src/device/usbd.c **** 
 285:/home/pi/Developer/tinyusb/src/device/usbd.c ****     #if CFG_TUD_DFU_RUNTIME
 286:/home/pi/Developer/tinyusb/src/device/usbd.c ****     {
 287:/home/pi/Developer/tinyusb/src/device/usbd.c ****         .name             = DRIVER_NAME("DFU-RUNTIME"),
 288:/home/pi/Developer/tinyusb/src/device/usbd.c ****         .init             = dfu_rtd_init,
ARM GAS  /tmp/cci2pXLM.s 			page 7


 289:/home/pi/Developer/tinyusb/src/device/usbd.c ****         .deinit           = dfu_rtd_deinit,
 290:/home/pi/Developer/tinyusb/src/device/usbd.c ****         .reset            = dfu_rtd_reset,
 291:/home/pi/Developer/tinyusb/src/device/usbd.c ****         .open             = dfu_rtd_open,
 292:/home/pi/Developer/tinyusb/src/device/usbd.c ****         .control_xfer_cb  = dfu_rtd_control_xfer_cb,
 293:/home/pi/Developer/tinyusb/src/device/usbd.c ****         .xfer_cb          = NULL,
 294:/home/pi/Developer/tinyusb/src/device/usbd.c ****         .xfer_isr         = NULL,
 295:/home/pi/Developer/tinyusb/src/device/usbd.c ****         .sof              = NULL
 296:/home/pi/Developer/tinyusb/src/device/usbd.c ****     },
 297:/home/pi/Developer/tinyusb/src/device/usbd.c ****     #endif
 298:/home/pi/Developer/tinyusb/src/device/usbd.c **** 
 299:/home/pi/Developer/tinyusb/src/device/usbd.c ****     #if CFG_TUD_DFU
 300:/home/pi/Developer/tinyusb/src/device/usbd.c ****     {
 301:/home/pi/Developer/tinyusb/src/device/usbd.c ****         .name             = DRIVER_NAME("DFU"),
 302:/home/pi/Developer/tinyusb/src/device/usbd.c ****         .init             = dfu_moded_init,
 303:/home/pi/Developer/tinyusb/src/device/usbd.c ****         .deinit           = dfu_moded_deinit,
 304:/home/pi/Developer/tinyusb/src/device/usbd.c ****         .reset            = dfu_moded_reset,
 305:/home/pi/Developer/tinyusb/src/device/usbd.c ****         .open             = dfu_moded_open,
 306:/home/pi/Developer/tinyusb/src/device/usbd.c ****         .control_xfer_cb  = dfu_moded_control_xfer_cb,
 307:/home/pi/Developer/tinyusb/src/device/usbd.c ****         .xfer_cb          = NULL,
 308:/home/pi/Developer/tinyusb/src/device/usbd.c ****         .xfer_isr         = NULL,
 309:/home/pi/Developer/tinyusb/src/device/usbd.c ****         .sof              = NULL
 310:/home/pi/Developer/tinyusb/src/device/usbd.c ****     },
 311:/home/pi/Developer/tinyusb/src/device/usbd.c ****     #endif
 312:/home/pi/Developer/tinyusb/src/device/usbd.c **** 
 313:/home/pi/Developer/tinyusb/src/device/usbd.c ****     #if CFG_TUD_ECM_RNDIS || CFG_TUD_NCM
 314:/home/pi/Developer/tinyusb/src/device/usbd.c ****     {
 315:/home/pi/Developer/tinyusb/src/device/usbd.c ****         .name             = DRIVER_NAME("NET"),
 316:/home/pi/Developer/tinyusb/src/device/usbd.c ****         .init             = netd_init,
 317:/home/pi/Developer/tinyusb/src/device/usbd.c ****         .deinit           = netd_deinit,
 318:/home/pi/Developer/tinyusb/src/device/usbd.c ****         .reset            = netd_reset,
 319:/home/pi/Developer/tinyusb/src/device/usbd.c ****         .open             = netd_open,
 320:/home/pi/Developer/tinyusb/src/device/usbd.c ****         .control_xfer_cb  = netd_control_xfer_cb,
 321:/home/pi/Developer/tinyusb/src/device/usbd.c ****         .xfer_cb          = netd_xfer_cb,
 322:/home/pi/Developer/tinyusb/src/device/usbd.c ****         .xfer_isr         = NULL,
 323:/home/pi/Developer/tinyusb/src/device/usbd.c ****         .sof              = NULL,
 324:/home/pi/Developer/tinyusb/src/device/usbd.c ****     },
 325:/home/pi/Developer/tinyusb/src/device/usbd.c ****     #endif
 326:/home/pi/Developer/tinyusb/src/device/usbd.c **** 
 327:/home/pi/Developer/tinyusb/src/device/usbd.c ****     #if CFG_TUD_BTH
 328:/home/pi/Developer/tinyusb/src/device/usbd.c ****     {
 329:/home/pi/Developer/tinyusb/src/device/usbd.c ****         .name             = DRIVER_NAME("BTH"),
 330:/home/pi/Developer/tinyusb/src/device/usbd.c ****         .init             = btd_init,
 331:/home/pi/Developer/tinyusb/src/device/usbd.c ****         .deinit           = btd_deinit,
 332:/home/pi/Developer/tinyusb/src/device/usbd.c ****         .reset            = btd_reset,
 333:/home/pi/Developer/tinyusb/src/device/usbd.c ****         .open             = btd_open,
 334:/home/pi/Developer/tinyusb/src/device/usbd.c ****         .control_xfer_cb  = btd_control_xfer_cb,
 335:/home/pi/Developer/tinyusb/src/device/usbd.c ****         .xfer_cb          = btd_xfer_cb,
 336:/home/pi/Developer/tinyusb/src/device/usbd.c ****         .xfer_isr         = NULL,
 337:/home/pi/Developer/tinyusb/src/device/usbd.c ****         .sof              = NULL
 338:/home/pi/Developer/tinyusb/src/device/usbd.c ****     },
 339:/home/pi/Developer/tinyusb/src/device/usbd.c ****     #endif
 340:/home/pi/Developer/tinyusb/src/device/usbd.c **** 
 341:/home/pi/Developer/tinyusb/src/device/usbd.c ****     #if CFG_TUD_MTP
 342:/home/pi/Developer/tinyusb/src/device/usbd.c ****     {
 343:/home/pi/Developer/tinyusb/src/device/usbd.c ****         .name             = DRIVER_NAME("MTP"),
 344:/home/pi/Developer/tinyusb/src/device/usbd.c ****         .init             = mtpd_init,
 345:/home/pi/Developer/tinyusb/src/device/usbd.c ****         .deinit           = mtpd_deinit,
ARM GAS  /tmp/cci2pXLM.s 			page 8


 346:/home/pi/Developer/tinyusb/src/device/usbd.c ****         .reset            = mtpd_reset,
 347:/home/pi/Developer/tinyusb/src/device/usbd.c ****         .open             = mtpd_open,
 348:/home/pi/Developer/tinyusb/src/device/usbd.c ****         .control_xfer_cb  = mtpd_control_xfer_cb,
 349:/home/pi/Developer/tinyusb/src/device/usbd.c ****         .xfer_cb          = mtpd_xfer_cb,
 350:/home/pi/Developer/tinyusb/src/device/usbd.c ****         .xfer_isr         = NULL,
 351:/home/pi/Developer/tinyusb/src/device/usbd.c ****         .sof              = NULL
 352:/home/pi/Developer/tinyusb/src/device/usbd.c ****     },
 353:/home/pi/Developer/tinyusb/src/device/usbd.c ****     #endif
 354:/home/pi/Developer/tinyusb/src/device/usbd.c **** 
 355:/home/pi/Developer/tinyusb/src/device/usbd.c ****     #if CFG_TUD_PRINTER
 356:/home/pi/Developer/tinyusb/src/device/usbd.c ****     {
 357:/home/pi/Developer/tinyusb/src/device/usbd.c ****         .name             = DRIVER_NAME("PRINTER"),
 358:/home/pi/Developer/tinyusb/src/device/usbd.c ****         .init             = printerd_init,
 359:/home/pi/Developer/tinyusb/src/device/usbd.c ****         .deinit           = printerd_deinit,
 360:/home/pi/Developer/tinyusb/src/device/usbd.c ****         .reset            = printerd_reset,
 361:/home/pi/Developer/tinyusb/src/device/usbd.c ****         .open             = printerd_open,
 362:/home/pi/Developer/tinyusb/src/device/usbd.c ****         .control_xfer_cb  = printerd_control_xfer_cb,
 363:/home/pi/Developer/tinyusb/src/device/usbd.c ****         .xfer_cb          = printerd_xfer_cb,
 364:/home/pi/Developer/tinyusb/src/device/usbd.c ****         .sof              = NULL
 365:/home/pi/Developer/tinyusb/src/device/usbd.c ****     },
 366:/home/pi/Developer/tinyusb/src/device/usbd.c ****     #endif
 367:/home/pi/Developer/tinyusb/src/device/usbd.c **** };
 368:/home/pi/Developer/tinyusb/src/device/usbd.c **** 
 369:/home/pi/Developer/tinyusb/src/device/usbd.c **** enum { BUILTIN_DRIVER_COUNT = TU_ARRAY_SIZE(_usbd_driver) };
 370:/home/pi/Developer/tinyusb/src/device/usbd.c **** 
 371:/home/pi/Developer/tinyusb/src/device/usbd.c **** // Additional class drivers implemented by application
 372:/home/pi/Developer/tinyusb/src/device/usbd.c **** static const usbd_class_driver_t *_app_driver       = NULL;
 373:/home/pi/Developer/tinyusb/src/device/usbd.c **** static uint8_t                    _app_driver_count = 0;
 374:/home/pi/Developer/tinyusb/src/device/usbd.c **** 
 375:/home/pi/Developer/tinyusb/src/device/usbd.c **** #define TOTAL_DRIVER_COUNT    ((uint8_t) (_app_driver_count + BUILTIN_DRIVER_COUNT))
 376:/home/pi/Developer/tinyusb/src/device/usbd.c **** 
 377:/home/pi/Developer/tinyusb/src/device/usbd.c **** // virtually joins built-in and application drivers together.
 378:/home/pi/Developer/tinyusb/src/device/usbd.c **** // Application is positioned first to allow overwriting built-in ones.
 379:/home/pi/Developer/tinyusb/src/device/usbd.c **** TU_ATTR_ALWAYS_INLINE static inline usbd_class_driver_t const * get_driver(uint8_t drvid) {
 380:/home/pi/Developer/tinyusb/src/device/usbd.c ****   usbd_class_driver_t const *driver = NULL;
 381:/home/pi/Developer/tinyusb/src/device/usbd.c ****   if (drvid < _app_driver_count) {
 382:/home/pi/Developer/tinyusb/src/device/usbd.c ****     // Application drivers
 383:/home/pi/Developer/tinyusb/src/device/usbd.c ****     driver = &_app_driver[drvid];
 384:/home/pi/Developer/tinyusb/src/device/usbd.c ****   } else{
 385:/home/pi/Developer/tinyusb/src/device/usbd.c ****     drvid -= _app_driver_count;
 386:/home/pi/Developer/tinyusb/src/device/usbd.c ****     if (drvid < BUILTIN_DRIVER_COUNT) {
 387:/home/pi/Developer/tinyusb/src/device/usbd.c ****       driver = &_usbd_driver[drvid];
 388:/home/pi/Developer/tinyusb/src/device/usbd.c ****     }
 389:/home/pi/Developer/tinyusb/src/device/usbd.c ****   }
 390:/home/pi/Developer/tinyusb/src/device/usbd.c **** 
 391:/home/pi/Developer/tinyusb/src/device/usbd.c ****   return driver;
 392:/home/pi/Developer/tinyusb/src/device/usbd.c **** }
 393:/home/pi/Developer/tinyusb/src/device/usbd.c **** 
 394:/home/pi/Developer/tinyusb/src/device/usbd.c **** //--------------------------------------------------------------------+
 395:/home/pi/Developer/tinyusb/src/device/usbd.c **** // DCD Event
 396:/home/pi/Developer/tinyusb/src/device/usbd.c **** //--------------------------------------------------------------------+
 397:/home/pi/Developer/tinyusb/src/device/usbd.c **** enum {
 398:/home/pi/Developer/tinyusb/src/device/usbd.c ****   RHPORT_INVALID = 0xFFu
 399:/home/pi/Developer/tinyusb/src/device/usbd.c **** };
 400:/home/pi/Developer/tinyusb/src/device/usbd.c **** static uint8_t _usbd_rhport = RHPORT_INVALID;
 401:/home/pi/Developer/tinyusb/src/device/usbd.c **** 
 402:/home/pi/Developer/tinyusb/src/device/usbd.c **** static OSAL_SPINLOCK_DEF(_usbd_spin, usbd_int_set);
ARM GAS  /tmp/cci2pXLM.s 			page 9


 403:/home/pi/Developer/tinyusb/src/device/usbd.c **** 
 404:/home/pi/Developer/tinyusb/src/device/usbd.c **** // Event queue: usbd_int_set() is used as mutex in OS NONE config
 405:/home/pi/Developer/tinyusb/src/device/usbd.c **** OSAL_QUEUE_DEF(usbd_int_set, _usbd_qdef, CFG_TUD_TASK_QUEUE_SZ, dcd_event_t);
 406:/home/pi/Developer/tinyusb/src/device/usbd.c **** static osal_queue_t _usbd_q;
 407:/home/pi/Developer/tinyusb/src/device/usbd.c **** 
 408:/home/pi/Developer/tinyusb/src/device/usbd.c **** // Mutex for claiming endpoint
 409:/home/pi/Developer/tinyusb/src/device/usbd.c **** #if OSAL_MUTEX_REQUIRED
 410:/home/pi/Developer/tinyusb/src/device/usbd.c ****   static osal_mutex_def_t _ubsd_mutexdef;
 411:/home/pi/Developer/tinyusb/src/device/usbd.c ****   static osal_mutex_t _usbd_mutex;
 412:/home/pi/Developer/tinyusb/src/device/usbd.c **** #else
 413:/home/pi/Developer/tinyusb/src/device/usbd.c ****   #define _usbd_mutex   NULL
 414:/home/pi/Developer/tinyusb/src/device/usbd.c **** #endif
 415:/home/pi/Developer/tinyusb/src/device/usbd.c **** 
 416:/home/pi/Developer/tinyusb/src/device/usbd.c **** TU_ATTR_ALWAYS_INLINE static inline bool queue_event(dcd_event_t const * event, bool in_isr) {
 417:/home/pi/Developer/tinyusb/src/device/usbd.c ****   TU_ASSERT(osal_queue_send(_usbd_q, event, in_isr));
 418:/home/pi/Developer/tinyusb/src/device/usbd.c ****   tud_event_hook_cb(event->rhport, event->event_id, in_isr);
 419:/home/pi/Developer/tinyusb/src/device/usbd.c ****   return true;
 420:/home/pi/Developer/tinyusb/src/device/usbd.c **** }
 421:/home/pi/Developer/tinyusb/src/device/usbd.c **** 
 422:/home/pi/Developer/tinyusb/src/device/usbd.c **** //--------------------------------------------------------------------+
 423:/home/pi/Developer/tinyusb/src/device/usbd.c **** // Prototypes
 424:/home/pi/Developer/tinyusb/src/device/usbd.c **** //--------------------------------------------------------------------+
 425:/home/pi/Developer/tinyusb/src/device/usbd.c **** static bool usbd_control_xfer_cb(uint8_t rhport, uint8_t ep_addr, xfer_result_t result, uint32_t xf
 426:/home/pi/Developer/tinyusb/src/device/usbd.c **** static bool process_setup_received(uint8_t rhport, tusb_control_request_t const * p_request);
 427:/home/pi/Developer/tinyusb/src/device/usbd.c **** static bool process_set_config(uint8_t rhport, uint8_t cfg_num);
 428:/home/pi/Developer/tinyusb/src/device/usbd.c **** static bool process_get_descriptor(uint8_t rhport, tusb_control_request_t const * p_request);
 429:/home/pi/Developer/tinyusb/src/device/usbd.c **** 
 430:/home/pi/Developer/tinyusb/src/device/usbd.c **** #if CFG_TUD_TEST_MODE
 431:/home/pi/Developer/tinyusb/src/device/usbd.c **** static bool process_test_mode_cb(uint8_t rhport, uint8_t stage, tusb_control_request_t const * requ
 432:/home/pi/Developer/tinyusb/src/device/usbd.c ****   TU_VERIFY(CONTROL_STAGE_ACK == stage);
 433:/home/pi/Developer/tinyusb/src/device/usbd.c ****   uint8_t const selector = tu_u16_high(request->wIndex);
 434:/home/pi/Developer/tinyusb/src/device/usbd.c ****   TU_LOG_USBD("    Enter Test Mode (test selector index: %d)\r\n", selector);
 435:/home/pi/Developer/tinyusb/src/device/usbd.c ****   dcd_enter_test_mode(rhport, (tusb_feature_test_mode_t) selector);
 436:/home/pi/Developer/tinyusb/src/device/usbd.c ****   return true;
 437:/home/pi/Developer/tinyusb/src/device/usbd.c **** }
 438:/home/pi/Developer/tinyusb/src/device/usbd.c **** #endif
 439:/home/pi/Developer/tinyusb/src/device/usbd.c **** 
 440:/home/pi/Developer/tinyusb/src/device/usbd.c **** //--------------------------------------------------------------------+
 441:/home/pi/Developer/tinyusb/src/device/usbd.c **** // Weak stubs: invoked if no strong implementation is available
 442:/home/pi/Developer/tinyusb/src/device/usbd.c **** //--------------------------------------------------------------------+
 443:/home/pi/Developer/tinyusb/src/device/usbd.c **** TU_ATTR_WEAK usbd_class_driver_t const* usbd_app_driver_get_cb(uint8_t* driver_count) {
 444:/home/pi/Developer/tinyusb/src/device/usbd.c ****   *driver_count = 0;
 445:/home/pi/Developer/tinyusb/src/device/usbd.c ****   return NULL;
 446:/home/pi/Developer/tinyusb/src/device/usbd.c **** }
 447:/home/pi/Developer/tinyusb/src/device/usbd.c **** 
 448:/home/pi/Developer/tinyusb/src/device/usbd.c **** TU_ATTR_WEAK bool dcd_edpt_xfer_fifo(uint8_t rhport, uint8_t ep_addr, tu_fifo_t * ff, uint16_t tota
 449:/home/pi/Developer/tinyusb/src/device/usbd.c ****   (void) rhport; (void) ep_addr; (void) ff; (void) total_bytes; (void) is_isr;
 450:/home/pi/Developer/tinyusb/src/device/usbd.c ****   return false;
 451:/home/pi/Developer/tinyusb/src/device/usbd.c **** }
 452:/home/pi/Developer/tinyusb/src/device/usbd.c **** 
 453:/home/pi/Developer/tinyusb/src/device/usbd.c **** TU_ATTR_WEAK bool dcd_configure(uint8_t rhport, uint32_t cfg_id, const void* cfg_param) {
 454:/home/pi/Developer/tinyusb/src/device/usbd.c ****   (void) rhport; (void) cfg_id; (void) cfg_param;
 455:/home/pi/Developer/tinyusb/src/device/usbd.c ****   return false;
 456:/home/pi/Developer/tinyusb/src/device/usbd.c **** }
 457:/home/pi/Developer/tinyusb/src/device/usbd.c **** 
 458:/home/pi/Developer/tinyusb/src/device/usbd.c **** //--------------------------------------------------------------------+
 459:/home/pi/Developer/tinyusb/src/device/usbd.c **** // Debug
ARM GAS  /tmp/cci2pXLM.s 			page 10


 460:/home/pi/Developer/tinyusb/src/device/usbd.c **** //--------------------------------------------------------------------+
 461:/home/pi/Developer/tinyusb/src/device/usbd.c **** #if CFG_TUSB_DEBUG >= CFG_TUD_LOG_LEVEL
 462:/home/pi/Developer/tinyusb/src/device/usbd.c **** static char const *const _usbd_event_str[DCD_EVENT_COUNT] = {
 463:/home/pi/Developer/tinyusb/src/device/usbd.c ****     "Invalid",
 464:/home/pi/Developer/tinyusb/src/device/usbd.c ****     "Bus Reset",
 465:/home/pi/Developer/tinyusb/src/device/usbd.c ****     "Unplugged",
 466:/home/pi/Developer/tinyusb/src/device/usbd.c ****     "SOF",
 467:/home/pi/Developer/tinyusb/src/device/usbd.c ****     "Suspend",
 468:/home/pi/Developer/tinyusb/src/device/usbd.c ****     "Resume",
 469:/home/pi/Developer/tinyusb/src/device/usbd.c ****     "Setup Received",
 470:/home/pi/Developer/tinyusb/src/device/usbd.c ****     "Xfer Complete",
 471:/home/pi/Developer/tinyusb/src/device/usbd.c ****     "Func Call"
 472:/home/pi/Developer/tinyusb/src/device/usbd.c **** };
 473:/home/pi/Developer/tinyusb/src/device/usbd.c **** 
 474:/home/pi/Developer/tinyusb/src/device/usbd.c **** #endif
 475:/home/pi/Developer/tinyusb/src/device/usbd.c **** 
 476:/home/pi/Developer/tinyusb/src/device/usbd.c **** //--------------------------------------------------------------------+
 477:/home/pi/Developer/tinyusb/src/device/usbd.c **** // Application API
 478:/home/pi/Developer/tinyusb/src/device/usbd.c **** //--------------------------------------------------------------------+
 479:/home/pi/Developer/tinyusb/src/device/usbd.c **** tusb_speed_t tud_speed_get(void) {
 480:/home/pi/Developer/tinyusb/src/device/usbd.c ****   return (tusb_speed_t) _usbd_dev.speed;
 481:/home/pi/Developer/tinyusb/src/device/usbd.c **** }
 482:/home/pi/Developer/tinyusb/src/device/usbd.c **** 
 483:/home/pi/Developer/tinyusb/src/device/usbd.c **** bool tud_connected(void) {
 484:/home/pi/Developer/tinyusb/src/device/usbd.c ****   return _usbd_dev.connected;
 485:/home/pi/Developer/tinyusb/src/device/usbd.c **** }
 486:/home/pi/Developer/tinyusb/src/device/usbd.c **** 
 487:/home/pi/Developer/tinyusb/src/device/usbd.c **** bool tud_mounted(void) {
 488:/home/pi/Developer/tinyusb/src/device/usbd.c ****   return _usbd_dev.cfg_num ? true : false;
 489:/home/pi/Developer/tinyusb/src/device/usbd.c **** }
 490:/home/pi/Developer/tinyusb/src/device/usbd.c **** 
 491:/home/pi/Developer/tinyusb/src/device/usbd.c **** bool tud_suspended(void) {
 492:/home/pi/Developer/tinyusb/src/device/usbd.c ****   return _usbd_dev.suspended;
 493:/home/pi/Developer/tinyusb/src/device/usbd.c **** }
 494:/home/pi/Developer/tinyusb/src/device/usbd.c **** 
 495:/home/pi/Developer/tinyusb/src/device/usbd.c **** bool tud_remote_wakeup(void) {
 496:/home/pi/Developer/tinyusb/src/device/usbd.c ****   // only wake up host if this feature is enabled and we are suspended
 497:/home/pi/Developer/tinyusb/src/device/usbd.c ****   TU_VERIFY(_usbd_dev.suspended && _usbd_dev.remote_wakeup_en);
 498:/home/pi/Developer/tinyusb/src/device/usbd.c ****   dcd_remote_wakeup(_usbd_rhport);
 499:/home/pi/Developer/tinyusb/src/device/usbd.c ****   return true;
 500:/home/pi/Developer/tinyusb/src/device/usbd.c **** }
 501:/home/pi/Developer/tinyusb/src/device/usbd.c **** 
 502:/home/pi/Developer/tinyusb/src/device/usbd.c **** bool tud_disconnect(void) {
 503:/home/pi/Developer/tinyusb/src/device/usbd.c ****   dcd_disconnect(_usbd_rhport);
 504:/home/pi/Developer/tinyusb/src/device/usbd.c ****   return true;
 505:/home/pi/Developer/tinyusb/src/device/usbd.c **** }
 506:/home/pi/Developer/tinyusb/src/device/usbd.c **** 
 507:/home/pi/Developer/tinyusb/src/device/usbd.c **** bool tud_connect(void) {
 508:/home/pi/Developer/tinyusb/src/device/usbd.c ****   dcd_connect(_usbd_rhport);
 509:/home/pi/Developer/tinyusb/src/device/usbd.c ****   return true;
 510:/home/pi/Developer/tinyusb/src/device/usbd.c **** }
 511:/home/pi/Developer/tinyusb/src/device/usbd.c **** 
 512:/home/pi/Developer/tinyusb/src/device/usbd.c **** void tud_sof_cb_enable(bool en) {
 513:/home/pi/Developer/tinyusb/src/device/usbd.c ****   usbd_sof_enable(_usbd_rhport, SOF_CONSUMER_USER, en);
 514:/home/pi/Developer/tinyusb/src/device/usbd.c **** }
 515:/home/pi/Developer/tinyusb/src/device/usbd.c **** 
 516:/home/pi/Developer/tinyusb/src/device/usbd.c **** bool tud_inited(void) {
ARM GAS  /tmp/cci2pXLM.s 			page 11


 517:/home/pi/Developer/tinyusb/src/device/usbd.c ****   return _usbd_rhport != RHPORT_INVALID;
 518:/home/pi/Developer/tinyusb/src/device/usbd.c **** }
 519:/home/pi/Developer/tinyusb/src/device/usbd.c **** 
 520:/home/pi/Developer/tinyusb/src/device/usbd.c **** bool tud_configure(uint8_t rhport, uint32_t cfg_id, const void* cfg_param) {
 521:/home/pi/Developer/tinyusb/src/device/usbd.c ****   return dcd_configure(rhport, cfg_id, cfg_param);
 522:/home/pi/Developer/tinyusb/src/device/usbd.c **** }
 523:/home/pi/Developer/tinyusb/src/device/usbd.c **** 
 524:/home/pi/Developer/tinyusb/src/device/usbd.c **** bool tud_rhport_init(uint8_t rhport, const tusb_rhport_init_t* rh_init) {
 525:/home/pi/Developer/tinyusb/src/device/usbd.c ****   if (tud_inited()) {
 526:/home/pi/Developer/tinyusb/src/device/usbd.c ****     return true; // skip if already initialized
 527:/home/pi/Developer/tinyusb/src/device/usbd.c ****   }
 528:/home/pi/Developer/tinyusb/src/device/usbd.c ****   TU_ASSERT(rh_init);
 529:/home/pi/Developer/tinyusb/src/device/usbd.c ****  #if CFG_TUSB_DEBUG >= CFG_TUD_LOG_LEVEL
 530:/home/pi/Developer/tinyusb/src/device/usbd.c ****   char const* speed_str = 0;
 531:/home/pi/Developer/tinyusb/src/device/usbd.c ****   switch (rh_init->speed) {
 532:/home/pi/Developer/tinyusb/src/device/usbd.c ****     case TUSB_SPEED_HIGH:
 533:/home/pi/Developer/tinyusb/src/device/usbd.c ****       speed_str = "High";
 534:/home/pi/Developer/tinyusb/src/device/usbd.c ****     break;
 535:/home/pi/Developer/tinyusb/src/device/usbd.c ****     case TUSB_SPEED_FULL:
 536:/home/pi/Developer/tinyusb/src/device/usbd.c ****       speed_str = "Full";
 537:/home/pi/Developer/tinyusb/src/device/usbd.c ****     break;
 538:/home/pi/Developer/tinyusb/src/device/usbd.c ****     case TUSB_SPEED_LOW:
 539:/home/pi/Developer/tinyusb/src/device/usbd.c ****       speed_str = "Low";
 540:/home/pi/Developer/tinyusb/src/device/usbd.c ****     break;
 541:/home/pi/Developer/tinyusb/src/device/usbd.c ****     case TUSB_SPEED_AUTO:
 542:/home/pi/Developer/tinyusb/src/device/usbd.c ****       speed_str = "Auto";
 543:/home/pi/Developer/tinyusb/src/device/usbd.c ****     break;
 544:/home/pi/Developer/tinyusb/src/device/usbd.c ****   default:
 545:/home/pi/Developer/tinyusb/src/device/usbd.c ****     break;
 546:/home/pi/Developer/tinyusb/src/device/usbd.c ****   }
 547:/home/pi/Developer/tinyusb/src/device/usbd.c ****   TU_LOG_USBD("USBD init on controller %u, speed = %s\r\n", rhport, speed_str);
 548:/home/pi/Developer/tinyusb/src/device/usbd.c ****   TU_LOG_INT(CFG_TUD_LOG_LEVEL, sizeof(usbd_device_t));
 549:/home/pi/Developer/tinyusb/src/device/usbd.c ****   TU_LOG_INT(CFG_TUD_LOG_LEVEL, sizeof(dcd_event_t));
 550:/home/pi/Developer/tinyusb/src/device/usbd.c ****   TU_LOG_INT(CFG_TUD_LOG_LEVEL, sizeof(tu_fifo_t));
 551:/home/pi/Developer/tinyusb/src/device/usbd.c ****   TU_LOG_INT(CFG_TUD_LOG_LEVEL, sizeof(tu_edpt_stream_t));
 552:/home/pi/Developer/tinyusb/src/device/usbd.c **** #endif
 553:/home/pi/Developer/tinyusb/src/device/usbd.c **** 
 554:/home/pi/Developer/tinyusb/src/device/usbd.c ****   tu_varclr(&_usbd_dev);
 555:/home/pi/Developer/tinyusb/src/device/usbd.c ****   _usbd_queued_setup = 0;
 556:/home/pi/Developer/tinyusb/src/device/usbd.c **** 
 557:/home/pi/Developer/tinyusb/src/device/usbd.c ****   osal_spin_init(&_usbd_spin);
 558:/home/pi/Developer/tinyusb/src/device/usbd.c **** 
 559:/home/pi/Developer/tinyusb/src/device/usbd.c **** #if OSAL_MUTEX_REQUIRED
 560:/home/pi/Developer/tinyusb/src/device/usbd.c ****   // Init device mutex
 561:/home/pi/Developer/tinyusb/src/device/usbd.c ****   _usbd_mutex = osal_mutex_create(&_ubsd_mutexdef);
 562:/home/pi/Developer/tinyusb/src/device/usbd.c ****   TU_ASSERT(_usbd_mutex);
 563:/home/pi/Developer/tinyusb/src/device/usbd.c **** #endif
 564:/home/pi/Developer/tinyusb/src/device/usbd.c **** 
 565:/home/pi/Developer/tinyusb/src/device/usbd.c ****   // Init device queue & task
 566:/home/pi/Developer/tinyusb/src/device/usbd.c ****   _usbd_q = osal_queue_create(&_usbd_qdef);
 567:/home/pi/Developer/tinyusb/src/device/usbd.c ****   TU_ASSERT(_usbd_q);
 568:/home/pi/Developer/tinyusb/src/device/usbd.c **** 
 569:/home/pi/Developer/tinyusb/src/device/usbd.c ****   // Get application driver if available
 570:/home/pi/Developer/tinyusb/src/device/usbd.c ****   _app_driver = usbd_app_driver_get_cb(&_app_driver_count);
 571:/home/pi/Developer/tinyusb/src/device/usbd.c ****   TU_ASSERT(_app_driver_count + BUILTIN_DRIVER_COUNT <= UINT8_MAX);
 572:/home/pi/Developer/tinyusb/src/device/usbd.c **** 
 573:/home/pi/Developer/tinyusb/src/device/usbd.c ****   // Init class drivers
ARM GAS  /tmp/cci2pXLM.s 			page 12


 574:/home/pi/Developer/tinyusb/src/device/usbd.c ****   for (uint8_t i = 0; i < TOTAL_DRIVER_COUNT; i++) {
 575:/home/pi/Developer/tinyusb/src/device/usbd.c ****     usbd_class_driver_t const* driver = get_driver(i);
 576:/home/pi/Developer/tinyusb/src/device/usbd.c ****     TU_ASSERT(driver && driver->init);
 577:/home/pi/Developer/tinyusb/src/device/usbd.c ****     TU_LOG_USBD("%s init\r\n", driver->name);
 578:/home/pi/Developer/tinyusb/src/device/usbd.c ****     driver->init();
 579:/home/pi/Developer/tinyusb/src/device/usbd.c ****   }
 580:/home/pi/Developer/tinyusb/src/device/usbd.c **** 
 581:/home/pi/Developer/tinyusb/src/device/usbd.c ****   _usbd_rhport = rhport;
 582:/home/pi/Developer/tinyusb/src/device/usbd.c **** 
 583:/home/pi/Developer/tinyusb/src/device/usbd.c ****   // Init device controller driver
 584:/home/pi/Developer/tinyusb/src/device/usbd.c ****   TU_ASSERT(dcd_init(rhport, rh_init));
 585:/home/pi/Developer/tinyusb/src/device/usbd.c ****   dcd_int_enable(rhport);
 586:/home/pi/Developer/tinyusb/src/device/usbd.c **** 
 587:/home/pi/Developer/tinyusb/src/device/usbd.c ****   return true;
 588:/home/pi/Developer/tinyusb/src/device/usbd.c **** }
 589:/home/pi/Developer/tinyusb/src/device/usbd.c **** 
 590:/home/pi/Developer/tinyusb/src/device/usbd.c **** bool tud_deinit(uint8_t rhport) {
 591:/home/pi/Developer/tinyusb/src/device/usbd.c ****   if (!tud_inited()) {
 592:/home/pi/Developer/tinyusb/src/device/usbd.c ****     return true; // skip if not initialized
 593:/home/pi/Developer/tinyusb/src/device/usbd.c ****   }
 594:/home/pi/Developer/tinyusb/src/device/usbd.c **** 
 595:/home/pi/Developer/tinyusb/src/device/usbd.c ****   TU_LOG_USBD("USBD deinit on controller %u\r\n", rhport);
 596:/home/pi/Developer/tinyusb/src/device/usbd.c **** 
 597:/home/pi/Developer/tinyusb/src/device/usbd.c ****   const uint8_t cfg_num = _usbd_dev.cfg_num;
 598:/home/pi/Developer/tinyusb/src/device/usbd.c **** 
 599:/home/pi/Developer/tinyusb/src/device/usbd.c ****   // Deinit device controller driver
 600:/home/pi/Developer/tinyusb/src/device/usbd.c ****   dcd_int_disable(rhport);
 601:/home/pi/Developer/tinyusb/src/device/usbd.c ****   dcd_disconnect(rhport);
 602:/home/pi/Developer/tinyusb/src/device/usbd.c ****   TU_ASSERT(dcd_deinit(rhport));
 603:/home/pi/Developer/tinyusb/src/device/usbd.c **** 
 604:/home/pi/Developer/tinyusb/src/device/usbd.c ****   // Deinit class drivers
 605:/home/pi/Developer/tinyusb/src/device/usbd.c ****   for (uint8_t i = 0; i < TOTAL_DRIVER_COUNT; i++) {
 606:/home/pi/Developer/tinyusb/src/device/usbd.c ****     usbd_class_driver_t const* driver = get_driver(i);
 607:/home/pi/Developer/tinyusb/src/device/usbd.c ****     if(driver && driver->deinit) {
 608:/home/pi/Developer/tinyusb/src/device/usbd.c ****       TU_LOG_USBD("%s deinit\r\n", driver->name);
 609:/home/pi/Developer/tinyusb/src/device/usbd.c ****       driver->deinit();
 610:/home/pi/Developer/tinyusb/src/device/usbd.c ****     }
 611:/home/pi/Developer/tinyusb/src/device/usbd.c ****   }
 612:/home/pi/Developer/tinyusb/src/device/usbd.c **** 
 613:/home/pi/Developer/tinyusb/src/device/usbd.c ****   tu_varclr(&_usbd_dev); // Clear device data
 614:/home/pi/Developer/tinyusb/src/device/usbd.c **** 
 615:/home/pi/Developer/tinyusb/src/device/usbd.c ****   // Deinit device queue & task
 616:/home/pi/Developer/tinyusb/src/device/usbd.c ****   osal_queue_delete(_usbd_q);
 617:/home/pi/Developer/tinyusb/src/device/usbd.c ****   _usbd_q = NULL;
 618:/home/pi/Developer/tinyusb/src/device/usbd.c **** 
 619:/home/pi/Developer/tinyusb/src/device/usbd.c **** #if OSAL_MUTEX_REQUIRED
 620:/home/pi/Developer/tinyusb/src/device/usbd.c ****   // TODO make sure there is no task waiting on this mutex
 621:/home/pi/Developer/tinyusb/src/device/usbd.c ****   osal_mutex_delete(_usbd_mutex);
 622:/home/pi/Developer/tinyusb/src/device/usbd.c ****   _usbd_mutex = NULL;
 623:/home/pi/Developer/tinyusb/src/device/usbd.c **** #endif
 624:/home/pi/Developer/tinyusb/src/device/usbd.c **** 
 625:/home/pi/Developer/tinyusb/src/device/usbd.c ****   _usbd_rhport = RHPORT_INVALID;
 626:/home/pi/Developer/tinyusb/src/device/usbd.c **** 
 627:/home/pi/Developer/tinyusb/src/device/usbd.c ****   if (cfg_num > 0) {
 628:/home/pi/Developer/tinyusb/src/device/usbd.c ****     tud_umount_cb();
 629:/home/pi/Developer/tinyusb/src/device/usbd.c ****   }
 630:/home/pi/Developer/tinyusb/src/device/usbd.c **** 
ARM GAS  /tmp/cci2pXLM.s 			page 13


 631:/home/pi/Developer/tinyusb/src/device/usbd.c ****   return true;
 632:/home/pi/Developer/tinyusb/src/device/usbd.c **** }
 633:/home/pi/Developer/tinyusb/src/device/usbd.c **** 
 634:/home/pi/Developer/tinyusb/src/device/usbd.c **** static void configuration_reset(uint8_t rhport) {
  58              		.loc 1 634 49 is_stmt 1 view -0
  59              		.cfi_startproc
  60              		@ args = 0, pretend = 0, frame = 0
  61              		@ frame_needed = 0, uses_anonymous_args = 0
 635:/home/pi/Developer/tinyusb/src/device/usbd.c ****   for (uint8_t i = 0; i < TOTAL_DRIVER_COUNT; i++) {
  62              		.loc 1 635 3 view .LVU8
  63              	.LBB407:
  64              		.loc 1 635 8 view .LVU9
  65              		.loc 1 635 23 view .LVU10
  66              	.LBE407:
 634:/home/pi/Developer/tinyusb/src/device/usbd.c ****   for (uint8_t i = 0; i < TOTAL_DRIVER_COUNT; i++) {
  67              		.loc 1 634 49 is_stmt 0 view .LVU11
  68 0000 2DE9F041 		push	{r4, r5, r6, r7, r8, lr}
  69              		.cfi_def_cfa_offset 24
  70              		.cfi_offset 4, -24
  71              		.cfi_offset 5, -20
  72              		.cfi_offset 6, -16
  73              		.cfi_offset 7, -12
  74              		.cfi_offset 8, -8
  75              		.cfi_offset 14, -4
  76              	.LBB418:
  77              		.loc 1 635 27 view .LVU12
  78 0004 204D     		ldr	r5, .L22
  79 0006 2978     		ldrb	r1, [r5]	@ zero_extendqisi2
  80              		.loc 1 635 3 view .LVU13
  81 0008 FF29     		cmp	r1, #255
  82 000a 16D0     		beq	.L10
  83 000c 0024     		movs	r4, #0
  84 000e 8046     		mov	r8, r0
  85              	.LBB408:
  86              	.LBB409:
  87              	.LBB410:
  88 0010 1E4F     		ldr	r7, .L22+4
  89 0012 2346     		mov	r3, r4
 383:/home/pi/Developer/tinyusb/src/device/usbd.c ****   } else{
  90              		.loc 1 383 14 view .LVU14
  91 0014 1E4E     		ldr	r6, .L22+8
  92              	.LVL3:
  93              	.L4:
 383:/home/pi/Developer/tinyusb/src/device/usbd.c ****   } else{
  94              		.loc 1 383 14 view .LVU15
  95              	.LBE410:
  96              	.LBE409:
 636:/home/pi/Developer/tinyusb/src/device/usbd.c ****     usbd_class_driver_t const* driver = get_driver(i);
  97              		.loc 1 636 5 is_stmt 1 view .LVU16
  98              	.LBB413:
  99              	.LBI409:
 379:/home/pi/Developer/tinyusb/src/device/usbd.c ****   usbd_class_driver_t const *driver = NULL;
 100              		.loc 1 379 65 view .LVU17
 101              	.LBB411:
 380:/home/pi/Developer/tinyusb/src/device/usbd.c ****   if (drvid < _app_driver_count) {
 102              		.loc 1 380 3 view .LVU18
 381:/home/pi/Developer/tinyusb/src/device/usbd.c ****     // Application drivers
ARM GAS  /tmp/cci2pXLM.s 			page 14


 103              		.loc 1 381 3 view .LVU19
 383:/home/pi/Developer/tinyusb/src/device/usbd.c ****   } else{
 104              		.loc 1 383 5 view .LVU20
 385:/home/pi/Developer/tinyusb/src/device/usbd.c ****     if (drvid < BUILTIN_DRIVER_COUNT) {
 105              		.loc 1 385 5 view .LVU21
 386:/home/pi/Developer/tinyusb/src/device/usbd.c ****       driver = &_usbd_driver[drvid];
 106              		.loc 1 386 5 view .LVU22
 381:/home/pi/Developer/tinyusb/src/device/usbd.c ****     // Application drivers
 107              		.loc 1 381 6 is_stmt 0 view .LVU23
 108 0016 8B42     		cmp	r3, r1
 383:/home/pi/Developer/tinyusb/src/device/usbd.c ****   } else{
 109              		.loc 1 383 26 view .LVU24
 110 0018 03EBC302 		add	r2, r3, r3, lsl #3
 381:/home/pi/Developer/tinyusb/src/device/usbd.c ****     // Application drivers
 111              		.loc 1 381 6 view .LVU25
 112 001c 29D2     		bcs	.L6
 383:/home/pi/Developer/tinyusb/src/device/usbd.c ****   } else{
 113              		.loc 1 383 12 view .LVU26
 114 001e 3368     		ldr	r3, [r6]
 115              	.LVL4:
 391:/home/pi/Developer/tinyusb/src/device/usbd.c **** }
 116              		.loc 1 391 3 is_stmt 1 view .LVU27
 391:/home/pi/Developer/tinyusb/src/device/usbd.c **** }
 117              		.loc 1 391 3 is_stmt 0 view .LVU28
 118              	.LBE411:
 119              	.LBE413:
 637:/home/pi/Developer/tinyusb/src/device/usbd.c ****     TU_ASSERT(driver,);
 120              		.loc 1 637 5 is_stmt 1 view .LVU29
 121              		.loc 1 637 5 view .LVU30
 122 0020 13EB8203 		adds	r3, r3, r2, lsl #2
 123              	.LVL5:
 124              		.loc 1 637 5 is_stmt 0 view .LVU31
 125 0024 27D0     		beq	.L7
 638:/home/pi/Developer/tinyusb/src/device/usbd.c ****     driver->reset(rhport);
 126              		.loc 1 638 11 view .LVU32
 127 0026 DB68     		ldr	r3, [r3, #12]
 128              	.LVL6:
 129              	.L9:
 637:/home/pi/Developer/tinyusb/src/device/usbd.c ****     TU_ASSERT(driver,);
 130              		.loc 1 637 5 is_stmt 1 discriminator 2 view .LVU33
 131              		.loc 1 638 5 discriminator 2 view .LVU34
 132 0028 4046     		mov	r0, r8
 133              	.LBE408:
 635:/home/pi/Developer/tinyusb/src/device/usbd.c ****     usbd_class_driver_t const* driver = get_driver(i);
 134              		.loc 1 635 3 is_stmt 0 discriminator 2 view .LVU35
 135 002a 0134     		adds	r4, r4, #1
 136              	.LBB416:
 137              		.loc 1 638 5 discriminator 2 view .LVU36
 138 002c 9847     		blx	r3
 139              	.LVL7:
 140              	.LBE416:
 635:/home/pi/Developer/tinyusb/src/device/usbd.c ****     usbd_class_driver_t const* driver = get_driver(i);
 141              		.loc 1 635 47 is_stmt 1 discriminator 2 view .LVU37
 635:/home/pi/Developer/tinyusb/src/device/usbd.c ****     usbd_class_driver_t const* driver = get_driver(i);
 142              		.loc 1 635 23 discriminator 2 view .LVU38
 635:/home/pi/Developer/tinyusb/src/device/usbd.c ****     usbd_class_driver_t const* driver = get_driver(i);
 143              		.loc 1 635 27 is_stmt 0 discriminator 2 view .LVU39
ARM GAS  /tmp/cci2pXLM.s 			page 15


 144 002e 2978     		ldrb	r1, [r5]	@ zero_extendqisi2
 635:/home/pi/Developer/tinyusb/src/device/usbd.c ****     usbd_class_driver_t const* driver = get_driver(i);
 145              		.loc 1 635 3 discriminator 2 view .LVU40
 146 0030 E3B2     		uxtb	r3, r4
 635:/home/pi/Developer/tinyusb/src/device/usbd.c ****     usbd_class_driver_t const* driver = get_driver(i);
 147              		.loc 1 635 27 discriminator 2 view .LVU41
 148 0032 4A1C     		adds	r2, r1, #1
 635:/home/pi/Developer/tinyusb/src/device/usbd.c ****     usbd_class_driver_t const* driver = get_driver(i);
 149              		.loc 1 635 3 discriminator 2 view .LVU42
 150 0034 D2B2     		uxtb	r2, r2
 151 0036 9A42     		cmp	r2, r3
 152 0038 EDD8     		bhi	.L4
 153              	.L10:
 154              	.LBE418:
 639:/home/pi/Developer/tinyusb/src/device/usbd.c ****   }
 640:/home/pi/Developer/tinyusb/src/device/usbd.c **** 
 641:/home/pi/Developer/tinyusb/src/device/usbd.c ****   tu_varclr(&_usbd_dev);
 155              		.loc 1 641 3 is_stmt 1 view .LVU43
 156 003a 164B     		ldr	r3, .L22+12
 157 003c 5022     		movs	r2, #80
 158 003e 0021     		movs	r1, #0
 159 0040 1846     		mov	r0, r3
 160 0042 FFF7FEFF 		bl	memset
 161              	.LVL8:
 642:/home/pi/Developer/tinyusb/src/device/usbd.c ****   (void)memset(_usbd_dev.itf2drv, TUSB_INDEX_INVALID_8, sizeof(_usbd_dev.itf2drv)); // invalid mapp
 162              		.loc 1 642 3 view .LVU44
 163              		.loc 1 642 9 is_stmt 0 view .LVU45
 164 0046 4FF0FF32 		mov	r2, #-1
 165 004a C0F81B20 		str	r2, [r0, #27]	@ unaligned
 166 004e C0F81F20 		str	r2, [r0, #31]	@ unaligned
 167 0052 C0F82320 		str	r2, [r0, #35]	@ unaligned
 168 0056 C0F82720 		str	r2, [r0, #39]	@ unaligned
 643:/home/pi/Developer/tinyusb/src/device/usbd.c ****   (void)memset(_usbd_dev.ep2drv, TUSB_INDEX_INVALID_8, sizeof(_usbd_dev.ep2drv));   // invalid mapp
 169              		.loc 1 643 3 is_stmt 1 view .LVU46
 170              		.loc 1 643 9 is_stmt 0 view .LVU47
 171 005a C0F82B20 		str	r2, [r0, #43]	@ unaligned
 172 005e C0F82F20 		str	r2, [r0, #47]	@ unaligned
 173 0062 C0F83320 		str	r2, [r0, #51]	@ unaligned
 174 0066 C0F83720 		str	r2, [r0, #55]	@ unaligned
 175 006a A0F83B20 		strh	r2, [r0, #59]	@ unaligned
 176              	.L3:
 644:/home/pi/Developer/tinyusb/src/device/usbd.c **** }
 177              		.loc 1 644 1 view .LVU48
 178 006e BDE8F081 		pop	{r4, r5, r6, r7, r8, pc}
 179              	.LVL9:
 180              	.L6:
 181              	.LBB419:
 182              	.LBB417:
 183              	.LBB414:
 184              	.LBB412:
 185              		.loc 1 644 1 view .LVU49
 186 0072 3B46     		mov	r3, r7
 187              	.LVL10:
 386:/home/pi/Developer/tinyusb/src/device/usbd.c ****       driver = &_usbd_driver[drvid];
 188              		.loc 1 386 8 view .LVU50
 189 0074 D8D0     		beq	.L9
 190              	.LVL11:
ARM GAS  /tmp/cci2pXLM.s 			page 16


 191              	.L7:
 386:/home/pi/Developer/tinyusb/src/device/usbd.c ****       driver = &_usbd_driver[drvid];
 192              		.loc 1 386 8 view .LVU51
 193              	.LBE412:
 194              	.LBE414:
 637:/home/pi/Developer/tinyusb/src/device/usbd.c ****     driver->reset(rhport);
 195              		.loc 1 637 5 is_stmt 1 discriminator 1 view .LVU52
 637:/home/pi/Developer/tinyusb/src/device/usbd.c ****     driver->reset(rhport);
 196              		.loc 1 637 5 discriminator 1 view .LVU53
 637:/home/pi/Developer/tinyusb/src/device/usbd.c ****     driver->reset(rhport);
 197              		.loc 1 637 5 discriminator 1 view .LVU54
 637:/home/pi/Developer/tinyusb/src/device/usbd.c ****     driver->reset(rhport);
 198              		.loc 1 637 5 discriminator 1 view .LVU55
 199              	.LBB415:
 637:/home/pi/Developer/tinyusb/src/device/usbd.c ****     driver->reset(rhport);
 200              		.loc 1 637 5 discriminator 1 view .LVU56
 637:/home/pi/Developer/tinyusb/src/device/usbd.c ****     driver->reset(rhport);
 201              		.loc 1 637 5 discriminator 1 view .LVU57
 202 0076 4FF0E023 		mov	r3, #-536813568
 203 007a D3F8F03D 		ldr	r3, [r3, #3568]
 204 007e DB07     		lsls	r3, r3, #31
 205 0080 F5D5     		bpl	.L3
 637:/home/pi/Developer/tinyusb/src/device/usbd.c ****     driver->reset(rhport);
 206              		.loc 1 637 5 discriminator 3 view .LVU58
 207              		.syntax unified
 208              	@ 637 "/home/pi/Developer/tinyusb/src/device/usbd.c" 1
 209 0082 00BE     		BKPT #0
 210              	
 211              	@ 0 "" 2
 212              		.thumb
 213              		.syntax unified
 214              	.LBE415:
 215              	.LBE417:
 216              	.LBE419:
 217              		.loc 1 644 1 is_stmt 0 discriminator 3 view .LVU59
 218 0084 BDE8F081 		pop	{r4, r5, r6, r7, r8, pc}
 219              	.L23:
 220              		.align	2
 221              	.L22:
 222 0088 00000000 		.word	.LANCHOR0
 223 008c 00000000 		.word	hidd_reset
 224 0090 00000000 		.word	.LANCHOR2
 225 0094 00000000 		.word	.LANCHOR1
 226              		.cfi_endproc
 227              	.LFE459:
 229              		.section	.text.usbd_int_set,"ax",%progbits
 230              		.align	1
 231              		.p2align 2,,3
 232              		.global	usbd_int_set
 233              		.syntax unified
 234              		.thumb
 235              		.thumb_func
 236              		.fpu fpv5-d16
 238              	usbd_int_set:
 239              	.LVL12:
 240              	.LFB477:
 645:/home/pi/Developer/tinyusb/src/device/usbd.c **** 
ARM GAS  /tmp/cci2pXLM.s 			page 17


 646:/home/pi/Developer/tinyusb/src/device/usbd.c **** static void usbd_reset(uint8_t rhport) {
 647:/home/pi/Developer/tinyusb/src/device/usbd.c ****   configuration_reset(rhport);
 648:/home/pi/Developer/tinyusb/src/device/usbd.c **** }
 649:/home/pi/Developer/tinyusb/src/device/usbd.c **** 
 650:/home/pi/Developer/tinyusb/src/device/usbd.c **** bool tud_task_event_ready(void) {
 651:/home/pi/Developer/tinyusb/src/device/usbd.c ****   TU_VERIFY(tud_inited()); // Skip if stack is not initialized
 652:/home/pi/Developer/tinyusb/src/device/usbd.c ****   return !osal_queue_empty(_usbd_q);
 653:/home/pi/Developer/tinyusb/src/device/usbd.c **** }
 654:/home/pi/Developer/tinyusb/src/device/usbd.c **** 
 655:/home/pi/Developer/tinyusb/src/device/usbd.c **** //--------------------------------------------------------------------+
 656:/home/pi/Developer/tinyusb/src/device/usbd.c **** // USBD Task
 657:/home/pi/Developer/tinyusb/src/device/usbd.c **** //--------------------------------------------------------------------+
 658:/home/pi/Developer/tinyusb/src/device/usbd.c **** /* USB Device Driver task
 659:/home/pi/Developer/tinyusb/src/device/usbd.c ****  * This top level thread manages all device controller event and delegates events to class-specific
 660:/home/pi/Developer/tinyusb/src/device/usbd.c ****  * This should be called periodically within the mainloop or rtos thread.
 661:/home/pi/Developer/tinyusb/src/device/usbd.c ****  *
 662:/home/pi/Developer/tinyusb/src/device/usbd.c ****     int main(void) {
 663:/home/pi/Developer/tinyusb/src/device/usbd.c ****       application_init();
 664:/home/pi/Developer/tinyusb/src/device/usbd.c ****       tusb_init(0, TUSB_ROLE_DEVICE);
 665:/home/pi/Developer/tinyusb/src/device/usbd.c **** 
 666:/home/pi/Developer/tinyusb/src/device/usbd.c ****       while(1) { // the mainloop
 667:/home/pi/Developer/tinyusb/src/device/usbd.c ****         application_code();
 668:/home/pi/Developer/tinyusb/src/device/usbd.c ****         tud_task(); // tinyusb device task
 669:/home/pi/Developer/tinyusb/src/device/usbd.c ****       }
 670:/home/pi/Developer/tinyusb/src/device/usbd.c ****     }
 671:/home/pi/Developer/tinyusb/src/device/usbd.c ****  */
 672:/home/pi/Developer/tinyusb/src/device/usbd.c **** void tud_task_ext(uint32_t timeout_ms, bool in_isr) {
 673:/home/pi/Developer/tinyusb/src/device/usbd.c ****   (void) in_isr; // not implemented yet
 674:/home/pi/Developer/tinyusb/src/device/usbd.c **** 
 675:/home/pi/Developer/tinyusb/src/device/usbd.c ****   // Skip if stack is not initialized
 676:/home/pi/Developer/tinyusb/src/device/usbd.c ****   if (!tud_inited()) {
 677:/home/pi/Developer/tinyusb/src/device/usbd.c ****     return;
 678:/home/pi/Developer/tinyusb/src/device/usbd.c ****   }
 679:/home/pi/Developer/tinyusb/src/device/usbd.c **** 
 680:/home/pi/Developer/tinyusb/src/device/usbd.c ****   // Loop until there are no more events in the queue or CFG_TUD_TASK_EVENTS_PER_RUN is reached
 681:/home/pi/Developer/tinyusb/src/device/usbd.c ****   for (unsigned epr = 0;; epr++) {
 682:/home/pi/Developer/tinyusb/src/device/usbd.c **** #if CFG_TUD_TASK_EVENTS_PER_RUN > 0
 683:/home/pi/Developer/tinyusb/src/device/usbd.c ****     if (epr >= CFG_TUD_TASK_EVENTS_PER_RUN) {
 684:/home/pi/Developer/tinyusb/src/device/usbd.c ****       TU_LOG_USBD("USBD event limit (" TU_XSTRING(CFG_TUD_TASK_EVENTS_PER_RUN) ") reached\r\n");
 685:/home/pi/Developer/tinyusb/src/device/usbd.c ****       break;
 686:/home/pi/Developer/tinyusb/src/device/usbd.c ****     }
 687:/home/pi/Developer/tinyusb/src/device/usbd.c **** #endif
 688:/home/pi/Developer/tinyusb/src/device/usbd.c ****     dcd_event_t event;
 689:/home/pi/Developer/tinyusb/src/device/usbd.c ****     if (!osal_queue_receive(_usbd_q, &event, timeout_ms)) {
 690:/home/pi/Developer/tinyusb/src/device/usbd.c ****       return;
 691:/home/pi/Developer/tinyusb/src/device/usbd.c ****     }
 692:/home/pi/Developer/tinyusb/src/device/usbd.c **** 
 693:/home/pi/Developer/tinyusb/src/device/usbd.c **** #if CFG_TUSB_DEBUG >= CFG_TUD_LOG_LEVEL
 694:/home/pi/Developer/tinyusb/src/device/usbd.c ****     if (event.event_id == DCD_EVENT_SETUP_RECEIVED) {
 695:/home/pi/Developer/tinyusb/src/device/usbd.c ****       TU_LOG_USBD("\r\n"); // extra line for setup
 696:/home/pi/Developer/tinyusb/src/device/usbd.c ****     }
 697:/home/pi/Developer/tinyusb/src/device/usbd.c ****     TU_LOG_USBD("USBD %s ", event.event_id < DCD_EVENT_COUNT ? _usbd_event_str[event.event_id] : "C
 698:/home/pi/Developer/tinyusb/src/device/usbd.c **** #endif
 699:/home/pi/Developer/tinyusb/src/device/usbd.c **** 
 700:/home/pi/Developer/tinyusb/src/device/usbd.c ****     switch (event.event_id) {
 701:/home/pi/Developer/tinyusb/src/device/usbd.c ****       case DCD_EVENT_BUS_RESET:
 702:/home/pi/Developer/tinyusb/src/device/usbd.c ****         TU_LOG_USBD(": %s Speed\r\n", tu_str_speed[event.bus_reset.speed]);
ARM GAS  /tmp/cci2pXLM.s 			page 18


 703:/home/pi/Developer/tinyusb/src/device/usbd.c ****         usbd_reset(event.rhport);
 704:/home/pi/Developer/tinyusb/src/device/usbd.c ****         _usbd_dev.speed = event.bus_reset.speed;
 705:/home/pi/Developer/tinyusb/src/device/usbd.c ****         break;
 706:/home/pi/Developer/tinyusb/src/device/usbd.c **** 
 707:/home/pi/Developer/tinyusb/src/device/usbd.c ****       case DCD_EVENT_UNPLUGGED:
 708:/home/pi/Developer/tinyusb/src/device/usbd.c ****         TU_LOG_USBD("\r\n");
 709:/home/pi/Developer/tinyusb/src/device/usbd.c ****         usbd_reset(event.rhport);
 710:/home/pi/Developer/tinyusb/src/device/usbd.c ****         tud_umount_cb();
 711:/home/pi/Developer/tinyusb/src/device/usbd.c ****         break;
 712:/home/pi/Developer/tinyusb/src/device/usbd.c **** 
 713:/home/pi/Developer/tinyusb/src/device/usbd.c ****       case DCD_EVENT_SETUP_RECEIVED:
 714:/home/pi/Developer/tinyusb/src/device/usbd.c ****         if (_usbd_queued_setup == 0) {
 715:/home/pi/Developer/tinyusb/src/device/usbd.c ****           break;
 716:/home/pi/Developer/tinyusb/src/device/usbd.c ****         }
 717:/home/pi/Developer/tinyusb/src/device/usbd.c ****         _usbd_queued_setup--;
 718:/home/pi/Developer/tinyusb/src/device/usbd.c ****         TU_LOG_BUF(CFG_TUD_LOG_LEVEL, &event.setup_received, 8);
 719:/home/pi/Developer/tinyusb/src/device/usbd.c ****         if (_usbd_queued_setup != 0) {
 720:/home/pi/Developer/tinyusb/src/device/usbd.c ****           TU_LOG_USBD("  Skipped since there is other SETUP in queue\r\n");
 721:/home/pi/Developer/tinyusb/src/device/usbd.c ****           break;
 722:/home/pi/Developer/tinyusb/src/device/usbd.c ****         }
 723:/home/pi/Developer/tinyusb/src/device/usbd.c **** 
 724:/home/pi/Developer/tinyusb/src/device/usbd.c ****         // Mark as connected after receiving 1st setup packet.
 725:/home/pi/Developer/tinyusb/src/device/usbd.c ****         // But it is easier to set it every time instead of wasting time to check then set
 726:/home/pi/Developer/tinyusb/src/device/usbd.c ****         _usbd_dev.connected = 1;
 727:/home/pi/Developer/tinyusb/src/device/usbd.c **** 
 728:/home/pi/Developer/tinyusb/src/device/usbd.c ****         // reset ep state
 729:/home/pi/Developer/tinyusb/src/device/usbd.c ****         _usbd_dev.ep_status[0][TUSB_DIR_OUT] = 0;
 730:/home/pi/Developer/tinyusb/src/device/usbd.c ****         _usbd_dev.ep_status[0][TUSB_DIR_IN] = 0;
 731:/home/pi/Developer/tinyusb/src/device/usbd.c **** 
 732:/home/pi/Developer/tinyusb/src/device/usbd.c ****         // Process control request
 733:/home/pi/Developer/tinyusb/src/device/usbd.c ****         if (!process_setup_received(event.rhport, &event.setup_received)) {
 734:/home/pi/Developer/tinyusb/src/device/usbd.c ****           TU_LOG_USBD("  Stall EP0\r\n");
 735:/home/pi/Developer/tinyusb/src/device/usbd.c ****           // Failed -> stall both control endpoint IN and OUT
 736:/home/pi/Developer/tinyusb/src/device/usbd.c ****           dcd_edpt_stall(event.rhport, TU_EP0_OUT);
 737:/home/pi/Developer/tinyusb/src/device/usbd.c ****           dcd_edpt_stall(event.rhport, TU_EP0_IN);
 738:/home/pi/Developer/tinyusb/src/device/usbd.c ****         }
 739:/home/pi/Developer/tinyusb/src/device/usbd.c ****         break;
 740:/home/pi/Developer/tinyusb/src/device/usbd.c **** 
 741:/home/pi/Developer/tinyusb/src/device/usbd.c ****       case DCD_EVENT_XFER_COMPLETE: {
 742:/home/pi/Developer/tinyusb/src/device/usbd.c ****         // Invoke the class callback associated with the endpoint address
 743:/home/pi/Developer/tinyusb/src/device/usbd.c ****         uint8_t const ep_addr = event.xfer_complete.ep_addr;
 744:/home/pi/Developer/tinyusb/src/device/usbd.c ****         uint8_t const epnum = tu_edpt_number(ep_addr);
 745:/home/pi/Developer/tinyusb/src/device/usbd.c ****         uint8_t const ep_dir = tu_edpt_dir(ep_addr);
 746:/home/pi/Developer/tinyusb/src/device/usbd.c **** 
 747:/home/pi/Developer/tinyusb/src/device/usbd.c ****         TU_LOG_USBD("on EP %02X with %u bytes\r\n", ep_addr, (unsigned int) event.xfer_complete.len
 748:/home/pi/Developer/tinyusb/src/device/usbd.c **** 
 749:/home/pi/Developer/tinyusb/src/device/usbd.c ****         // Clear busy + claimed
 750:/home/pi/Developer/tinyusb/src/device/usbd.c ****         _usbd_dev.ep_status[epnum][ep_dir] &= (uint8_t) ~(TU_EDPT_STATE_BUSY | TU_EDPT_STATE_CLAIME
 751:/home/pi/Developer/tinyusb/src/device/usbd.c **** 
 752:/home/pi/Developer/tinyusb/src/device/usbd.c ****         if (0 == epnum) {
 753:/home/pi/Developer/tinyusb/src/device/usbd.c ****           usbd_control_xfer_cb(event.rhport, ep_addr, (xfer_result_t) event.xfer_complete.result, e
 754:/home/pi/Developer/tinyusb/src/device/usbd.c ****         } else {
 755:/home/pi/Developer/tinyusb/src/device/usbd.c ****           usbd_class_driver_t const* driver = get_driver(_usbd_dev.ep2drv[epnum][ep_dir]);
 756:/home/pi/Developer/tinyusb/src/device/usbd.c ****           TU_ASSERT(driver,);
 757:/home/pi/Developer/tinyusb/src/device/usbd.c **** 
 758:/home/pi/Developer/tinyusb/src/device/usbd.c ****           TU_LOG_USBD("  %s xfer callback\r\n", driver->name);
 759:/home/pi/Developer/tinyusb/src/device/usbd.c ****           driver->xfer_cb(event.rhport, ep_addr, (xfer_result_t) event.xfer_complete.result, event.
ARM GAS  /tmp/cci2pXLM.s 			page 19


 760:/home/pi/Developer/tinyusb/src/device/usbd.c ****         }
 761:/home/pi/Developer/tinyusb/src/device/usbd.c ****         break;
 762:/home/pi/Developer/tinyusb/src/device/usbd.c ****       }
 763:/home/pi/Developer/tinyusb/src/device/usbd.c **** 
 764:/home/pi/Developer/tinyusb/src/device/usbd.c ****       case DCD_EVENT_SUSPEND:
 765:/home/pi/Developer/tinyusb/src/device/usbd.c ****         // NOTE: When plugging/unplugging device, the D+/D- state are unstable and
 766:/home/pi/Developer/tinyusb/src/device/usbd.c ****         // can accidentally meet the SUSPEND condition ( Bus Idle for 3ms ), which result in a seri
 767:/home/pi/Developer/tinyusb/src/device/usbd.c ****         // e.g suspend -> resume -> unplug/plug. Skip suspend/resume if not connected
 768:/home/pi/Developer/tinyusb/src/device/usbd.c ****         if (_usbd_dev.connected) {
 769:/home/pi/Developer/tinyusb/src/device/usbd.c ****           TU_LOG_USBD(": Remote Wakeup = %u\r\n", _usbd_dev.remote_wakeup_en);
 770:/home/pi/Developer/tinyusb/src/device/usbd.c ****           tud_suspend_cb(_usbd_dev.remote_wakeup_en);
 771:/home/pi/Developer/tinyusb/src/device/usbd.c ****         } else {
 772:/home/pi/Developer/tinyusb/src/device/usbd.c ****           TU_LOG_USBD(" Skipped\r\n");
 773:/home/pi/Developer/tinyusb/src/device/usbd.c ****         }
 774:/home/pi/Developer/tinyusb/src/device/usbd.c ****         break;
 775:/home/pi/Developer/tinyusb/src/device/usbd.c **** 
 776:/home/pi/Developer/tinyusb/src/device/usbd.c ****       case DCD_EVENT_RESUME:
 777:/home/pi/Developer/tinyusb/src/device/usbd.c ****         if (_usbd_dev.connected) {
 778:/home/pi/Developer/tinyusb/src/device/usbd.c ****           TU_LOG_USBD("\r\n");
 779:/home/pi/Developer/tinyusb/src/device/usbd.c ****           tud_resume_cb();
 780:/home/pi/Developer/tinyusb/src/device/usbd.c ****         } else {
 781:/home/pi/Developer/tinyusb/src/device/usbd.c ****           TU_LOG_USBD(" Skipped\r\n");
 782:/home/pi/Developer/tinyusb/src/device/usbd.c ****         }
 783:/home/pi/Developer/tinyusb/src/device/usbd.c ****         break;
 784:/home/pi/Developer/tinyusb/src/device/usbd.c **** 
 785:/home/pi/Developer/tinyusb/src/device/usbd.c ****       case USBD_EVENT_FUNC_CALL:
 786:/home/pi/Developer/tinyusb/src/device/usbd.c ****         TU_LOG_USBD("\r\n");
 787:/home/pi/Developer/tinyusb/src/device/usbd.c ****         if (event.func_call.func != NULL) {
 788:/home/pi/Developer/tinyusb/src/device/usbd.c ****           event.func_call.func(event.func_call.param);
 789:/home/pi/Developer/tinyusb/src/device/usbd.c ****         }
 790:/home/pi/Developer/tinyusb/src/device/usbd.c ****         break;
 791:/home/pi/Developer/tinyusb/src/device/usbd.c **** 
 792:/home/pi/Developer/tinyusb/src/device/usbd.c ****       case DCD_EVENT_SOF:
 793:/home/pi/Developer/tinyusb/src/device/usbd.c ****         if (tu_bit_test(_usbd_dev.sof_consumer, SOF_CONSUMER_USER)) {
 794:/home/pi/Developer/tinyusb/src/device/usbd.c ****           TU_LOG_USBD("\r\n");
 795:/home/pi/Developer/tinyusb/src/device/usbd.c ****           tud_sof_cb(event.sof.frame_count);
 796:/home/pi/Developer/tinyusb/src/device/usbd.c ****         }
 797:/home/pi/Developer/tinyusb/src/device/usbd.c ****       break;
 798:/home/pi/Developer/tinyusb/src/device/usbd.c **** 
 799:/home/pi/Developer/tinyusb/src/device/usbd.c ****       default:
 800:/home/pi/Developer/tinyusb/src/device/usbd.c ****         TU_BREAKPOINT();
 801:/home/pi/Developer/tinyusb/src/device/usbd.c ****         break;
 802:/home/pi/Developer/tinyusb/src/device/usbd.c ****     }
 803:/home/pi/Developer/tinyusb/src/device/usbd.c **** 
 804:/home/pi/Developer/tinyusb/src/device/usbd.c ****     // allow to exit tud_task() if there is no event in the next run
 805:/home/pi/Developer/tinyusb/src/device/usbd.c ****     timeout_ms = 0;
 806:/home/pi/Developer/tinyusb/src/device/usbd.c ****   }
 807:/home/pi/Developer/tinyusb/src/device/usbd.c **** }
 808:/home/pi/Developer/tinyusb/src/device/usbd.c **** 
 809:/home/pi/Developer/tinyusb/src/device/usbd.c **** //--------------------------------------------------------------------+
 810:/home/pi/Developer/tinyusb/src/device/usbd.c **** // Control Endpoint
 811:/home/pi/Developer/tinyusb/src/device/usbd.c **** //--------------------------------------------------------------------+
 812:/home/pi/Developer/tinyusb/src/device/usbd.c **** 
 813:/home/pi/Developer/tinyusb/src/device/usbd.c **** // Weak hook: invoked when the control transfer's status stage completes
 814:/home/pi/Developer/tinyusb/src/device/usbd.c **** TU_ATTR_WEAK void dcd_edpt0_status_complete(uint8_t rhport, const tusb_control_request_t* request) 
 815:/home/pi/Developer/tinyusb/src/device/usbd.c ****   (void) rhport;
 816:/home/pi/Developer/tinyusb/src/device/usbd.c ****   (void) request;
ARM GAS  /tmp/cci2pXLM.s 			page 20


 817:/home/pi/Developer/tinyusb/src/device/usbd.c **** }
 818:/home/pi/Developer/tinyusb/src/device/usbd.c **** 
 819:/home/pi/Developer/tinyusb/src/device/usbd.c **** uint8_t* usbd_get_ctrl_buf(void) {
 820:/home/pi/Developer/tinyusb/src/device/usbd.c ****   return _ctrl_epbuf.buf;
 821:/home/pi/Developer/tinyusb/src/device/usbd.c **** }
 822:/home/pi/Developer/tinyusb/src/device/usbd.c **** 
 823:/home/pi/Developer/tinyusb/src/device/usbd.c **** // Endpoint used for the Status stage of a control transfer.
 824:/home/pi/Developer/tinyusb/src/device/usbd.c **** // Per USB 2.0 §9.3.1, when wLength == 0 the Direction bit is ignored and the Status
 825:/home/pi/Developer/tinyusb/src/device/usbd.c **** // stage is always IN. Otherwise the Status stage is opposite of the Data stage direction.
 826:/home/pi/Developer/tinyusb/src/device/usbd.c **** TU_ATTR_ALWAYS_INLINE static inline uint8_t status_stage_ep(const tusb_control_request_t* request) 
 827:/home/pi/Developer/tinyusb/src/device/usbd.c ****   return (request->wLength != 0 && request->bmRequestType_bit.direction) ? TU_EP0_OUT : TU_EP0_IN;
 828:/home/pi/Developer/tinyusb/src/device/usbd.c **** }
 829:/home/pi/Developer/tinyusb/src/device/usbd.c **** 
 830:/home/pi/Developer/tinyusb/src/device/usbd.c **** // Queue ZLP status transaction
 831:/home/pi/Developer/tinyusb/src/device/usbd.c **** TU_ATTR_ALWAYS_INLINE static inline bool status_stage_xact(uint8_t rhport, uint8_t ep_status) {
 832:/home/pi/Developer/tinyusb/src/device/usbd.c ****   return usbd_edpt_xfer(rhport, ep_status, NULL, 0, false);
 833:/home/pi/Developer/tinyusb/src/device/usbd.c **** }
 834:/home/pi/Developer/tinyusb/src/device/usbd.c **** 
 835:/home/pi/Developer/tinyusb/src/device/usbd.c **** // Queue a transaction in Data Stage. Each transaction has up to Endpoint0's max
 836:/home/pi/Developer/tinyusb/src/device/usbd.c **** // packet size. This function can also transfer a zero-length packet.
 837:/home/pi/Developer/tinyusb/src/device/usbd.c **** static bool data_stage_xact(uint8_t rhport) {
 838:/home/pi/Developer/tinyusb/src/device/usbd.c ****   usbd_control_xfer_t* const ctrl_xfer = &_usbd_dev.ctrl_xfer;
 839:/home/pi/Developer/tinyusb/src/device/usbd.c ****   const uint16_t xact_len = tu_min16(ctrl_xfer->data_len - ctrl_xfer->total_xferred, CFG_TUD_ENDPOI
 840:/home/pi/Developer/tinyusb/src/device/usbd.c ****   uint8_t ep_addr = TU_EP0_OUT;
 841:/home/pi/Developer/tinyusb/src/device/usbd.c **** 
 842:/home/pi/Developer/tinyusb/src/device/usbd.c ****   if (ctrl_xfer->request.bmRequestType_bit.direction == TUSB_DIR_IN) {
 843:/home/pi/Developer/tinyusb/src/device/usbd.c ****     ep_addr = TU_EP0_IN;
 844:/home/pi/Developer/tinyusb/src/device/usbd.c ****     if (0u != xact_len && ctrl_xfer->buffer != _ctrl_epbuf.buf) {
 845:/home/pi/Developer/tinyusb/src/device/usbd.c ****       TU_VERIFY(0 == tu_memcpy_s(_ctrl_epbuf.buf, CFG_TUD_ENDPOINT0_BUFSIZE, ctrl_xfer->buffer, xac
 846:/home/pi/Developer/tinyusb/src/device/usbd.c ****     }
 847:/home/pi/Developer/tinyusb/src/device/usbd.c ****   }
 848:/home/pi/Developer/tinyusb/src/device/usbd.c **** 
 849:/home/pi/Developer/tinyusb/src/device/usbd.c ****   return usbd_edpt_xfer(rhport, ep_addr, xact_len ? _ctrl_epbuf.buf : NULL, xact_len, false);
 850:/home/pi/Developer/tinyusb/src/device/usbd.c **** }
 851:/home/pi/Developer/tinyusb/src/device/usbd.c **** 
 852:/home/pi/Developer/tinyusb/src/device/usbd.c **** // Status phase
 853:/home/pi/Developer/tinyusb/src/device/usbd.c **** bool tud_control_status(uint8_t rhport, const tusb_control_request_t* request) {
 854:/home/pi/Developer/tinyusb/src/device/usbd.c ****   // _usbd_dev.ctrl_xfer fields are pre-initialized at process_setup_received entry
 855:/home/pi/Developer/tinyusb/src/device/usbd.c ****   (void) request;
 856:/home/pi/Developer/tinyusb/src/device/usbd.c ****   return status_stage_xact(rhport, status_stage_ep(&_usbd_dev.ctrl_xfer.request));
 857:/home/pi/Developer/tinyusb/src/device/usbd.c **** }
 858:/home/pi/Developer/tinyusb/src/device/usbd.c **** 
 859:/home/pi/Developer/tinyusb/src/device/usbd.c **** // Transmit data to/from the control endpoint. If wLength is zero, a status packet is sent instead.
 860:/home/pi/Developer/tinyusb/src/device/usbd.c **** bool tud_control_xfer(uint8_t rhport, const tusb_control_request_t* request, void* buffer, uint16_t
 861:/home/pi/Developer/tinyusb/src/device/usbd.c ****   // _usbd_dev.ctrl_xfer.request and reset fields are pre-initialized at process_setup_received ent
 862:/home/pi/Developer/tinyusb/src/device/usbd.c ****   (void) request;
 863:/home/pi/Developer/tinyusb/src/device/usbd.c ****   usbd_control_xfer_t* const ctrl_xfer = &_usbd_dev.ctrl_xfer;
 864:/home/pi/Developer/tinyusb/src/device/usbd.c ****   ctrl_xfer->buffer = (uint8_t*) buffer;
 865:/home/pi/Developer/tinyusb/src/device/usbd.c ****   ctrl_xfer->data_len = tu_min16(len, ctrl_xfer->request.wLength);
 866:/home/pi/Developer/tinyusb/src/device/usbd.c **** 
 867:/home/pi/Developer/tinyusb/src/device/usbd.c ****   if (ctrl_xfer->request.wLength > 0U) {
 868:/home/pi/Developer/tinyusb/src/device/usbd.c ****     if (ctrl_xfer->data_len > 0U) {
 869:/home/pi/Developer/tinyusb/src/device/usbd.c ****       TU_ASSERT(buffer);
 870:/home/pi/Developer/tinyusb/src/device/usbd.c ****     }
 871:/home/pi/Developer/tinyusb/src/device/usbd.c ****     TU_ASSERT(data_stage_xact(rhport));
 872:/home/pi/Developer/tinyusb/src/device/usbd.c ****   } else {
 873:/home/pi/Developer/tinyusb/src/device/usbd.c ****     // wLength == 0: Status stage is always IN per USB 2.0 §9.3.1
ARM GAS  /tmp/cci2pXLM.s 			page 21


 874:/home/pi/Developer/tinyusb/src/device/usbd.c ****     TU_ASSERT(status_stage_xact(rhport, TU_EP0_IN));
 875:/home/pi/Developer/tinyusb/src/device/usbd.c ****   }
 876:/home/pi/Developer/tinyusb/src/device/usbd.c **** 
 877:/home/pi/Developer/tinyusb/src/device/usbd.c ****   return true;
 878:/home/pi/Developer/tinyusb/src/device/usbd.c **** }
 879:/home/pi/Developer/tinyusb/src/device/usbd.c **** 
 880:/home/pi/Developer/tinyusb/src/device/usbd.c **** // Callback when a transaction completes on the DATA stage or Status stage of EP0
 881:/home/pi/Developer/tinyusb/src/device/usbd.c **** static bool usbd_control_xfer_cb(uint8_t rhport, uint8_t ep_addr, xfer_result_t result, uint32_t xf
 882:/home/pi/Developer/tinyusb/src/device/usbd.c ****   (void) result;
 883:/home/pi/Developer/tinyusb/src/device/usbd.c ****   usbd_control_xfer_t* const ctrl_xfer = &_usbd_dev.ctrl_xfer;
 884:/home/pi/Developer/tinyusb/src/device/usbd.c **** 
 885:/home/pi/Developer/tinyusb/src/device/usbd.c ****   // Status Stage complete: ep_addr matches the resolved Status stage endpoint
 886:/home/pi/Developer/tinyusb/src/device/usbd.c ****   uint8_t const ep_status = status_stage_ep(&ctrl_xfer->request);
 887:/home/pi/Developer/tinyusb/src/device/usbd.c ****   if (ep_addr == ep_status) {
 888:/home/pi/Developer/tinyusb/src/device/usbd.c ****     TU_ASSERT(0 == xferred_bytes);
 889:/home/pi/Developer/tinyusb/src/device/usbd.c **** 
 890:/home/pi/Developer/tinyusb/src/device/usbd.c ****     // invoke optional dcd hook if available
 891:/home/pi/Developer/tinyusb/src/device/usbd.c ****     dcd_edpt0_status_complete(rhport, &ctrl_xfer->request);
 892:/home/pi/Developer/tinyusb/src/device/usbd.c **** 
 893:/home/pi/Developer/tinyusb/src/device/usbd.c ****     if (NULL != ctrl_xfer->complete_cb) {
 894:/home/pi/Developer/tinyusb/src/device/usbd.c ****       ctrl_xfer->complete_cb(rhport, CONTROL_STAGE_ACK, &ctrl_xfer->request);
 895:/home/pi/Developer/tinyusb/src/device/usbd.c ****     }
 896:/home/pi/Developer/tinyusb/src/device/usbd.c **** 
 897:/home/pi/Developer/tinyusb/src/device/usbd.c ****     return true;
 898:/home/pi/Developer/tinyusb/src/device/usbd.c ****   }
 899:/home/pi/Developer/tinyusb/src/device/usbd.c **** 
 900:/home/pi/Developer/tinyusb/src/device/usbd.c ****   // Data stage progress
 901:/home/pi/Developer/tinyusb/src/device/usbd.c ****   if (ctrl_xfer->request.bmRequestType_bit.direction == TUSB_DIR_OUT) {
 902:/home/pi/Developer/tinyusb/src/device/usbd.c ****     TU_VERIFY(ctrl_xfer->buffer);
 903:/home/pi/Developer/tinyusb/src/device/usbd.c ****     if (ctrl_xfer->buffer != _ctrl_epbuf.buf) {
 904:/home/pi/Developer/tinyusb/src/device/usbd.c ****       memcpy(ctrl_xfer->buffer, _ctrl_epbuf.buf, xferred_bytes);
 905:/home/pi/Developer/tinyusb/src/device/usbd.c ****     }
 906:/home/pi/Developer/tinyusb/src/device/usbd.c ****     TU_LOG_MEM(CFG_TUD_LOG_LEVEL, ctrl_xfer->buffer, xferred_bytes, 2);
 907:/home/pi/Developer/tinyusb/src/device/usbd.c ****   }
 908:/home/pi/Developer/tinyusb/src/device/usbd.c **** 
 909:/home/pi/Developer/tinyusb/src/device/usbd.c ****   ctrl_xfer->total_xferred += (uint16_t) xferred_bytes;
 910:/home/pi/Developer/tinyusb/src/device/usbd.c ****   ctrl_xfer->buffer += xferred_bytes;
 911:/home/pi/Developer/tinyusb/src/device/usbd.c **** 
 912:/home/pi/Developer/tinyusb/src/device/usbd.c ****   // Data Stage complete when wLength reached or short packet (incl. ZLP) seen
 913:/home/pi/Developer/tinyusb/src/device/usbd.c ****   if ((ctrl_xfer->request.wLength == ctrl_xfer->total_xferred) ||
 914:/home/pi/Developer/tinyusb/src/device/usbd.c ****       (xferred_bytes < CFG_TUD_ENDPOINT0_BUFSIZE)) {
 915:/home/pi/Developer/tinyusb/src/device/usbd.c ****     bool is_ok = true;
 916:/home/pi/Developer/tinyusb/src/device/usbd.c **** 
 917:/home/pi/Developer/tinyusb/src/device/usbd.c ****     if (NULL != ctrl_xfer->complete_cb) {
 918:/home/pi/Developer/tinyusb/src/device/usbd.c ****       // Callback can still stall control in status phase, e.g. OUT data doesn't make sense
 919:/home/pi/Developer/tinyusb/src/device/usbd.c ****       is_ok = ctrl_xfer->complete_cb(rhport, CONTROL_STAGE_DATA, &ctrl_xfer->request);
 920:/home/pi/Developer/tinyusb/src/device/usbd.c ****     }
 921:/home/pi/Developer/tinyusb/src/device/usbd.c **** 
 922:/home/pi/Developer/tinyusb/src/device/usbd.c ****     if (is_ok) {
 923:/home/pi/Developer/tinyusb/src/device/usbd.c ****       TU_ASSERT(status_stage_xact(rhport, ep_status));
 924:/home/pi/Developer/tinyusb/src/device/usbd.c ****     } else {
 925:/home/pi/Developer/tinyusb/src/device/usbd.c ****       // Stall both IN and OUT control endpoint
 926:/home/pi/Developer/tinyusb/src/device/usbd.c ****       dcd_edpt_stall(rhport, TU_EP0_OUT);
 927:/home/pi/Developer/tinyusb/src/device/usbd.c ****       dcd_edpt_stall(rhport, TU_EP0_IN);
 928:/home/pi/Developer/tinyusb/src/device/usbd.c ****     }
 929:/home/pi/Developer/tinyusb/src/device/usbd.c ****   } else {
 930:/home/pi/Developer/tinyusb/src/device/usbd.c ****     // More data to transfer
ARM GAS  /tmp/cci2pXLM.s 			page 22


 931:/home/pi/Developer/tinyusb/src/device/usbd.c ****     TU_ASSERT(data_stage_xact(rhport));
 932:/home/pi/Developer/tinyusb/src/device/usbd.c ****   }
 933:/home/pi/Developer/tinyusb/src/device/usbd.c **** 
 934:/home/pi/Developer/tinyusb/src/device/usbd.c ****   return true;
 935:/home/pi/Developer/tinyusb/src/device/usbd.c **** }
 936:/home/pi/Developer/tinyusb/src/device/usbd.c **** 
 937:/home/pi/Developer/tinyusb/src/device/usbd.c **** //--------------------------------------------------------------------+
 938:/home/pi/Developer/tinyusb/src/device/usbd.c **** // Control Request Parser & Handling
 939:/home/pi/Developer/tinyusb/src/device/usbd.c **** //--------------------------------------------------------------------+
 940:/home/pi/Developer/tinyusb/src/device/usbd.c **** 
 941:/home/pi/Developer/tinyusb/src/device/usbd.c **** // Helper to invoke class driver control request handler
 942:/home/pi/Developer/tinyusb/src/device/usbd.c **** static bool invoke_class_control(uint8_t rhport, usbd_class_driver_t const * driver, tusb_control_r
 943:/home/pi/Developer/tinyusb/src/device/usbd.c ****   _usbd_dev.ctrl_xfer.complete_cb = driver->control_xfer_cb;
 944:/home/pi/Developer/tinyusb/src/device/usbd.c ****   TU_LOG_USBD("  %s control request\r\n", driver->name);
 945:/home/pi/Developer/tinyusb/src/device/usbd.c ****   return driver->control_xfer_cb(rhport, CONTROL_STAGE_SETUP, request);
 946:/home/pi/Developer/tinyusb/src/device/usbd.c **** }
 947:/home/pi/Developer/tinyusb/src/device/usbd.c **** 
 948:/home/pi/Developer/tinyusb/src/device/usbd.c **** // Process a standard request to the device recipient.
 949:/home/pi/Developer/tinyusb/src/device/usbd.c **** static bool process_std_device_request(uint8_t rhport, tusb_control_request_t const * p_request) {
 950:/home/pi/Developer/tinyusb/src/device/usbd.c ****   switch (p_request->bRequest) { //-V2520
 951:/home/pi/Developer/tinyusb/src/device/usbd.c ****     case TUSB_REQ_SET_ADDRESS:
 952:/home/pi/Developer/tinyusb/src/device/usbd.c ****       // Depending on mcu, status phase could be sent either before or after changing device addres
 953:/home/pi/Developer/tinyusb/src/device/usbd.c ****       // or even require stack to not response with status at all
 954:/home/pi/Developer/tinyusb/src/device/usbd.c ****       // Therefore DCD must take full responsibility to response and include zlp status packet if n
 955:/home/pi/Developer/tinyusb/src/device/usbd.c ****       dcd_set_address(rhport, (uint8_t) p_request->wValue);
 956:/home/pi/Developer/tinyusb/src/device/usbd.c ****       _usbd_dev.addressed = 1;
 957:/home/pi/Developer/tinyusb/src/device/usbd.c ****       return true;
 958:/home/pi/Developer/tinyusb/src/device/usbd.c **** 
 959:/home/pi/Developer/tinyusb/src/device/usbd.c ****     case TUSB_REQ_GET_CONFIGURATION: {
 960:/home/pi/Developer/tinyusb/src/device/usbd.c ****       uint8_t cfg_num = _usbd_dev.cfg_num;
 961:/home/pi/Developer/tinyusb/src/device/usbd.c ****       tud_control_xfer(rhport, p_request, &cfg_num, 1);
 962:/home/pi/Developer/tinyusb/src/device/usbd.c ****       return true;
 963:/home/pi/Developer/tinyusb/src/device/usbd.c ****     }
 964:/home/pi/Developer/tinyusb/src/device/usbd.c **** 
 965:/home/pi/Developer/tinyusb/src/device/usbd.c ****     case TUSB_REQ_SET_CONFIGURATION: {
 966:/home/pi/Developer/tinyusb/src/device/usbd.c ****       uint8_t const cfg_num = (uint8_t) p_request->wValue;
 967:/home/pi/Developer/tinyusb/src/device/usbd.c **** 
 968:/home/pi/Developer/tinyusb/src/device/usbd.c ****       // Only process if new configure is different
 969:/home/pi/Developer/tinyusb/src/device/usbd.c ****       if (_usbd_dev.cfg_num != cfg_num) {
 970:/home/pi/Developer/tinyusb/src/device/usbd.c ****         if (_usbd_dev.cfg_num != 0) {
 971:/home/pi/Developer/tinyusb/src/device/usbd.c ****           // already configured: need to clear all endpoints and driver first
 972:/home/pi/Developer/tinyusb/src/device/usbd.c ****           TU_LOG_USBD("  Clear current Configuration (%u) before switching\r\n", _usbd_dev.cfg_num)
 973:/home/pi/Developer/tinyusb/src/device/usbd.c **** 
 974:/home/pi/Developer/tinyusb/src/device/usbd.c ****           dcd_sof_enable(rhport, false);
 975:/home/pi/Developer/tinyusb/src/device/usbd.c ****           dcd_edpt_close_all(rhport);
 976:/home/pi/Developer/tinyusb/src/device/usbd.c **** 
 977:/home/pi/Developer/tinyusb/src/device/usbd.c ****           // close all drivers and current configured state except bus speed
 978:/home/pi/Developer/tinyusb/src/device/usbd.c ****           const uint8_t speed = _usbd_dev.speed;
 979:/home/pi/Developer/tinyusb/src/device/usbd.c ****           configuration_reset(rhport);
 980:/home/pi/Developer/tinyusb/src/device/usbd.c **** 
 981:/home/pi/Developer/tinyusb/src/device/usbd.c ****           _usbd_dev.speed = speed; // restore speed
 982:/home/pi/Developer/tinyusb/src/device/usbd.c ****         }
 983:/home/pi/Developer/tinyusb/src/device/usbd.c **** 
 984:/home/pi/Developer/tinyusb/src/device/usbd.c ****         _usbd_dev.cfg_num = cfg_num;
 985:/home/pi/Developer/tinyusb/src/device/usbd.c **** 
 986:/home/pi/Developer/tinyusb/src/device/usbd.c ****         // Handle the new configuration
 987:/home/pi/Developer/tinyusb/src/device/usbd.c ****         if (cfg_num == 0) {
ARM GAS  /tmp/cci2pXLM.s 			page 23


 988:/home/pi/Developer/tinyusb/src/device/usbd.c ****           tud_umount_cb();
 989:/home/pi/Developer/tinyusb/src/device/usbd.c ****         } else {
 990:/home/pi/Developer/tinyusb/src/device/usbd.c ****           if (!process_set_config(rhport, cfg_num)) {
 991:/home/pi/Developer/tinyusb/src/device/usbd.c ****             _usbd_dev.cfg_num = 0;
 992:/home/pi/Developer/tinyusb/src/device/usbd.c ****             TU_ASSERT(false);
 993:/home/pi/Developer/tinyusb/src/device/usbd.c ****           }
 994:/home/pi/Developer/tinyusb/src/device/usbd.c ****           tud_mount_cb();
 995:/home/pi/Developer/tinyusb/src/device/usbd.c ****         }
 996:/home/pi/Developer/tinyusb/src/device/usbd.c ****       }
 997:/home/pi/Developer/tinyusb/src/device/usbd.c **** 
 998:/home/pi/Developer/tinyusb/src/device/usbd.c ****       tud_control_status(rhport, p_request);
 999:/home/pi/Developer/tinyusb/src/device/usbd.c ****       return true;
1000:/home/pi/Developer/tinyusb/src/device/usbd.c ****     }
1001:/home/pi/Developer/tinyusb/src/device/usbd.c **** 
1002:/home/pi/Developer/tinyusb/src/device/usbd.c ****     case TUSB_REQ_GET_DESCRIPTOR:
1003:/home/pi/Developer/tinyusb/src/device/usbd.c ****       return process_get_descriptor(rhport, p_request);
1004:/home/pi/Developer/tinyusb/src/device/usbd.c **** 
1005:/home/pi/Developer/tinyusb/src/device/usbd.c ****     case TUSB_REQ_SET_FEATURE:
1006:/home/pi/Developer/tinyusb/src/device/usbd.c ****       switch (p_request->wValue) { //-V2520
1007:/home/pi/Developer/tinyusb/src/device/usbd.c ****         case TUSB_REQ_FEATURE_REMOTE_WAKEUP:
1008:/home/pi/Developer/tinyusb/src/device/usbd.c ****           TU_LOG_USBD("    Enable Remote Wakeup\r\n");
1009:/home/pi/Developer/tinyusb/src/device/usbd.c ****           // Host may enable remote wake up before suspending especially HID device
1010:/home/pi/Developer/tinyusb/src/device/usbd.c ****           _usbd_dev.remote_wakeup_en = 1;
1011:/home/pi/Developer/tinyusb/src/device/usbd.c ****           tud_control_status(rhport, p_request);
1012:/home/pi/Developer/tinyusb/src/device/usbd.c ****           return true;
1013:/home/pi/Developer/tinyusb/src/device/usbd.c **** 
1014:/home/pi/Developer/tinyusb/src/device/usbd.c ****         #if CFG_TUD_TEST_MODE
1015:/home/pi/Developer/tinyusb/src/device/usbd.c ****         case TUSB_REQ_FEATURE_TEST_MODE: {
1016:/home/pi/Developer/tinyusb/src/device/usbd.c ****           // Only handle the test mode if supported and valid
1017:/home/pi/Developer/tinyusb/src/device/usbd.c ****           TU_VERIFY(0 == tu_u16_low(p_request->wIndex));
1018:/home/pi/Developer/tinyusb/src/device/usbd.c **** 
1019:/home/pi/Developer/tinyusb/src/device/usbd.c ****           uint8_t const selector = tu_u16_high(p_request->wIndex);
1020:/home/pi/Developer/tinyusb/src/device/usbd.c ****           TU_VERIFY(TUSB_FEATURE_TEST_J <= selector && selector <= TUSB_FEATURE_TEST_FORCE_ENABLE);
1021:/home/pi/Developer/tinyusb/src/device/usbd.c **** 
1022:/home/pi/Developer/tinyusb/src/device/usbd.c ****           _usbd_dev.ctrl_xfer.complete_cb = process_test_mode_cb;
1023:/home/pi/Developer/tinyusb/src/device/usbd.c ****           tud_control_status(rhport, p_request);
1024:/home/pi/Developer/tinyusb/src/device/usbd.c ****           return true;
1025:/home/pi/Developer/tinyusb/src/device/usbd.c ****         }
1026:/home/pi/Developer/tinyusb/src/device/usbd.c ****         #endif
1027:/home/pi/Developer/tinyusb/src/device/usbd.c **** 
1028:/home/pi/Developer/tinyusb/src/device/usbd.c ****         // Stall unsupported feature selector
1029:/home/pi/Developer/tinyusb/src/device/usbd.c ****         default: return false;
1030:/home/pi/Developer/tinyusb/src/device/usbd.c ****       }
1031:/home/pi/Developer/tinyusb/src/device/usbd.c **** 
1032:/home/pi/Developer/tinyusb/src/device/usbd.c ****     case TUSB_REQ_CLEAR_FEATURE:
1033:/home/pi/Developer/tinyusb/src/device/usbd.c ****       // Only support remote wakeup for device feature
1034:/home/pi/Developer/tinyusb/src/device/usbd.c ****       TU_VERIFY(TUSB_REQ_FEATURE_REMOTE_WAKEUP == p_request->wValue);
1035:/home/pi/Developer/tinyusb/src/device/usbd.c ****       TU_LOG_USBD("    Disable Remote Wakeup\r\n");
1036:/home/pi/Developer/tinyusb/src/device/usbd.c **** 
1037:/home/pi/Developer/tinyusb/src/device/usbd.c ****       // Host may disable remote wake up after resuming
1038:/home/pi/Developer/tinyusb/src/device/usbd.c ****       _usbd_dev.remote_wakeup_en = 0;
1039:/home/pi/Developer/tinyusb/src/device/usbd.c ****       tud_control_status(rhport, p_request);
1040:/home/pi/Developer/tinyusb/src/device/usbd.c ****       return true;
1041:/home/pi/Developer/tinyusb/src/device/usbd.c **** 
1042:/home/pi/Developer/tinyusb/src/device/usbd.c ****     case TUSB_REQ_GET_STATUS: {
1043:/home/pi/Developer/tinyusb/src/device/usbd.c ****       // Device status bit mask
1044:/home/pi/Developer/tinyusb/src/device/usbd.c ****       // - Bit 0: Self Powered TODO must invoke callback to get actual status
ARM GAS  /tmp/cci2pXLM.s 			page 24


1045:/home/pi/Developer/tinyusb/src/device/usbd.c ****       // - Bit 1: Remote Wakeup enabled
1046:/home/pi/Developer/tinyusb/src/device/usbd.c ****       uint16_t status = (uint16_t) _usbd_dev.dev_state_bm;
1047:/home/pi/Developer/tinyusb/src/device/usbd.c ****       tud_control_xfer(rhport, p_request, &status, 2);
1048:/home/pi/Developer/tinyusb/src/device/usbd.c ****       return true;
1049:/home/pi/Developer/tinyusb/src/device/usbd.c ****     }
1050:/home/pi/Developer/tinyusb/src/device/usbd.c **** 
1051:/home/pi/Developer/tinyusb/src/device/usbd.c ****     default:
1052:/home/pi/Developer/tinyusb/src/device/usbd.c ****       TU_BREAKPOINT();
1053:/home/pi/Developer/tinyusb/src/device/usbd.c ****       return false;
1054:/home/pi/Developer/tinyusb/src/device/usbd.c ****   }
1055:/home/pi/Developer/tinyusb/src/device/usbd.c **** }
1056:/home/pi/Developer/tinyusb/src/device/usbd.c **** 
1057:/home/pi/Developer/tinyusb/src/device/usbd.c **** 
1058:/home/pi/Developer/tinyusb/src/device/usbd.c **** // This handles the actual request and its response.
1059:/home/pi/Developer/tinyusb/src/device/usbd.c **** // Returns false if unable to complete the request, causing caller to stall control endpoints.
1060:/home/pi/Developer/tinyusb/src/device/usbd.c **** static bool process_setup_received(uint8_t rhport, tusb_control_request_t const * p_request) {
1061:/home/pi/Developer/tinyusb/src/device/usbd.c ****   // Initialize control transfer state for this request. The request copy must be
1062:/home/pi/Developer/tinyusb/src/device/usbd.c ****   // visible to usbd_control_xfer_cb when the (asynchronous) status ZLP completes,
1063:/home/pi/Developer/tinyusb/src/device/usbd.c ****   // since the SETUP packet event has already gone out of scope by then.
1064:/home/pi/Developer/tinyusb/src/device/usbd.c ****   usbd_control_xfer_t* const ctrl_xfer = &_usbd_dev.ctrl_xfer;
1065:/home/pi/Developer/tinyusb/src/device/usbd.c ****   ctrl_xfer->request = *p_request;
1066:/home/pi/Developer/tinyusb/src/device/usbd.c ****   ctrl_xfer->buffer = NULL;
1067:/home/pi/Developer/tinyusb/src/device/usbd.c ****   ctrl_xfer->total_xferred = 0;
1068:/home/pi/Developer/tinyusb/src/device/usbd.c ****   ctrl_xfer->data_len = 0;
1069:/home/pi/Developer/tinyusb/src/device/usbd.c ****   ctrl_xfer->complete_cb = NULL;
1070:/home/pi/Developer/tinyusb/src/device/usbd.c **** 
1071:/home/pi/Developer/tinyusb/src/device/usbd.c ****   p_request = &ctrl_xfer->request; // re-direct request pointer to internal copy (modifiable for ha
1072:/home/pi/Developer/tinyusb/src/device/usbd.c ****   TU_ASSERT(p_request->bmRequestType_bit.type < TUSB_REQ_TYPE_INVALID);
1073:/home/pi/Developer/tinyusb/src/device/usbd.c **** 
1074:/home/pi/Developer/tinyusb/src/device/usbd.c ****   // Vendor request
1075:/home/pi/Developer/tinyusb/src/device/usbd.c ****   if ( p_request->bmRequestType_bit.type == TUSB_REQ_TYPE_VENDOR ) {
1076:/home/pi/Developer/tinyusb/src/device/usbd.c ****     ctrl_xfer->complete_cb = tud_vendor_control_xfer_cb;
1077:/home/pi/Developer/tinyusb/src/device/usbd.c ****     return tud_vendor_control_xfer_cb(rhport, CONTROL_STAGE_SETUP, p_request);
1078:/home/pi/Developer/tinyusb/src/device/usbd.c ****   }
1079:/home/pi/Developer/tinyusb/src/device/usbd.c **** 
1080:/home/pi/Developer/tinyusb/src/device/usbd.c **** #if CFG_TUSB_DEBUG >= CFG_TUD_LOG_LEVEL
1081:/home/pi/Developer/tinyusb/src/device/usbd.c ****   if (TUSB_REQ_TYPE_STANDARD == p_request->bmRequestType_bit.type && p_request->bRequest <= TUSB_RE
1082:/home/pi/Developer/tinyusb/src/device/usbd.c ****     TU_LOG_USBD("  %s", tu_str_std_request[p_request->bRequest]);
1083:/home/pi/Developer/tinyusb/src/device/usbd.c ****     if (TUSB_REQ_GET_DESCRIPTOR != p_request->bRequest) {
1084:/home/pi/Developer/tinyusb/src/device/usbd.c ****       TU_LOG_USBD("\r\n");
1085:/home/pi/Developer/tinyusb/src/device/usbd.c ****     }
1086:/home/pi/Developer/tinyusb/src/device/usbd.c ****   }
1087:/home/pi/Developer/tinyusb/src/device/usbd.c **** #endif
1088:/home/pi/Developer/tinyusb/src/device/usbd.c **** 
1089:/home/pi/Developer/tinyusb/src/device/usbd.c ****   switch (p_request->bmRequestType_bit.recipient) { //-V2520
1090:/home/pi/Developer/tinyusb/src/device/usbd.c ****     //------------- Device Requests e.g in enumeration -------------//
1091:/home/pi/Developer/tinyusb/src/device/usbd.c ****     case TUSB_REQ_RCPT_DEVICE:
1092:/home/pi/Developer/tinyusb/src/device/usbd.c ****       if ( TUSB_REQ_TYPE_CLASS == p_request->bmRequestType_bit.type ) {
1093:/home/pi/Developer/tinyusb/src/device/usbd.c ****         uint8_t const itf = tu_u16_low(p_request->wIndex);
1094:/home/pi/Developer/tinyusb/src/device/usbd.c ****         TU_VERIFY(itf < TU_ARRAY_SIZE(_usbd_dev.itf2drv));
1095:/home/pi/Developer/tinyusb/src/device/usbd.c **** 
1096:/home/pi/Developer/tinyusb/src/device/usbd.c ****         usbd_class_driver_t const * driver = get_driver(_usbd_dev.itf2drv[itf]);
1097:/home/pi/Developer/tinyusb/src/device/usbd.c ****         TU_VERIFY(driver);
1098:/home/pi/Developer/tinyusb/src/device/usbd.c **** 
1099:/home/pi/Developer/tinyusb/src/device/usbd.c ****         // forward to class driver: "non-STD request to Interface"
1100:/home/pi/Developer/tinyusb/src/device/usbd.c ****         return invoke_class_control(rhport, driver, p_request);
1101:/home/pi/Developer/tinyusb/src/device/usbd.c ****       }
ARM GAS  /tmp/cci2pXLM.s 			page 25


1102:/home/pi/Developer/tinyusb/src/device/usbd.c **** 
1103:/home/pi/Developer/tinyusb/src/device/usbd.c ****       if (TUSB_REQ_TYPE_STANDARD != p_request->bmRequestType_bit.type) {
1104:/home/pi/Developer/tinyusb/src/device/usbd.c ****         // Non-standard request is not supported
1105:/home/pi/Developer/tinyusb/src/device/usbd.c ****         TU_BREAKPOINT();
1106:/home/pi/Developer/tinyusb/src/device/usbd.c ****         return false;
1107:/home/pi/Developer/tinyusb/src/device/usbd.c ****       }
1108:/home/pi/Developer/tinyusb/src/device/usbd.c **** 
1109:/home/pi/Developer/tinyusb/src/device/usbd.c ****       return process_std_device_request(rhport, p_request);
1110:/home/pi/Developer/tinyusb/src/device/usbd.c **** 
1111:/home/pi/Developer/tinyusb/src/device/usbd.c ****     //------------- Class/Interface Specific Request -------------//
1112:/home/pi/Developer/tinyusb/src/device/usbd.c ****     case TUSB_REQ_RCPT_INTERFACE: {
1113:/home/pi/Developer/tinyusb/src/device/usbd.c ****       uint8_t itf;
1114:/home/pi/Developer/tinyusb/src/device/usbd.c ****       #if CFG_TUD_PRINTER
1115:/home/pi/Developer/tinyusb/src/device/usbd.c ****       // Printer GET_DEVICE_ID has a weird wIndex = interface (high) | alt (low)
1116:/home/pi/Developer/tinyusb/src/device/usbd.c ****       // attempt to interpret this as a printer request if matched
1117:/home/pi/Developer/tinyusb/src/device/usbd.c ****       if (TUSB_REQ_TYPE_CLASS == p_request->bmRequestType_bit.type &&
1118:/home/pi/Developer/tinyusb/src/device/usbd.c ****           TUSB_DIR_IN == p_request->bmRequestType_bit.direction &&
1119:/home/pi/Developer/tinyusb/src/device/usbd.c ****           TUSB_PRINTER_REQUEST_GET_DEVICE_ID == p_request->bRequest) {
1120:/home/pi/Developer/tinyusb/src/device/usbd.c ****         itf = tu_u16_high(p_request->wIndex);
1121:/home/pi/Developer/tinyusb/src/device/usbd.c ****         if (itf < TU_ARRAY_SIZE(_usbd_dev.itf2drv)) {
1122:/home/pi/Developer/tinyusb/src/device/usbd.c ****           const usbd_class_driver_t * driver = get_driver(_usbd_dev.itf2drv[itf]);
1123:/home/pi/Developer/tinyusb/src/device/usbd.c ****           if (driver != NULL && driver->control_xfer_cb == printerd_control_xfer_cb) {
1124:/home/pi/Developer/tinyusb/src/device/usbd.c ****             if (invoke_class_control(rhport, driver, p_request)) {
1125:/home/pi/Developer/tinyusb/src/device/usbd.c ****               return true;
1126:/home/pi/Developer/tinyusb/src/device/usbd.c ****             }
1127:/home/pi/Developer/tinyusb/src/device/usbd.c ****           }
1128:/home/pi/Developer/tinyusb/src/device/usbd.c ****         }
1129:/home/pi/Developer/tinyusb/src/device/usbd.c ****       }
1130:/home/pi/Developer/tinyusb/src/device/usbd.c ****       #endif
1131:/home/pi/Developer/tinyusb/src/device/usbd.c ****       itf = tu_u16_low(p_request->wIndex);
1132:/home/pi/Developer/tinyusb/src/device/usbd.c ****       TU_VERIFY(itf < TU_ARRAY_SIZE(_usbd_dev.itf2drv));
1133:/home/pi/Developer/tinyusb/src/device/usbd.c **** 
1134:/home/pi/Developer/tinyusb/src/device/usbd.c ****       usbd_class_driver_t const * driver = get_driver(_usbd_dev.itf2drv[itf]);
1135:/home/pi/Developer/tinyusb/src/device/usbd.c ****       TU_VERIFY(driver);
1136:/home/pi/Developer/tinyusb/src/device/usbd.c **** 
1137:/home/pi/Developer/tinyusb/src/device/usbd.c ****       // all requests to Interface (STD or Class) is forwarded to class driver.
1138:/home/pi/Developer/tinyusb/src/device/usbd.c ****       // notable requests are: GET HID REPORT DESCRIPTOR, SET_INTERFACE, GET_INTERFACE
1139:/home/pi/Developer/tinyusb/src/device/usbd.c ****       if (!invoke_class_control(rhport, driver, p_request)) {
1140:/home/pi/Developer/tinyusb/src/device/usbd.c ****         // For GET_INTERFACE and SET_INTERFACE, it is mandatory to respond even if the class
1141:/home/pi/Developer/tinyusb/src/device/usbd.c ****         // driver doesn't use alternate settings or implement this
1142:/home/pi/Developer/tinyusb/src/device/usbd.c ****         TU_VERIFY(TUSB_REQ_TYPE_STANDARD == p_request->bmRequestType_bit.type);
1143:/home/pi/Developer/tinyusb/src/device/usbd.c **** 
1144:/home/pi/Developer/tinyusb/src/device/usbd.c ****         // Clear complete callback if driver set since it can also stall the request.
1145:/home/pi/Developer/tinyusb/src/device/usbd.c ****         ctrl_xfer->complete_cb = NULL;
1146:/home/pi/Developer/tinyusb/src/device/usbd.c **** 
1147:/home/pi/Developer/tinyusb/src/device/usbd.c ****         switch (p_request->bRequest) { //-V2520
1148:/home/pi/Developer/tinyusb/src/device/usbd.c ****           case TUSB_REQ_GET_INTERFACE: {
1149:/home/pi/Developer/tinyusb/src/device/usbd.c ****             uint8_t alternate = 0;
1150:/home/pi/Developer/tinyusb/src/device/usbd.c ****             tud_control_xfer(rhport, p_request, &alternate, 1);
1151:/home/pi/Developer/tinyusb/src/device/usbd.c ****             break;
1152:/home/pi/Developer/tinyusb/src/device/usbd.c ****           }
1153:/home/pi/Developer/tinyusb/src/device/usbd.c **** 
1154:/home/pi/Developer/tinyusb/src/device/usbd.c ****           case TUSB_REQ_SET_INTERFACE:
1155:/home/pi/Developer/tinyusb/src/device/usbd.c ****             tud_control_status(rhport, p_request);
1156:/home/pi/Developer/tinyusb/src/device/usbd.c ****             break;
1157:/home/pi/Developer/tinyusb/src/device/usbd.c **** 
1158:/home/pi/Developer/tinyusb/src/device/usbd.c ****           default: return false;
ARM GAS  /tmp/cci2pXLM.s 			page 26


1159:/home/pi/Developer/tinyusb/src/device/usbd.c ****         }
1160:/home/pi/Developer/tinyusb/src/device/usbd.c ****       }
1161:/home/pi/Developer/tinyusb/src/device/usbd.c ****       break;
1162:/home/pi/Developer/tinyusb/src/device/usbd.c ****     }
1163:/home/pi/Developer/tinyusb/src/device/usbd.c **** 
1164:/home/pi/Developer/tinyusb/src/device/usbd.c ****     //------------- Endpoint Request -------------//
1165:/home/pi/Developer/tinyusb/src/device/usbd.c ****     case TUSB_REQ_RCPT_ENDPOINT: {
1166:/home/pi/Developer/tinyusb/src/device/usbd.c ****       uint8_t const ep_addr = tu_u16_low(p_request->wIndex);
1167:/home/pi/Developer/tinyusb/src/device/usbd.c ****       uint8_t const ep_num  = tu_edpt_number(ep_addr);
1168:/home/pi/Developer/tinyusb/src/device/usbd.c ****       uint8_t const ep_dir  = tu_edpt_dir(ep_addr);
1169:/home/pi/Developer/tinyusb/src/device/usbd.c **** 
1170:/home/pi/Developer/tinyusb/src/device/usbd.c ****       TU_ASSERT(ep_num < TU_ARRAY_SIZE(_usbd_dev.ep2drv) );
1171:/home/pi/Developer/tinyusb/src/device/usbd.c ****       usbd_class_driver_t const * driver = get_driver(_usbd_dev.ep2drv[ep_num][ep_dir]);
1172:/home/pi/Developer/tinyusb/src/device/usbd.c **** 
1173:/home/pi/Developer/tinyusb/src/device/usbd.c ****       if (TUSB_REQ_TYPE_STANDARD != p_request->bmRequestType_bit.type) {
1174:/home/pi/Developer/tinyusb/src/device/usbd.c ****         // Forward class request to its driver
1175:/home/pi/Developer/tinyusb/src/device/usbd.c ****         TU_VERIFY(driver);
1176:/home/pi/Developer/tinyusb/src/device/usbd.c ****         return invoke_class_control(rhport, driver, p_request);
1177:/home/pi/Developer/tinyusb/src/device/usbd.c ****       } else {
1178:/home/pi/Developer/tinyusb/src/device/usbd.c ****         // Handle STD request to endpoint
1179:/home/pi/Developer/tinyusb/src/device/usbd.c ****         switch (p_request->bRequest) { //-V2520
1180:/home/pi/Developer/tinyusb/src/device/usbd.c ****           case TUSB_REQ_GET_STATUS: {
1181:/home/pi/Developer/tinyusb/src/device/usbd.c ****             uint16_t status = usbd_edpt_stalled(rhport, ep_addr) ? 0x0001u : 0x0000u;
1182:/home/pi/Developer/tinyusb/src/device/usbd.c ****             tud_control_xfer(rhport, p_request, &status, 2);
1183:/home/pi/Developer/tinyusb/src/device/usbd.c ****           }
1184:/home/pi/Developer/tinyusb/src/device/usbd.c ****           break;
1185:/home/pi/Developer/tinyusb/src/device/usbd.c **** 
1186:/home/pi/Developer/tinyusb/src/device/usbd.c ****           case TUSB_REQ_CLEAR_FEATURE:
1187:/home/pi/Developer/tinyusb/src/device/usbd.c ****           case TUSB_REQ_SET_FEATURE: {
1188:/home/pi/Developer/tinyusb/src/device/usbd.c ****             if ( TUSB_REQ_FEATURE_EDPT_HALT == p_request->wValue ) {
1189:/home/pi/Developer/tinyusb/src/device/usbd.c ****               if ( TUSB_REQ_CLEAR_FEATURE ==  p_request->bRequest ) {
1190:/home/pi/Developer/tinyusb/src/device/usbd.c ****                 usbd_edpt_clear_stall(rhport, ep_addr);
1191:/home/pi/Developer/tinyusb/src/device/usbd.c ****               }else {
1192:/home/pi/Developer/tinyusb/src/device/usbd.c ****                 usbd_edpt_stall(rhport, ep_addr);
1193:/home/pi/Developer/tinyusb/src/device/usbd.c ****               }
1194:/home/pi/Developer/tinyusb/src/device/usbd.c ****             }
1195:/home/pi/Developer/tinyusb/src/device/usbd.c **** 
1196:/home/pi/Developer/tinyusb/src/device/usbd.c ****             if (driver != NULL) {
1197:/home/pi/Developer/tinyusb/src/device/usbd.c ****               // Some classes such as USBTMC needs to clear/re-init its buffer when receiving CLEAR
1198:/home/pi/Developer/tinyusb/src/device/usbd.c ****               // We will also forward std request targeted endpoint to class drivers as well
1199:/home/pi/Developer/tinyusb/src/device/usbd.c **** 
1200:/home/pi/Developer/tinyusb/src/device/usbd.c ****               // STD request must always be ACKed regardless of driver returned value
1201:/home/pi/Developer/tinyusb/src/device/usbd.c ****               // Also clear complete callback if driver set since it can also stall the request.
1202:/home/pi/Developer/tinyusb/src/device/usbd.c ****               (void) invoke_class_control(rhport, driver, p_request);
1203:/home/pi/Developer/tinyusb/src/device/usbd.c ****               ctrl_xfer->complete_cb = NULL;
1204:/home/pi/Developer/tinyusb/src/device/usbd.c **** 
1205:/home/pi/Developer/tinyusb/src/device/usbd.c ****               // skip ZLP status if driver already did that
1206:/home/pi/Developer/tinyusb/src/device/usbd.c ****               if (!(_usbd_dev.ep_status[0][TUSB_DIR_IN] & TU_EDPT_STATE_BUSY)) {
1207:/home/pi/Developer/tinyusb/src/device/usbd.c ****                 tud_control_status(rhport, p_request);
1208:/home/pi/Developer/tinyusb/src/device/usbd.c ****               }
1209:/home/pi/Developer/tinyusb/src/device/usbd.c ****             }
1210:/home/pi/Developer/tinyusb/src/device/usbd.c ****           }
1211:/home/pi/Developer/tinyusb/src/device/usbd.c ****           break;
1212:/home/pi/Developer/tinyusb/src/device/usbd.c **** 
1213:/home/pi/Developer/tinyusb/src/device/usbd.c ****           // Unknown/Unsupported request
1214:/home/pi/Developer/tinyusb/src/device/usbd.c ****           default:
1215:/home/pi/Developer/tinyusb/src/device/usbd.c ****             TU_BREAKPOINT();
ARM GAS  /tmp/cci2pXLM.s 			page 27


1216:/home/pi/Developer/tinyusb/src/device/usbd.c ****             return false;
1217:/home/pi/Developer/tinyusb/src/device/usbd.c ****         }
1218:/home/pi/Developer/tinyusb/src/device/usbd.c ****       }
1219:/home/pi/Developer/tinyusb/src/device/usbd.c ****       break;
1220:/home/pi/Developer/tinyusb/src/device/usbd.c ****     }
1221:/home/pi/Developer/tinyusb/src/device/usbd.c **** 
1222:/home/pi/Developer/tinyusb/src/device/usbd.c ****     // Unknown recipient
1223:/home/pi/Developer/tinyusb/src/device/usbd.c ****     default:
1224:/home/pi/Developer/tinyusb/src/device/usbd.c ****       TU_BREAKPOINT();
1225:/home/pi/Developer/tinyusb/src/device/usbd.c ****       return false;
1226:/home/pi/Developer/tinyusb/src/device/usbd.c ****   }
1227:/home/pi/Developer/tinyusb/src/device/usbd.c **** 
1228:/home/pi/Developer/tinyusb/src/device/usbd.c ****   return true;
1229:/home/pi/Developer/tinyusb/src/device/usbd.c **** }
1230:/home/pi/Developer/tinyusb/src/device/usbd.c **** 
1231:/home/pi/Developer/tinyusb/src/device/usbd.c **** // Process Set Configure Request
1232:/home/pi/Developer/tinyusb/src/device/usbd.c **** // This function parse configuration descriptor & open drivers accordingly
1233:/home/pi/Developer/tinyusb/src/device/usbd.c **** static bool process_set_config(uint8_t rhport, uint8_t cfg_num) {
1234:/home/pi/Developer/tinyusb/src/device/usbd.c ****   // index is cfg_num-1
1235:/home/pi/Developer/tinyusb/src/device/usbd.c ****   const tusb_desc_configuration_t *desc_cfg =
1236:/home/pi/Developer/tinyusb/src/device/usbd.c ****     (const tusb_desc_configuration_t *)tud_descriptor_configuration_cb(cfg_num - 1);
1237:/home/pi/Developer/tinyusb/src/device/usbd.c ****   TU_ASSERT(desc_cfg != NULL && desc_cfg->bDescriptorType == TUSB_DESC_CONFIGURATION);
1238:/home/pi/Developer/tinyusb/src/device/usbd.c **** 
1239:/home/pi/Developer/tinyusb/src/device/usbd.c ****   // Parse configuration descriptor
1240:/home/pi/Developer/tinyusb/src/device/usbd.c ****   _usbd_dev.self_powered = (desc_cfg->bmAttributes & TUSB_DESC_CONFIG_ATT_SELF_POWERED) ? 1u : 0u;
1241:/home/pi/Developer/tinyusb/src/device/usbd.c **** 
1242:/home/pi/Developer/tinyusb/src/device/usbd.c ****   // Parse interface descriptor
1243:/home/pi/Developer/tinyusb/src/device/usbd.c ****   const uint8_t *p_desc   = ((const uint8_t *)desc_cfg) + sizeof(tusb_desc_configuration_t);
1244:/home/pi/Developer/tinyusb/src/device/usbd.c ****   const uint8_t *desc_end = ((const uint8_t *)desc_cfg) + tu_le16toh(desc_cfg->wTotalLength);
1245:/home/pi/Developer/tinyusb/src/device/usbd.c **** 
1246:/home/pi/Developer/tinyusb/src/device/usbd.c ****   while (tu_desc_in_bounds(p_desc, desc_end)) {
1247:/home/pi/Developer/tinyusb/src/device/usbd.c ****     // Class will always start with Interface Association (if any) and then Interface descriptor
1248:/home/pi/Developer/tinyusb/src/device/usbd.c ****     if (TUSB_DESC_INTERFACE_ASSOCIATION == tu_desc_type(p_desc)) {
1249:/home/pi/Developer/tinyusb/src/device/usbd.c ****       p_desc = tu_desc_next(p_desc); // next to Interface
1250:/home/pi/Developer/tinyusb/src/device/usbd.c ****       continue;
1251:/home/pi/Developer/tinyusb/src/device/usbd.c ****     }
1252:/home/pi/Developer/tinyusb/src/device/usbd.c **** 
1253:/home/pi/Developer/tinyusb/src/device/usbd.c ****     TU_ASSERT(TUSB_DESC_INTERFACE == tu_desc_type(p_desc));
1254:/home/pi/Developer/tinyusb/src/device/usbd.c ****     const tusb_desc_interface_t *desc_itf = (const tusb_desc_interface_t *)p_desc;
1255:/home/pi/Developer/tinyusb/src/device/usbd.c **** 
1256:/home/pi/Developer/tinyusb/src/device/usbd.c ****     // Find driver for this interface
1257:/home/pi/Developer/tinyusb/src/device/usbd.c ****     const uint16_t remaining_len = (uint16_t)(desc_end - p_desc);
1258:/home/pi/Developer/tinyusb/src/device/usbd.c ****     uint8_t        drv_id;
1259:/home/pi/Developer/tinyusb/src/device/usbd.c ****     for (drv_id = 0; drv_id < TOTAL_DRIVER_COUNT; drv_id++) {
1260:/home/pi/Developer/tinyusb/src/device/usbd.c ****       const usbd_class_driver_t *driver = get_driver(drv_id);
1261:/home/pi/Developer/tinyusb/src/device/usbd.c ****       TU_ASSERT(driver);
1262:/home/pi/Developer/tinyusb/src/device/usbd.c ****       const uint16_t drv_len = driver->open(rhport, desc_itf, remaining_len);
1263:/home/pi/Developer/tinyusb/src/device/usbd.c **** 
1264:/home/pi/Developer/tinyusb/src/device/usbd.c ****       if ((sizeof(tusb_desc_interface_t) <= drv_len) && (drv_len <= remaining_len)) {
1265:/home/pi/Developer/tinyusb/src/device/usbd.c ****         // Open successfully
1266:/home/pi/Developer/tinyusb/src/device/usbd.c ****         TU_LOG_USBD("  %s opened\r\n", driver->name);
1267:/home/pi/Developer/tinyusb/src/device/usbd.c **** 
1268:/home/pi/Developer/tinyusb/src/device/usbd.c ****         // bind found driver to all interfaces and endpoint within drv_len
1269:/home/pi/Developer/tinyusb/src/device/usbd.c ****         TU_ASSERT(tu_bind_driver_to_ep_itf(drv_id, _usbd_dev.ep2drv, _usbd_dev.itf2drv, CFG_TUD_INT
1270:/home/pi/Developer/tinyusb/src/device/usbd.c ****                                            drv_len));
1271:/home/pi/Developer/tinyusb/src/device/usbd.c **** 
1272:/home/pi/Developer/tinyusb/src/device/usbd.c ****         p_desc += drv_len; // next Interface
ARM GAS  /tmp/cci2pXLM.s 			page 28


1273:/home/pi/Developer/tinyusb/src/device/usbd.c ****         break; // exit driver find loop
1274:/home/pi/Developer/tinyusb/src/device/usbd.c ****       }
1275:/home/pi/Developer/tinyusb/src/device/usbd.c ****     }
1276:/home/pi/Developer/tinyusb/src/device/usbd.c **** 
1277:/home/pi/Developer/tinyusb/src/device/usbd.c ****     // Failed if there is no supported drivers
1278:/home/pi/Developer/tinyusb/src/device/usbd.c ****     TU_ASSERT(drv_id < TOTAL_DRIVER_COUNT);
1279:/home/pi/Developer/tinyusb/src/device/usbd.c ****   }
1280:/home/pi/Developer/tinyusb/src/device/usbd.c **** 
1281:/home/pi/Developer/tinyusb/src/device/usbd.c ****   return true;
1282:/home/pi/Developer/tinyusb/src/device/usbd.c **** }
1283:/home/pi/Developer/tinyusb/src/device/usbd.c **** 
1284:/home/pi/Developer/tinyusb/src/device/usbd.c **** // return descriptor's buffer and update desc_len
1285:/home/pi/Developer/tinyusb/src/device/usbd.c **** static bool process_get_descriptor(uint8_t rhport, tusb_control_request_t const * p_request) {
1286:/home/pi/Developer/tinyusb/src/device/usbd.c ****   tusb_desc_type_t const desc_type = (tusb_desc_type_t) tu_u16_high(p_request->wValue);
1287:/home/pi/Developer/tinyusb/src/device/usbd.c ****   uint8_t const desc_index = tu_u16_low( p_request->wValue );
1288:/home/pi/Developer/tinyusb/src/device/usbd.c **** 
1289:/home/pi/Developer/tinyusb/src/device/usbd.c ****   switch(desc_type) { //-V2520
1290:/home/pi/Developer/tinyusb/src/device/usbd.c ****     case TUSB_DESC_DEVICE: {
1291:/home/pi/Developer/tinyusb/src/device/usbd.c ****       TU_LOG_USBD(" Device\r\n");
1292:/home/pi/Developer/tinyusb/src/device/usbd.c **** 
1293:/home/pi/Developer/tinyusb/src/device/usbd.c ****       void *desc_device = (void *)(uintptr_t)tud_descriptor_device_cb();
1294:/home/pi/Developer/tinyusb/src/device/usbd.c ****       TU_ASSERT(desc_device);
1295:/home/pi/Developer/tinyusb/src/device/usbd.c **** 
1296:/home/pi/Developer/tinyusb/src/device/usbd.c ****       // Only response with exactly 1 Packet if: not addressed and host requested more data than de
1297:/home/pi/Developer/tinyusb/src/device/usbd.c ****       // This only happens with the very first get device descriptor and EP0 size = 8 or 16.
1298:/home/pi/Developer/tinyusb/src/device/usbd.c ****       if ((CFG_TUD_ENDPOINT0_SIZE < sizeof(tusb_desc_device_t)) && !_usbd_dev.addressed &&
1299:/home/pi/Developer/tinyusb/src/device/usbd.c ****           p_request->wLength > sizeof(tusb_desc_device_t)) {
1300:/home/pi/Developer/tinyusb/src/device/usbd.c ****         // Hack here: we modify the request length to prevent usbd_control response with zlp
1301:/home/pi/Developer/tinyusb/src/device/usbd.c ****         // since we are responding with 1 packet & less data than wLength.
1302:/home/pi/Developer/tinyusb/src/device/usbd.c ****         ((tusb_control_request_t *)(uintptr_t)p_request)->wLength = CFG_TUD_ENDPOINT0_SIZE;
1303:/home/pi/Developer/tinyusb/src/device/usbd.c ****         return tud_control_xfer(rhport, p_request, desc_device, CFG_TUD_ENDPOINT0_SIZE);
1304:/home/pi/Developer/tinyusb/src/device/usbd.c ****       } else {
1305:/home/pi/Developer/tinyusb/src/device/usbd.c ****         return tud_control_xfer(rhport, p_request, desc_device, sizeof(tusb_desc_device_t));
1306:/home/pi/Developer/tinyusb/src/device/usbd.c ****       }
1307:/home/pi/Developer/tinyusb/src/device/usbd.c ****     }
1308:/home/pi/Developer/tinyusb/src/device/usbd.c ****     // break; // unreachable
1309:/home/pi/Developer/tinyusb/src/device/usbd.c **** 
1310:/home/pi/Developer/tinyusb/src/device/usbd.c ****     case TUSB_DESC_BOS: {
1311:/home/pi/Developer/tinyusb/src/device/usbd.c ****       TU_LOG_USBD(" BOS\r\n");
1312:/home/pi/Developer/tinyusb/src/device/usbd.c **** 
1313:/home/pi/Developer/tinyusb/src/device/usbd.c ****       // requested by host if USB > 2.0 ( i.e 2.1 or 3.x )
1314:/home/pi/Developer/tinyusb/src/device/usbd.c ****       uintptr_t desc_bos = (uintptr_t) tud_descriptor_bos_cb();
1315:/home/pi/Developer/tinyusb/src/device/usbd.c ****       TU_VERIFY(desc_bos != 0);
1316:/home/pi/Developer/tinyusb/src/device/usbd.c **** 
1317:/home/pi/Developer/tinyusb/src/device/usbd.c ****       // Use offsetof to avoid pointer to the odd/misaligned address
1318:/home/pi/Developer/tinyusb/src/device/usbd.c ****       uint16_t const total_len = tu_le16toh( tu_unaligned_read16((const void*) (desc_bos + offsetof
1319:/home/pi/Developer/tinyusb/src/device/usbd.c **** 
1320:/home/pi/Developer/tinyusb/src/device/usbd.c ****       return tud_control_xfer(rhport, p_request, (void*) desc_bos, total_len);
1321:/home/pi/Developer/tinyusb/src/device/usbd.c ****     }
1322:/home/pi/Developer/tinyusb/src/device/usbd.c ****     // break; // unreachable
1323:/home/pi/Developer/tinyusb/src/device/usbd.c **** 
1324:/home/pi/Developer/tinyusb/src/device/usbd.c ****     case TUSB_DESC_CONFIGURATION:
1325:/home/pi/Developer/tinyusb/src/device/usbd.c ****     case TUSB_DESC_OTHER_SPEED_CONFIG: {
1326:/home/pi/Developer/tinyusb/src/device/usbd.c ****       uintptr_t desc_config;
1327:/home/pi/Developer/tinyusb/src/device/usbd.c **** 
1328:/home/pi/Developer/tinyusb/src/device/usbd.c ****       if ( desc_type == TUSB_DESC_CONFIGURATION ) {
1329:/home/pi/Developer/tinyusb/src/device/usbd.c ****         TU_LOG_USBD(" Configuration[%u]\r\n", desc_index);
ARM GAS  /tmp/cci2pXLM.s 			page 29


1330:/home/pi/Developer/tinyusb/src/device/usbd.c ****         desc_config = (uintptr_t) tud_descriptor_configuration_cb(desc_index);
1331:/home/pi/Developer/tinyusb/src/device/usbd.c ****         TU_ASSERT(desc_config != 0);
1332:/home/pi/Developer/tinyusb/src/device/usbd.c ****       }else {
1333:/home/pi/Developer/tinyusb/src/device/usbd.c ****         // Host only request this after getting Device Qualifier descriptor
1334:/home/pi/Developer/tinyusb/src/device/usbd.c ****         TU_LOG_USBD(" Other Speed Configuration\r\n");
1335:/home/pi/Developer/tinyusb/src/device/usbd.c ****         desc_config = (uintptr_t) tud_descriptor_other_speed_configuration_cb(desc_index);
1336:/home/pi/Developer/tinyusb/src/device/usbd.c ****         TU_VERIFY(desc_config != 0);
1337:/home/pi/Developer/tinyusb/src/device/usbd.c ****       }
1338:/home/pi/Developer/tinyusb/src/device/usbd.c **** 
1339:/home/pi/Developer/tinyusb/src/device/usbd.c ****       // Use offsetof to avoid pointer to the odd/misaligned address
1340:/home/pi/Developer/tinyusb/src/device/usbd.c ****       uint16_t const total_len = tu_le16toh( tu_unaligned_read16((const void*) (desc_config + offse
1341:/home/pi/Developer/tinyusb/src/device/usbd.c **** 
1342:/home/pi/Developer/tinyusb/src/device/usbd.c ****       return tud_control_xfer(rhport, p_request, (void*) desc_config, total_len);
1343:/home/pi/Developer/tinyusb/src/device/usbd.c ****     }
1344:/home/pi/Developer/tinyusb/src/device/usbd.c ****     // break; // unreachable
1345:/home/pi/Developer/tinyusb/src/device/usbd.c **** 
1346:/home/pi/Developer/tinyusb/src/device/usbd.c ****     case TUSB_DESC_STRING: {
1347:/home/pi/Developer/tinyusb/src/device/usbd.c ****       TU_LOG_USBD(" String[%u]\r\n", desc_index);
1348:/home/pi/Developer/tinyusb/src/device/usbd.c **** 
1349:/home/pi/Developer/tinyusb/src/device/usbd.c ****       // String Descriptor always uses the desc set from user
1350:/home/pi/Developer/tinyusb/src/device/usbd.c ****       uint8_t const* desc_str = (uint8_t const*) tud_descriptor_string_cb(desc_index, p_request->wI
1351:/home/pi/Developer/tinyusb/src/device/usbd.c ****       TU_VERIFY(desc_str);
1352:/home/pi/Developer/tinyusb/src/device/usbd.c **** 
1353:/home/pi/Developer/tinyusb/src/device/usbd.c ****       // first byte of descriptor is its size
1354:/home/pi/Developer/tinyusb/src/device/usbd.c ****       return tud_control_xfer(rhport, p_request, (void*) (uintptr_t) desc_str, tu_desc_len(desc_str
1355:/home/pi/Developer/tinyusb/src/device/usbd.c ****     }
1356:/home/pi/Developer/tinyusb/src/device/usbd.c ****     // break; // unreachable
1357:/home/pi/Developer/tinyusb/src/device/usbd.c **** 
1358:/home/pi/Developer/tinyusb/src/device/usbd.c ****     case TUSB_DESC_DEVICE_QUALIFIER: {
1359:/home/pi/Developer/tinyusb/src/device/usbd.c ****       TU_LOG_USBD(" Device Qualifier\r\n");
1360:/home/pi/Developer/tinyusb/src/device/usbd.c ****       uint8_t const* desc_qualifier = tud_descriptor_device_qualifier_cb();
1361:/home/pi/Developer/tinyusb/src/device/usbd.c ****       TU_VERIFY(desc_qualifier);
1362:/home/pi/Developer/tinyusb/src/device/usbd.c ****       return tud_control_xfer(rhport, p_request, (void*) (uintptr_t) desc_qualifier, tu_desc_len(de
1363:/home/pi/Developer/tinyusb/src/device/usbd.c ****     }
1364:/home/pi/Developer/tinyusb/src/device/usbd.c ****     // break; // unreachable
1365:/home/pi/Developer/tinyusb/src/device/usbd.c **** 
1366:/home/pi/Developer/tinyusb/src/device/usbd.c ****     default: return false;
1367:/home/pi/Developer/tinyusb/src/device/usbd.c ****   }
1368:/home/pi/Developer/tinyusb/src/device/usbd.c **** }
1369:/home/pi/Developer/tinyusb/src/device/usbd.c **** 
1370:/home/pi/Developer/tinyusb/src/device/usbd.c **** //--------------------------------------------------------------------+
1371:/home/pi/Developer/tinyusb/src/device/usbd.c **** // DCD Event Handler
1372:/home/pi/Developer/tinyusb/src/device/usbd.c **** //--------------------------------------------------------------------+
1373:/home/pi/Developer/tinyusb/src/device/usbd.c **** TU_ATTR_FAST_FUNC void dcd_event_handler(dcd_event_t const* event, bool in_isr) {
1374:/home/pi/Developer/tinyusb/src/device/usbd.c ****   bool send = false;
1375:/home/pi/Developer/tinyusb/src/device/usbd.c ****   switch (event->event_id) {
1376:/home/pi/Developer/tinyusb/src/device/usbd.c ****     case DCD_EVENT_UNPLUGGED:
1377:/home/pi/Developer/tinyusb/src/device/usbd.c ****       _usbd_dev.connected = 0;
1378:/home/pi/Developer/tinyusb/src/device/usbd.c ****       _usbd_dev.addressed = 0;
1379:/home/pi/Developer/tinyusb/src/device/usbd.c ****       _usbd_dev.cfg_num = 0;
1380:/home/pi/Developer/tinyusb/src/device/usbd.c ****       _usbd_dev.suspended = 0;
1381:/home/pi/Developer/tinyusb/src/device/usbd.c ****       send = true;
1382:/home/pi/Developer/tinyusb/src/device/usbd.c ****       break;
1383:/home/pi/Developer/tinyusb/src/device/usbd.c **** 
1384:/home/pi/Developer/tinyusb/src/device/usbd.c ****     case DCD_EVENT_SUSPEND:
1385:/home/pi/Developer/tinyusb/src/device/usbd.c ****       // NOTE: When plugging/unplugging device, the D+/D- state are unstable and
1386:/home/pi/Developer/tinyusb/src/device/usbd.c ****       // can accidentally meet the SUSPEND condition ( Bus Idle for 3ms ).
ARM GAS  /tmp/cci2pXLM.s 			page 30


1387:/home/pi/Developer/tinyusb/src/device/usbd.c ****       // In addition, some MCUs such as SAMD or boards that haven no VBUS detection cannot distingu
1388:/home/pi/Developer/tinyusb/src/device/usbd.c ****       // suspended vs disconnected. We will skip handling SUSPEND/RESUME event if not currently con
1389:/home/pi/Developer/tinyusb/src/device/usbd.c ****       if (_usbd_dev.connected) {
1390:/home/pi/Developer/tinyusb/src/device/usbd.c ****         _usbd_dev.suspended = 1;
1391:/home/pi/Developer/tinyusb/src/device/usbd.c ****         send = true;
1392:/home/pi/Developer/tinyusb/src/device/usbd.c ****       }
1393:/home/pi/Developer/tinyusb/src/device/usbd.c ****       break;
1394:/home/pi/Developer/tinyusb/src/device/usbd.c **** 
1395:/home/pi/Developer/tinyusb/src/device/usbd.c ****     case DCD_EVENT_RESUME:
1396:/home/pi/Developer/tinyusb/src/device/usbd.c ****       // skip event if not connected (especially required for SAMD)
1397:/home/pi/Developer/tinyusb/src/device/usbd.c ****       if (_usbd_dev.connected) {
1398:/home/pi/Developer/tinyusb/src/device/usbd.c ****         _usbd_dev.suspended = 0;
1399:/home/pi/Developer/tinyusb/src/device/usbd.c ****         send = true;
1400:/home/pi/Developer/tinyusb/src/device/usbd.c ****       }
1401:/home/pi/Developer/tinyusb/src/device/usbd.c ****       break;
1402:/home/pi/Developer/tinyusb/src/device/usbd.c **** 
1403:/home/pi/Developer/tinyusb/src/device/usbd.c ****     case DCD_EVENT_SOF:
1404:/home/pi/Developer/tinyusb/src/device/usbd.c ****       // SOF driver handler in ISR context
1405:/home/pi/Developer/tinyusb/src/device/usbd.c ****       for (uint8_t i = 0; i < TOTAL_DRIVER_COUNT; i++) {
1406:/home/pi/Developer/tinyusb/src/device/usbd.c ****         usbd_class_driver_t const* driver = get_driver(i);
1407:/home/pi/Developer/tinyusb/src/device/usbd.c ****         if (driver && driver->sof) {
1408:/home/pi/Developer/tinyusb/src/device/usbd.c ****           driver->sof(event->rhport, event->sof.frame_count);
1409:/home/pi/Developer/tinyusb/src/device/usbd.c ****         }
1410:/home/pi/Developer/tinyusb/src/device/usbd.c ****       }
1411:/home/pi/Developer/tinyusb/src/device/usbd.c **** 
1412:/home/pi/Developer/tinyusb/src/device/usbd.c ****       // Some MCUs after running dcd_remote_wakeup() does not have way to detect the end of remote 
1413:/home/pi/Developer/tinyusb/src/device/usbd.c ****       // which last 1-15 ms. DCD can use SOF as a clear indicator that bus is back to operational
1414:/home/pi/Developer/tinyusb/src/device/usbd.c ****       if (_usbd_dev.suspended) {
1415:/home/pi/Developer/tinyusb/src/device/usbd.c ****         _usbd_dev.suspended = 0;
1416:/home/pi/Developer/tinyusb/src/device/usbd.c **** 
1417:/home/pi/Developer/tinyusb/src/device/usbd.c ****         dcd_event_t const event_resume = {.rhport = event->rhport, .event_id = DCD_EVENT_RESUME};
1418:/home/pi/Developer/tinyusb/src/device/usbd.c ****         queue_event(&event_resume, in_isr);
1419:/home/pi/Developer/tinyusb/src/device/usbd.c ****       }
1420:/home/pi/Developer/tinyusb/src/device/usbd.c **** 
1421:/home/pi/Developer/tinyusb/src/device/usbd.c ****       if (tu_bit_test(_usbd_dev.sof_consumer, SOF_CONSUMER_USER)) {
1422:/home/pi/Developer/tinyusb/src/device/usbd.c ****         dcd_event_t const event_sof = {.rhport = event->rhport, .event_id = DCD_EVENT_SOF, .sof.fra
1423:/home/pi/Developer/tinyusb/src/device/usbd.c ****         queue_event(&event_sof, in_isr);
1424:/home/pi/Developer/tinyusb/src/device/usbd.c ****       }
1425:/home/pi/Developer/tinyusb/src/device/usbd.c ****       break;
1426:/home/pi/Developer/tinyusb/src/device/usbd.c **** 
1427:/home/pi/Developer/tinyusb/src/device/usbd.c ****     case DCD_EVENT_SETUP_RECEIVED:
1428:/home/pi/Developer/tinyusb/src/device/usbd.c ****       _usbd_queued_setup++;
1429:/home/pi/Developer/tinyusb/src/device/usbd.c ****       send = true;
1430:/home/pi/Developer/tinyusb/src/device/usbd.c ****       break;
1431:/home/pi/Developer/tinyusb/src/device/usbd.c **** 
1432:/home/pi/Developer/tinyusb/src/device/usbd.c ****     case DCD_EVENT_XFER_COMPLETE: {
1433:/home/pi/Developer/tinyusb/src/device/usbd.c ****       // Invoke the class callback associated with the endpoint address
1434:/home/pi/Developer/tinyusb/src/device/usbd.c ****       uint8_t const ep_addr = event->xfer_complete.ep_addr;
1435:/home/pi/Developer/tinyusb/src/device/usbd.c ****       uint8_t const epnum = tu_edpt_number(ep_addr);
1436:/home/pi/Developer/tinyusb/src/device/usbd.c ****       uint8_t const ep_dir = tu_edpt_dir(ep_addr);
1437:/home/pi/Developer/tinyusb/src/device/usbd.c **** 
1438:/home/pi/Developer/tinyusb/src/device/usbd.c ****       send = true;
1439:/home/pi/Developer/tinyusb/src/device/usbd.c ****       if(epnum > 0) {
1440:/home/pi/Developer/tinyusb/src/device/usbd.c ****         usbd_class_driver_t const* driver = get_driver(_usbd_dev.ep2drv[epnum][ep_dir]);
1441:/home/pi/Developer/tinyusb/src/device/usbd.c **** 
1442:/home/pi/Developer/tinyusb/src/device/usbd.c ****         if (driver && driver->xfer_isr) {
1443:/home/pi/Developer/tinyusb/src/device/usbd.c ****           // Clear busy + claimed
ARM GAS  /tmp/cci2pXLM.s 			page 31


1444:/home/pi/Developer/tinyusb/src/device/usbd.c ****           _usbd_dev.ep_status[epnum][ep_dir] &= (uint8_t) ~(TU_EDPT_STATE_BUSY | TU_EDPT_STATE_CLAI
1445:/home/pi/Developer/tinyusb/src/device/usbd.c **** 
1446:/home/pi/Developer/tinyusb/src/device/usbd.c ****           send = !driver->xfer_isr(event->rhport, ep_addr, (xfer_result_t) event->xfer_complete.res
1447:/home/pi/Developer/tinyusb/src/device/usbd.c **** 
1448:/home/pi/Developer/tinyusb/src/device/usbd.c ****           // xfer_isr() is deferred to xfer_cb(), revert busy/claimed status
1449:/home/pi/Developer/tinyusb/src/device/usbd.c ****           if (send) {
1450:/home/pi/Developer/tinyusb/src/device/usbd.c ****             // set busy + claimed
1451:/home/pi/Developer/tinyusb/src/device/usbd.c ****             _usbd_dev.ep_status[epnum][ep_dir] |= (TU_EDPT_STATE_BUSY | TU_EDPT_STATE_CLAIMED);
1452:/home/pi/Developer/tinyusb/src/device/usbd.c ****           }
1453:/home/pi/Developer/tinyusb/src/device/usbd.c ****         }
1454:/home/pi/Developer/tinyusb/src/device/usbd.c ****       }
1455:/home/pi/Developer/tinyusb/src/device/usbd.c ****       break;
1456:/home/pi/Developer/tinyusb/src/device/usbd.c ****     }
1457:/home/pi/Developer/tinyusb/src/device/usbd.c **** 
1458:/home/pi/Developer/tinyusb/src/device/usbd.c ****     default:
1459:/home/pi/Developer/tinyusb/src/device/usbd.c ****       send = true;
1460:/home/pi/Developer/tinyusb/src/device/usbd.c ****       break;
1461:/home/pi/Developer/tinyusb/src/device/usbd.c ****   }
1462:/home/pi/Developer/tinyusb/src/device/usbd.c **** 
1463:/home/pi/Developer/tinyusb/src/device/usbd.c ****   if (send) {
1464:/home/pi/Developer/tinyusb/src/device/usbd.c ****     queue_event(event, in_isr);
1465:/home/pi/Developer/tinyusb/src/device/usbd.c ****   }
1466:/home/pi/Developer/tinyusb/src/device/usbd.c **** }
1467:/home/pi/Developer/tinyusb/src/device/usbd.c **** 
1468:/home/pi/Developer/tinyusb/src/device/usbd.c **** //--------------------------------------------------------------------+
1469:/home/pi/Developer/tinyusb/src/device/usbd.c **** // USBD API For Class Driver
1470:/home/pi/Developer/tinyusb/src/device/usbd.c **** //--------------------------------------------------------------------+
1471:/home/pi/Developer/tinyusb/src/device/usbd.c **** 
1472:/home/pi/Developer/tinyusb/src/device/usbd.c **** void usbd_int_set(bool enabled) {
 241              		.loc 1 1472 33 is_stmt 1 view -0
 242              		.cfi_startproc
 243              		@ args = 0, pretend = 0, frame = 0
 244              		@ frame_needed = 0, uses_anonymous_args = 0
 245              		@ link register save eliminated.
1473:/home/pi/Developer/tinyusb/src/device/usbd.c ****   if (enabled) {
 246              		.loc 1 1473 3 view .LVU61
 247              	.LBB422:
 248              	.LBB423:
1474:/home/pi/Developer/tinyusb/src/device/usbd.c ****     dcd_int_enable(_usbd_rhport);
 249              		.loc 1 1474 5 is_stmt 0 view .LVU62
 250 0000 034B     		ldr	r3, .L26
 251              	.LBE423:
 252              	.LBE422:
1473:/home/pi/Developer/tinyusb/src/device/usbd.c ****   if (enabled) {
 253              		.loc 1 1473 6 view .LVU63
 254 0002 10B1     		cbz	r0, .L25
 255              	.LBB425:
 256              	.LBI422:
1472:/home/pi/Developer/tinyusb/src/device/usbd.c ****   if (enabled) {
 257              		.loc 1 1472 6 is_stmt 1 view .LVU64
 258              	.LVL13:
 259              	.LBB424:
 260              		.loc 1 1474 5 view .LVU65
 261 0004 1878     		ldrb	r0, [r3]	@ zero_extendqisi2
 262              	.LVL14:
 263              		.loc 1 1474 5 is_stmt 0 view .LVU66
 264 0006 FFF7FEBF 		b	dcd_int_enable
ARM GAS  /tmp/cci2pXLM.s 			page 32


 265              	.LVL15:
 266              	.L25:
 267              		.loc 1 1474 5 view .LVU67
 268              	.LBE424:
 269              	.LBE425:
1475:/home/pi/Developer/tinyusb/src/device/usbd.c ****   } else {
1476:/home/pi/Developer/tinyusb/src/device/usbd.c ****     dcd_int_disable(_usbd_rhport);
 270              		.loc 1 1476 5 is_stmt 1 view .LVU68
 271 000a 1878     		ldrb	r0, [r3]	@ zero_extendqisi2
 272              	.LVL16:
 273              		.loc 1 1476 5 is_stmt 0 view .LVU69
 274 000c FFF7FEBF 		b	dcd_int_disable
 275              	.LVL17:
 276              	.L27:
 277              		.align	2
 278              	.L26:
 279 0010 00000000 		.word	.LANCHOR3
 280              		.cfi_endproc
 281              	.LFE477:
 283              		.section	.text.tud_event_hook_cb,"ax",%progbits
 284              		.align	1
 285              		.p2align 2,,3
 286              		.weak	tud_event_hook_cb
 287              		.syntax unified
 288              		.thumb
 289              		.thumb_func
 290              		.fpu fpv5-d16
 292              	tud_event_hook_cb:
 293              	.LVL18:
 294              	.LFB426:
  48:/home/pi/Developer/tinyusb/src/device/usbd.c ****   (void) rhport; (void) eventid; (void) in_isr;
 295              		.loc 1 48 84 is_stmt 1 view -0
 296              		.cfi_startproc
 297              		@ args = 0, pretend = 0, frame = 0
 298              		@ frame_needed = 0, uses_anonymous_args = 0
 299              		@ link register save eliminated.
  49:/home/pi/Developer/tinyusb/src/device/usbd.c **** }
 300              		.loc 1 49 3 view .LVU71
  49:/home/pi/Developer/tinyusb/src/device/usbd.c **** }
 301              		.loc 1 49 18 view .LVU72
  49:/home/pi/Developer/tinyusb/src/device/usbd.c **** }
 302              		.loc 1 49 34 view .LVU73
  50:/home/pi/Developer/tinyusb/src/device/usbd.c **** 
 303              		.loc 1 50 1 is_stmt 0 view .LVU74
 304 0000 7047     		bx	lr
 305              		.cfi_endproc
 306              	.LFE426:
 308 0002 00BF     		.section	.text.tud_sof_cb,"ax",%progbits
 309              		.align	1
 310              		.p2align 2,,3
 311              		.weak	tud_sof_cb
 312              		.syntax unified
 313              		.thumb
 314              		.thumb_func
 315              		.fpu fpv5-d16
 317              	tud_sof_cb:
 318              	.LVL19:
ARM GAS  /tmp/cci2pXLM.s 			page 33


 319              	.LFB427:
  52:/home/pi/Developer/tinyusb/src/device/usbd.c ****   (void) frame_count;
 320              		.loc 1 52 52 is_stmt 1 view -0
 321              		.cfi_startproc
 322              		@ args = 0, pretend = 0, frame = 0
 323              		@ frame_needed = 0, uses_anonymous_args = 0
 324              		@ link register save eliminated.
  53:/home/pi/Developer/tinyusb/src/device/usbd.c **** }
 325              		.loc 1 53 3 view .LVU76
  54:/home/pi/Developer/tinyusb/src/device/usbd.c **** 
 326              		.loc 1 54 1 is_stmt 0 view .LVU77
 327 0000 7047     		bx	lr
 328              		.cfi_endproc
 329              	.LFE427:
 331 0002 00BF     		.section	.text.tud_descriptor_bos_cb,"ax",%progbits
 332              		.align	1
 333              		.p2align 2,,3
 334              		.weak	tud_descriptor_bos_cb
 335              		.syntax unified
 336              		.thumb
 337              		.thumb_func
 338              		.fpu fpv5-d16
 340              	tud_descriptor_bos_cb:
 341              	.LFB428:
  56:/home/pi/Developer/tinyusb/src/device/usbd.c ****   return NULL;
 342              		.loc 1 56 57 is_stmt 1 view -0
 343              		.cfi_startproc
 344              		@ args = 0, pretend = 0, frame = 0
 345              		@ frame_needed = 0, uses_anonymous_args = 0
 346              		@ link register save eliminated.
  57:/home/pi/Developer/tinyusb/src/device/usbd.c **** }
 347              		.loc 1 57 3 view .LVU79
  58:/home/pi/Developer/tinyusb/src/device/usbd.c **** 
 348              		.loc 1 58 1 is_stmt 0 view .LVU80
 349 0000 0020     		movs	r0, #0
 350 0002 7047     		bx	lr
 351              		.cfi_endproc
 352              	.LFE428:
 354              		.section	.text.tud_descriptor_device_qualifier_cb,"ax",%progbits
 355              		.align	1
 356              		.p2align 2,,3
 357              		.weak	tud_descriptor_device_qualifier_cb
 358              		.syntax unified
 359              		.thumb
 360              		.thumb_func
 361              		.fpu fpv5-d16
 363              	tud_descriptor_device_qualifier_cb:
 364              	.LFB504:
 365              		.cfi_startproc
 366              		@ args = 0, pretend = 0, frame = 0
 367              		@ frame_needed = 0, uses_anonymous_args = 0
 368              		@ link register save eliminated.
 369 0000 0020     		movs	r0, #0
 370 0002 7047     		bx	lr
 371              		.cfi_endproc
 372              	.LFE504:
 374              		.section	.text.tud_descriptor_other_speed_configuration_cb,"ax",%progbits
ARM GAS  /tmp/cci2pXLM.s 			page 34


 375              		.align	1
 376              		.p2align 2,,3
 377              		.weak	tud_descriptor_other_speed_configuration_cb
 378              		.syntax unified
 379              		.thumb
 380              		.thumb_func
 381              		.fpu fpv5-d16
 383              	tud_descriptor_other_speed_configuration_cb:
 384              	.LVL20:
 385              	.LFB430:
  64:/home/pi/Developer/tinyusb/src/device/usbd.c ****   (void) index;
 386              		.loc 1 64 88 is_stmt 1 view -0
 387              		.cfi_startproc
 388              		@ args = 0, pretend = 0, frame = 0
 389              		@ frame_needed = 0, uses_anonymous_args = 0
 390              		@ link register save eliminated.
  65:/home/pi/Developer/tinyusb/src/device/usbd.c ****   return NULL;
 391              		.loc 1 65 3 view .LVU82
  66:/home/pi/Developer/tinyusb/src/device/usbd.c **** }
 392              		.loc 1 66 3 view .LVU83
  67:/home/pi/Developer/tinyusb/src/device/usbd.c **** 
 393              		.loc 1 67 1 is_stmt 0 view .LVU84
 394 0000 0020     		movs	r0, #0
 395              	.LVL21:
  67:/home/pi/Developer/tinyusb/src/device/usbd.c **** 
 396              		.loc 1 67 1 view .LVU85
 397 0002 7047     		bx	lr
 398              		.cfi_endproc
 399              	.LFE430:
 401              		.section	.text.tud_mount_cb,"ax",%progbits
 402              		.align	1
 403              		.p2align 2,,3
 404              		.weak	tud_mount_cb
 405              		.syntax unified
 406              		.thumb
 407              		.thumb_func
 408              		.fpu fpv5-d16
 410              	tud_mount_cb:
 411              	.LFB431:
  69:/home/pi/Developer/tinyusb/src/device/usbd.c **** }
 412              		.loc 1 69 38 is_stmt 1 view -0
 413              		.cfi_startproc
 414              		@ args = 0, pretend = 0, frame = 0
 415              		@ frame_needed = 0, uses_anonymous_args = 0
 416              		@ link register save eliminated.
  70:/home/pi/Developer/tinyusb/src/device/usbd.c **** 
 417              		.loc 1 70 1 view .LVU87
 418 0000 7047     		bx	lr
 419              		.cfi_endproc
 420              	.LFE431:
 422 0002 00BF     		.section	.text.tud_umount_cb,"ax",%progbits
 423              		.align	1
 424              		.p2align 2,,3
 425              		.weak	tud_umount_cb
 426              		.syntax unified
 427              		.thumb
 428              		.thumb_func
ARM GAS  /tmp/cci2pXLM.s 			page 35


 429              		.fpu fpv5-d16
 431              	tud_umount_cb:
 432              	.LFB506:
 433              		.cfi_startproc
 434              		@ args = 0, pretend = 0, frame = 0
 435              		@ frame_needed = 0, uses_anonymous_args = 0
 436              		@ link register save eliminated.
 437 0000 7047     		bx	lr
 438              		.cfi_endproc
 439              	.LFE506:
 441 0002 00BF     		.section	.text.tud_suspend_cb,"ax",%progbits
 442              		.align	1
 443              		.p2align 2,,3
 444              		.weak	tud_suspend_cb
 445              		.syntax unified
 446              		.thumb
 447              		.thumb_func
 448              		.fpu fpv5-d16
 450              	tud_suspend_cb:
 451              	.LVL22:
 452              	.LFB433:
  75:/home/pi/Developer/tinyusb/src/device/usbd.c ****   (void) remote_wakeup_en;
 453              		.loc 1 75 57 view -0
 454              		.cfi_startproc
 455              		@ args = 0, pretend = 0, frame = 0
 456              		@ frame_needed = 0, uses_anonymous_args = 0
 457              		@ link register save eliminated.
  76:/home/pi/Developer/tinyusb/src/device/usbd.c **** }
 458              		.loc 1 76 3 view .LVU89
  77:/home/pi/Developer/tinyusb/src/device/usbd.c **** 
 459              		.loc 1 77 1 is_stmt 0 view .LVU90
 460 0000 7047     		bx	lr
 461              		.cfi_endproc
 462              	.LFE433:
 464 0002 00BF     		.section	.text.tud_resume_cb,"ax",%progbits
 465              		.align	1
 466              		.p2align 2,,3
 467              		.weak	tud_resume_cb
 468              		.syntax unified
 469              		.thumb
 470              		.thumb_func
 471              		.fpu fpv5-d16
 473              	tud_resume_cb:
 474              	.LFB508:
 475              		.cfi_startproc
 476              		@ args = 0, pretend = 0, frame = 0
 477              		@ frame_needed = 0, uses_anonymous_args = 0
 478              		@ link register save eliminated.
 479 0000 7047     		bx	lr
 480              		.cfi_endproc
 481              	.LFE508:
 483 0002 00BF     		.section	.text.dcd_deinit,"ax",%progbits
 484              		.align	1
 485              		.p2align 2,,3
 486              		.weak	dcd_deinit
 487              		.syntax unified
 488              		.thumb
ARM GAS  /tmp/cci2pXLM.s 			page 36


 489              		.thumb_func
 490              		.fpu fpv5-d16
 492              	dcd_deinit:
 493              	.LVL23:
 494              	.LFB436:
  87:/home/pi/Developer/tinyusb/src/device/usbd.c ****   (void) rhport;
 495              		.loc 1 87 46 is_stmt 1 view -0
 496              		.cfi_startproc
 497              		@ args = 0, pretend = 0, frame = 0
 498              		@ frame_needed = 0, uses_anonymous_args = 0
 499              		@ link register save eliminated.
  88:/home/pi/Developer/tinyusb/src/device/usbd.c ****   return false;
 500              		.loc 1 88 3 view .LVU92
  89:/home/pi/Developer/tinyusb/src/device/usbd.c **** }
 501              		.loc 1 89 3 view .LVU93
  90:/home/pi/Developer/tinyusb/src/device/usbd.c **** 
 502              		.loc 1 90 1 is_stmt 0 view .LVU94
 503 0000 0020     		movs	r0, #0
 504              	.LVL24:
  90:/home/pi/Developer/tinyusb/src/device/usbd.c **** 
 505              		.loc 1 90 1 view .LVU95
 506 0002 7047     		bx	lr
 507              		.cfi_endproc
 508              	.LFE436:
 510              		.section	.text.dcd_connect,"ax",%progbits
 511              		.align	1
 512              		.p2align 2,,3
 513              		.weak	dcd_connect
 514              		.syntax unified
 515              		.thumb
 516              		.thumb_func
 517              		.fpu fpv5-d16
 519              	dcd_connect:
 520              	.LVL25:
 521              	.LFB437:
  92:/home/pi/Developer/tinyusb/src/device/usbd.c ****   (void) rhport;
 522              		.loc 1 92 47 is_stmt 1 view -0
 523              		.cfi_startproc
 524              		@ args = 0, pretend = 0, frame = 0
 525              		@ frame_needed = 0, uses_anonymous_args = 0
 526              		@ link register save eliminated.
  93:/home/pi/Developer/tinyusb/src/device/usbd.c **** }
 527              		.loc 1 93 3 view .LVU97
  94:/home/pi/Developer/tinyusb/src/device/usbd.c **** 
 528              		.loc 1 94 1 is_stmt 0 view .LVU98
 529 0000 7047     		bx	lr
 530              		.cfi_endproc
 531              	.LFE437:
 533 0002 00BF     		.section	.text.dcd_disconnect,"ax",%progbits
 534              		.align	1
 535              		.p2align 2,,3
 536              		.weak	dcd_disconnect
 537              		.syntax unified
 538              		.thumb
 539              		.thumb_func
 540              		.fpu fpv5-d16
 542              	dcd_disconnect:
ARM GAS  /tmp/cci2pXLM.s 			page 37


 543              	.LFB502:
 544              		.cfi_startproc
 545              		@ args = 0, pretend = 0, frame = 0
 546              		@ frame_needed = 0, uses_anonymous_args = 0
 547              		@ link register save eliminated.
 548 0000 7047     		bx	lr
 549              		.cfi_endproc
 550              	.LFE502:
 552 0002 00BF     		.section	.text.dcd_dcache_clean,"ax",%progbits
 553              		.align	1
 554              		.p2align 2,,3
 555              		.weak	dcd_dcache_clean
 556              		.syntax unified
 557              		.thumb
 558              		.thumb_func
 559              		.fpu fpv5-d16
 561              	dcd_dcache_clean:
 562              	.LVL26:
 563              	.LFB439:
 100:/home/pi/Developer/tinyusb/src/device/usbd.c ****   (void) addr; (void) data_size;
 564              		.loc 1 100 74 is_stmt 1 view -0
 565              		.cfi_startproc
 566              		@ args = 0, pretend = 0, frame = 0
 567              		@ frame_needed = 0, uses_anonymous_args = 0
 568              		@ link register save eliminated.
 101:/home/pi/Developer/tinyusb/src/device/usbd.c ****   return true;
 569              		.loc 1 101 3 view .LVU100
 101:/home/pi/Developer/tinyusb/src/device/usbd.c ****   return true;
 570              		.loc 1 101 16 view .LVU101
 102:/home/pi/Developer/tinyusb/src/device/usbd.c **** }
 571              		.loc 1 102 3 view .LVU102
 103:/home/pi/Developer/tinyusb/src/device/usbd.c **** 
 572              		.loc 1 103 1 is_stmt 0 view .LVU103
 573 0000 0120     		movs	r0, #1
 574              	.LVL27:
 103:/home/pi/Developer/tinyusb/src/device/usbd.c **** 
 575              		.loc 1 103 1 view .LVU104
 576 0002 7047     		bx	lr
 577              		.cfi_endproc
 578              	.LFE439:
 580              		.section	.text.dcd_dcache_invalidate,"ax",%progbits
 581              		.align	1
 582              		.p2align 2,,3
 583              		.weak	dcd_dcache_invalidate
 584              		.syntax unified
 585              		.thumb
 586              		.thumb_func
 587              		.fpu fpv5-d16
 589              	dcd_dcache_invalidate:
 590              	.LFB498:
 591              		.cfi_startproc
 592              		@ args = 0, pretend = 0, frame = 0
 593              		@ frame_needed = 0, uses_anonymous_args = 0
 594              		@ link register save eliminated.
 595 0000 0120     		movs	r0, #1
 596 0002 7047     		bx	lr
 597              		.cfi_endproc
ARM GAS  /tmp/cci2pXLM.s 			page 38


 598              	.LFE498:
 600              		.section	.text.dcd_dcache_clean_invalidate,"ax",%progbits
 601              		.align	1
 602              		.p2align 2,,3
 603              		.weak	dcd_dcache_clean_invalidate
 604              		.syntax unified
 605              		.thumb
 606              		.thumb_func
 607              		.fpu fpv5-d16
 609              	dcd_dcache_clean_invalidate:
 610              	.LFB500:
 611              		.cfi_startproc
 612              		@ args = 0, pretend = 0, frame = 0
 613              		@ frame_needed = 0, uses_anonymous_args = 0
 614              		@ link register save eliminated.
 615 0000 0120     		movs	r0, #1
 616 0002 7047     		bx	lr
 617              		.cfi_endproc
 618              	.LFE500:
 620              		.section	.text.usbd_app_driver_get_cb,"ax",%progbits
 621              		.align	1
 622              		.p2align 2,,3
 623              		.weak	usbd_app_driver_get_cb
 624              		.syntax unified
 625              		.thumb
 626              		.thumb_func
 627              		.fpu fpv5-d16
 629              	usbd_app_driver_get_cb:
 630              	.LVL28:
 631              	.LFB444:
 443:/home/pi/Developer/tinyusb/src/device/usbd.c ****   *driver_count = 0;
 632              		.loc 1 443 87 is_stmt 1 view -0
 633              		.cfi_startproc
 634              		@ args = 0, pretend = 0, frame = 0
 635              		@ frame_needed = 0, uses_anonymous_args = 0
 636              		@ link register save eliminated.
 444:/home/pi/Developer/tinyusb/src/device/usbd.c ****   return NULL;
 637              		.loc 1 444 3 view .LVU106
 444:/home/pi/Developer/tinyusb/src/device/usbd.c ****   return NULL;
 638              		.loc 1 444 17 is_stmt 0 view .LVU107
 639 0000 0022     		movs	r2, #0
 443:/home/pi/Developer/tinyusb/src/device/usbd.c ****   *driver_count = 0;
 640              		.loc 1 443 87 view .LVU108
 641 0002 0346     		mov	r3, r0
 446:/home/pi/Developer/tinyusb/src/device/usbd.c **** 
 642              		.loc 1 446 1 view .LVU109
 643 0004 1046     		mov	r0, r2
 644              	.LVL29:
 444:/home/pi/Developer/tinyusb/src/device/usbd.c ****   return NULL;
 645              		.loc 1 444 17 view .LVU110
 646 0006 1A70     		strb	r2, [r3]
 445:/home/pi/Developer/tinyusb/src/device/usbd.c **** }
 647              		.loc 1 445 3 is_stmt 1 view .LVU111
 446:/home/pi/Developer/tinyusb/src/device/usbd.c **** 
 648              		.loc 1 446 1 is_stmt 0 view .LVU112
 649 0008 7047     		bx	lr
 650              		.cfi_endproc
ARM GAS  /tmp/cci2pXLM.s 			page 39


 651              	.LFE444:
 653 000a 00BF     		.section	.text.dcd_edpt_xfer_fifo,"ax",%progbits
 654              		.align	1
 655              		.p2align 2,,3
 656              		.weak	dcd_edpt_xfer_fifo
 657              		.syntax unified
 658              		.thumb
 659              		.thumb_func
 660              		.fpu fpv5-d16
 662              	dcd_edpt_xfer_fifo:
 663              	.LVL30:
 664              	.LFB445:
 448:/home/pi/Developer/tinyusb/src/device/usbd.c ****   (void) rhport; (void) ep_addr; (void) ff; (void) total_bytes; (void) is_isr;
 665              		.loc 1 448 122 is_stmt 1 view -0
 666              		.cfi_startproc
 667              		@ args = 4, pretend = 0, frame = 0
 668              		@ frame_needed = 0, uses_anonymous_args = 0
 669              		@ link register save eliminated.
 449:/home/pi/Developer/tinyusb/src/device/usbd.c ****   return false;
 670              		.loc 1 449 3 view .LVU114
 449:/home/pi/Developer/tinyusb/src/device/usbd.c ****   return false;
 671              		.loc 1 449 18 view .LVU115
 449:/home/pi/Developer/tinyusb/src/device/usbd.c ****   return false;
 672              		.loc 1 449 34 view .LVU116
 449:/home/pi/Developer/tinyusb/src/device/usbd.c ****   return false;
 673              		.loc 1 449 45 view .LVU117
 449:/home/pi/Developer/tinyusb/src/device/usbd.c ****   return false;
 674              		.loc 1 449 65 view .LVU118
 450:/home/pi/Developer/tinyusb/src/device/usbd.c **** }
 675              		.loc 1 450 3 view .LVU119
 451:/home/pi/Developer/tinyusb/src/device/usbd.c **** 
 676              		.loc 1 451 1 is_stmt 0 view .LVU120
 677 0000 0020     		movs	r0, #0
 678              	.LVL31:
 451:/home/pi/Developer/tinyusb/src/device/usbd.c **** 
 679              		.loc 1 451 1 view .LVU121
 680 0002 7047     		bx	lr
 681              		.cfi_endproc
 682              	.LFE445:
 684              		.section	.text.dcd_configure,"ax",%progbits
 685              		.align	1
 686              		.p2align 2,,3
 687              		.weak	dcd_configure
 688              		.syntax unified
 689              		.thumb
 690              		.thumb_func
 691              		.fpu fpv5-d16
 693              	dcd_configure:
 694              	.LVL32:
 695              	.LFB446:
 453:/home/pi/Developer/tinyusb/src/device/usbd.c ****   (void) rhport; (void) cfg_id; (void) cfg_param;
 696              		.loc 1 453 89 is_stmt 1 view -0
 697              		.cfi_startproc
 698              		@ args = 0, pretend = 0, frame = 0
 699              		@ frame_needed = 0, uses_anonymous_args = 0
 700              		@ link register save eliminated.
 454:/home/pi/Developer/tinyusb/src/device/usbd.c ****   return false;
ARM GAS  /tmp/cci2pXLM.s 			page 40


 701              		.loc 1 454 3 view .LVU123
 454:/home/pi/Developer/tinyusb/src/device/usbd.c ****   return false;
 702              		.loc 1 454 18 view .LVU124
 454:/home/pi/Developer/tinyusb/src/device/usbd.c ****   return false;
 703              		.loc 1 454 33 view .LVU125
 455:/home/pi/Developer/tinyusb/src/device/usbd.c **** }
 704              		.loc 1 455 3 view .LVU126
 456:/home/pi/Developer/tinyusb/src/device/usbd.c **** 
 705              		.loc 1 456 1 is_stmt 0 view .LVU127
 706 0000 0020     		movs	r0, #0
 707              	.LVL33:
 456:/home/pi/Developer/tinyusb/src/device/usbd.c **** 
 708              		.loc 1 456 1 view .LVU128
 709 0002 7047     		bx	lr
 710              		.cfi_endproc
 711              	.LFE446:
 713              		.section	.text.tud_speed_get,"ax",%progbits
 714              		.align	1
 715              		.p2align 2,,3
 716              		.global	tud_speed_get
 717              		.syntax unified
 718              		.thumb
 719              		.thumb_func
 720              		.fpu fpv5-d16
 722              	tud_speed_get:
 723              	.LFB447:
 479:/home/pi/Developer/tinyusb/src/device/usbd.c ****   return (tusb_speed_t) _usbd_dev.speed;
 724              		.loc 1 479 34 is_stmt 1 view -0
 725              		.cfi_startproc
 726              		@ args = 0, pretend = 0, frame = 0
 727              		@ frame_needed = 0, uses_anonymous_args = 0
 728              		@ link register save eliminated.
 480:/home/pi/Developer/tinyusb/src/device/usbd.c **** }
 729              		.loc 1 480 3 view .LVU130
 480:/home/pi/Developer/tinyusb/src/device/usbd.c **** }
 730              		.loc 1 480 10 is_stmt 0 view .LVU131
 731 0000 014B     		ldr	r3, .L47
 481:/home/pi/Developer/tinyusb/src/device/usbd.c **** 
 732              		.loc 1 481 1 view .LVU132
 733 0002 587E     		ldrb	r0, [r3, #25]	@ zero_extendqisi2
 734 0004 7047     		bx	lr
 735              	.L48:
 736 0006 00BF     		.align	2
 737              	.L47:
 738 0008 00000000 		.word	.LANCHOR1
 739              		.cfi_endproc
 740              	.LFE447:
 742              		.section	.text.tud_connected,"ax",%progbits
 743              		.align	1
 744              		.p2align 2,,3
 745              		.global	tud_connected
 746              		.syntax unified
 747              		.thumb
 748              		.thumb_func
 749              		.fpu fpv5-d16
 751              	tud_connected:
 752              	.LFB448:
ARM GAS  /tmp/cci2pXLM.s 			page 41


 483:/home/pi/Developer/tinyusb/src/device/usbd.c ****   return _usbd_dev.connected;
 753              		.loc 1 483 26 is_stmt 1 view -0
 754              		.cfi_startproc
 755              		@ args = 0, pretend = 0, frame = 0
 756              		@ frame_needed = 0, uses_anonymous_args = 0
 757              		@ link register save eliminated.
 484:/home/pi/Developer/tinyusb/src/device/usbd.c **** }
 758              		.loc 1 484 3 view .LVU134
 484:/home/pi/Developer/tinyusb/src/device/usbd.c **** }
 759              		.loc 1 484 19 is_stmt 0 view .LVU135
 760 0000 024B     		ldr	r3, .L50
 761 0002 187D     		ldrb	r0, [r3, #20]	@ zero_extendqisi2
 485:/home/pi/Developer/tinyusb/src/device/usbd.c **** 
 762              		.loc 1 485 1 view .LVU136
 763 0004 0038     		subs	r0, r0, #0
 764 0006 18BF     		it	ne
 765 0008 0120     		movne	r0, #1
 766 000a 7047     		bx	lr
 767              	.L51:
 768              		.align	2
 769              	.L50:
 770 000c 00000000 		.word	.LANCHOR1
 771              		.cfi_endproc
 772              	.LFE448:
 774              		.section	.text.tud_mounted,"ax",%progbits
 775              		.align	1
 776              		.p2align 2,,3
 777              		.global	tud_mounted
 778              		.syntax unified
 779              		.thumb
 780              		.thumb_func
 781              		.fpu fpv5-d16
 783              	tud_mounted:
 784              	.LFB449:
 487:/home/pi/Developer/tinyusb/src/device/usbd.c ****   return _usbd_dev.cfg_num ? true : false;
 785              		.loc 1 487 24 is_stmt 1 view -0
 786              		.cfi_startproc
 787              		@ args = 0, pretend = 0, frame = 0
 788              		@ frame_needed = 0, uses_anonymous_args = 0
 789              		@ link register save eliminated.
 488:/home/pi/Developer/tinyusb/src/device/usbd.c **** }
 790              		.loc 1 488 3 view .LVU138
 488:/home/pi/Developer/tinyusb/src/device/usbd.c **** }
 791              		.loc 1 488 19 is_stmt 0 view .LVU139
 792 0000 024B     		ldr	r3, .L53
 488:/home/pi/Developer/tinyusb/src/device/usbd.c **** }
 793              		.loc 1 488 35 view .LVU140
 794 0002 187E     		ldrb	r0, [r3, #24]	@ zero_extendqisi2
 489:/home/pi/Developer/tinyusb/src/device/usbd.c **** 
 795              		.loc 1 489 1 view .LVU141
 796 0004 0038     		subs	r0, r0, #0
 797 0006 18BF     		it	ne
 798 0008 0120     		movne	r0, #1
 799 000a 7047     		bx	lr
 800              	.L54:
 801              		.align	2
 802              	.L53:
ARM GAS  /tmp/cci2pXLM.s 			page 42


 803 000c 00000000 		.word	.LANCHOR1
 804              		.cfi_endproc
 805              	.LFE449:
 807              		.section	.text.tud_suspended,"ax",%progbits
 808              		.align	1
 809              		.p2align 2,,3
 810              		.global	tud_suspended
 811              		.syntax unified
 812              		.thumb
 813              		.thumb_func
 814              		.fpu fpv5-d16
 816              	tud_suspended:
 817              	.LFB450:
 491:/home/pi/Developer/tinyusb/src/device/usbd.c ****   return _usbd_dev.suspended;
 818              		.loc 1 491 26 is_stmt 1 view -0
 819              		.cfi_startproc
 820              		@ args = 0, pretend = 0, frame = 0
 821              		@ frame_needed = 0, uses_anonymous_args = 0
 822              		@ link register save eliminated.
 492:/home/pi/Developer/tinyusb/src/device/usbd.c **** }
 823              		.loc 1 492 3 view .LVU143
 492:/home/pi/Developer/tinyusb/src/device/usbd.c **** }
 824              		.loc 1 492 19 is_stmt 0 view .LVU144
 825 0000 024B     		ldr	r3, .L56
 826 0002 987D     		ldrb	r0, [r3, #22]	@ zero_extendqisi2
 493:/home/pi/Developer/tinyusb/src/device/usbd.c **** 
 827              		.loc 1 493 1 view .LVU145
 828 0004 0038     		subs	r0, r0, #0
 829 0006 18BF     		it	ne
 830 0008 0120     		movne	r0, #1
 831 000a 7047     		bx	lr
 832              	.L57:
 833              		.align	2
 834              	.L56:
 835 000c 00000000 		.word	.LANCHOR1
 836              		.cfi_endproc
 837              	.LFE450:
 839              		.section	.text.tud_remote_wakeup,"ax",%progbits
 840              		.align	1
 841              		.p2align 2,,3
 842              		.global	tud_remote_wakeup
 843              		.syntax unified
 844              		.thumb
 845              		.thumb_func
 846              		.fpu fpv5-d16
 848              	tud_remote_wakeup:
 849              	.LFB451:
 495:/home/pi/Developer/tinyusb/src/device/usbd.c ****   // only wake up host if this feature is enabled and we are suspended
 850              		.loc 1 495 30 is_stmt 1 view -0
 851              		.cfi_startproc
 852              		@ args = 0, pretend = 0, frame = 0
 853              		@ frame_needed = 0, uses_anonymous_args = 0
 497:/home/pi/Developer/tinyusb/src/device/usbd.c ****   dcd_remote_wakeup(_usbd_rhport);
 854              		.loc 1 497 3 view .LVU147
 497:/home/pi/Developer/tinyusb/src/device/usbd.c ****   dcd_remote_wakeup(_usbd_rhport);
 855              		.loc 1 497 3 view .LVU148
 856 0000 084A     		ldr	r2, .L64
ARM GAS  /tmp/cci2pXLM.s 			page 43


 495:/home/pi/Developer/tinyusb/src/device/usbd.c ****   // only wake up host if this feature is enabled and we are suspended
 857              		.loc 1 495 30 is_stmt 0 view .LVU149
 858 0002 08B5     		push	{r3, lr}
 859              		.cfi_def_cfa_offset 8
 860              		.cfi_offset 3, -8
 861              		.cfi_offset 14, -4
 497:/home/pi/Developer/tinyusb/src/device/usbd.c ****   dcd_remote_wakeup(_usbd_rhport);
 862              		.loc 1 497 3 view .LVU150
 863 0004 937D     		ldrb	r3, [r2, #22]	@ zero_extendqisi2
 864 0006 03F0FF00 		and	r0, r3, #255
 865 000a 1BB1     		cbz	r3, .L59
 497:/home/pi/Developer/tinyusb/src/device/usbd.c ****   dcd_remote_wakeup(_usbd_rhport);
 866              		.loc 1 497 3 discriminator 2 view .LVU151
 867 000c D07D     		ldrb	r0, [r2, #23]	@ zero_extendqisi2
 868 000e 10F00200 		ands	r0, r0, #2
 869 0012 00D1     		bne	.L63
 870              	.L59:
 500:/home/pi/Developer/tinyusb/src/device/usbd.c **** 
 871              		.loc 1 500 1 view .LVU152
 872 0014 08BD     		pop	{r3, pc}
 873              	.L63:
 497:/home/pi/Developer/tinyusb/src/device/usbd.c ****   dcd_remote_wakeup(_usbd_rhport);
 874              		.loc 1 497 3 is_stmt 1 discriminator 4 view .LVU153
 498:/home/pi/Developer/tinyusb/src/device/usbd.c ****   return true;
 875              		.loc 1 498 3 discriminator 4 view .LVU154
 876 0016 044B     		ldr	r3, .L64+4
 877 0018 1878     		ldrb	r0, [r3]	@ zero_extendqisi2
 878 001a FFF7FEFF 		bl	dcd_remote_wakeup
 879              	.LVL34:
 499:/home/pi/Developer/tinyusb/src/device/usbd.c **** }
 880              		.loc 1 499 3 discriminator 4 view .LVU155
 499:/home/pi/Developer/tinyusb/src/device/usbd.c **** }
 881              		.loc 1 499 10 is_stmt 0 discriminator 4 view .LVU156
 882 001e 0120     		movs	r0, #1
 500:/home/pi/Developer/tinyusb/src/device/usbd.c **** 
 883              		.loc 1 500 1 discriminator 4 view .LVU157
 884 0020 08BD     		pop	{r3, pc}
 885              	.L65:
 886 0022 00BF     		.align	2
 887              	.L64:
 888 0024 00000000 		.word	.LANCHOR1
 889 0028 00000000 		.word	.LANCHOR3
 890              		.cfi_endproc
 891              	.LFE451:
 893              		.section	.text.tud_disconnect,"ax",%progbits
 894              		.align	1
 895              		.p2align 2,,3
 896              		.global	tud_disconnect
 897              		.syntax unified
 898              		.thumb
 899              		.thumb_func
 900              		.fpu fpv5-d16
 902              	tud_disconnect:
 903              	.LFB452:
 502:/home/pi/Developer/tinyusb/src/device/usbd.c ****   dcd_disconnect(_usbd_rhport);
 904              		.loc 1 502 27 is_stmt 1 view -0
 905              		.cfi_startproc
ARM GAS  /tmp/cci2pXLM.s 			page 44


 906              		@ args = 0, pretend = 0, frame = 0
 907              		@ frame_needed = 0, uses_anonymous_args = 0
 503:/home/pi/Developer/tinyusb/src/device/usbd.c ****   return true;
 908              		.loc 1 503 3 view .LVU159
 502:/home/pi/Developer/tinyusb/src/device/usbd.c ****   dcd_disconnect(_usbd_rhport);
 909              		.loc 1 502 27 is_stmt 0 view .LVU160
 910 0000 08B5     		push	{r3, lr}
 911              		.cfi_def_cfa_offset 8
 912              		.cfi_offset 3, -8
 913              		.cfi_offset 14, -4
 503:/home/pi/Developer/tinyusb/src/device/usbd.c ****   return true;
 914              		.loc 1 503 3 view .LVU161
 915 0002 034B     		ldr	r3, .L68
 916 0004 1878     		ldrb	r0, [r3]	@ zero_extendqisi2
 917 0006 FFF7FEFF 		bl	dcd_disconnect
 918              	.LVL35:
 504:/home/pi/Developer/tinyusb/src/device/usbd.c **** }
 919              		.loc 1 504 3 is_stmt 1 view .LVU162
 505:/home/pi/Developer/tinyusb/src/device/usbd.c **** 
 920              		.loc 1 505 1 is_stmt 0 view .LVU163
 921 000a 0120     		movs	r0, #1
 922 000c 08BD     		pop	{r3, pc}
 923              	.L69:
 924 000e 00BF     		.align	2
 925              	.L68:
 926 0010 00000000 		.word	.LANCHOR3
 927              		.cfi_endproc
 928              	.LFE452:
 930              		.section	.text.tud_connect,"ax",%progbits
 931              		.align	1
 932              		.p2align 2,,3
 933              		.global	tud_connect
 934              		.syntax unified
 935              		.thumb
 936              		.thumb_func
 937              		.fpu fpv5-d16
 939              	tud_connect:
 940              	.LFB453:
 507:/home/pi/Developer/tinyusb/src/device/usbd.c ****   dcd_connect(_usbd_rhport);
 941              		.loc 1 507 24 is_stmt 1 view -0
 942              		.cfi_startproc
 943              		@ args = 0, pretend = 0, frame = 0
 944              		@ frame_needed = 0, uses_anonymous_args = 0
 508:/home/pi/Developer/tinyusb/src/device/usbd.c ****   return true;
 945              		.loc 1 508 3 view .LVU165
 507:/home/pi/Developer/tinyusb/src/device/usbd.c ****   dcd_connect(_usbd_rhport);
 946              		.loc 1 507 24 is_stmt 0 view .LVU166
 947 0000 08B5     		push	{r3, lr}
 948              		.cfi_def_cfa_offset 8
 949              		.cfi_offset 3, -8
 950              		.cfi_offset 14, -4
 508:/home/pi/Developer/tinyusb/src/device/usbd.c ****   return true;
 951              		.loc 1 508 3 view .LVU167
 952 0002 034B     		ldr	r3, .L72
 953 0004 1878     		ldrb	r0, [r3]	@ zero_extendqisi2
 954 0006 FFF7FEFF 		bl	dcd_connect
 955              	.LVL36:
ARM GAS  /tmp/cci2pXLM.s 			page 45


 509:/home/pi/Developer/tinyusb/src/device/usbd.c **** }
 956              		.loc 1 509 3 is_stmt 1 view .LVU168
 510:/home/pi/Developer/tinyusb/src/device/usbd.c **** 
 957              		.loc 1 510 1 is_stmt 0 view .LVU169
 958 000a 0120     		movs	r0, #1
 959 000c 08BD     		pop	{r3, pc}
 960              	.L73:
 961 000e 00BF     		.align	2
 962              	.L72:
 963 0010 00000000 		.word	.LANCHOR3
 964              		.cfi_endproc
 965              	.LFE453:
 967              		.section	.text.tud_sof_cb_enable,"ax",%progbits
 968              		.align	1
 969              		.p2align 2,,3
 970              		.global	tud_sof_cb_enable
 971              		.syntax unified
 972              		.thumb
 973              		.thumb_func
 974              		.fpu fpv5-d16
 976              	tud_sof_cb_enable:
 977              	.LVL37:
 978              	.LFB454:
 512:/home/pi/Developer/tinyusb/src/device/usbd.c ****   usbd_sof_enable(_usbd_rhport, SOF_CONSUMER_USER, en);
 979              		.loc 1 512 33 is_stmt 1 view -0
 980              		.cfi_startproc
 981              		@ args = 0, pretend = 0, frame = 0
 982              		@ frame_needed = 0, uses_anonymous_args = 0
 983              		@ link register save eliminated.
 513:/home/pi/Developer/tinyusb/src/device/usbd.c **** }
 984              		.loc 1 513 3 view .LVU171
 985              	.LBB428:
 986              	.LBB429:
1477:/home/pi/Developer/tinyusb/src/device/usbd.c ****   }
1478:/home/pi/Developer/tinyusb/src/device/usbd.c **** }
1479:/home/pi/Developer/tinyusb/src/device/usbd.c **** 
1480:/home/pi/Developer/tinyusb/src/device/usbd.c **** void usbd_spin_lock(bool in_isr) {
1481:/home/pi/Developer/tinyusb/src/device/usbd.c ****   osal_spin_lock(&_usbd_spin, in_isr);
1482:/home/pi/Developer/tinyusb/src/device/usbd.c **** }
1483:/home/pi/Developer/tinyusb/src/device/usbd.c **** void usbd_spin_unlock(bool in_isr) {
1484:/home/pi/Developer/tinyusb/src/device/usbd.c ****   osal_spin_unlock(&_usbd_spin, in_isr);
1485:/home/pi/Developer/tinyusb/src/device/usbd.c **** }
1486:/home/pi/Developer/tinyusb/src/device/usbd.c **** 
1487:/home/pi/Developer/tinyusb/src/device/usbd.c **** // Parse consecutive endpoint descriptors (IN & OUT)
1488:/home/pi/Developer/tinyusb/src/device/usbd.c **** bool usbd_open_edpt_pair(uint8_t rhport, const uint8_t *p_desc, uint8_t ep_count, uint8_t xfer_type
1489:/home/pi/Developer/tinyusb/src/device/usbd.c ****                          uint8_t *ep_in) {
1490:/home/pi/Developer/tinyusb/src/device/usbd.c ****   for (int i = 0; i < ep_count; i++) {
1491:/home/pi/Developer/tinyusb/src/device/usbd.c ****     const tusb_desc_endpoint_t *desc_ep = (const tusb_desc_endpoint_t *)p_desc;
1492:/home/pi/Developer/tinyusb/src/device/usbd.c **** 
1493:/home/pi/Developer/tinyusb/src/device/usbd.c ****     TU_ASSERT(TUSB_DESC_ENDPOINT == desc_ep->bDescriptorType && xfer_type == desc_ep->bmAttributes.
1494:/home/pi/Developer/tinyusb/src/device/usbd.c ****     TU_ASSERT(usbd_edpt_open(rhport, desc_ep));
1495:/home/pi/Developer/tinyusb/src/device/usbd.c **** 
1496:/home/pi/Developer/tinyusb/src/device/usbd.c ****     if (tu_edpt_dir(desc_ep->bEndpointAddress) == TUSB_DIR_IN) {
1497:/home/pi/Developer/tinyusb/src/device/usbd.c ****       (*ep_in) = desc_ep->bEndpointAddress;
1498:/home/pi/Developer/tinyusb/src/device/usbd.c ****     } else {
1499:/home/pi/Developer/tinyusb/src/device/usbd.c ****       (*ep_out) = desc_ep->bEndpointAddress;
1500:/home/pi/Developer/tinyusb/src/device/usbd.c ****     }
ARM GAS  /tmp/cci2pXLM.s 			page 46


1501:/home/pi/Developer/tinyusb/src/device/usbd.c **** 
1502:/home/pi/Developer/tinyusb/src/device/usbd.c ****     p_desc = tu_desc_next(p_desc);
1503:/home/pi/Developer/tinyusb/src/device/usbd.c ****   }
1504:/home/pi/Developer/tinyusb/src/device/usbd.c **** 
1505:/home/pi/Developer/tinyusb/src/device/usbd.c ****   return true;
1506:/home/pi/Developer/tinyusb/src/device/usbd.c **** }
1507:/home/pi/Developer/tinyusb/src/device/usbd.c **** 
1508:/home/pi/Developer/tinyusb/src/device/usbd.c **** // Helper to defer an isr function
1509:/home/pi/Developer/tinyusb/src/device/usbd.c **** void usbd_defer_func(osal_task_func_t func, void* param, bool in_isr) {
1510:/home/pi/Developer/tinyusb/src/device/usbd.c ****   dcd_event_t event = {
1511:/home/pi/Developer/tinyusb/src/device/usbd.c ****       .rhport   = 0,
1512:/home/pi/Developer/tinyusb/src/device/usbd.c ****       .event_id = USBD_EVENT_FUNC_CALL,
1513:/home/pi/Developer/tinyusb/src/device/usbd.c ****   };
1514:/home/pi/Developer/tinyusb/src/device/usbd.c ****   event.func_call.func  = func;
1515:/home/pi/Developer/tinyusb/src/device/usbd.c ****   event.func_call.param = param;
1516:/home/pi/Developer/tinyusb/src/device/usbd.c **** 
1517:/home/pi/Developer/tinyusb/src/device/usbd.c ****   queue_event(&event, in_isr);
1518:/home/pi/Developer/tinyusb/src/device/usbd.c **** }
1519:/home/pi/Developer/tinyusb/src/device/usbd.c **** 
1520:/home/pi/Developer/tinyusb/src/device/usbd.c **** //--------------------------------------------------------------------+
1521:/home/pi/Developer/tinyusb/src/device/usbd.c **** // USBD Endpoint API
1522:/home/pi/Developer/tinyusb/src/device/usbd.c **** //--------------------------------------------------------------------+
1523:/home/pi/Developer/tinyusb/src/device/usbd.c **** 
1524:/home/pi/Developer/tinyusb/src/device/usbd.c **** bool usbd_edpt_open(uint8_t rhport, tusb_desc_endpoint_t const* desc_ep) {
1525:/home/pi/Developer/tinyusb/src/device/usbd.c ****   rhport = _usbd_rhport;
1526:/home/pi/Developer/tinyusb/src/device/usbd.c **** 
1527:/home/pi/Developer/tinyusb/src/device/usbd.c ****   TU_ASSERT(tu_edpt_number(desc_ep->bEndpointAddress) < CFG_TUD_ENDPPOINT_MAX);
1528:/home/pi/Developer/tinyusb/src/device/usbd.c ****   TU_ASSERT(tu_edpt_validate(desc_ep, (tusb_speed_t)_usbd_dev.speed));
1529:/home/pi/Developer/tinyusb/src/device/usbd.c **** 
1530:/home/pi/Developer/tinyusb/src/device/usbd.c ****   return dcd_edpt_open(rhport, desc_ep);
1531:/home/pi/Developer/tinyusb/src/device/usbd.c **** }
1532:/home/pi/Developer/tinyusb/src/device/usbd.c **** 
1533:/home/pi/Developer/tinyusb/src/device/usbd.c **** bool usbd_edpt_claim(uint8_t rhport, uint8_t ep_addr) {
1534:/home/pi/Developer/tinyusb/src/device/usbd.c ****   (void) rhport;
1535:/home/pi/Developer/tinyusb/src/device/usbd.c **** 
1536:/home/pi/Developer/tinyusb/src/device/usbd.c ****   // TODO add this check later, also make sure we don't starve an out endpoint while suspending
1537:/home/pi/Developer/tinyusb/src/device/usbd.c ****   // TU_VERIFY(tud_ready());
1538:/home/pi/Developer/tinyusb/src/device/usbd.c **** 
1539:/home/pi/Developer/tinyusb/src/device/usbd.c ****   uint8_t const epnum = tu_edpt_number(ep_addr);
1540:/home/pi/Developer/tinyusb/src/device/usbd.c ****   uint8_t const dir = tu_edpt_dir(ep_addr);
1541:/home/pi/Developer/tinyusb/src/device/usbd.c ****   return tu_edpt_claim(&_usbd_dev.ep_status[epnum][dir], _usbd_mutex);
1542:/home/pi/Developer/tinyusb/src/device/usbd.c **** }
1543:/home/pi/Developer/tinyusb/src/device/usbd.c **** 
1544:/home/pi/Developer/tinyusb/src/device/usbd.c **** bool usbd_edpt_release(uint8_t rhport, uint8_t ep_addr) {
1545:/home/pi/Developer/tinyusb/src/device/usbd.c ****   (void) rhport;
1546:/home/pi/Developer/tinyusb/src/device/usbd.c **** 
1547:/home/pi/Developer/tinyusb/src/device/usbd.c ****   uint8_t const epnum = tu_edpt_number(ep_addr);
1548:/home/pi/Developer/tinyusb/src/device/usbd.c ****   uint8_t const dir = tu_edpt_dir(ep_addr);
1549:/home/pi/Developer/tinyusb/src/device/usbd.c ****   return tu_edpt_release(&_usbd_dev.ep_status[epnum][dir], _usbd_mutex);
1550:/home/pi/Developer/tinyusb/src/device/usbd.c **** }
1551:/home/pi/Developer/tinyusb/src/device/usbd.c **** 
1552:/home/pi/Developer/tinyusb/src/device/usbd.c **** bool usbd_edpt_xfer(uint8_t rhport, uint8_t ep_addr, uint8_t* buffer, uint16_t total_bytes, bool is
1553:/home/pi/Developer/tinyusb/src/device/usbd.c ****   rhport = _usbd_rhport;
1554:/home/pi/Developer/tinyusb/src/device/usbd.c **** 
1555:/home/pi/Developer/tinyusb/src/device/usbd.c ****   uint8_t const epnum = tu_edpt_number(ep_addr);
1556:/home/pi/Developer/tinyusb/src/device/usbd.c ****   uint8_t const dir = tu_edpt_dir(ep_addr);
1557:/home/pi/Developer/tinyusb/src/device/usbd.c **** 
ARM GAS  /tmp/cci2pXLM.s 			page 47


1558:/home/pi/Developer/tinyusb/src/device/usbd.c ****   // TODO skip ready() check for now since enumeration also use this API
1559:/home/pi/Developer/tinyusb/src/device/usbd.c ****   // TU_VERIFY(tud_ready());
1560:/home/pi/Developer/tinyusb/src/device/usbd.c **** 
1561:/home/pi/Developer/tinyusb/src/device/usbd.c ****   TU_LOG_USBD("  Queue EP %02X with %u bytes ...\r\n", ep_addr, total_bytes);
1562:/home/pi/Developer/tinyusb/src/device/usbd.c **** #if CFG_TUD_LOG_LEVEL >= 3
1563:/home/pi/Developer/tinyusb/src/device/usbd.c ****   if(dir == TUSB_DIR_IN) {
1564:/home/pi/Developer/tinyusb/src/device/usbd.c ****     TU_LOG_MEM(CFG_TUD_LOG_LEVEL, buffer, total_bytes, 2);
1565:/home/pi/Developer/tinyusb/src/device/usbd.c ****   }
1566:/home/pi/Developer/tinyusb/src/device/usbd.c **** #endif
1567:/home/pi/Developer/tinyusb/src/device/usbd.c **** 
1568:/home/pi/Developer/tinyusb/src/device/usbd.c ****   // Attempt to transfer on a busy endpoint, sound like an race condition !
1569:/home/pi/Developer/tinyusb/src/device/usbd.c ****   TU_ASSERT((_usbd_dev.ep_status[epnum][dir] & TU_EDPT_STATE_BUSY) == 0);
1570:/home/pi/Developer/tinyusb/src/device/usbd.c **** 
1571:/home/pi/Developer/tinyusb/src/device/usbd.c ****   // Set busy first since the actual transfer can be complete before dcd_edpt_xfer()
1572:/home/pi/Developer/tinyusb/src/device/usbd.c ****   // could return and USBD task can preempt and clear the busy
1573:/home/pi/Developer/tinyusb/src/device/usbd.c ****   _usbd_dev.ep_status[epnum][dir] |= TU_EDPT_STATE_BUSY;
1574:/home/pi/Developer/tinyusb/src/device/usbd.c **** 
1575:/home/pi/Developer/tinyusb/src/device/usbd.c ****   if (dcd_edpt_xfer(rhport, ep_addr, buffer, total_bytes, is_isr)) {
1576:/home/pi/Developer/tinyusb/src/device/usbd.c ****     return true;
1577:/home/pi/Developer/tinyusb/src/device/usbd.c ****   } else {
1578:/home/pi/Developer/tinyusb/src/device/usbd.c ****     // DCD error, mark endpoint as ready to allow next transfer
1579:/home/pi/Developer/tinyusb/src/device/usbd.c ****     _usbd_dev.ep_status[epnum][dir] &= (uint8_t) ~(TU_EDPT_STATE_BUSY | TU_EDPT_STATE_CLAIMED);
1580:/home/pi/Developer/tinyusb/src/device/usbd.c ****     TU_LOG_USBD("FAILED\r\n");
1581:/home/pi/Developer/tinyusb/src/device/usbd.c ****     TU_BREAKPOINT();
1582:/home/pi/Developer/tinyusb/src/device/usbd.c ****     return false;
1583:/home/pi/Developer/tinyusb/src/device/usbd.c ****   }
1584:/home/pi/Developer/tinyusb/src/device/usbd.c **** }
1585:/home/pi/Developer/tinyusb/src/device/usbd.c **** 
1586:/home/pi/Developer/tinyusb/src/device/usbd.c **** // The number of bytes has to be given explicitly to allow more flexible control of how many
1587:/home/pi/Developer/tinyusb/src/device/usbd.c **** // bytes should be written and second to keep the return value free to give back a boolean
1588:/home/pi/Developer/tinyusb/src/device/usbd.c **** // success message. If total_bytes is too big, the FIFO will copy only what is available
1589:/home/pi/Developer/tinyusb/src/device/usbd.c **** // into the USB buffer!
1590:/home/pi/Developer/tinyusb/src/device/usbd.c **** bool usbd_edpt_xfer_fifo(uint8_t rhport, uint8_t ep_addr, tu_fifo_t* ff, uint16_t total_bytes, bool
1591:/home/pi/Developer/tinyusb/src/device/usbd.c ****   #if CFG_TUD_EDPT_DEDICATED_HWFIFO
1592:/home/pi/Developer/tinyusb/src/device/usbd.c ****   rhport = _usbd_rhport;
1593:/home/pi/Developer/tinyusb/src/device/usbd.c **** 
1594:/home/pi/Developer/tinyusb/src/device/usbd.c ****   uint8_t const epnum = tu_edpt_number(ep_addr);
1595:/home/pi/Developer/tinyusb/src/device/usbd.c ****   uint8_t const dir = tu_edpt_dir(ep_addr);
1596:/home/pi/Developer/tinyusb/src/device/usbd.c **** 
1597:/home/pi/Developer/tinyusb/src/device/usbd.c ****   TU_LOG_USBD("  Queue FIFO EP %02X with %u bytes ... ", ep_addr, total_bytes);
1598:/home/pi/Developer/tinyusb/src/device/usbd.c **** 
1599:/home/pi/Developer/tinyusb/src/device/usbd.c ****   // Attempt to transfer on a busy endpoint, sound like a race condition !
1600:/home/pi/Developer/tinyusb/src/device/usbd.c ****   TU_ASSERT((_usbd_dev.ep_status[epnum][dir] & TU_EDPT_STATE_BUSY) == 0);
1601:/home/pi/Developer/tinyusb/src/device/usbd.c **** 
1602:/home/pi/Developer/tinyusb/src/device/usbd.c ****   // Set busy first since the actual transfer can be complete before dcd_edpt_xfer() could return
1603:/home/pi/Developer/tinyusb/src/device/usbd.c ****   // and usbd task can preempt and clear the busy
1604:/home/pi/Developer/tinyusb/src/device/usbd.c ****   _usbd_dev.ep_status[epnum][dir] |= TU_EDPT_STATE_BUSY;
1605:/home/pi/Developer/tinyusb/src/device/usbd.c **** 
1606:/home/pi/Developer/tinyusb/src/device/usbd.c ****   if (dcd_edpt_xfer_fifo(rhport, ep_addr, ff, total_bytes, is_isr)) {
1607:/home/pi/Developer/tinyusb/src/device/usbd.c ****     TU_LOG_USBD("OK\r\n");
1608:/home/pi/Developer/tinyusb/src/device/usbd.c ****     return true;
1609:/home/pi/Developer/tinyusb/src/device/usbd.c ****   } else {
1610:/home/pi/Developer/tinyusb/src/device/usbd.c ****     // DCD error, mark endpoint as ready to allow next transfer
1611:/home/pi/Developer/tinyusb/src/device/usbd.c ****     _usbd_dev.ep_status[epnum][dir] &= (uint8_t) ~(TU_EDPT_STATE_BUSY | TU_EDPT_STATE_CLAIMED);
1612:/home/pi/Developer/tinyusb/src/device/usbd.c ****     TU_LOG_USBD("failed\r\n");
1613:/home/pi/Developer/tinyusb/src/device/usbd.c ****     TU_BREAKPOINT();
1614:/home/pi/Developer/tinyusb/src/device/usbd.c ****     return false;
ARM GAS  /tmp/cci2pXLM.s 			page 48


1615:/home/pi/Developer/tinyusb/src/device/usbd.c ****   }
1616:/home/pi/Developer/tinyusb/src/device/usbd.c ****   #else
1617:/home/pi/Developer/tinyusb/src/device/usbd.c ****   (void)rhport;
1618:/home/pi/Developer/tinyusb/src/device/usbd.c ****   (void)ep_addr;
1619:/home/pi/Developer/tinyusb/src/device/usbd.c ****   (void)ff;
1620:/home/pi/Developer/tinyusb/src/device/usbd.c ****   (void)total_bytes;
1621:/home/pi/Developer/tinyusb/src/device/usbd.c ****   (void)is_isr;
1622:/home/pi/Developer/tinyusb/src/device/usbd.c ****   return false;
1623:/home/pi/Developer/tinyusb/src/device/usbd.c ****   #endif
1624:/home/pi/Developer/tinyusb/src/device/usbd.c **** }
1625:/home/pi/Developer/tinyusb/src/device/usbd.c **** 
1626:/home/pi/Developer/tinyusb/src/device/usbd.c **** bool usbd_edpt_busy(uint8_t rhport, uint8_t ep_addr) {
1627:/home/pi/Developer/tinyusb/src/device/usbd.c ****   (void) rhport;
1628:/home/pi/Developer/tinyusb/src/device/usbd.c **** 
1629:/home/pi/Developer/tinyusb/src/device/usbd.c ****   uint8_t const epnum = tu_edpt_number(ep_addr);
1630:/home/pi/Developer/tinyusb/src/device/usbd.c ****   uint8_t const dir = tu_edpt_dir(ep_addr);
1631:/home/pi/Developer/tinyusb/src/device/usbd.c **** 
1632:/home/pi/Developer/tinyusb/src/device/usbd.c ****   return (_usbd_dev.ep_status[epnum][dir] & TU_EDPT_STATE_BUSY) != 0;
1633:/home/pi/Developer/tinyusb/src/device/usbd.c **** }
1634:/home/pi/Developer/tinyusb/src/device/usbd.c **** 
1635:/home/pi/Developer/tinyusb/src/device/usbd.c **** void usbd_edpt_stall(uint8_t rhport, uint8_t ep_addr) {
1636:/home/pi/Developer/tinyusb/src/device/usbd.c ****   rhport = _usbd_rhport;
1637:/home/pi/Developer/tinyusb/src/device/usbd.c **** 
1638:/home/pi/Developer/tinyusb/src/device/usbd.c ****   uint8_t const epnum = tu_edpt_number(ep_addr);
1639:/home/pi/Developer/tinyusb/src/device/usbd.c ****   uint8_t const dir = tu_edpt_dir(ep_addr);
1640:/home/pi/Developer/tinyusb/src/device/usbd.c **** 
1641:/home/pi/Developer/tinyusb/src/device/usbd.c ****   // only stalled if currently cleared
1642:/home/pi/Developer/tinyusb/src/device/usbd.c ****   TU_LOG_USBD("    Stall EP %02X\r\n", ep_addr);
1643:/home/pi/Developer/tinyusb/src/device/usbd.c ****   dcd_edpt_stall(rhport, ep_addr);
1644:/home/pi/Developer/tinyusb/src/device/usbd.c ****   _usbd_dev.ep_status[epnum][dir] |= (TU_EDPT_STATE_STALLED | TU_EDPT_STATE_BUSY);
1645:/home/pi/Developer/tinyusb/src/device/usbd.c **** }
1646:/home/pi/Developer/tinyusb/src/device/usbd.c **** 
1647:/home/pi/Developer/tinyusb/src/device/usbd.c **** void usbd_edpt_clear_stall(uint8_t rhport, uint8_t ep_addr) {
1648:/home/pi/Developer/tinyusb/src/device/usbd.c ****   rhport = _usbd_rhport;
1649:/home/pi/Developer/tinyusb/src/device/usbd.c **** 
1650:/home/pi/Developer/tinyusb/src/device/usbd.c ****   uint8_t const epnum = tu_edpt_number(ep_addr);
1651:/home/pi/Developer/tinyusb/src/device/usbd.c ****   uint8_t const dir = tu_edpt_dir(ep_addr);
1652:/home/pi/Developer/tinyusb/src/device/usbd.c **** 
1653:/home/pi/Developer/tinyusb/src/device/usbd.c ****   // only clear if currently stalled
1654:/home/pi/Developer/tinyusb/src/device/usbd.c ****   TU_LOG_USBD("    Clear Stall EP %02X\r\n", ep_addr);
1655:/home/pi/Developer/tinyusb/src/device/usbd.c ****   dcd_edpt_clear_stall(rhport, ep_addr);
1656:/home/pi/Developer/tinyusb/src/device/usbd.c ****   _usbd_dev.ep_status[epnum][dir] &= (uint8_t) ~(TU_EDPT_STATE_STALLED | TU_EDPT_STATE_BUSY);
1657:/home/pi/Developer/tinyusb/src/device/usbd.c **** }
1658:/home/pi/Developer/tinyusb/src/device/usbd.c **** 
1659:/home/pi/Developer/tinyusb/src/device/usbd.c **** bool usbd_edpt_stalled(uint8_t rhport, uint8_t ep_addr) {
1660:/home/pi/Developer/tinyusb/src/device/usbd.c ****   (void) rhport;
1661:/home/pi/Developer/tinyusb/src/device/usbd.c **** 
1662:/home/pi/Developer/tinyusb/src/device/usbd.c ****   uint8_t const epnum = tu_edpt_number(ep_addr);
1663:/home/pi/Developer/tinyusb/src/device/usbd.c ****   uint8_t const dir = tu_edpt_dir(ep_addr);
1664:/home/pi/Developer/tinyusb/src/device/usbd.c **** 
1665:/home/pi/Developer/tinyusb/src/device/usbd.c ****   return (_usbd_dev.ep_status[epnum][dir] & TU_EDPT_STATE_STALLED) != 0;
1666:/home/pi/Developer/tinyusb/src/device/usbd.c **** }
1667:/home/pi/Developer/tinyusb/src/device/usbd.c **** 
1668:/home/pi/Developer/tinyusb/src/device/usbd.c **** /**
1669:/home/pi/Developer/tinyusb/src/device/usbd.c ****  * usbd_edpt_close will disable an endpoint.
1670:/home/pi/Developer/tinyusb/src/device/usbd.c ****  * In progress transfers on this EP may be delivered after this call.
1671:/home/pi/Developer/tinyusb/src/device/usbd.c ****  */
ARM GAS  /tmp/cci2pXLM.s 			page 49


1672:/home/pi/Developer/tinyusb/src/device/usbd.c **** void usbd_edpt_close(uint8_t rhport, uint8_t ep_addr) {
1673:/home/pi/Developer/tinyusb/src/device/usbd.c **** #ifdef TUP_DCD_EDPT_ISO_ALLOC
1674:/home/pi/Developer/tinyusb/src/device/usbd.c ****   (void) rhport; (void) ep_addr;
1675:/home/pi/Developer/tinyusb/src/device/usbd.c ****   // ISO alloc/activate Should be used instead
1676:/home/pi/Developer/tinyusb/src/device/usbd.c **** #else
1677:/home/pi/Developer/tinyusb/src/device/usbd.c ****   rhport = _usbd_rhport;
1678:/home/pi/Developer/tinyusb/src/device/usbd.c **** 
1679:/home/pi/Developer/tinyusb/src/device/usbd.c ****   TU_LOG_USBD("  CLOSING Endpoint: 0x%02X\r\n", ep_addr);
1680:/home/pi/Developer/tinyusb/src/device/usbd.c **** 
1681:/home/pi/Developer/tinyusb/src/device/usbd.c ****   uint8_t const epnum = tu_edpt_number(ep_addr);
1682:/home/pi/Developer/tinyusb/src/device/usbd.c ****   uint8_t const dir = tu_edpt_dir(ep_addr);
1683:/home/pi/Developer/tinyusb/src/device/usbd.c **** 
1684:/home/pi/Developer/tinyusb/src/device/usbd.c ****   dcd_edpt_close(rhport, ep_addr);
1685:/home/pi/Developer/tinyusb/src/device/usbd.c ****   _usbd_dev.ep_status[epnum][dir] = 0;
1686:/home/pi/Developer/tinyusb/src/device/usbd.c **** #endif
1687:/home/pi/Developer/tinyusb/src/device/usbd.c **** 
1688:/home/pi/Developer/tinyusb/src/device/usbd.c ****   return;
1689:/home/pi/Developer/tinyusb/src/device/usbd.c **** }
1690:/home/pi/Developer/tinyusb/src/device/usbd.c **** 
1691:/home/pi/Developer/tinyusb/src/device/usbd.c **** void usbd_sof_enable(uint8_t rhport, sof_consumer_t consumer, bool en) {
1692:/home/pi/Developer/tinyusb/src/device/usbd.c ****   rhport = _usbd_rhport;
1693:/home/pi/Developer/tinyusb/src/device/usbd.c **** 
1694:/home/pi/Developer/tinyusb/src/device/usbd.c ****   uint8_t consumer_old = _usbd_dev.sof_consumer;
 987              		.loc 1 1694 11 is_stmt 0 view .LVU172
 988 0000 0F49     		ldr	r1, .L79
 989              	.LBE429:
 990              	.LBE428:
 513:/home/pi/Developer/tinyusb/src/device/usbd.c **** }
 991              		.loc 1 513 3 view .LVU173
 992 0002 104A     		ldr	r2, .L79+4
 993              	.LBB433:
 994              	.LBB430:
 995              		.loc 1 1694 11 view .LVU174
 996 0004 8B7E     		ldrb	r3, [r1, #26]	@ zero_extendqisi2
 997              	.LBE430:
 998              	.LBE433:
 513:/home/pi/Developer/tinyusb/src/device/usbd.c **** }
 999              		.loc 1 513 3 view .LVU175
 1000 0006 92F800C0 		ldrb	ip, [r2]	@ zero_extendqisi2
 1001              	.LVL38:
 1002              	.LBB434:
 1003              	.LBI428:
1691:/home/pi/Developer/tinyusb/src/device/usbd.c ****   rhport = _usbd_rhport;
 1004              		.loc 1 1691 6 is_stmt 1 view .LVU176
 1005              	.LBB431:
1692:/home/pi/Developer/tinyusb/src/device/usbd.c **** 
 1006              		.loc 1 1692 3 view .LVU177
 1007              		.loc 1 1694 3 view .LVU178
 1008              		.loc 1 1694 11 is_stmt 0 view .LVU179
 1009 000a DBB2     		uxtb	r3, r3
 1010              	.LVL39:
1695:/home/pi/Developer/tinyusb/src/device/usbd.c ****   // Keep track how many class instances need the SOF interrupt
1696:/home/pi/Developer/tinyusb/src/device/usbd.c ****   if (en) {
 1011              		.loc 1 1696 3 is_stmt 1 view .LVU180
1697:/home/pi/Developer/tinyusb/src/device/usbd.c ****     _usbd_dev.sof_consumer |= (uint8_t)(1 << consumer);
 1012              		.loc 1 1697 28 is_stmt 0 view .LVU181
 1013 000c 8A7E     		ldrb	r2, [r1, #26]	@ zero_extendqisi2
ARM GAS  /tmp/cci2pXLM.s 			page 50


1696:/home/pi/Developer/tinyusb/src/device/usbd.c ****     _usbd_dev.sof_consumer |= (uint8_t)(1 << consumer);
 1014              		.loc 1 1696 6 view .LVU182
 1015 000e 60B1     		cbz	r0, .L75
 1016              		.loc 1 1697 5 is_stmt 1 view .LVU183
 1017              		.loc 1 1697 28 is_stmt 0 view .LVU184
 1018 0010 42F00102 		orr	r2, r2, #1
 1019 0014 8A76     		strb	r2, [r1, #26]
 1020              	.L76:
1698:/home/pi/Developer/tinyusb/src/device/usbd.c ****   } else {
1699:/home/pi/Developer/tinyusb/src/device/usbd.c ****     _usbd_dev.sof_consumer &= (uint8_t)(~(1 << consumer));
1700:/home/pi/Developer/tinyusb/src/device/usbd.c ****   }
1701:/home/pi/Developer/tinyusb/src/device/usbd.c **** 
1702:/home/pi/Developer/tinyusb/src/device/usbd.c ****   // Test logically unequal
1703:/home/pi/Developer/tinyusb/src/device/usbd.c ****   if(!_usbd_dev.sof_consumer != !consumer_old) {
 1021              		.loc 1 1703 3 is_stmt 1 view .LVU185
 1022              		.loc 1 1703 16 is_stmt 0 view .LVU186
 1023 0016 8A7E     		ldrb	r2, [r1, #26]	@ zero_extendqisi2
 1024              		.loc 1 1703 5 view .LVU187
 1025 0018 B3FA83F3 		clz	r3, r3
 1026              	.LVL40:
 1027              		.loc 1 1703 5 view .LVU188
 1028 001c B2FA82F2 		clz	r2, r2
 1029 0020 5B09     		lsrs	r3, r3, #5
 1030 0022 5209     		lsrs	r2, r2, #5
 1031 0024 9A42     		cmp	r2, r3
 1032 0026 04D1     		bne	.L78
 1033              	.LBE431:
 1034              	.LBE434:
 514:/home/pi/Developer/tinyusb/src/device/usbd.c **** 
 1035              		.loc 1 514 1 view .LVU189
 1036 0028 7047     		bx	lr
 1037              	.LVL41:
 1038              	.L75:
 1039              	.LBB435:
 1040              	.LBB432:
1699:/home/pi/Developer/tinyusb/src/device/usbd.c ****   }
 1041              		.loc 1 1699 5 is_stmt 1 view .LVU190
1699:/home/pi/Developer/tinyusb/src/device/usbd.c ****   }
 1042              		.loc 1 1699 28 is_stmt 0 view .LVU191
 1043 002a 02F0FE02 		and	r2, r2, #254
 1044 002e 8A76     		strb	r2, [r1, #26]
 1045 0030 F1E7     		b	.L76
 1046              	.LVL42:
 1047              	.L78:
1704:/home/pi/Developer/tinyusb/src/device/usbd.c ****     dcd_sof_enable(rhport, _usbd_dev.sof_consumer);
 1048              		.loc 1 1704 5 is_stmt 1 view .LVU192
 1049              		.loc 1 1704 37 is_stmt 0 view .LVU193
 1050 0032 897E     		ldrb	r1, [r1, #26]	@ zero_extendqisi2
 1051              		.loc 1 1704 5 view .LVU194
 1052 0034 6046     		mov	r0, ip
 1053              	.LVL43:
 1054              		.loc 1 1704 5 view .LVU195
 1055 0036 0039     		subs	r1, r1, #0
 1056 0038 18BF     		it	ne
 1057 003a 0121     		movne	r1, #1
 1058 003c FFF7FEBF 		b	dcd_sof_enable
 1059              	.LVL44:
ARM GAS  /tmp/cci2pXLM.s 			page 51


 1060              	.L80:
 1061              		.loc 1 1704 5 view .LVU196
 1062              		.align	2
 1063              	.L79:
 1064 0040 00000000 		.word	.LANCHOR1
 1065 0044 00000000 		.word	.LANCHOR3
 1066              	.LBE432:
 1067              	.LBE435:
 1068              		.cfi_endproc
 1069              	.LFE454:
 1071              		.section	.text.tud_inited,"ax",%progbits
 1072              		.align	1
 1073              		.p2align 2,,3
 1074              		.global	tud_inited
 1075              		.syntax unified
 1076              		.thumb
 1077              		.thumb_func
 1078              		.fpu fpv5-d16
 1080              	tud_inited:
 1081              	.LFB455:
 516:/home/pi/Developer/tinyusb/src/device/usbd.c ****   return _usbd_rhport != RHPORT_INVALID;
 1082              		.loc 1 516 23 is_stmt 1 view -0
 1083              		.cfi_startproc
 1084              		@ args = 0, pretend = 0, frame = 0
 1085              		@ frame_needed = 0, uses_anonymous_args = 0
 1086              		@ link register save eliminated.
 517:/home/pi/Developer/tinyusb/src/device/usbd.c **** }
 1087              		.loc 1 517 3 view .LVU198
 517:/home/pi/Developer/tinyusb/src/device/usbd.c **** }
 1088              		.loc 1 517 23 is_stmt 0 view .LVU199
 1089 0000 024B     		ldr	r3, .L82
 1090 0002 1878     		ldrb	r0, [r3]	@ zero_extendqisi2
 518:/home/pi/Developer/tinyusb/src/device/usbd.c **** 
 1091              		.loc 1 518 1 view .LVU200
 1092 0004 FF38     		subs	r0, r0, #255
 1093 0006 18BF     		it	ne
 1094 0008 0120     		movne	r0, #1
 1095 000a 7047     		bx	lr
 1096              	.L83:
 1097              		.align	2
 1098              	.L82:
 1099 000c 00000000 		.word	.LANCHOR3
 1100              		.cfi_endproc
 1101              	.LFE455:
 1103              		.section	.text.tud_configure,"ax",%progbits
 1104              		.align	1
 1105              		.p2align 2,,3
 1106              		.global	tud_configure
 1107              		.syntax unified
 1108              		.thumb
 1109              		.thumb_func
 1110              		.fpu fpv5-d16
 1112              	tud_configure:
 1113              	.LVL45:
 1114              	.LFB456:
 520:/home/pi/Developer/tinyusb/src/device/usbd.c ****   return dcd_configure(rhport, cfg_id, cfg_param);
 1115              		.loc 1 520 76 is_stmt 1 view -0
ARM GAS  /tmp/cci2pXLM.s 			page 52


 1116              		.cfi_startproc
 1117              		@ args = 0, pretend = 0, frame = 0
 1118              		@ frame_needed = 0, uses_anonymous_args = 0
 521:/home/pi/Developer/tinyusb/src/device/usbd.c **** }
 1119              		.loc 1 521 3 view .LVU202
 520:/home/pi/Developer/tinyusb/src/device/usbd.c ****   return dcd_configure(rhport, cfg_id, cfg_param);
 1120              		.loc 1 520 76 is_stmt 0 view .LVU203
 1121 0000 08B5     		push	{r3, lr}
 1122              		.cfi_def_cfa_offset 8
 1123              		.cfi_offset 3, -8
 1124              		.cfi_offset 14, -4
 521:/home/pi/Developer/tinyusb/src/device/usbd.c **** }
 1125              		.loc 1 521 10 view .LVU204
 1126 0002 FFF7FEFF 		bl	dcd_configure
 1127              	.LVL46:
 522:/home/pi/Developer/tinyusb/src/device/usbd.c **** 
 1128              		.loc 1 522 1 view .LVU205
 1129 0006 08BD     		pop	{r3, pc}
 1130              		.cfi_endproc
 1131              	.LFE456:
 1133              		.section	.text.tud_rhport_init,"ax",%progbits
 1134              		.align	1
 1135              		.p2align 2,,3
 1136              		.global	tud_rhport_init
 1137              		.syntax unified
 1138              		.thumb
 1139              		.thumb_func
 1140              		.fpu fpv5-d16
 1142              	tud_rhport_init:
 1143              	.LVL47:
 1144              	.LFB457:
 524:/home/pi/Developer/tinyusb/src/device/usbd.c ****   if (tud_inited()) {
 1145              		.loc 1 524 73 is_stmt 1 view -0
 1146              		.cfi_startproc
 1147              		@ args = 0, pretend = 0, frame = 0
 1148              		@ frame_needed = 0, uses_anonymous_args = 0
 525:/home/pi/Developer/tinyusb/src/device/usbd.c ****     return true; // skip if already initialized
 1149              		.loc 1 525 3 view .LVU207
 1150              	.LBB436:
 1151              	.LBI436:
 516:/home/pi/Developer/tinyusb/src/device/usbd.c ****   return _usbd_rhport != RHPORT_INVALID;
 1152              		.loc 1 516 6 view .LVU208
 1153              	.LBB437:
 517:/home/pi/Developer/tinyusb/src/device/usbd.c **** }
 1154              		.loc 1 517 3 view .LVU209
 1155              	.LBE437:
 1156              	.LBE436:
 524:/home/pi/Developer/tinyusb/src/device/usbd.c ****   if (tud_inited()) {
 1157              		.loc 1 524 73 is_stmt 0 view .LVU210
 1158 0000 2DE9F047 		push	{r4, r5, r6, r7, r8, r9, r10, lr}
 1159              		.cfi_def_cfa_offset 32
 1160              		.cfi_offset 4, -32
 1161              		.cfi_offset 5, -28
 1162              		.cfi_offset 6, -24
 1163              		.cfi_offset 7, -20
 1164              		.cfi_offset 8, -16
 1165              		.cfi_offset 9, -12
ARM GAS  /tmp/cci2pXLM.s 			page 53


 1166              		.cfi_offset 10, -8
 1167              		.cfi_offset 14, -4
 1168              	.LBB439:
 1169              	.LBB438:
 517:/home/pi/Developer/tinyusb/src/device/usbd.c **** }
 1170              		.loc 1 517 23 view .LVU211
 1171 0004 DFF8D880 		ldr	r8, .L121+20
 1172              	.LBE438:
 1173              	.LBE439:
 525:/home/pi/Developer/tinyusb/src/device/usbd.c ****     return true; // skip if already initialized
 1174              		.loc 1 525 6 view .LVU212
 1175 0008 98F80030 		ldrb	r3, [r8]	@ zero_extendqisi2
 1176 000c FF2B     		cmp	r3, #255
 1177 000e 43D1     		bne	.L96
 528:/home/pi/Developer/tinyusb/src/device/usbd.c ****  #if CFG_TUSB_DEBUG >= CFG_TUD_LOG_LEVEL
 1178              		.loc 1 528 3 is_stmt 1 view .LVU213
 528:/home/pi/Developer/tinyusb/src/device/usbd.c ****  #if CFG_TUSB_DEBUG >= CFG_TUD_LOG_LEVEL
 1179              		.loc 1 528 3 view .LVU214
 1180 0010 0C46     		mov	r4, r1
 1181 0012 0029     		cmp	r1, #0
 1182 0014 51D0     		beq	.L120
 528:/home/pi/Developer/tinyusb/src/device/usbd.c ****  #if CFG_TUSB_DEBUG >= CFG_TUD_LOG_LEVEL
 1183              		.loc 1 528 3 discriminator 2 view .LVU215
 554:/home/pi/Developer/tinyusb/src/device/usbd.c ****   _usbd_queued_setup = 0;
 1184              		.loc 1 554 3 discriminator 2 view .LVU216
 1185 0016 0021     		movs	r1, #0
 1186              	.LVL48:
 554:/home/pi/Developer/tinyusb/src/device/usbd.c ****   _usbd_queued_setup = 0;
 1187              		.loc 1 554 3 is_stmt 0 discriminator 2 view .LVU217
 1188 0018 5022     		movs	r2, #80
 1189              	.LBB440:
 1190              	.LBB441:
 1191              		.file 2 "/home/pi/Developer/tinyusb/src/osal/osal_none.h"
   1:/home/pi/Developer/tinyusb/src/osal/osal_none.h **** /*
   2:/home/pi/Developer/tinyusb/src/osal/osal_none.h ****  * The MIT License (MIT)
   3:/home/pi/Developer/tinyusb/src/osal/osal_none.h ****  *
   4:/home/pi/Developer/tinyusb/src/osal/osal_none.h ****  * Copyright (c) 2019 Ha Thach (tinyusb.org)
   5:/home/pi/Developer/tinyusb/src/osal/osal_none.h ****  *
   6:/home/pi/Developer/tinyusb/src/osal/osal_none.h ****  * Permission is hereby granted, free of charge, to any person obtaining a copy
   7:/home/pi/Developer/tinyusb/src/osal/osal_none.h ****  * of this software and associated documentation files (the "Software"), to deal
   8:/home/pi/Developer/tinyusb/src/osal/osal_none.h ****  * in the Software without restriction, including without limitation the rights
   9:/home/pi/Developer/tinyusb/src/osal/osal_none.h ****  * to use, copy, modify, merge, publish, distribute, sublicense, and/or sell
  10:/home/pi/Developer/tinyusb/src/osal/osal_none.h ****  * copies of the Software, and to permit persons to whom the Software is
  11:/home/pi/Developer/tinyusb/src/osal/osal_none.h ****  * furnished to do so, subject to the following conditions:
  12:/home/pi/Developer/tinyusb/src/osal/osal_none.h ****  *
  13:/home/pi/Developer/tinyusb/src/osal/osal_none.h ****  * The above copyright notice and this permission notice shall be included in
  14:/home/pi/Developer/tinyusb/src/osal/osal_none.h ****  * all copies or substantial portions of the Software.
  15:/home/pi/Developer/tinyusb/src/osal/osal_none.h ****  *
  16:/home/pi/Developer/tinyusb/src/osal/osal_none.h ****  * THE SOFTWARE IS PROVIDED "AS IS", WITHOUT WARRANTY OF ANY KIND, EXPRESS OR
  17:/home/pi/Developer/tinyusb/src/osal/osal_none.h ****  * IMPLIED, INCLUDING BUT NOT LIMITED TO THE WARRANTIES OF MERCHANTABILITY,
  18:/home/pi/Developer/tinyusb/src/osal/osal_none.h ****  * FITNESS FOR A PARTICULAR PURPOSE AND NONINFRINGEMENT. IN NO EVENT SHALL THE
  19:/home/pi/Developer/tinyusb/src/osal/osal_none.h ****  * AUTHORS OR COPYRIGHT HOLDERS BE LIABLE FOR ANY CLAIM, DAMAGES OR OTHER
  20:/home/pi/Developer/tinyusb/src/osal/osal_none.h ****  * LIABILITY, WHETHER IN AN ACTION OF CONTRACT, TORT OR OTHERWISE, ARISING FROM,
  21:/home/pi/Developer/tinyusb/src/osal/osal_none.h ****  * OUT OF OR IN CONNECTION WITH THE SOFTWARE OR THE USE OR OTHER DEALINGS IN
  22:/home/pi/Developer/tinyusb/src/osal/osal_none.h ****  * THE SOFTWARE.
  23:/home/pi/Developer/tinyusb/src/osal/osal_none.h ****  *
  24:/home/pi/Developer/tinyusb/src/osal/osal_none.h ****  * This file is part of the TinyUSB stack.
ARM GAS  /tmp/cci2pXLM.s 			page 54


  25:/home/pi/Developer/tinyusb/src/osal/osal_none.h ****  */
  26:/home/pi/Developer/tinyusb/src/osal/osal_none.h **** 
  27:/home/pi/Developer/tinyusb/src/osal/osal_none.h **** #ifndef TUSB_OSAL_NONE_H_
  28:/home/pi/Developer/tinyusb/src/osal/osal_none.h **** #define TUSB_OSAL_NONE_H_
  29:/home/pi/Developer/tinyusb/src/osal/osal_none.h **** 
  30:/home/pi/Developer/tinyusb/src/osal/osal_none.h **** #ifdef __cplusplus
  31:/home/pi/Developer/tinyusb/src/osal/osal_none.h **** extern "C" {
  32:/home/pi/Developer/tinyusb/src/osal/osal_none.h **** #endif
  33:/home/pi/Developer/tinyusb/src/osal/osal_none.h **** 
  34:/home/pi/Developer/tinyusb/src/osal/osal_none.h **** // osal_time_millis() is not provided, tusb_time_millis_api() must be implemented by user applicati
  35:/home/pi/Developer/tinyusb/src/osal/osal_none.h **** 
  36:/home/pi/Developer/tinyusb/src/osal/osal_none.h **** //--------------------------------------------------------------------+
  37:/home/pi/Developer/tinyusb/src/osal/osal_none.h **** // Spinlock API
  38:/home/pi/Developer/tinyusb/src/osal/osal_none.h **** //--------------------------------------------------------------------+
  39:/home/pi/Developer/tinyusb/src/osal/osal_none.h **** // Note: This implementation is designed for bare-metal single-core systems without RTOS.
  40:/home/pi/Developer/tinyusb/src/osal/osal_none.h **** // - Supports nested locking within the same execution context
  41:/home/pi/Developer/tinyusb/src/osal/osal_none.h **** // - NOT suitable for true SMP (Symmetric Multi-Processing) systems
  42:/home/pi/Developer/tinyusb/src/osal/osal_none.h **** // - NOT thread-safe for multi-threaded environments
  43:/home/pi/Developer/tinyusb/src/osal/osal_none.h **** // - Primarily manages interrupt enable/disable state for critical sections
  44:/home/pi/Developer/tinyusb/src/osal/osal_none.h **** typedef struct {
  45:/home/pi/Developer/tinyusb/src/osal/osal_none.h ****   void (* interrupt_set)(bool enabled);
  46:/home/pi/Developer/tinyusb/src/osal/osal_none.h ****   uint32_t nested_count;
  47:/home/pi/Developer/tinyusb/src/osal/osal_none.h **** } osal_spinlock_t;
  48:/home/pi/Developer/tinyusb/src/osal/osal_none.h **** 
  49:/home/pi/Developer/tinyusb/src/osal/osal_none.h **** // For SMP, spinlock must be locked by hardware, cannot just use interrupt
  50:/home/pi/Developer/tinyusb/src/osal/osal_none.h **** #define OSAL_SPINLOCK_DEF(_name, _int_set) \
  51:/home/pi/Developer/tinyusb/src/osal/osal_none.h ****   osal_spinlock_t _name = { .interrupt_set = _int_set, .nested_count = 0 }
  52:/home/pi/Developer/tinyusb/src/osal/osal_none.h **** 
  53:/home/pi/Developer/tinyusb/src/osal/osal_none.h **** TU_ATTR_ALWAYS_INLINE static inline void osal_spin_init(osal_spinlock_t *ctx) {
  54:/home/pi/Developer/tinyusb/src/osal/osal_none.h ****   (void) ctx;
  55:/home/pi/Developer/tinyusb/src/osal/osal_none.h **** }
  56:/home/pi/Developer/tinyusb/src/osal/osal_none.h **** 
  57:/home/pi/Developer/tinyusb/src/osal/osal_none.h **** TU_ATTR_ALWAYS_INLINE static inline void osal_spin_lock(osal_spinlock_t *ctx, bool in_isr) {
  58:/home/pi/Developer/tinyusb/src/osal/osal_none.h ****   // Disable interrupts first to make nested_count increment atomic
  59:/home/pi/Developer/tinyusb/src/osal/osal_none.h ****   if (!in_isr && ctx->nested_count == 0) {
  60:/home/pi/Developer/tinyusb/src/osal/osal_none.h ****     ctx->interrupt_set(false);
  61:/home/pi/Developer/tinyusb/src/osal/osal_none.h ****   }
  62:/home/pi/Developer/tinyusb/src/osal/osal_none.h ****   ctx->nested_count++;
  63:/home/pi/Developer/tinyusb/src/osal/osal_none.h **** }
  64:/home/pi/Developer/tinyusb/src/osal/osal_none.h **** 
  65:/home/pi/Developer/tinyusb/src/osal/osal_none.h **** TU_ATTR_ALWAYS_INLINE static inline void osal_spin_unlock(osal_spinlock_t *ctx, bool in_isr) {
  66:/home/pi/Developer/tinyusb/src/osal/osal_none.h ****   if (ctx->nested_count == 0) {
  67:/home/pi/Developer/tinyusb/src/osal/osal_none.h ****     return; // spin is not locked to begin with
  68:/home/pi/Developer/tinyusb/src/osal/osal_none.h ****   }
  69:/home/pi/Developer/tinyusb/src/osal/osal_none.h **** 
  70:/home/pi/Developer/tinyusb/src/osal/osal_none.h ****   ctx->nested_count--;
  71:/home/pi/Developer/tinyusb/src/osal/osal_none.h **** 
  72:/home/pi/Developer/tinyusb/src/osal/osal_none.h ****   // Only re-enable interrupts when fully unlocked
  73:/home/pi/Developer/tinyusb/src/osal/osal_none.h ****   if (!in_isr && ctx->nested_count == 0) {
  74:/home/pi/Developer/tinyusb/src/osal/osal_none.h ****     ctx->interrupt_set(true);
  75:/home/pi/Developer/tinyusb/src/osal/osal_none.h ****   }
  76:/home/pi/Developer/tinyusb/src/osal/osal_none.h **** }
  77:/home/pi/Developer/tinyusb/src/osal/osal_none.h **** 
  78:/home/pi/Developer/tinyusb/src/osal/osal_none.h **** //--------------------------------------------------------------------+
  79:/home/pi/Developer/tinyusb/src/osal/osal_none.h **** // Binary Semaphore API
  80:/home/pi/Developer/tinyusb/src/osal/osal_none.h **** //--------------------------------------------------------------------+
  81:/home/pi/Developer/tinyusb/src/osal/osal_none.h **** typedef struct {
ARM GAS  /tmp/cci2pXLM.s 			page 55


  82:/home/pi/Developer/tinyusb/src/osal/osal_none.h ****   volatile uint16_t count;
  83:/home/pi/Developer/tinyusb/src/osal/osal_none.h **** } osal_semaphore_def_t;
  84:/home/pi/Developer/tinyusb/src/osal/osal_none.h **** 
  85:/home/pi/Developer/tinyusb/src/osal/osal_none.h **** typedef osal_semaphore_def_t* osal_semaphore_t;
  86:/home/pi/Developer/tinyusb/src/osal/osal_none.h **** 
  87:/home/pi/Developer/tinyusb/src/osal/osal_none.h **** TU_ATTR_ALWAYS_INLINE static inline osal_semaphore_t osal_semaphore_create(osal_semaphore_def_t* se
  88:/home/pi/Developer/tinyusb/src/osal/osal_none.h ****   semdef->count = 0;
  89:/home/pi/Developer/tinyusb/src/osal/osal_none.h ****   return semdef;
  90:/home/pi/Developer/tinyusb/src/osal/osal_none.h **** }
  91:/home/pi/Developer/tinyusb/src/osal/osal_none.h **** 
  92:/home/pi/Developer/tinyusb/src/osal/osal_none.h **** TU_ATTR_ALWAYS_INLINE static inline bool osal_semaphore_delete(osal_semaphore_t semd_hdl) {
  93:/home/pi/Developer/tinyusb/src/osal/osal_none.h ****   (void) semd_hdl;
  94:/home/pi/Developer/tinyusb/src/osal/osal_none.h ****   return true; // nothing to do
  95:/home/pi/Developer/tinyusb/src/osal/osal_none.h **** }
  96:/home/pi/Developer/tinyusb/src/osal/osal_none.h **** 
  97:/home/pi/Developer/tinyusb/src/osal/osal_none.h **** 
  98:/home/pi/Developer/tinyusb/src/osal/osal_none.h **** TU_ATTR_ALWAYS_INLINE static inline bool osal_semaphore_post(osal_semaphore_t sem_hdl, bool in_isr)
  99:/home/pi/Developer/tinyusb/src/osal/osal_none.h ****   (void) in_isr;
 100:/home/pi/Developer/tinyusb/src/osal/osal_none.h ****   sem_hdl->count++;
 101:/home/pi/Developer/tinyusb/src/osal/osal_none.h ****   return true;
 102:/home/pi/Developer/tinyusb/src/osal/osal_none.h **** }
 103:/home/pi/Developer/tinyusb/src/osal/osal_none.h **** 
 104:/home/pi/Developer/tinyusb/src/osal/osal_none.h **** // TODO blocking for now
 105:/home/pi/Developer/tinyusb/src/osal/osal_none.h **** TU_ATTR_ALWAYS_INLINE static inline bool osal_semaphore_wait(osal_semaphore_t sem_hdl, uint32_t mse
 106:/home/pi/Developer/tinyusb/src/osal/osal_none.h ****   (void) msec;
 107:/home/pi/Developer/tinyusb/src/osal/osal_none.h **** 
 108:/home/pi/Developer/tinyusb/src/osal/osal_none.h ****   while (sem_hdl->count == 0) {}
 109:/home/pi/Developer/tinyusb/src/osal/osal_none.h ****   sem_hdl->count--;
 110:/home/pi/Developer/tinyusb/src/osal/osal_none.h **** 
 111:/home/pi/Developer/tinyusb/src/osal/osal_none.h ****   return true;
 112:/home/pi/Developer/tinyusb/src/osal/osal_none.h **** }
 113:/home/pi/Developer/tinyusb/src/osal/osal_none.h **** 
 114:/home/pi/Developer/tinyusb/src/osal/osal_none.h **** TU_ATTR_ALWAYS_INLINE static inline void osal_semaphore_reset(osal_semaphore_t sem_hdl) {
 115:/home/pi/Developer/tinyusb/src/osal/osal_none.h ****   sem_hdl->count = 0;
 116:/home/pi/Developer/tinyusb/src/osal/osal_none.h **** }
 117:/home/pi/Developer/tinyusb/src/osal/osal_none.h **** 
 118:/home/pi/Developer/tinyusb/src/osal/osal_none.h **** //--------------------------------------------------------------------+
 119:/home/pi/Developer/tinyusb/src/osal/osal_none.h **** // MUTEX API
 120:/home/pi/Developer/tinyusb/src/osal/osal_none.h **** // Within tinyusb, mutex is never used in ISR context
 121:/home/pi/Developer/tinyusb/src/osal/osal_none.h **** //--------------------------------------------------------------------+
 122:/home/pi/Developer/tinyusb/src/osal/osal_none.h **** typedef osal_semaphore_def_t osal_mutex_def_t;
 123:/home/pi/Developer/tinyusb/src/osal/osal_none.h **** typedef osal_semaphore_t osal_mutex_t;
 124:/home/pi/Developer/tinyusb/src/osal/osal_none.h **** 
 125:/home/pi/Developer/tinyusb/src/osal/osal_none.h **** #if OSAL_MUTEX_REQUIRED
 126:/home/pi/Developer/tinyusb/src/osal/osal_none.h **** // Note: multiple cores MCUs usually do provide IPC API for mutex
 127:/home/pi/Developer/tinyusb/src/osal/osal_none.h **** // or we can use std atomic function
 128:/home/pi/Developer/tinyusb/src/osal/osal_none.h **** 
 129:/home/pi/Developer/tinyusb/src/osal/osal_none.h **** TU_ATTR_ALWAYS_INLINE static inline osal_mutex_t osal_mutex_create(osal_mutex_def_t* mdef) {
 130:/home/pi/Developer/tinyusb/src/osal/osal_none.h ****   mdef->count = 1;
 131:/home/pi/Developer/tinyusb/src/osal/osal_none.h ****   return mdef;
 132:/home/pi/Developer/tinyusb/src/osal/osal_none.h **** }
 133:/home/pi/Developer/tinyusb/src/osal/osal_none.h **** 
 134:/home/pi/Developer/tinyusb/src/osal/osal_none.h **** TU_ATTR_ALWAYS_INLINE static inline bool osal_mutex_delete(osal_mutex_t mutex_hdl) {
 135:/home/pi/Developer/tinyusb/src/osal/osal_none.h ****   (void) mutex_hdl;
 136:/home/pi/Developer/tinyusb/src/osal/osal_none.h ****   return true; // nothing to do
 137:/home/pi/Developer/tinyusb/src/osal/osal_none.h **** }
 138:/home/pi/Developer/tinyusb/src/osal/osal_none.h **** 
ARM GAS  /tmp/cci2pXLM.s 			page 56


 139:/home/pi/Developer/tinyusb/src/osal/osal_none.h **** TU_ATTR_ALWAYS_INLINE static inline bool osal_mutex_lock (osal_mutex_t mutex_hdl, uint32_t msec) {
 140:/home/pi/Developer/tinyusb/src/osal/osal_none.h ****   return osal_semaphore_wait(mutex_hdl, msec);
 141:/home/pi/Developer/tinyusb/src/osal/osal_none.h **** }
 142:/home/pi/Developer/tinyusb/src/osal/osal_none.h **** 
 143:/home/pi/Developer/tinyusb/src/osal/osal_none.h **** TU_ATTR_ALWAYS_INLINE static inline bool osal_mutex_unlock(osal_mutex_t mutex_hdl) {
 144:/home/pi/Developer/tinyusb/src/osal/osal_none.h ****   return osal_semaphore_post(mutex_hdl, false);
 145:/home/pi/Developer/tinyusb/src/osal/osal_none.h **** }
 146:/home/pi/Developer/tinyusb/src/osal/osal_none.h **** 
 147:/home/pi/Developer/tinyusb/src/osal/osal_none.h **** #else
 148:/home/pi/Developer/tinyusb/src/osal/osal_none.h **** 
 149:/home/pi/Developer/tinyusb/src/osal/osal_none.h **** #define osal_mutex_create(_mdef)          (NULL)
 150:/home/pi/Developer/tinyusb/src/osal/osal_none.h **** #define osal_mutex_lock(_mutex_hdl, _ms)  (true)
 151:/home/pi/Developer/tinyusb/src/osal/osal_none.h **** #define osal_mutex_unlock(_mutex_hdl)     (true)
 152:/home/pi/Developer/tinyusb/src/osal/osal_none.h **** 
 153:/home/pi/Developer/tinyusb/src/osal/osal_none.h **** #endif
 154:/home/pi/Developer/tinyusb/src/osal/osal_none.h **** 
 155:/home/pi/Developer/tinyusb/src/osal/osal_none.h **** //--------------------------------------------------------------------+
 156:/home/pi/Developer/tinyusb/src/osal/osal_none.h **** // QUEUE API
 157:/home/pi/Developer/tinyusb/src/osal/osal_none.h **** //--------------------------------------------------------------------+
 158:/home/pi/Developer/tinyusb/src/osal/osal_none.h **** #include "common/tusb_fifo.h"
 159:/home/pi/Developer/tinyusb/src/osal/osal_none.h **** 
 160:/home/pi/Developer/tinyusb/src/osal/osal_none.h **** typedef struct {
 161:/home/pi/Developer/tinyusb/src/osal/osal_none.h ****   void (* interrupt_set)(bool enabled);
 162:/home/pi/Developer/tinyusb/src/osal/osal_none.h ****   uint16_t  item_size;
 163:/home/pi/Developer/tinyusb/src/osal/osal_none.h ****   tu_fifo_t ff;
 164:/home/pi/Developer/tinyusb/src/osal/osal_none.h **** } osal_queue_def_t;
 165:/home/pi/Developer/tinyusb/src/osal/osal_none.h **** 
 166:/home/pi/Developer/tinyusb/src/osal/osal_none.h **** typedef osal_queue_def_t* osal_queue_t;
 167:/home/pi/Developer/tinyusb/src/osal/osal_none.h **** 
 168:/home/pi/Developer/tinyusb/src/osal/osal_none.h **** // _int_set is used as mutex in OS NONE (disable/enable USB ISR)
 169:/home/pi/Developer/tinyusb/src/osal/osal_none.h **** #define OSAL_QUEUE_DEF(_int_set, _name, _depth, _type)                                             
 170:/home/pi/Developer/tinyusb/src/osal/osal_none.h ****   uint8_t          _name##_buf[_depth * sizeof(_type)];                                            
 171:/home/pi/Developer/tinyusb/src/osal/osal_none.h ****   osal_queue_def_t _name = {.interrupt_set = _int_set,                                             
 172:/home/pi/Developer/tinyusb/src/osal/osal_none.h ****                             .item_size     = sizeof(_type),                                        
 173:/home/pi/Developer/tinyusb/src/osal/osal_none.h ****                             .ff            = TU_FIFO_INIT(_name##_buf, _depth * sizeof(_type), fals
 174:/home/pi/Developer/tinyusb/src/osal/osal_none.h **** 
 175:/home/pi/Developer/tinyusb/src/osal/osal_none.h **** TU_ATTR_ALWAYS_INLINE static inline osal_queue_t osal_queue_create(osal_queue_def_t* qdef) {
 176:/home/pi/Developer/tinyusb/src/osal/osal_none.h ****   tu_fifo_clear(&qdef->ff);
 1192              		.loc 2 176 3 discriminator 2 view .LVU218
 1193 001a 2C4D     		ldr	r5, .L121
 1194 001c 0646     		mov	r6, r0
 1195              	.LBE441:
 1196              	.LBE440:
 554:/home/pi/Developer/tinyusb/src/device/usbd.c ****   _usbd_queued_setup = 0;
 1197              		.loc 1 554 3 discriminator 2 view .LVU219
 1198 001e 2C48     		ldr	r0, .L121+4
 1199              	.LVL49:
 555:/home/pi/Developer/tinyusb/src/device/usbd.c **** 
 1200              		.loc 1 555 22 discriminator 2 view .LVU220
 1201 0020 4FF0000A 		mov	r10, #0
 554:/home/pi/Developer/tinyusb/src/device/usbd.c ****   _usbd_queued_setup = 0;
 1202              		.loc 1 554 3 discriminator 2 view .LVU221
 1203 0024 FFF7FEFF 		bl	memset
 1204              	.LVL50:
 555:/home/pi/Developer/tinyusb/src/device/usbd.c **** 
 1205              		.loc 1 555 3 is_stmt 1 discriminator 2 view .LVU222
 555:/home/pi/Developer/tinyusb/src/device/usbd.c **** 
ARM GAS  /tmp/cci2pXLM.s 			page 57


 1206              		.loc 1 555 22 is_stmt 0 discriminator 2 view .LVU223
 1207 0028 2A4B     		ldr	r3, .L121+8
 1208              	.LBB444:
 1209              	.LBB442:
 1210              		.loc 2 176 3 discriminator 2 view .LVU224
 1211 002a 05F10800 		add	r0, r5, #8
 1212              	.LBE442:
 1213              	.LBE444:
 570:/home/pi/Developer/tinyusb/src/device/usbd.c ****   TU_ASSERT(_app_driver_count + BUILTIN_DRIVER_COUNT <= UINT8_MAX);
 1214              		.loc 1 570 17 discriminator 2 view .LVU225
 1215 002e 2A4F     		ldr	r7, .L121+12
 555:/home/pi/Developer/tinyusb/src/device/usbd.c **** 
 1216              		.loc 1 555 22 discriminator 2 view .LVU226
 1217 0030 83F800A0 		strb	r10, [r3]
 557:/home/pi/Developer/tinyusb/src/device/usbd.c **** 
 1218              		.loc 1 557 3 is_stmt 1 discriminator 2 view .LVU227
 1219              	.LVL51:
  54:/home/pi/Developer/tinyusb/src/osal/osal_none.h **** }
 1220              		.loc 2 54 3 discriminator 2 view .LVU228
 566:/home/pi/Developer/tinyusb/src/device/usbd.c ****   TU_ASSERT(_usbd_q);
 1221              		.loc 1 566 3 discriminator 2 view .LVU229
 1222              	.LBB445:
 1223              	.LBI440:
 175:/home/pi/Developer/tinyusb/src/osal/osal_none.h ****   tu_fifo_clear(&qdef->ff);
 1224              		.loc 2 175 50 discriminator 2 view .LVU230
 1225              	.LBB443:
 1226              		.loc 2 176 3 discriminator 2 view .LVU231
 1227 0034 FFF7FEFF 		bl	tu_fifo_clear
 1228              	.LVL52:
 177:/home/pi/Developer/tinyusb/src/osal/osal_none.h ****   return (osal_queue_t) qdef;
 1229              		.loc 2 177 3 discriminator 2 view .LVU232
 1230              		.loc 2 177 3 is_stmt 0 discriminator 2 view .LVU233
 1231              	.LBE443:
 1232              	.LBE445:
 566:/home/pi/Developer/tinyusb/src/device/usbd.c ****   TU_ASSERT(_usbd_q);
 1233              		.loc 1 566 11 discriminator 2 view .LVU234
 1234 0038 284B     		ldr	r3, .L121+16
 570:/home/pi/Developer/tinyusb/src/device/usbd.c ****   TU_ASSERT(_app_driver_count + BUILTIN_DRIVER_COUNT <= UINT8_MAX);
 1235              		.loc 1 570 17 discriminator 2 view .LVU235
 1236 003a 3846     		mov	r0, r7
 570:/home/pi/Developer/tinyusb/src/device/usbd.c ****   TU_ASSERT(_app_driver_count + BUILTIN_DRIVER_COUNT <= UINT8_MAX);
 1237              		.loc 1 570 15 discriminator 2 view .LVU236
 1238 003c DFF8A490 		ldr	r9, .L121+24
 566:/home/pi/Developer/tinyusb/src/device/usbd.c ****   TU_ASSERT(_usbd_q);
 1239              		.loc 1 566 11 discriminator 2 view .LVU237
 1240 0040 1D60     		str	r5, [r3]
 567:/home/pi/Developer/tinyusb/src/device/usbd.c **** 
 1241              		.loc 1 567 3 is_stmt 1 discriminator 2 view .LVU238
 567:/home/pi/Developer/tinyusb/src/device/usbd.c **** 
 1242              		.loc 1 567 3 discriminator 2 view .LVU239
 567:/home/pi/Developer/tinyusb/src/device/usbd.c **** 
 1243              		.loc 1 567 3 discriminator 2 view .LVU240
 570:/home/pi/Developer/tinyusb/src/device/usbd.c ****   TU_ASSERT(_app_driver_count + BUILTIN_DRIVER_COUNT <= UINT8_MAX);
 1244              		.loc 1 570 3 discriminator 2 view .LVU241
 570:/home/pi/Developer/tinyusb/src/device/usbd.c ****   TU_ASSERT(_app_driver_count + BUILTIN_DRIVER_COUNT <= UINT8_MAX);
 1245              		.loc 1 570 17 is_stmt 0 discriminator 2 view .LVU242
 1246 0042 FFF7FEFF 		bl	usbd_app_driver_get_cb
ARM GAS  /tmp/cci2pXLM.s 			page 58


 1247              	.LVL53:
 571:/home/pi/Developer/tinyusb/src/device/usbd.c **** 
 1248              		.loc 1 571 3 discriminator 2 view .LVU243
 1249 0046 3978     		ldrb	r1, [r7]	@ zero_extendqisi2
 570:/home/pi/Developer/tinyusb/src/device/usbd.c ****   TU_ASSERT(_app_driver_count + BUILTIN_DRIVER_COUNT <= UINT8_MAX);
 1250              		.loc 1 570 15 discriminator 2 view .LVU244
 1251 0048 C9F80000 		str	r0, [r9]
 571:/home/pi/Developer/tinyusb/src/device/usbd.c **** 
 1252              		.loc 1 571 3 is_stmt 1 discriminator 2 view .LVU245
 571:/home/pi/Developer/tinyusb/src/device/usbd.c **** 
 1253              		.loc 1 571 3 discriminator 2 view .LVU246
 1254 004c FF29     		cmp	r1, #255
 1255 004e 29D0     		beq	.L93
 1256 0050 5546     		mov	r5, r10
 1257              	.LBB446:
 1258              	.LBB447:
 1259              	.LBB448:
 1260              	.LBB449:
 1261 0052 DFF894A0 		ldr	r10, .L121+28
 1262 0056 2B46     		mov	r3, r5
 1263              	.L90:
 1264              	.LVL54:
 571:/home/pi/Developer/tinyusb/src/device/usbd.c **** 
 1265              		.loc 1 571 3 is_stmt 0 discriminator 2 view .LVU247
 1266              	.LBE449:
 1267              	.LBE448:
 575:/home/pi/Developer/tinyusb/src/device/usbd.c ****     TU_ASSERT(driver && driver->init);
 1268              		.loc 1 575 5 is_stmt 1 view .LVU248
 1269              	.LBB454:
 1270              	.LBI448:
 379:/home/pi/Developer/tinyusb/src/device/usbd.c ****   usbd_class_driver_t const *driver = NULL;
 1271              		.loc 1 379 65 view .LVU249
 1272              	.LBB450:
 380:/home/pi/Developer/tinyusb/src/device/usbd.c ****   if (drvid < _app_driver_count) {
 1273              		.loc 1 380 3 view .LVU250
 381:/home/pi/Developer/tinyusb/src/device/usbd.c ****     // Application drivers
 1274              		.loc 1 381 3 view .LVU251
 383:/home/pi/Developer/tinyusb/src/device/usbd.c ****   } else{
 1275              		.loc 1 383 5 view .LVU252
 385:/home/pi/Developer/tinyusb/src/device/usbd.c ****     if (drvid < BUILTIN_DRIVER_COUNT) {
 1276              		.loc 1 385 5 view .LVU253
 386:/home/pi/Developer/tinyusb/src/device/usbd.c ****       driver = &_usbd_driver[drvid];
 1277              		.loc 1 386 5 view .LVU254
 386:/home/pi/Developer/tinyusb/src/device/usbd.c ****       driver = &_usbd_driver[drvid];
 1278              		.loc 1 386 5 is_stmt 0 view .LVU255
 1279              	.LBE450:
 1280              	.LBE454:
 576:/home/pi/Developer/tinyusb/src/device/usbd.c ****     TU_LOG_USBD("%s init\r\n", driver->name);
 1281              		.loc 1 576 5 is_stmt 1 view .LVU256
 577:/home/pi/Developer/tinyusb/src/device/usbd.c ****     driver->init();
 1282              		.loc 1 577 45 view .LVU257
 578:/home/pi/Developer/tinyusb/src/device/usbd.c ****   }
 1283              		.loc 1 578 5 view .LVU258
 1284              	.LBB455:
 1285              	.LBB451:
 381:/home/pi/Developer/tinyusb/src/device/usbd.c ****     // Application drivers
 1286              		.loc 1 381 6 is_stmt 0 view .LVU259
ARM GAS  /tmp/cci2pXLM.s 			page 59


 1287 0058 9942     		cmp	r1, r3
 1288              	.LBE451:
 1289              	.LBE455:
 1290              	.LBE447:
 574:/home/pi/Developer/tinyusb/src/device/usbd.c ****     usbd_class_driver_t const* driver = get_driver(i);
 1291              		.loc 1 574 3 view .LVU260
 1292 005a 05F10105 		add	r5, r5, #1
 1293              	.LBB459:
 1294              	.LBB456:
 1295              	.LBB452:
 383:/home/pi/Developer/tinyusb/src/device/usbd.c ****   } else{
 1296              		.loc 1 383 26 view .LVU261
 1297 005e 03EBC302 		add	r2, r3, r3, lsl #3
 381:/home/pi/Developer/tinyusb/src/device/usbd.c ****     // Application drivers
 1298              		.loc 1 381 6 view .LVU262
 1299 0062 1DD9     		bls	.L92
 383:/home/pi/Developer/tinyusb/src/device/usbd.c ****   } else{
 1300              		.loc 1 383 12 view .LVU263
 1301 0064 D9F80030 		ldr	r3, [r9]
 1302              	.LVL55:
 391:/home/pi/Developer/tinyusb/src/device/usbd.c **** }
 1303              		.loc 1 391 3 is_stmt 1 view .LVU264
 391:/home/pi/Developer/tinyusb/src/device/usbd.c **** }
 1304              		.loc 1 391 3 is_stmt 0 view .LVU265
 1305              	.LBE452:
 1306              	.LBE456:
 576:/home/pi/Developer/tinyusb/src/device/usbd.c ****     TU_LOG_USBD("%s init\r\n", driver->name);
 1307              		.loc 1 576 5 is_stmt 1 view .LVU266
 576:/home/pi/Developer/tinyusb/src/device/usbd.c ****     TU_LOG_USBD("%s init\r\n", driver->name);
 1308              		.loc 1 576 5 view .LVU267
 1309 0068 13EB8203 		adds	r3, r3, r2, lsl #2
 1310              	.LVL56:
 576:/home/pi/Developer/tinyusb/src/device/usbd.c ****     TU_LOG_USBD("%s init\r\n", driver->name);
 1311              		.loc 1 576 5 is_stmt 0 view .LVU268
 1312 006c 1AD0     		beq	.L93
 1313 006e 5B68     		ldr	r3, [r3, #4]
 1314              	.LVL57:
 576:/home/pi/Developer/tinyusb/src/device/usbd.c ****     TU_LOG_USBD("%s init\r\n", driver->name);
 1315              		.loc 1 576 5 view .LVU269
 1316 0070 C3B1     		cbz	r3, .L93
 1317              	.L94:
 578:/home/pi/Developer/tinyusb/src/device/usbd.c ****   }
 1318              		.loc 1 578 5 discriminator 4 view .LVU270
 1319 0072 9847     		blx	r3
 1320              	.LVL58:
 1321              	.LBE459:
 574:/home/pi/Developer/tinyusb/src/device/usbd.c ****     usbd_class_driver_t const* driver = get_driver(i);
 1322              		.loc 1 574 47 is_stmt 1 discriminator 4 view .LVU271
 574:/home/pi/Developer/tinyusb/src/device/usbd.c ****     usbd_class_driver_t const* driver = get_driver(i);
 1323              		.loc 1 574 23 discriminator 4 view .LVU272
 574:/home/pi/Developer/tinyusb/src/device/usbd.c ****     usbd_class_driver_t const* driver = get_driver(i);
 1324              		.loc 1 574 27 is_stmt 0 discriminator 4 view .LVU273
 1325 0074 3978     		ldrb	r1, [r7]	@ zero_extendqisi2
 574:/home/pi/Developer/tinyusb/src/device/usbd.c ****     usbd_class_driver_t const* driver = get_driver(i);
 1326              		.loc 1 574 3 discriminator 4 view .LVU274
 1327 0076 EBB2     		uxtb	r3, r5
 574:/home/pi/Developer/tinyusb/src/device/usbd.c ****     usbd_class_driver_t const* driver = get_driver(i);
ARM GAS  /tmp/cci2pXLM.s 			page 60


 1328              		.loc 1 574 27 discriminator 4 view .LVU275
 1329 0078 4A1C     		adds	r2, r1, #1
 574:/home/pi/Developer/tinyusb/src/device/usbd.c ****     usbd_class_driver_t const* driver = get_driver(i);
 1330              		.loc 1 574 3 discriminator 4 view .LVU276
 1331 007a D2B2     		uxtb	r2, r2
 1332 007c 9342     		cmp	r3, r2
 1333 007e EBD3     		bcc	.L90
 1334              	.LBE446:
 581:/home/pi/Developer/tinyusb/src/device/usbd.c **** 
 1335              		.loc 1 581 3 is_stmt 1 view .LVU277
 584:/home/pi/Developer/tinyusb/src/device/usbd.c ****   dcd_int_enable(rhport);
 1336              		.loc 1 584 3 is_stmt 0 view .LVU278
 1337 0080 2146     		mov	r1, r4
 1338 0082 3046     		mov	r0, r6
 581:/home/pi/Developer/tinyusb/src/device/usbd.c **** 
 1339              		.loc 1 581 16 view .LVU279
 1340 0084 88F80060 		strb	r6, [r8]
 584:/home/pi/Developer/tinyusb/src/device/usbd.c ****   dcd_int_enable(rhport);
 1341              		.loc 1 584 3 is_stmt 1 view .LVU280
 584:/home/pi/Developer/tinyusb/src/device/usbd.c ****   dcd_int_enable(rhport);
 1342              		.loc 1 584 3 view .LVU281
 1343 0088 FFF7FEFF 		bl	dcd_init
 1344              	.LVL59:
 1345 008c 0446     		mov	r4, r0
 1346              	.LVL60:
 584:/home/pi/Developer/tinyusb/src/device/usbd.c ****   dcd_int_enable(rhport);
 1347              		.loc 1 584 3 is_stmt 0 view .LVU282
 1348 008e A0B1     		cbz	r0, .L120
 584:/home/pi/Developer/tinyusb/src/device/usbd.c ****   dcd_int_enable(rhport);
 1349              		.loc 1 584 3 is_stmt 1 discriminator 2 view .LVU283
 585:/home/pi/Developer/tinyusb/src/device/usbd.c **** 
 1350              		.loc 1 585 3 discriminator 2 view .LVU284
 1351 0090 3046     		mov	r0, r6
 1352 0092 FFF7FEFF 		bl	dcd_int_enable
 1353              	.LVL61:
 587:/home/pi/Developer/tinyusb/src/device/usbd.c **** }
 1354              		.loc 1 587 3 discriminator 2 view .LVU285
 587:/home/pi/Developer/tinyusb/src/device/usbd.c **** }
 1355              		.loc 1 587 10 is_stmt 0 discriminator 2 view .LVU286
 1356 0096 00E0     		b	.L87
 1357              	.LVL62:
 1358              	.L96:
 526:/home/pi/Developer/tinyusb/src/device/usbd.c ****   }
 1359              		.loc 1 526 12 view .LVU287
 1360 0098 0124     		movs	r4, #1
 1361              	.LVL63:
 1362              	.L87:
 588:/home/pi/Developer/tinyusb/src/device/usbd.c **** 
 1363              		.loc 1 588 1 view .LVU288
 1364 009a 2046     		mov	r0, r4
 1365 009c BDE8F087 		pop	{r4, r5, r6, r7, r8, r9, r10, pc}
 1366              	.LVL64:
 1367              	.L92:
 1368              	.LBB461:
 1369              	.LBB460:
 1370              	.LBB457:
 1371              	.LBB453:
ARM GAS  /tmp/cci2pXLM.s 			page 61


 588:/home/pi/Developer/tinyusb/src/device/usbd.c **** 
 1372              		.loc 1 588 1 view .LVU289
 1373 00a0 5346     		mov	r3, r10
 1374              	.LVL65:
 386:/home/pi/Developer/tinyusb/src/device/usbd.c ****       driver = &_usbd_driver[drvid];
 1375              		.loc 1 386 8 view .LVU290
 1376 00a2 E6D0     		beq	.L94
 1377              	.L93:
 386:/home/pi/Developer/tinyusb/src/device/usbd.c ****       driver = &_usbd_driver[drvid];
 1378              		.loc 1 386 8 view .LVU291
 1379              	.LBE453:
 1380              	.LBE457:
 576:/home/pi/Developer/tinyusb/src/device/usbd.c ****     TU_LOG_USBD("%s init\r\n", driver->name);
 1381              		.loc 1 576 5 is_stmt 1 discriminator 3 view .LVU292
 576:/home/pi/Developer/tinyusb/src/device/usbd.c ****     TU_LOG_USBD("%s init\r\n", driver->name);
 1382              		.loc 1 576 5 discriminator 3 view .LVU293
 576:/home/pi/Developer/tinyusb/src/device/usbd.c ****     TU_LOG_USBD("%s init\r\n", driver->name);
 1383              		.loc 1 576 5 discriminator 3 view .LVU294
 576:/home/pi/Developer/tinyusb/src/device/usbd.c ****     TU_LOG_USBD("%s init\r\n", driver->name);
 1384              		.loc 1 576 5 discriminator 3 view .LVU295
 1385              	.LBB458:
 576:/home/pi/Developer/tinyusb/src/device/usbd.c ****     TU_LOG_USBD("%s init\r\n", driver->name);
 1386              		.loc 1 576 5 discriminator 3 view .LVU296
 1387              	.LVL66:
 576:/home/pi/Developer/tinyusb/src/device/usbd.c ****     TU_LOG_USBD("%s init\r\n", driver->name);
 1388              		.loc 1 576 5 discriminator 3 view .LVU297
 1389 00a4 4FF0E023 		mov	r3, #-536813568
 1390 00a8 D3F8F03D 		ldr	r3, [r3, #3568]
 1391 00ac DA07     		lsls	r2, r3, #31
 1392 00ae 00D5     		bpl	.L116
 576:/home/pi/Developer/tinyusb/src/device/usbd.c ****     TU_LOG_USBD("%s init\r\n", driver->name);
 1393              		.loc 1 576 5 discriminator 5 view .LVU298
 1394              		.syntax unified
 1395              	@ 576 "/home/pi/Developer/tinyusb/src/device/usbd.c" 1
 1396 00b0 00BE     		BKPT #0
 1397              	
 1398              	@ 0 "" 2
 1399              	.LVL67:
 1400              		.thumb
 1401              		.syntax unified
 1402              	.L116:
 576:/home/pi/Developer/tinyusb/src/device/usbd.c ****     TU_LOG_USBD("%s init\r\n", driver->name);
 1403              		.loc 1 576 5 is_stmt 0 discriminator 5 view .LVU299
 1404              	.LBE458:
 1405 00b2 0024     		movs	r4, #0
 1406              	.LBE460:
 1407              	.LBE461:
 588:/home/pi/Developer/tinyusb/src/device/usbd.c **** 
 1408              		.loc 1 588 1 discriminator 5 view .LVU300
 1409 00b4 2046     		mov	r0, r4
 1410 00b6 BDE8F087 		pop	{r4, r5, r6, r7, r8, r9, r10, pc}
 1411              	.L120:
 584:/home/pi/Developer/tinyusb/src/device/usbd.c ****   dcd_int_enable(rhport);
 1412              		.loc 1 584 3 is_stmt 1 discriminator 1 view .LVU301
 584:/home/pi/Developer/tinyusb/src/device/usbd.c ****   dcd_int_enable(rhport);
 1413              		.loc 1 584 3 discriminator 1 view .LVU302
 584:/home/pi/Developer/tinyusb/src/device/usbd.c ****   dcd_int_enable(rhport);
ARM GAS  /tmp/cci2pXLM.s 			page 62


 1414              		.loc 1 584 3 discriminator 1 view .LVU303
 584:/home/pi/Developer/tinyusb/src/device/usbd.c ****   dcd_int_enable(rhport);
 1415              		.loc 1 584 3 discriminator 1 view .LVU304
 1416              	.LBB462:
 584:/home/pi/Developer/tinyusb/src/device/usbd.c ****   dcd_int_enable(rhport);
 1417              		.loc 1 584 3 discriminator 1 view .LVU305
 1418              	.LVL68:
 584:/home/pi/Developer/tinyusb/src/device/usbd.c ****   dcd_int_enable(rhport);
 1419              		.loc 1 584 3 discriminator 1 view .LVU306
 1420 00ba 4FF0E023 		mov	r3, #-536813568
 1421 00be D3F8F03D 		ldr	r3, [r3, #3568]
 1422 00c2 DB07     		lsls	r3, r3, #31
 1423 00c4 F5D5     		bpl	.L116
 584:/home/pi/Developer/tinyusb/src/device/usbd.c ****   dcd_int_enable(rhport);
 1424              		.loc 1 584 3 discriminator 3 view .LVU307
 1425              		.syntax unified
 1426              	@ 584 "/home/pi/Developer/tinyusb/src/device/usbd.c" 1
 1427 00c6 00BE     		BKPT #0
 1428              	
 1429              	@ 0 "" 2
 1430              		.thumb
 1431              		.syntax unified
 1432 00c8 E7E7     		b	.L87
 1433              	.L122:
 1434 00ca 00BF     		.align	2
 1435              	.L121:
 1436 00cc 00000000 		.word	.LANCHOR5
 1437 00d0 00000000 		.word	.LANCHOR1
 1438 00d4 00000000 		.word	.LANCHOR4
 1439 00d8 00000000 		.word	.LANCHOR0
 1440 00dc 00000000 		.word	.LANCHOR6
 1441 00e0 00000000 		.word	.LANCHOR3
 1442 00e4 00000000 		.word	.LANCHOR2
 1443 00e8 00000000 		.word	hidd_init
 1444              	.LBE462:
 1445              		.cfi_endproc
 1446              	.LFE457:
 1448              		.section	.text.tud_deinit,"ax",%progbits
 1449              		.align	1
 1450              		.p2align 2,,3
 1451              		.global	tud_deinit
 1452              		.syntax unified
 1453              		.thumb
 1454              		.thumb_func
 1455              		.fpu fpv5-d16
 1457              	tud_deinit:
 1458              	.LVL69:
 1459              	.LFB458:
 590:/home/pi/Developer/tinyusb/src/device/usbd.c ****   if (!tud_inited()) {
 1460              		.loc 1 590 33 view -0
 1461              		.cfi_startproc
 1462              		@ args = 0, pretend = 0, frame = 0
 1463              		@ frame_needed = 0, uses_anonymous_args = 0
 591:/home/pi/Developer/tinyusb/src/device/usbd.c ****     return true; // skip if not initialized
 1464              		.loc 1 591 3 view .LVU309
 1465              	.LBB463:
 1466              	.LBI463:
ARM GAS  /tmp/cci2pXLM.s 			page 63


 516:/home/pi/Developer/tinyusb/src/device/usbd.c ****   return _usbd_rhport != RHPORT_INVALID;
 1467              		.loc 1 516 6 view .LVU310
 1468              	.LBB464:
 517:/home/pi/Developer/tinyusb/src/device/usbd.c **** }
 1469              		.loc 1 517 3 view .LVU311
 1470              	.LBE464:
 1471              	.LBE463:
 590:/home/pi/Developer/tinyusb/src/device/usbd.c ****   if (!tud_inited()) {
 1472              		.loc 1 590 33 is_stmt 0 view .LVU312
 1473 0000 2DE9F047 		push	{r4, r5, r6, r7, r8, r9, r10, lr}
 1474              		.cfi_def_cfa_offset 32
 1475              		.cfi_offset 4, -32
 1476              		.cfi_offset 5, -28
 1477              		.cfi_offset 6, -24
 1478              		.cfi_offset 7, -20
 1479              		.cfi_offset 8, -16
 1480              		.cfi_offset 9, -12
 1481              		.cfi_offset 10, -8
 1482              		.cfi_offset 14, -4
 1483              	.LBB466:
 1484              	.LBB465:
 517:/home/pi/Developer/tinyusb/src/device/usbd.c **** }
 1485              		.loc 1 517 23 view .LVU313
 1486 0004 2A4D     		ldr	r5, .L145
 1487              	.LBE465:
 1488              	.LBE466:
 591:/home/pi/Developer/tinyusb/src/device/usbd.c ****     return true; // skip if not initialized
 1489              		.loc 1 591 6 view .LVU314
 1490 0006 2B78     		ldrb	r3, [r5]	@ zero_extendqisi2
 1491 0008 FF2B     		cmp	r3, #255
 1492 000a 3DD0     		beq	.L129
 595:/home/pi/Developer/tinyusb/src/device/usbd.c **** 
 1493              		.loc 1 595 58 is_stmt 1 view .LVU315
 597:/home/pi/Developer/tinyusb/src/device/usbd.c **** 
 1494              		.loc 1 597 3 view .LVU316
 1495 000c 0446     		mov	r4, r0
 597:/home/pi/Developer/tinyusb/src/device/usbd.c **** 
 1496              		.loc 1 597 17 is_stmt 0 view .LVU317
 1497 000e 294B     		ldr	r3, .L145+4
 1498 0010 1F7E     		ldrb	r7, [r3, #24]	@ zero_extendqisi2
 1499              	.LVL70:
 600:/home/pi/Developer/tinyusb/src/device/usbd.c ****   dcd_disconnect(rhport);
 1500              		.loc 1 600 3 is_stmt 1 view .LVU318
 1501 0012 FFF7FEFF 		bl	dcd_int_disable
 1502              	.LVL71:
 601:/home/pi/Developer/tinyusb/src/device/usbd.c ****   TU_ASSERT(dcd_deinit(rhport));
 1503              		.loc 1 601 3 view .LVU319
 1504 0016 2046     		mov	r0, r4
 1505 0018 FFF7FEFF 		bl	dcd_disconnect
 1506              	.LVL72:
 602:/home/pi/Developer/tinyusb/src/device/usbd.c **** 
 1507              		.loc 1 602 3 view .LVU320
 602:/home/pi/Developer/tinyusb/src/device/usbd.c **** 
 1508              		.loc 1 602 3 view .LVU321
 1509 001c 2046     		mov	r0, r4
 1510 001e FFF7FEFF 		bl	dcd_deinit
 1511              	.LVL73:
ARM GAS  /tmp/cci2pXLM.s 			page 64


 1512 0022 0446     		mov	r4, r0
 1513 0024 A0B3     		cbz	r0, .L126
 1514              	.LVL74:
 1515              	.LBB467:
 605:/home/pi/Developer/tinyusb/src/device/usbd.c ****     usbd_class_driver_t const* driver = get_driver(i);
 1516              		.loc 1 605 23 view .LVU322
 605:/home/pi/Developer/tinyusb/src/device/usbd.c ****     usbd_class_driver_t const* driver = get_driver(i);
 1517              		.loc 1 605 27 is_stmt 0 view .LVU323
 1518 0026 DFF89890 		ldr	r9, .L145+16
 1519 002a 99F80010 		ldrb	r1, [r9]	@ zero_extendqisi2
 605:/home/pi/Developer/tinyusb/src/device/usbd.c ****     usbd_class_driver_t const* driver = get_driver(i);
 1520              		.loc 1 605 3 view .LVU324
 1521 002e FF29     		cmp	r1, #255
 1522 0030 1FD0     		beq	.L133
 1523 0032 4FF00008 		mov	r8, #0
 1524              	.LBB468:
 1525              	.LBB469:
 1526              	.LBB470:
 1527 0036 204E     		ldr	r6, .L145+8
 383:/home/pi/Developer/tinyusb/src/device/usbd.c ****   } else{
 1528              		.loc 1 383 14 view .LVU325
 1529 0038 DFF888A0 		ldr	r10, .L145+20
 1530 003c 4346     		mov	r3, r8
 1531 003e 10E0     		b	.L127
 1532              	.LVL75:
 1533              	.L143:
 383:/home/pi/Developer/tinyusb/src/device/usbd.c ****   } else{
 1534              		.loc 1 383 12 view .LVU326
 1535 0040 DAF80030 		ldr	r3, [r10]
 1536              	.LVL76:
 391:/home/pi/Developer/tinyusb/src/device/usbd.c **** }
 1537              		.loc 1 391 3 is_stmt 1 view .LVU327
 391:/home/pi/Developer/tinyusb/src/device/usbd.c **** }
 1538              		.loc 1 391 3 is_stmt 0 view .LVU328
 1539              	.LBE470:
 1540              	.LBE469:
 607:/home/pi/Developer/tinyusb/src/device/usbd.c ****       TU_LOG_USBD("%s deinit\r\n", driver->name);
 1541              		.loc 1 607 5 is_stmt 1 view .LVU329
 607:/home/pi/Developer/tinyusb/src/device/usbd.c ****       TU_LOG_USBD("%s deinit\r\n", driver->name);
 1542              		.loc 1 607 7 is_stmt 0 view .LVU330
 1543 0044 13EB8203 		adds	r3, r3, r2, lsl #2
